ccopy_reg
_reconstructor
p1
(cnltk.classify.naivebayes
NaiveBayesClassifier
p2
c__builtin__
object
p3
NtRp4
(dp5
S'_labels'
p6
(lp7
S'Dimension'
p8
aS'LookAndShape'
p9
asS'_feature_probdist'
p10
(dp11
(S'Dimension'
p12
S'contains(what)'
tp13
g1
(cnltk.probability
ELEProbDist
p14
g3
NtRp15
(dp16
S'_gamma'
p17
F0.5
sS'_N'
p18
I51
sS'_freqdist'
p19
g1
(cnltk.probability
FreqDist
p20
c__builtin__
dict
p21
(dp22
NI33
sI01
I18
stRp23
(dp24
g18
I51
sS'_max_cache'
p25
NsS'_item_cache'
p26
NsS'_Nr_cache'
p27
NsbsS'_bins'
p28
I2
sS'_divisor'
p29
F52
sbs(S'Dimension'
p30
S'contains(a)'
tp31
g1
(g14
g3
NtRp32
(dp33
g17
F0.5
sg18
I51
sg19
g1
(g20
g21
(dp34
NI35
sI01
I16
stRp35
(dp36
g18
I51
sg25
Nsg26
Nsg27
Nsbsg28
I2
sg29
F52
sbs(g9
S'contains(india)'
p37
tp38
g1
(g14
g3
NtRp39
(dp40
g17
F0.5
sg18
I43
sg19
g1
(g20
g21
(dp41
NI43
stRp42
(dp43
g18
I43
sg25
Nsg26
Nsg27
Nsbsg28
I2
sg29
F44
sbs(S'Dimension'
p44
S"contains(what's)"
p45
tp46
g1
(g14
g3
NtRp47
(dp48
g17
F0.5
sg18
I51
sg19
g1
(g20
g21
(dp49
NI48
sI01
I3
stRp50
(dp51
g18
I51
sg25
Nsg26
Nsg27
Nsbsg28
I2
sg29
F52
sbs(g9
S'contains(chris)'
p52
tp53
g1
(g14
g3
NtRp54
(dp55
g17
F0.5
sg18
I43
sg19
g1
(g20
g21
(dp56
NI43
stRp57
(dp58
g18
I43
sg25
Nsg26
Nsg27
Nsbsg28
I2
sg29
F44
sbs(g9
S'contains(up)'
p59
tp60
g1
(g14
g3
NtRp61
(dp62
g17
F0.5
sg18
I43
sg19
g1
(g20
g21
(dp63
NI43
stRp64
(dp65
g18
I43
sg25
Nsg26
Nsg27
Nsbsg28
I2
sg29
F44
sbs(S'Dimension'
p66
S'contains(tallest)'
p67
tp68
g1
(g14
g3
NtRp69
(dp70
g17
F0.5
sg18
I51
sg19
g1
(g20
g21
(dp71
NI50
sI01
I1
stRp72
(dp73
g18
I51
sg25
Nsg26
Nsg27
Nsbsg28
I2
sg29
F52
sbs(S'Dimension'
p74
S'contains(dog)'
p75
tp76
g1
(g14
g3
NtRp77
(dp78
g17
F0.5
sg18
I51
sg19
g1
(g20
g21
(dp79
NI50
sI01
I1
stRp80
(dp81
g18
I51
sg25
Nsg26
Nsg27
Nsbsg28
I2
sg29
F52
sbs(g9
S'contains(here)'
p82
tp83
g1
(g14
g3
NtRp84
(dp85
g17
F0.5
sg18
I43
sg19
g1
(g20
g21
(dp86
NI43
stRp87
(dp88
g18
I43
sg25
Nsg26
Nsg27
Nsbsg28
I2
sg29
F44
sbs(S'Dimension'
p89
S'contains(distance)'
p90
tp91
g1
(g14
g3
NtRp92
(dp93
g17
F0.5
sg18
I51
sg19
g1
(g20
g21
(dp94
NI50
sI01
I1
stRp95
(dp96
g18
I51
sg25
Nsg26
Nsg27
Nsbsg28
I2
sg29
F52
sbs(S'Dimension'
p97
S'contains(from)'
p98
tp99
g1
(g14
g3
NtRp100
(dp101
g17
F0.5
sg18
I51
sg19
g1
(g20
g21
(dp102
NI45
sI01
I6
stRp103
(dp104
g18
I51
sg25
Nsg26
Nsg27
Nsbsg28
I2
sg29
F52
sbs(g8
S'contains(dresses)'
p105
tp106
g1
(g14
g3
NtRp107
(dp108
g17
F0.5
sg18
I51
sg19
g1
(g20
g21
(dp109
NI51
stRp110
(dp111
g18
I51
sg25
Nsg26
Nsg27
Nsbsg28
I2
sg29
F52
sbs(S'Dimension'
p112
S'contains(mm)'
p113
tp114
g1
(g14
g3
NtRp115
(dp116
g17
F0.5
sg18
I51
sg19
g1
(g20
g21
(dp117
NI50
sI01
I1
stRp118
(dp119
g18
I51
sg25
Nsg26
Nsg27
Nsbsg28
I2
sg29
F52
sbs(S'Dimension'
p120
S'contains(scale)'
p121
tp122
g1
(g14
g3
NtRp123
(dp124
g17
F0.5
sg18
I51
sg19
g1
(g20
g21
(dp125
NI50
sI01
I1
stRp126
(dp127
g18
I51
sg25
Nsg26
Nsg27
Nsbsg28
I2
sg29
F52
sbs(S'LookAndShape'
p128
S'contains(to)'
tp129
g1
(g14
g3
NtRp130
(dp131
g17
F0.5
sg18
I43
sg19
g1
(g20
g21
(dp132
NI42
sI01
I1
stRp133
(dp134
g18
I43
sg25
Nsg26
Nsg27
Nsbsg28
I2
sg29
F44
sbs(S'Dimension'
p135
S'contains(car)'
p136
tp137
g1
(g14
g3
NtRp138
(dp139
g17
F0.5
sg18
I51
sg19
g1
(g20
g21
(dp140
NI50
sI01
I1
stRp141
(dp142
g18
I51
sg25
Nsg26
Nsg27
Nsbsg28
I2
sg29
F52
sbs(S'LookAndShape'
p143
S'contains(beautiful)'
p144
tp145
g1
(g14
g3
NtRp146
(dp147
g17
F0.5
sg18
I43
sg19
g1
(g20
g21
(dp148
NI42
sI01
I1
stRp149
(dp150
g18
I43
sg25
Nsg26
Nsg27
Nsbsg28
I2
sg29
F44
sbs(S'LookAndShape'
S'contains(sweatshirt)'
p151
tp152
g1
(g14
g3
NtRp153
(dp154
g17
F0.5
sg18
I43
sg19
g1
(g20
g21
(dp155
NI42
sI01
I1
stRp156
(dp157
g18
I43
sg25
Nsg26
Nsg27
Nsbsg28
I2
sg29
F44
sbs(g8
S'contains(ball)'
p158
tp159
g1
(g14
g3
NtRp160
(dp161
g17
F0.5
sg18
I51
sg19
g1
(g20
g21
(dp162
NI51
stRp163
(dp164
g18
I51
sg25
Nsg26
Nsg27
Nsbsg28
I2
sg29
F52
sbs(g8
S'contains(bag)'
p165
tp166
g1
(g14
g3
NtRp167
(dp168
g17
F0.5
sg18
I51
sg19
g1
(g20
g21
(dp169
NI51
stRp170
(dp171
g18
I51
sg25
Nsg26
Nsg27
Nsbsg28
I2
sg29
F52
sbs(g9
S'contains(become)'
p172
tp173
g1
(g14
g3
NtRp174
(dp175
g17
F0.5
sg18
I43
sg19
g1
(g20
g21
(dp176
NI43
stRp177
(dp178
g18
I43
sg25
Nsg26
Nsg27
Nsbsg28
I2
sg29
F44
sbs(g8
S'contains(makes)'
p179
tp180
g1
(g14
g3
NtRp181
(dp182
g17
F0.5
sg18
I51
sg19
g1
(g20
g21
(dp183
NI51
stRp184
(dp185
g18
I51
sg25
Nsg26
Nsg27
Nsbsg28
I2
sg29
F52
sbs(g9
S'contains(lisbon)'
p186
tp187
g1
(g14
g3
NtRp188
(dp189
g17
F0.5
sg18
I43
sg19
g1
(g20
g21
(dp190
NI43
stRp191
(dp192
g18
I43
sg25
Nsg26
Nsg27
Nsbsg28
I2
sg29
F44
sbs(g9
S"contains(napoleon's)"
p193
tp194
g1
(g14
g3
NtRp195
(dp196
g17
F0.5
sg18
I43
sg19
g1
(g20
g21
(dp197
NI43
stRp198
(dp199
g18
I43
sg25
Nsg26
Nsg27
Nsbsg28
I2
sg29
F44
sbs(S'LookAndShape'
p200
S'contains(look)'
p201
tp202
g1
(g14
g3
NtRp203
(dp204
g17
F0.5
sg18
I43
sg19
g1
(g20
g21
(dp205
NI30
sI01
I13
stRp206
(dp207
g18
I43
sg25
Nsg26
Nsg27
Nsbsg28
I2
sg29
F44
sbs(g9
S'contains(you)'
p208
tp209
g1
(g14
g3
NtRp210
(dp211
g17
F0.5
sg18
I43
sg19
g1
(g20
g21
(dp212
NI43
stRp213
(dp214
g18
I43
sg25
Nsg26
Nsg27
Nsbsg28
I2
sg29
F44
sbs(S'Dimension'
p215
g172
tp216
g1
(g14
g3
NtRp217
(dp218
g17
F0.5
sg18
I51
sg19
g1
(g20
g21
(dp219
NI49
sI01
I2
stRp220
(dp221
g18
I51
sg25
Nsg26
Nsg27
Nsbsg28
I2
sg29
F52
sbs(S'Dimension'
p222
S'contains(amazon)'
p223
tp224
g1
(g14
g3
NtRp225
(dp226
g17
F0.5
sg18
I51
sg19
g1
(g20
g21
(dp227
NI50
sI01
I1
stRp228
(dp229
g18
I51
sg25
Nsg26
Nsg27
Nsbsg28
I2
sg29
F52
sbs(g9
S'contains(fly)'
p230
tp231
g1
(g14
g3
NtRp232
(dp233
g17
F0.5
sg18
I43
sg19
g1
(g20
g21
(dp234
NI43
stRp235
(dp236
g18
I43
sg25
Nsg26
Nsg27
Nsbsg28
I2
sg29
F44
sbs(S'LookAndShape'
S'contains(clocks)'
p237
tp238
g1
(g14
g3
NtRp239
(dp240
g17
F0.5
sg18
I43
sg19
g1
(g20
g21
(dp241
NI42
sI01
I1
stRp242
(dp243
g18
I43
sg25
Nsg26
Nsg27
Nsbsg28
I2
sg29
F44
sbs(g74
S'contains(to)'
tp244
g1
(g14
g3
NtRp245
(dp246
g17
F0.5
sg18
I51
sg19
g1
(g20
g21
(dp247
NI46
sI01
I5
stRp248
(dp249
g18
I51
sg25
Nsg26
Nsg27
Nsbsg28
I2
sg29
F52
sbs(S'Dimension'
p250
S"contains(einstein's)"
p251
tp252
g1
(g14
g3
NtRp253
(dp254
g17
F0.5
sg18
I51
sg19
g1
(g20
g21
(dp255
NI50
sI01
I1
stRp256
(dp257
g18
I51
sg25
Nsg26
Nsg27
Nsbsg28
I2
sg29
F52
sbs(g200
S'contains(glass)'
p258
tp259
g1
(g14
g3
NtRp260
(dp261
g17
F0.5
sg18
I43
sg19
g1
(g20
g21
(dp262
NI42
sI01
I1
stRp263
(dp264
g18
I43
sg25
Nsg26
Nsg27
Nsbsg28
I2
sg29
F44
sbs(g9
g223
tp265
g1
(g14
g3
NtRp266
(dp267
g17
F0.5
sg18
I43
sg19
g1
(g20
g21
(dp268
NI43
stRp269
(dp270
g18
I43
sg25
Nsg26
Nsg27
Nsbsg28
I2
sg29
F44
sbs(S'LookAndShape'
p271
S'contains(scissor)'
p272
tp273
g1
(g14
g3
NtRp274
(dp275
g17
F0.5
sg18
I43
sg19
g1
(g20
g21
(dp276
NI42
sI01
I1
stRp277
(dp278
g18
I43
sg25
Nsg26
Nsg27
Nsbsg28
I2
sg29
F44
sbs(S'Dimension'
p279
S'contains(near)'
p280
tp281
g1
(g14
g3
NtRp282
(dp283
g17
F0.5
sg18
I51
sg19
g1
(g20
g21
(dp284
NI48
sI01
I3
stRp285
(dp286
g18
I51
sg25
Nsg26
Nsg27
Nsbsg28
I2
sg29
F52
sbs(g9
S'contains(old)'
p287
tp288
g1
(g14
g3
NtRp289
(dp290
g17
F0.5
sg18
I43
sg19
g1
(g20
g21
(dp291
NI43
stRp292
(dp293
g18
I43
sg25
Nsg26
Nsg27
Nsbsg28
I2
sg29
F44
sbs(g9
S'contains(world)'
p294
tp295
g1
(g14
g3
NtRp296
(dp297
g17
F0.5
sg18
I43
sg19
g1
(g20
g21
(dp298
NI43
stRp299
(dp300
g18
I43
sg25
Nsg26
Nsg27
Nsbsg28
I2
sg29
F44
sbs(g12
S'contains(average)'
p301
tp302
g1
(g14
g3
NtRp303
(dp304
g17
F0.5
sg18
I51
sg19
g1
(g20
g21
(dp305
NI49
sI01
I2
stRp306
(dp307
g18
I51
sg25
Nsg26
Nsg27
Nsbsg28
I2
sg29
F52
sbs(g8
S'contains(clothes)'
p308
tp309
g1
(g14
g3
NtRp310
(dp311
g17
F0.5
sg18
I51
sg19
g1
(g20
g21
(dp312
NI51
stRp313
(dp314
g18
I51
sg25
Nsg26
Nsg27
Nsbsg28
I2
sg29
F52
sbs(g8
S'contains(contour)'
p315
tp316
g1
(g14
g3
NtRp317
(dp318
g17
F0.5
sg18
I51
sg19
g1
(g20
g21
(dp319
NI51
stRp320
(dp321
g18
I51
sg25
Nsg26
Nsg27
Nsbsg28
I2
sg29
F52
sbs(S'LookAndShape'
p322
S'contains(atom)'
p323
tp324
g1
(g14
g3
NtRp325
(dp326
g17
F0.5
sg18
I43
sg19
g1
(g20
g21
(dp327
NI42
sI01
I1
stRp328
(dp329
g18
I43
sg25
Nsg26
Nsg27
Nsbsg28
I2
sg29
F44
sbs(g9
S'contains(what)'
tp330
g1
(g14
g3
NtRp331
(dp332
g17
F0.5
sg18
I43
sg19
g1
(g20
g21
(dp333
NI13
sI01
I30
stRp334
(dp335
g18
I43
sg25
Nsg26
Nsg27
Nsbsg28
I2
sg29
F44
sbs(g9
S'contains(benches)'
p336
tp337
g1
(g14
g3
NtRp338
(dp339
g17
F0.5
sg18
I43
sg19
g1
(g20
g21
(dp340
NI42
sI01
I1
stRp341
(dp342
g18
I43
sg25
Nsg26
Nsg27
Nsbsg28
I2
sg29
F44
sbs(g9
S'contains(tiny)'
p343
tp344
g1
(g14
g3
NtRp345
(dp346
g17
F0.5
sg18
I43
sg19
g1
(g20
g21
(dp347
NI43
stRp348
(dp349
g18
I43
sg25
Nsg26
Nsg27
Nsbsg28
I2
sg29
F44
sbs(g74
g59
tp350
g1
(g14
g3
NtRp351
(dp352
g17
F0.5
sg18
I51
sg19
g1
(g20
g21
(dp353
NI50
sI01
I1
stRp354
(dp355
g18
I51
sg25
Nsg26
Nsg27
Nsbsg28
I2
sg29
F52
sbs(g8
g151
tp356
g1
(g14
g3
NtRp357
(dp358
g17
F0.5
sg18
I51
sg19
g1
(g20
g21
(dp359
NI51
stRp360
(dp361
g18
I51
sg25
Nsg26
Nsg27
Nsbsg28
I2
sg29
F52
sbs(S'LookAndShape'
p362
S'contains(bicycle)'
p363
tp364
g1
(g14
g3
NtRp365
(dp366
g17
F0.5
sg18
I43
sg19
g1
(g20
g21
(dp367
NI42
sI01
I1
stRp368
(dp369
g18
I43
sg25
Nsg26
Nsg27
Nsbsg28
I2
sg29
F44
sbs(g271
S'contains(is)'
tp370
g1
(g14
g3
NtRp371
(dp372
g17
F0.5
sg18
I43
sg19
g1
(g20
g21
(dp373
NI25
sI01
I18
stRp374
(dp375
g18
I43
sg25
Nsg26
Nsg27
Nsbsg28
I2
sg29
F44
sbs(S'Dimension'
p376
S'contains(madrid)'
p377
tp378
g1
(g14
g3
NtRp379
(dp380
g17
F0.5
sg18
I51
sg19
g1
(g20
g21
(dp381
NI50
sI01
I1
stRp382
(dp383
g18
I51
sg25
Nsg26
Nsg27
Nsbsg28
I2
sg29
F52
sbs(S'Dimension'
p384
S'contains(planet)'
p385
tp386
g1
(g14
g3
NtRp387
(dp388
g17
F0.5
sg18
I51
sg19
g1
(g20
g21
(dp389
NI50
sI01
I1
stRp390
(dp391
g18
I51
sg25
Nsg26
Nsg27
Nsbsg28
I2
sg29
F52
sbs(S'Dimension'
p392
S'contains(her)'
p393
tp394
g1
(g14
g3
NtRp395
(dp396
g17
F0.5
sg18
I51
sg19
g1
(g20
g21
(dp397
NI50
sI01
I1
stRp398
(dp399
g18
I51
sg25
Nsg26
Nsg27
Nsbsg28
I2
sg29
F52
sbs(S'Dimension'
p400
S'contains(squirrel)'
p401
tp402
g1
(g14
g3
NtRp403
(dp404
g17
F0.5
sg18
I51
sg19
g1
(g20
g21
(dp405
NI50
sI01
I1
stRp406
(dp407
g18
I51
sg25
Nsg26
Nsg27
Nsbsg28
I2
sg29
F52
sbs(S'Dimension'
p408
S'contains(california)'
p409
tp410
g1
(g14
g3
NtRp411
(dp412
g17
F0.5
sg18
I51
sg19
g1
(g20
g21
(dp413
NI50
sI01
I1
stRp414
(dp415
g18
I51
sg25
Nsg26
Nsg27
Nsbsg28
I2
sg29
F52
sbs(g8
S'contains(jeans)'
p416
tp417
g1
(g14
g3
NtRp418
(dp419
g17
F0.5
sg18
I51
sg19
g1
(g20
g21
(dp420
NI51
stRp421
(dp422
g18
I51
sg25
Nsg26
Nsg27
Nsbsg28
I2
sg29
F52
sbs(g12
S'contains(person)'
tp423
g1
(g14
g3
NtRp424
(dp425
g17
F0.5
sg18
I51
sg19
g1
(g20
g21
(dp426
NI50
sI01
I1
stRp427
(dp428
g18
I51
sg25
Nsg26
Nsg27
Nsbsg28
I2
sg29
F52
sbs(g9
g67
tp429
g1
(g14
g3
NtRp430
(dp431
g17
F0.5
sg18
I43
sg19
g1
(g20
g21
(dp432
NI43
stRp433
(dp434
g18
I43
sg25
Nsg26
Nsg27
Nsbsg28
I2
sg29
F44
sbs(g9
S'contains(earth)'
p435
tp436
g1
(g14
g3
NtRp437
(dp438
g17
F0.5
sg18
I43
sg19
g1
(g20
g21
(dp439
NI43
stRp440
(dp441
g18
I43
sg25
Nsg26
Nsg27
Nsbsg28
I2
sg29
F44
sbs(S'Dimension'
p442
g52
tp443
g1
(g14
g3
NtRp444
(dp445
g17
F0.5
sg18
I51
sg19
g1
(g20
g21
(dp446
NI50
sI01
I1
stRp447
(dp448
g18
I51
sg25
Nsg26
Nsg27
Nsbsg28
I2
sg29
F52
sbs(S'LookAndShape'
S'contains(bikes)'
p449
tp450
g1
(g14
g3
NtRp451
(dp452
g17
F0.5
sg18
I43
sg19
g1
(g20
g21
(dp453
NI42
sI01
I1
stRp454
(dp455
g18
I43
sg25
Nsg26
Nsg27
Nsbsg28
I2
sg29
F44
sbs(S'Dimension'
p456
S'contains(japan)'
p457
tp458
g1
(g14
g3
NtRp459
(dp460
g17
F0.5
sg18
I51
sg19
g1
(g20
g21
(dp461
NI50
sI01
I1
stRp462
(dp463
g18
I51
sg25
Nsg26
Nsg27
Nsbsg28
I2
sg29
F52
sbs(g97
g37
tp464
g1
(g14
g3
NtRp465
(dp466
g17
F0.5
sg18
I51
sg19
g1
(g20
g21
(dp467
NI49
sI01
I2
stRp468
(dp469
g18
I51
sg25
Nsg26
Nsg27
Nsbsg28
I2
sg29
F52
sbs(g143
S'contains(person)'
tp470
g1
(g14
g3
NtRp471
(dp472
g17
F0.5
sg18
I43
sg19
g1
(g20
g21
(dp473
NI41
sI01
I2
stRp474
(dp475
g18
I43
sg25
Nsg26
Nsg27
Nsbsg28
I2
sg29
F44
sbs(g271
S'contains(a)'
tp476
g1
(g14
g3
NtRp477
(dp478
g17
F0.5
sg18
I43
sg19
g1
(g20
g21
(dp479
NI26
sI01
I17
stRp480
(dp481
g18
I43
sg25
Nsg26
Nsg27
Nsbsg28
I2
sg29
F44
sbs(g9
S'contains(big)'
p482
tp483
g1
(g14
g3
NtRp484
(dp485
g17
F0.5
sg18
I43
sg19
g1
(g20
g21
(dp486
NI43
stRp487
(dp488
g18
I43
sg25
Nsg26
Nsg27
Nsbsg28
I2
sg29
F44
sbs(g8
S'contains(form)'
p489
tp490
g1
(g14
g3
NtRp491
(dp492
g17
F0.5
sg18
I51
sg19
g1
(g20
g21
(dp493
NI51
stRp494
(dp495
g18
I51
sg25
Nsg26
Nsg27
Nsbsg28
I2
sg29
F52
sbs(g8
S'contains(draw)'
p496
tp497
g1
(g14
g3
NtRp498
(dp499
g17
F0.5
sg18
I51
sg19
g1
(g20
g21
(dp500
NI51
stRp501
(dp502
g18
I51
sg25
Nsg26
Nsg27
Nsbsg28
I2
sg29
F52
sbs(g9
g280
tp503
g1
(g14
g3
NtRp504
(dp505
g17
F0.5
sg18
I43
sg19
g1
(g20
g21
(dp506
NI43
stRp507
(dp508
g18
I43
sg25
Nsg26
Nsg27
Nsbsg28
I2
sg29
F44
sbs(S'Dimension'
p509
S'contains(without)'
p510
tp511
g1
(g14
g3
NtRp512
(dp513
g17
F0.5
sg18
I51
sg19
g1
(g20
g21
(dp514
NI50
sI01
I1
stRp515
(dp516
g18
I51
sg25
Nsg26
Nsg27
Nsbsg28
I2
sg29
F52
sbs(g509
S'contains(touching)'
p517
tp518
g1
(g14
g3
NtRp519
(dp520
g17
F0.5
sg18
I51
sg19
g1
(g20
g21
(dp521
NI50
sI01
I1
stRp522
(dp523
g18
I51
sg25
Nsg26
Nsg27
Nsbsg28
I2
sg29
F52
sbs(S'Dimension'
p524
S'contains(go)'
p525
tp526
g1
(g14
g3
NtRp527
(dp528
g17
F0.5
sg18
I51
sg19
g1
(g20
g21
(dp529
NI50
sI01
I1
stRp530
(dp531
g18
I51
sg25
Nsg26
Nsg27
Nsbsg28
I2
sg29
F52
sbs(g9
g525
tp532
g1
(g14
g3
NtRp533
(dp534
g17
F0.5
sg18
I43
sg19
g1
(g20
g21
(dp535
NI43
stRp536
(dp537
g18
I43
sg25
Nsg26
Nsg27
Nsbsg28
I2
sg29
F44
sbs(g8
S'contains(stairs)'
p538
tp539
g1
(g14
g3
NtRp540
(dp541
g17
F0.5
sg18
I51
sg19
g1
(g20
g21
(dp542
NI51
stRp543
(dp544
g18
I51
sg25
Nsg26
Nsg27
Nsbsg28
I2
sg29
F52
sbs(g9
S'contains(pakistan)'
p545
tp546
g1
(g14
g3
NtRp547
(dp548
g17
F0.5
sg18
I43
sg19
g1
(g20
g21
(dp549
NI43
stRp550
(dp551
g18
I43
sg25
Nsg26
Nsg27
Nsbsg28
I2
sg29
F44
sbs(g392
S'contains(tall)'
p552
tp553
g1
(g14
g3
NtRp554
(dp555
g17
F0.5
sg18
I51
sg19
g1
(g20
g21
(dp556
NI47
sI01
I4
stRp557
(dp558
g18
I51
sg25
Nsg26
Nsg27
Nsbsg28
I2
sg29
F52
sbs(g8
S'contains(doll)'
p559
tp560
g1
(g14
g3
NtRp561
(dp562
g17
F0.5
sg18
I51
sg19
g1
(g20
g21
(dp563
NI51
stRp564
(dp565
g18
I51
sg25
Nsg26
Nsg27
Nsbsg28
I2
sg29
F52
sbs(S'LookAndShape'
S'contains(stripper)'
p566
tp567
g1
(g14
g3
NtRp568
(dp569
g17
F0.5
sg18
I43
sg19
g1
(g20
g21
(dp570
NI42
sI01
I1
stRp571
(dp572
g18
I43
sg25
Nsg26
Nsg27
Nsbsg28
I2
sg29
F44
sbs(S'Dimension'
p573
S'contains(mountain)'
p574
tp575
g1
(g14
g3
NtRp576
(dp577
g17
F0.5
sg18
I51
sg19
g1
(g20
g21
(dp578
NI50
sI01
I1
stRp579
(dp580
g18
I51
sg25
Nsg26
Nsg27
Nsbsg28
I2
sg29
F52
sbs(g9
S'contains(bird)'
p581
tp582
g1
(g14
g3
NtRp583
(dp584
g17
F0.5
sg18
I43
sg19
g1
(g20
g21
(dp585
NI43
stRp586
(dp587
g18
I43
sg25
Nsg26
Nsg27
Nsbsg28
I2
sg29
F44
sbs(g215
S'contains(shirt)'
p588
tp589
g1
(g14
g3
NtRp590
(dp591
g17
F0.5
sg18
I51
sg19
g1
(g20
g21
(dp592
NI49
sI01
I2
stRp593
(dp594
g18
I51
sg25
Nsg26
Nsg27
Nsbsg28
I2
sg29
F52
sbs(g9
S'contains(fiji)'
p595
tp596
g1
(g14
g3
NtRp597
(dp598
g17
F0.5
sg18
I43
sg19
g1
(g20
g21
(dp599
NI43
stRp600
(dp601
g18
I43
sg25
Nsg26
Nsg27
Nsbsg28
I2
sg29
F44
sbs(S'LookAndShape'
p602
g179
tp603
g1
(g14
g3
NtRp604
(dp605
g17
F0.5
sg18
I43
sg19
g1
(g20
g21
(dp606
NI41
sI01
I2
stRp607
(dp608
g18
I43
sg25
Nsg26
Nsg27
Nsbsg28
I2
sg29
F44
sbs(S'LookAndShape'
S'contains(model)'
p609
tp610
g1
(g14
g3
NtRp611
(dp612
g17
F0.5
sg18
I43
sg19
g1
(g20
g21
(dp613
NI42
sI01
I1
stRp614
(dp615
g18
I43
sg25
Nsg26
Nsg27
Nsbsg28
I2
sg29
F44
sbs(S'Dimension'
p616
S"contains(person's)"
p617
tp618
g1
(g14
g3
NtRp619
(dp620
g17
F0.5
sg18
I51
sg19
g1
(g20
g21
(dp621
NI50
sI01
I1
stRp622
(dp623
g18
I51
sg25
Nsg26
Nsg27
Nsbsg28
I2
sg29
F52
sbs(g8
S'contains(do)'
p624
tp625
g1
(g14
g3
NtRp626
(dp627
g17
F0.5
sg18
I51
sg19
g1
(g20
g21
(dp628
NI51
stRp629
(dp630
g18
I51
sg25
Nsg26
Nsg27
Nsbsg28
I2
sg29
F52
sbs(S'Dimension'
S'contains(they)'
p631
tp632
g1
(g14
g3
NtRp633
(dp634
g17
F0.5
sg18
I51
sg19
g1
(g20
g21
(dp635
NI50
sI01
I1
stRp636
(dp637
g18
I51
sg25
Nsg26
Nsg27
Nsbsg28
I2
sg29
F52
sbs(g74
S'contains(grow)'
p638
tp639
g1
(g14
g3
NtRp640
(dp641
g17
F0.5
sg18
I51
sg19
g1
(g20
g21
(dp642
NI50
sI01
I1
stRp643
(dp644
g18
I51
sg25
Nsg26
Nsg27
Nsbsg28
I2
sg29
F52
sbs(g322
S'contains(structure)'
p645
tp646
g1
(g14
g3
NtRp647
(dp648
g17
F0.5
sg18
I43
sg19
g1
(g20
g21
(dp649
NI41
sI01
I2
stRp650
(dp651
g18
I43
sg25
Nsg26
Nsg27
Nsbsg28
I2
sg29
F44
sbs(S'LookAndShape'
p652
S'contains(silhouette)'
p653
tp654
g1
(g14
g3
NtRp655
(dp656
g17
F0.5
sg18
I43
sg19
g1
(g20
g21
(dp657
NI42
sI01
I1
stRp658
(dp659
g18
I43
sg25
Nsg26
Nsg27
Nsbsg28
I2
sg29
F44
sbs(g9
S'contains(soccer)'
p660
tp661
g1
(g14
g3
NtRp662
(dp663
g17
F0.5
sg18
I43
sg19
g1
(g20
g21
(dp664
NI43
stRp665
(dp666
g18
I43
sg25
Nsg26
Nsg27
Nsbsg28
I2
sg29
F44
sbs(S'LookAndShape'
S'contains(bottles)'
p667
tp668
g1
(g14
g3
NtRp669
(dp670
g17
F0.5
sg18
I43
sg19
g1
(g20
g21
(dp671
NI42
sI01
I1
stRp672
(dp673
g18
I43
sg25
Nsg26
Nsg27
Nsbsg28
I2
sg29
F44
sbs(g9
S'contains(biggest)'
p674
tp675
g1
(g14
g3
NtRp676
(dp677
g17
F0.5
sg18
I43
sg19
g1
(g20
g21
(dp678
NI43
stRp679
(dp680
g18
I43
sg25
Nsg26
Nsg27
Nsbsg28
I2
sg29
F44
sbs(g9
S'contains(short)'
p681
tp682
g1
(g14
g3
NtRp683
(dp684
g17
F0.5
sg18
I43
sg19
g1
(g20
g21
(dp685
NI43
stRp686
(dp687
g18
I43
sg25
Nsg26
Nsg27
Nsbsg28
I2
sg29
F44
sbs(S'LookAndShape'
S'contains(pen)'
p688
tp689
g1
(g14
g3
NtRp690
(dp691
g17
F0.5
sg18
I43
sg19
g1
(g20
g21
(dp692
NI42
sI01
I1
stRp693
(dp694
g18
I43
sg25
Nsg26
Nsg27
Nsbsg28
I2
sg29
F44
sbs(S'LookAndShape'
p695
S'contains(of)'
tp696
g1
(g14
g3
NtRp697
(dp698
g17
F0.5
sg18
I43
sg19
g1
(g20
g21
(dp699
NI35
sI01
I8
stRp700
(dp701
g18
I43
sg25
Nsg26
Nsg27
Nsbsg28
I2
sg29
F44
sbs(g456
S'contains(it)'
p702
tp703
g1
(g14
g3
NtRp704
(dp705
g17
F0.5
sg18
I51
sg19
g1
(g20
g21
(dp706
NI50
sI01
I1
stRp707
(dp708
g18
I51
sg25
Nsg26
Nsg27
Nsbsg28
I2
sg29
F52
sbs(g9
g45
tp709
g1
(g14
g3
NtRp710
(dp711
g17
F0.5
sg18
I43
sg19
g1
(g20
g21
(dp712
NI43
stRp713
(dp714
g18
I43
sg25
Nsg26
Nsg27
Nsbsg28
I2
sg29
F44
sbs(g279
S'contains(lightnings)'
p715
tp716
g1
(g14
g3
NtRp717
(dp718
g17
F0.5
sg18
I51
sg19
g1
(g20
g21
(dp719
NI50
sI01
I1
stRp720
(dp721
g18
I51
sg25
Nsg26
Nsg27
Nsbsg28
I2
sg29
F52
sbs(g9
S'contains(mount)'
p722
tp723
g1
(g14
g3
NtRp724
(dp725
g17
F0.5
sg18
I43
sg19
g1
(g20
g21
(dp726
NI43
stRp727
(dp728
g18
I43
sg25
Nsg26
Nsg27
Nsbsg28
I2
sg29
F44
sbs(g9
S'contains(arc)'
p729
tp730
g1
(g14
g3
NtRp731
(dp732
g17
F0.5
sg18
I43
sg19
g1
(g20
g21
(dp733
NI43
stRp734
(dp735
g18
I43
sg25
Nsg26
Nsg27
Nsbsg28
I2
sg29
F44
sbs(S'LookAndShape'
S'contains(buildings)'
p736
tp737
g1
(g14
g3
NtRp738
(dp739
g17
F0.5
sg18
I43
sg19
g1
(g20
g21
(dp740
NI42
sI01
I1
stRp741
(dp742
g18
I43
sg25
Nsg26
Nsg27
Nsbsg28
I2
sg29
F44
sbs(g524
g581
tp743
g1
(g14
g3
NtRp744
(dp745
g17
F0.5
sg18
I51
sg19
g1
(g20
g21
(dp746
NI50
sI01
I1
stRp747
(dp748
g18
I51
sg25
Nsg26
Nsg27
Nsbsg28
I2
sg29
F52
sbs(g9
g574
tp749
g1
(g14
g3
NtRp750
(dp751
g17
F0.5
sg18
I43
sg19
g1
(g20
g21
(dp752
NI43
stRp753
(dp754
g18
I43
sg25
Nsg26
Nsg27
Nsbsg28
I2
sg29
F44
sbs(g9
S'contains(are)'
tp755
g1
(g14
g3
NtRp756
(dp757
g17
F0.5
sg18
I43
sg19
g1
(g20
g21
(dp758
NI31
sI01
I12
stRp759
(dp760
g18
I43
sg25
Nsg26
Nsg27
Nsbsg28
I2
sg29
F44
sbs(g200
S'contains(does)'
tp761
g1
(g14
g3
NtRp762
(dp763
g17
F0.5
sg18
I43
sg19
g1
(g20
g21
(dp764
NI35
sI01
I8
stRp765
(dp766
g18
I43
sg25
Nsg26
Nsg27
Nsbsg28
I2
sg29
F44
sbs(g9
S'contains(capacity)'
p767
tp768
g1
(g14
g3
NtRp769
(dp770
g17
F0.5
sg18
I43
sg19
g1
(g20
g21
(dp771
NI43
stRp772
(dp773
g18
I43
sg25
Nsg26
Nsg27
Nsbsg28
I2
sg29
F44
sbs(g9
S'contains(field)'
p774
tp775
g1
(g14
g3
NtRp776
(dp777
g17
F0.5
sg18
I43
sg19
g1
(g20
g21
(dp778
NI43
stRp779
(dp780
g18
I43
sg25
Nsg26
Nsg27
Nsbsg28
I2
sg29
F44
sbs(g97
S'contains(far)'
p781
tp782
g1
(g14
g3
NtRp783
(dp784
g17
F0.5
sg18
I51
sg19
g1
(g20
g21
(dp785
NI45
sI01
I6
stRp786
(dp787
g18
I51
sg25
Nsg26
Nsg27
Nsbsg28
I2
sg29
F52
sbs(g8
S'contains(men)'
p788
tp789
g1
(g14
g3
NtRp790
(dp791
g17
F0.5
sg18
I51
sg19
g1
(g20
g21
(dp792
NI51
stRp793
(dp794
g18
I51
sg25
Nsg26
Nsg27
Nsbsg28
I2
sg29
F52
sbs(g112
S'contains(order)'
p795
tp796
g1
(g14
g3
NtRp797
(dp798
g17
F0.5
sg18
I51
sg19
g1
(g20
g21
(dp799
NI48
sI01
I3
stRp800
(dp801
g18
I51
sg25
Nsg26
Nsg27
Nsbsg28
I2
sg29
F52
sbs(g9
S'contains(stomach)'
p802
tp803
g1
(g14
g3
NtRp804
(dp805
g17
F0.5
sg18
I43
sg19
g1
(g20
g21
(dp806
NI43
stRp807
(dp808
g18
I43
sg25
Nsg26
Nsg27
Nsbsg28
I2
sg29
F44
sbs(g9
g795
tp809
g1
(g14
g3
NtRp810
(dp811
g17
F0.5
sg18
I43
sg19
g1
(g20
g21
(dp812
NI43
stRp813
(dp814
g18
I43
sg25
Nsg26
Nsg27
Nsbsg28
I2
sg29
F44
sbs(S'LookAndShape'
p815
S'contains(building)'
p816
tp817
g1
(g14
g3
NtRp818
(dp819
g17
F0.5
sg18
I43
sg19
g1
(g20
g21
(dp820
NI42
sI01
I1
stRp821
(dp822
g18
I43
sg25
Nsg26
Nsg27
Nsbsg28
I2
sg29
F44
sbs(g9
S'contains(water)'
p823
tp824
g1
(g14
g3
NtRp825
(dp826
g17
F0.5
sg18
I43
sg19
g1
(g20
g21
(dp827
NI43
stRp828
(dp829
g18
I43
sg25
Nsg26
Nsg27
Nsbsg28
I2
sg29
F44
sbs(g8
S'contains(shirts)'
p830
tp831
g1
(g14
g3
NtRp832
(dp833
g17
F0.5
sg18
I51
sg19
g1
(g20
g21
(dp834
NI51
stRp835
(dp836
g18
I51
sg25
Nsg26
Nsg27
Nsbsg28
I2
sg29
F52
sbs(g9
S'contains(hand)'
p837
tp838
g1
(g14
g3
NtRp839
(dp840
g17
F0.5
sg18
I43
sg19
g1
(g20
g21
(dp841
NI43
stRp842
(dp843
g18
I43
sg25
Nsg26
Nsg27
Nsbsg28
I2
sg29
F44
sbs(g9
S'contains(air)'
p844
tp845
g1
(g14
g3
NtRp846
(dp847
g17
F0.5
sg18
I43
sg19
g1
(g20
g21
(dp848
NI43
stRp849
(dp850
g18
I43
sg25
Nsg26
Nsg27
Nsbsg28
I2
sg29
F44
sbs(S'LookAndShape'
S'contains(hair)'
p851
tp852
g1
(g14
g3
NtRp853
(dp854
g17
F0.5
sg18
I43
sg19
g1
(g20
g21
(dp855
NI42
sI01
I1
stRp856
(dp857
g18
I43
sg25
Nsg26
Nsg27
Nsbsg28
I2
sg29
F44
sbs(g8
g851
tp858
g1
(g14
g3
NtRp859
(dp860
g17
F0.5
sg18
I51
sg19
g1
(g20
g21
(dp861
NI51
stRp862
(dp863
g18
I51
sg25
Nsg26
Nsg27
Nsbsg28
I2
sg29
F52
sbs(g8
S'contains(apple)'
p864
tp865
g1
(g14
g3
NtRp866
(dp867
g17
F0.5
sg18
I51
sg19
g1
(g20
g21
(dp868
NI51
stRp869
(dp870
g18
I51
sg25
Nsg26
Nsg27
Nsbsg28
I2
sg29
F52
sbs(g8
S'contains(lady)'
p871
tp872
g1
(g14
g3
NtRp873
(dp874
g17
F0.5
sg18
I51
sg19
g1
(g20
g21
(dp875
NI51
stRp876
(dp877
g18
I51
sg25
Nsg26
Nsg27
Nsbsg28
I2
sg29
F52
sbs(S'Dimension'
g823
tp878
g1
(g14
g3
NtRp879
(dp880
g17
F0.5
sg18
I51
sg19
g1
(g20
g21
(dp881
NI50
sI01
I1
stRp882
(dp883
g18
I51
sg25
Nsg26
Nsg27
Nsbsg28
I2
sg29
F52
sbs(g9
g715
tp884
g1
(g14
g3
NtRp885
(dp886
g17
F0.5
sg18
I43
sg19
g1
(g20
g21
(dp887
NI43
stRp888
(dp889
g18
I43
sg25
Nsg26
Nsg27
Nsbsg28
I2
sg29
F44
sbs(g9
g121
tp890
g1
(g14
g3
NtRp891
(dp892
g17
F0.5
sg18
I43
sg19
g1
(g20
g21
(dp893
NI43
stRp894
(dp895
g18
I43
sg25
Nsg26
Nsg27
Nsbsg28
I2
sg29
F44
sbs(g616
g802
tp896
g1
(g14
g3
NtRp897
(dp898
g17
F0.5
sg18
I51
sg19
g1
(g20
g21
(dp899
NI50
sI01
I1
stRp900
(dp901
g18
I51
sg25
Nsg26
Nsg27
Nsbsg28
I2
sg29
F52
sbs(g652
g871
tp902
g1
(g14
g3
NtRp903
(dp904
g17
F0.5
sg18
I43
sg19
g1
(g20
g21
(dp905
NI42
sI01
I1
stRp906
(dp907
g18
I43
sg25
Nsg26
Nsg27
Nsbsg28
I2
sg29
F44
sbs(S'Dimension'
p908
S'contains(regular)'
p909
tp910
g1
(g14
g3
NtRp911
(dp912
g17
F0.5
sg18
I51
sg19
g1
(g20
g21
(dp913
NI48
sI01
I3
stRp914
(dp915
g18
I51
sg25
Nsg26
Nsg27
Nsbsg28
I2
sg29
F52
sbs(g695
S'contains(the)'
tp916
g1
(g14
g3
NtRp917
(dp918
g17
F0.5
sg18
I43
sg19
g1
(g20
g21
(dp919
NI32
sI01
I11
stRp920
(dp921
g18
I43
sg25
Nsg26
Nsg27
Nsbsg28
I2
sg29
F44
sbs(S'Dimension'
p922
S'contains(of)'
tp923
g1
(g14
g3
NtRp924
(dp925
g17
F0.5
sg18
I51
sg19
g1
(g20
g21
(dp926
NI30
sI01
I21
stRp927
(dp928
g18
I51
sg25
Nsg26
Nsg27
Nsbsg28
I2
sg29
F52
sbs(g695
S'contains(shape)'
p929
tp930
g1
(g14
g3
NtRp931
(dp932
g17
F0.5
sg18
I43
sg19
g1
(g20
g21
(dp933
NI42
sI01
I1
stRp934
(dp935
g18
I43
sg25
Nsg26
Nsg27
Nsbsg28
I2
sg29
F44
sbs(g250
S'contains(feet)'
p936
tp937
g1
(g14
g3
NtRp938
(dp939
g17
F0.5
sg18
I51
sg19
g1
(g20
g21
(dp940
NI48
sI01
I3
stRp941
(dp942
g18
I51
sg25
Nsg26
Nsg27
Nsbsg28
I2
sg29
F52
sbs(S'Dimension'
p943
S'contains(inches)'
p944
tp945
g1
(g14
g3
NtRp946
(dp947
g17
F0.5
sg18
I51
sg19
g1
(g20
g21
(dp948
NI50
sI01
I1
stRp949
(dp950
g18
I51
sg25
Nsg26
Nsg27
Nsbsg28
I2
sg29
F52
sbs(g222
S'contains(extension)'
p951
tp952
g1
(g14
g3
NtRp953
(dp954
g17
F0.5
sg18
I51
sg19
g1
(g20
g21
(dp955
NI49
sI01
I2
stRp956
(dp957
g18
I51
sg25
Nsg26
Nsg27
Nsbsg28
I2
sg29
F52
sbs(g9
S'contains(can)'
p958
tp959
g1
(g14
g3
NtRp960
(dp961
g17
F0.5
sg18
I43
sg19
g1
(g20
g21
(dp962
NI43
stRp963
(dp964
g18
I43
sg25
Nsg26
Nsg27
Nsbsg28
I2
sg29
F44
sbs(S'Dimension'
p965
g660
tp966
g1
(g14
g3
NtRp967
(dp968
g17
F0.5
sg18
I51
sg19
g1
(g20
g21
(dp969
NI50
sI01
I1
stRp970
(dp971
g18
I51
sg25
Nsg26
Nsg27
Nsbsg28
I2
sg29
F52
sbs(g9
S'contains(kilowatt)'
p972
tp973
g1
(g14
g3
NtRp974
(dp975
g17
F0.5
sg18
I43
sg19
g1
(g20
g21
(dp976
NI43
stRp977
(dp978
g18
I43
sg25
Nsg26
Nsg27
Nsbsg28
I2
sg29
F44
sbs(g8
S'contains(folder)'
p979
tp980
g1
(g14
g3
NtRp981
(dp982
g17
F0.5
sg18
I51
sg19
g1
(g20
g21
(dp983
NI51
stRp984
(dp985
g18
I51
sg25
Nsg26
Nsg27
Nsbsg28
I2
sg29
F52
sbs(S'Dimension'
p986
S'contains(magnitude)'
p987
tp988
g1
(g14
g3
NtRp989
(dp990
g17
F0.5
sg18
I51
sg19
g1
(g20
g21
(dp991
NI47
sI01
I4
stRp992
(dp993
g18
I51
sg25
Nsg26
Nsg27
Nsbsg28
I2
sg29
F52
sbs(g8
g336
tp994
g1
(g14
g3
NtRp995
(dp996
g17
F0.5
sg18
I51
sg19
g1
(g20
g21
(dp997
NI51
stRp998
(dp999
g18
I51
sg25
Nsg26
Nsg27
Nsbsg28
I2
sg29
F52
sbs(g9
g617
tp1000
g1
(g14
g3
NtRp1001
(dp1002
g17
F0.5
sg18
I43
sg19
g1
(g20
g21
(dp1003
NI43
stRp1004
(dp1005
g18
I43
sg25
Nsg26
Nsg27
Nsbsg28
I2
sg29
F44
sbs(g8
g323
tp1006
g1
(g14
g3
NtRp1007
(dp1008
g17
F0.5
sg18
I51
sg19
g1
(g20
g21
(dp1009
NI51
stRp1010
(dp1011
g18
I51
sg25
Nsg26
Nsg27
Nsbsg28
I2
sg29
F52
sbs(S'Dimension'
p1012
S'contains(bug)'
p1013
tp1014
g1
(g14
g3
NtRp1015
(dp1016
g17
F0.5
sg18
I51
sg19
g1
(g20
g21
(dp1017
NI50
sI01
I1
stRp1018
(dp1019
g18
I51
sg25
Nsg26
Nsg27
Nsbsg28
I2
sg29
F52
sbs(g9
S'contains(?)'
tp1020
g1
(g14
g3
NtRp1021
(dp1022
g17
F0.5
sg18
I43
sg19
g1
(g20
g21
(dp1023
I01
I43
stRp1024
(dp1025
g18
I43
sg25
Nsg26
Nsg27
Nsbsg28
I2
sg29
F44
sbs(g9
S'contains(boston)'
p1026
tp1027
g1
(g14
g3
NtRp1028
(dp1029
g17
F0.5
sg18
I43
sg19
g1
(g20
g21
(dp1030
NI43
stRp1031
(dp1032
g18
I43
sg25
Nsg26
Nsg27
Nsbsg28
I2
sg29
F44
sbs(g8
S'contains(outline)'
p1033
tp1034
g1
(g14
g3
NtRp1035
(dp1036
g17
F0.5
sg18
I51
sg19
g1
(g20
g21
(dp1037
NI51
stRp1038
(dp1039
g18
I51
sg25
Nsg26
Nsg27
Nsbsg28
I2
sg29
F52
sbs(g9
g944
tp1040
g1
(g14
g3
NtRp1041
(dp1042
g17
F0.5
sg18
I43
sg19
g1
(g20
g21
(dp1043
NI43
stRp1044
(dp1045
g18
I43
sg25
Nsg26
Nsg27
Nsbsg28
I2
sg29
F44
sbs(S'Dimension'
S'contains(lamp)'
p1046
tp1047
g1
(g14
g3
NtRp1048
(dp1049
g17
F0.5
sg18
I51
sg19
g1
(g20
g21
(dp1050
NI50
sI01
I1
stRp1051
(dp1052
g18
I51
sg25
Nsg26
Nsg27
Nsbsg28
I2
sg29
F52
sbs(g400
S'contains(jump)'
p1053
tp1054
g1
(g14
g3
NtRp1055
(dp1056
g17
F0.5
sg18
I51
sg19
g1
(g20
g21
(dp1057
NI50
sI01
I1
stRp1058
(dp1059
g18
I51
sg25
Nsg26
Nsg27
Nsbsg28
I2
sg29
F52
sbs(g9
S'contains(highway)'
p1060
tp1061
g1
(g14
g3
NtRp1062
(dp1063
g17
F0.5
sg18
I43
sg19
g1
(g20
g21
(dp1064
NI43
stRp1065
(dp1066
g18
I43
sg25
Nsg26
Nsg27
Nsbsg28
I2
sg29
F44
sbs(g8
g929
tp1067
g1
(g14
g3
NtRp1068
(dp1069
g17
F0.5
sg18
I51
sg19
g1
(g20
g21
(dp1070
NI51
stRp1071
(dp1072
g18
I51
sg25
Nsg26
Nsg27
Nsbsg28
I2
sg29
F52
sbs(g8
g566
tp1073
g1
(g14
g3
NtRp1074
(dp1075
g17
F0.5
sg18
I51
sg19
g1
(g20
g21
(dp1076
NI51
stRp1077
(dp1078
g18
I51
sg25
Nsg26
Nsg27
Nsbsg28
I2
sg29
F52
sbs(g8
g667
tp1079
g1
(g14
g3
NtRp1080
(dp1081
g17
F0.5
sg18
I51
sg19
g1
(g20
g21
(dp1082
NI51
stRp1083
(dp1084
g18
I51
sg25
Nsg26
Nsg27
Nsbsg28
I2
sg29
F52
sbs(g30
S'contains(be)'
p1085
tp1086
g1
(g14
g3
NtRp1087
(dp1088
g17
F0.5
sg18
I51
sg19
g1
(g20
g21
(dp1089
NI46
sI01
I5
stRp1090
(dp1091
g18
I51
sg25
Nsg26
Nsg27
Nsbsg28
I2
sg29
F52
sbs(S'LookAndShape'
p1092
S'contains(ugly)'
p1093
tp1094
g1
(g14
g3
NtRp1095
(dp1096
g17
F0.5
sg18
I43
sg19
g1
(g20
g21
(dp1097
NI41
sI01
I2
stRp1098
(dp1099
g18
I43
sg25
Nsg26
Nsg27
Nsbsg28
I2
sg29
F44
sbs(g8
g258
tp1100
g1
(g14
g3
NtRp1101
(dp1102
g17
F0.5
sg18
I51
sg19
g1
(g20
g21
(dp1103
NI51
stRp1104
(dp1105
g18
I51
sg25
Nsg26
Nsg27
Nsbsg28
I2
sg29
F52
sbs(S'LookAndShape'
S'contains(snow)'
p1106
tp1107
g1
(g14
g3
NtRp1108
(dp1109
g17
F0.5
sg18
I43
sg19
g1
(g20
g21
(dp1110
NI42
sI01
I1
stRp1111
(dp1112
g18
I43
sg25
Nsg26
Nsg27
Nsbsg28
I2
sg29
F44
sbs(g215
S'contains(laundry)'
p1113
tp1114
g1
(g14
g3
NtRp1115
(dp1116
g17
F0.5
sg18
I51
sg19
g1
(g20
g21
(dp1117
NI49
sI01
I2
stRp1118
(dp1119
g18
I51
sg25
Nsg26
Nsg27
Nsbsg28
I2
sg29
F52
sbs(g922
S'contains(that)'
tp1120
g1
(g14
g3
NtRp1121
(dp1122
g17
F0.5
sg18
I51
sg19
g1
(g20
g21
(dp1123
NI48
sI01
I3
stRp1124
(dp1125
g18
I51
sg25
Nsg26
Nsg27
Nsbsg28
I2
sg29
F52
sbs(g9
S'contains(european)'
p1126
tp1127
g1
(g14
g3
NtRp1128
(dp1129
g17
F0.5
sg18
I43
sg19
g1
(g20
g21
(dp1130
NI43
stRp1131
(dp1132
g18
I43
sg25
Nsg26
Nsg27
Nsbsg28
I2
sg29
F44
sbs(g8
g449
tp1133
g1
(g14
g3
NtRp1134
(dp1135
g17
F0.5
sg18
I51
sg19
g1
(g20
g21
(dp1136
NI51
stRp1137
(dp1138
g18
I51
sg25
Nsg26
Nsg27
Nsbsg28
I2
sg29
F52
sbs(g456
S'contains(spain)'
p1139
tp1140
g1
(g14
g3
NtRp1141
(dp1142
g17
F0.5
sg18
I51
sg19
g1
(g20
g21
(dp1143
NI50
sI01
I1
stRp1144
(dp1145
g18
I51
sg25
Nsg26
Nsg27
Nsbsg28
I2
sg29
F52
sbs(g8
g201
tp1146
g1
(g14
g3
NtRp1147
(dp1148
g17
F0.5
sg18
I51
sg19
g1
(g20
g21
(dp1149
NI51
stRp1150
(dp1151
g18
I51
sg25
Nsg26
Nsg27
Nsbsg28
I2
sg29
F52
sbs(g215
S'contains(after)'
p1152
tp1153
g1
(g14
g3
NtRp1154
(dp1155
g17
F0.5
sg18
I51
sg19
g1
(g20
g21
(dp1156
NI49
sI01
I2
stRp1157
(dp1158
g18
I51
sg25
Nsg26
Nsg27
Nsbsg28
I2
sg29
F52
sbs(g97
g595
tp1159
g1
(g14
g3
NtRp1160
(dp1161
g17
F0.5
sg18
I51
sg19
g1
(g20
g21
(dp1162
NI50
sI01
I1
stRp1163
(dp1164
g18
I51
sg25
Nsg26
Nsg27
Nsbsg28
I2
sg29
F52
sbs(g9
g457
tp1165
g1
(g14
g3
NtRp1166
(dp1167
g17
F0.5
sg18
I43
sg19
g1
(g20
g21
(dp1168
NI43
stRp1169
(dp1170
g18
I43
sg25
Nsg26
Nsg27
Nsbsg28
I2
sg29
F44
sbs(g922
S'contains(size)'
p1171
tp1172
g1
(g14
g3
NtRp1173
(dp1174
g17
F0.5
sg18
I51
sg19
g1
(g20
g21
(dp1175
NI41
sI01
I10
stRp1176
(dp1177
g18
I51
sg25
Nsg26
Nsg27
Nsbsg28
I2
sg29
F52
sbs(g9
S'contains(london)'
p1178
tp1179
g1
(g14
g3
NtRp1180
(dp1181
g17
F0.5
sg18
I43
sg19
g1
(g20
g21
(dp1182
NI43
stRp1183
(dp1184
g18
I43
sg25
Nsg26
Nsg27
Nsbsg28
I2
sg29
F44
sbs(g986
S'contains(normal)'
p1185
tp1186
g1
(g14
g3
NtRp1187
(dp1188
g17
F0.5
sg18
I51
sg19
g1
(g20
g21
(dp1189
NI50
sI01
I1
stRp1190
(dp1191
g18
I51
sg25
Nsg26
Nsg27
Nsbsg28
I2
sg29
F52
sbs(S'Dimension'
p1192
S'contains(train)'
p1193
tp1194
g1
(g14
g3
NtRp1195
(dp1196
g17
F0.5
sg18
I51
sg19
g1
(g20
g21
(dp1197
NI50
sI01
I1
stRp1198
(dp1199
g18
I51
sg25
Nsg26
Nsg27
Nsbsg28
I2
sg29
F52
sbs(g9
g90
tp1200
g1
(g14
g3
NtRp1201
(dp1202
g17
F0.5
sg18
I43
sg19
g1
(g20
g21
(dp1203
NI43
stRp1204
(dp1205
g18
I43
sg25
Nsg26
Nsg27
Nsbsg28
I2
sg29
F44
sbs(g250
S'contains(was)'
p1206
tp1207
g1
(g14
g3
NtRp1208
(dp1209
g17
F0.5
sg18
I51
sg19
g1
(g20
g21
(dp1210
NI50
sI01
I1
stRp1211
(dp1212
g18
I51
sg25
Nsg26
Nsg27
Nsbsg28
I2
sg29
F52
sbs(g509
S'contains(magnets)'
p1213
tp1214
g1
(g14
g3
NtRp1215
(dp1216
g17
F0.5
sg18
I51
sg19
g1
(g20
g21
(dp1217
NI50
sI01
I1
stRp1218
(dp1219
g18
I51
sg25
Nsg26
Nsg27
Nsbsg28
I2
sg29
F52
sbs(g9
S'contains(ants)'
p1220
tp1221
g1
(g14
g3
NtRp1222
(dp1223
g17
F0.5
sg18
I43
sg19
g1
(g20
g21
(dp1224
NI43
stRp1225
(dp1226
g18
I43
sg25
Nsg26
Nsg27
Nsbsg28
I2
sg29
F44
sbs(g9
g377
tp1227
g1
(g14
g3
NtRp1228
(dp1229
g17
F0.5
sg18
I43
sg19
g1
(g20
g21
(dp1230
NI43
stRp1231
(dp1232
g18
I43
sg25
Nsg26
Nsg27
Nsbsg28
I2
sg29
F44
sbs(g9
g75
tp1233
g1
(g14
g3
NtRp1234
(dp1235
g17
F0.5
sg18
I43
sg19
g1
(g20
g21
(dp1236
NI43
stRp1237
(dp1238
g18
I43
sg25
Nsg26
Nsg27
Nsbsg28
I2
sg29
F44
sbs(S'Dimension'
S'contains(nm)'
p1239
tp1240
g1
(g14
g3
NtRp1241
(dp1242
g17
F0.5
sg18
I51
sg19
g1
(g20
g21
(dp1243
NI50
sI01
I1
stRp1244
(dp1245
g18
I51
sg25
Nsg26
Nsg27
Nsbsg28
I2
sg29
F52
sbs(g66
g294
tp1246
g1
(g14
g3
NtRp1247
(dp1248
g17
F0.5
sg18
I51
sg19
g1
(g20
g21
(dp1249
NI50
sI01
I1
stRp1250
(dp1251
g18
I51
sg25
Nsg26
Nsg27
Nsbsg28
I2
sg29
F52
sbs(S'LookAndShape'
p1252
g416
tp1253
g1
(g14
g3
NtRp1254
(dp1255
g17
F0.5
sg18
I43
sg19
g1
(g20
g21
(dp1256
NI42
sI01
I1
stRp1257
(dp1258
g18
I43
sg25
Nsg26
Nsg27
Nsbsg28
I2
sg29
F44
sbs(g30
S'contains(human)'
p1259
tp1260
g1
(g14
g3
NtRp1261
(dp1262
g17
F0.5
sg18
I51
sg19
g1
(g20
g21
(dp1263
NI49
sI01
I2
stRp1264
(dp1265
g18
I51
sg25
Nsg26
Nsg27
Nsbsg28
I2
sg29
F52
sbs(S'Dimension'
p1266
S'contains(package)'
p1267
tp1268
g1
(g14
g3
NtRp1269
(dp1270
g17
F0.5
sg18
I51
sg19
g1
(g20
g21
(dp1271
NI50
sI01
I1
stRp1272
(dp1273
g18
I51
sg25
Nsg26
Nsg27
Nsbsg28
I2
sg29
F52
sbs(S'LookAndShape'
g308
tp1274
g1
(g14
g3
NtRp1275
(dp1276
g17
F0.5
sg18
I43
sg19
g1
(g20
g21
(dp1277
NI42
sI01
I1
stRp1278
(dp1279
g18
I43
sg25
Nsg26
Nsg27
Nsbsg28
I2
sg29
F44
sbs(g9
g409
tp1280
g1
(g14
g3
NtRp1281
(dp1282
g17
F0.5
sg18
I43
sg19
g1
(g20
g21
(dp1283
NI43
stRp1284
(dp1285
g18
I43
sg25
Nsg26
Nsg27
Nsbsg28
I2
sg29
F44
sbs(g8
S'contains(how)'
tp1286
g1
(g14
g3
NtRp1287
(dp1288
g17
F0.5
sg18
I51
sg19
g1
(g20
g21
(dp1289
NI21
sI01
I30
stRp1290
(dp1291
g18
I51
sg25
Nsg26
Nsg27
Nsbsg28
I2
sg29
F52
sbs(g8
g688
tp1292
g1
(g14
g3
NtRp1293
(dp1294
g17
F0.5
sg18
I51
sg19
g1
(g20
g21
(dp1295
NI51
stRp1296
(dp1297
g18
I51
sg25
Nsg26
Nsg27
Nsbsg28
I2
sg29
F52
sbs(g9
g1193
tp1298
g1
(g14
g3
NtRp1299
(dp1300
g17
F0.5
sg18
I43
sg19
g1
(g20
g21
(dp1301
NI43
stRp1302
(dp1303
g18
I43
sg25
Nsg26
Nsg27
Nsbsg28
I2
sg29
F44
sbs(g8
g272
tp1304
g1
(g14
g3
NtRp1305
(dp1306
g17
F0.5
sg18
I51
sg19
g1
(g20
g21
(dp1307
NI51
stRp1308
(dp1309
g18
I51
sg25
Nsg26
Nsg27
Nsbsg28
I2
sg29
F52
sbs(g8
S'contains(trousers)'
p1310
tp1311
g1
(g14
g3
NtRp1312
(dp1313
g17
F0.5
sg18
I51
sg19
g1
(g20
g21
(dp1314
NI51
stRp1315
(dp1316
g18
I51
sg25
Nsg26
Nsg27
Nsbsg28
I2
sg29
F52
sbs(S'LookAndShape'
p1317
S'contains(defines)'
p1318
tp1319
g1
(g14
g3
NtRp1320
(dp1321
g17
F0.5
sg18
I43
sg19
g1
(g20
g21
(dp1322
NI42
sI01
I1
stRp1323
(dp1324
g18
I43
sg25
Nsg26
Nsg27
Nsbsg28
I2
sg29
F44
sbs(g9
g393
tp1325
g1
(g14
g3
NtRp1326
(dp1327
g17
F0.5
sg18
I43
sg19
g1
(g20
g21
(dp1328
NI43
stRp1329
(dp1330
g18
I43
sg25
Nsg26
Nsg27
Nsbsg28
I2
sg29
F44
sbs(g9
g1185
tp1331
g1
(g14
g3
NtRp1332
(dp1333
g17
F0.5
sg18
I43
sg19
g1
(g20
g21
(dp1334
NI43
stRp1335
(dp1336
g18
I43
sg25
Nsg26
Nsg27
Nsbsg28
I2
sg29
F44
sbs(g8
g645
tp1337
g1
(g14
g3
NtRp1338
(dp1339
g17
F0.5
sg18
I51
sg19
g1
(g20
g21
(dp1340
NI51
stRp1341
(dp1342
g18
I51
sg25
Nsg26
Nsg27
Nsbsg28
I2
sg29
F52
sbs(g9
g631
tp1343
g1
(g14
g3
NtRp1344
(dp1345
g17
F0.5
sg18
I43
sg19
g1
(g20
g21
(dp1346
NI43
stRp1347
(dp1348
g18
I43
sg25
Nsg26
Nsg27
Nsbsg28
I2
sg29
F44
sbs(S'LookAndShape'
S'contains(ovnis)'
p1349
tp1350
g1
(g14
g3
NtRp1351
(dp1352
g17
F0.5
sg18
I43
sg19
g1
(g20
g21
(dp1353
NI41
sI01
I2
stRp1354
(dp1355
g18
I43
sg25
Nsg26
Nsg27
Nsbsg28
I2
sg29
F44
sbs(S'LookAndShape'
S'contains(airplane)'
p1356
tp1357
g1
(g14
g3
NtRp1358
(dp1359
g17
F0.5
sg18
I43
sg19
g1
(g20
g21
(dp1360
NI42
sI01
I1
stRp1361
(dp1362
g18
I43
sg25
Nsg26
Nsg27
Nsbsg28
I2
sg29
F44
sbs(g392
S'contains(his)'
p1363
tp1364
g1
(g14
g3
NtRp1365
(dp1366
g17
F0.5
sg18
I51
sg19
g1
(g20
g21
(dp1367
NI50
sI01
I1
stRp1368
(dp1369
g18
I51
sg25
Nsg26
Nsg27
Nsbsg28
I2
sg29
F52
sbs(S'Dimension'
p1370
S'contains(volume)'
p1371
tp1372
g1
(g14
g3
NtRp1373
(dp1374
g17
F0.5
sg18
I51
sg19
g1
(g20
g21
(dp1375
NI47
sI01
I4
stRp1376
(dp1377
g18
I51
sg25
Nsg26
Nsg27
Nsbsg28
I2
sg29
F52
sbs(g9
S'contains(two)'
p1378
tp1379
g1
(g14
g3
NtRp1380
(dp1381
g17
F0.5
sg18
I43
sg19
g1
(g20
g21
(dp1382
NI43
stRp1383
(dp1384
g18
I43
sg25
Nsg26
Nsg27
Nsbsg28
I2
sg29
F44
sbs(g9
g301
tp1385
g1
(g14
g3
NtRp1386
(dp1387
g17
F0.5
sg18
I43
sg19
g1
(g20
g21
(dp1388
NI43
stRp1389
(dp1390
g18
I43
sg25
Nsg26
Nsg27
Nsbsg28
I2
sg29
F44
sbs(g9
g1152
tp1391
g1
(g14
g3
NtRp1392
(dp1393
g17
F0.5
sg18
I43
sg19
g1
(g20
g21
(dp1394
NI43
stRp1395
(dp1396
g18
I43
sg25
Nsg26
Nsg27
Nsbsg28
I2
sg29
F44
sbs(g9
S'contains(small)'
p1397
tp1398
g1
(g14
g3
NtRp1399
(dp1400
g17
F0.5
sg18
I43
sg19
g1
(g20
g21
(dp1401
NI43
stRp1402
(dp1403
g18
I43
sg25
Nsg26
Nsg27
Nsbsg28
I2
sg29
F44
sbs(g376
g186
tp1404
g1
(g14
g3
NtRp1405
(dp1406
g17
F0.5
sg18
I51
sg19
g1
(g20
g21
(dp1407
NI50
sI01
I1
stRp1408
(dp1409
g18
I51
sg25
Nsg26
Nsg27
Nsbsg28
I2
sg29
F52
sbs(g8
S'contains(sun)'
p1410
tp1411
g1
(g14
g3
NtRp1412
(dp1413
g17
F0.5
sg18
I51
sg19
g1
(g20
g21
(dp1414
NI51
stRp1415
(dp1416
g18
I51
sg25
Nsg26
Nsg27
Nsbsg28
I2
sg29
F52
sbs(g9
S'contains(forest)'
p1417
tp1418
g1
(g14
g3
NtRp1419
(dp1420
g17
F0.5
sg18
I43
sg19
g1
(g20
g21
(dp1421
NI43
stRp1422
(dp1423
g18
I43
sg25
Nsg26
Nsg27
Nsbsg28
I2
sg29
F44
sbs(g120
g1126
tp1424
g1
(g14
g3
NtRp1425
(dp1426
g17
F0.5
sg18
I51
sg19
g1
(g20
g21
(dp1427
NI50
sI01
I1
stRp1428
(dp1429
g18
I51
sg25
Nsg26
Nsg27
Nsbsg28
I2
sg29
F52
sbs(g695
g158
tp1430
g1
(g14
g3
NtRp1431
(dp1432
g17
F0.5
sg18
I43
sg19
g1
(g20
g21
(dp1433
NI42
sI01
I1
stRp1434
(dp1435
g18
I43
sg25
Nsg26
Nsg27
Nsbsg28
I2
sg29
F44
sbs(g8
S'contains(like)'
p1436
tp1437
g1
(g14
g3
NtRp1438
(dp1439
g17
F0.5
sg18
I51
sg19
g1
(g20
g21
(dp1440
NI51
stRp1441
(dp1442
g18
I51
sg25
Nsg26
Nsg27
Nsbsg28
I2
sg29
F52
sbs(g1317
S'contains(that)'
tp1443
g1
(g14
g3
NtRp1444
(dp1445
g17
F0.5
sg18
I43
sg19
g1
(g20
g21
(dp1446
NI40
sI01
I3
stRp1447
(dp1448
g18
I43
sg25
Nsg26
Nsg27
Nsbsg28
I2
sg29
F44
sbs(S'LookAndShape'
g538
tp1449
g1
(g14
g3
NtRp1450
(dp1451
g17
F0.5
sg18
I43
sg19
g1
(g20
g21
(dp1452
NI42
sI01
I1
stRp1453
(dp1454
g18
I43
sg25
Nsg26
Nsg27
Nsbsg28
I2
sg29
F44
sbs(S'Dimension'
p1455
g230
tp1456
g1
(g14
g3
NtRp1457
(dp1458
g17
F0.5
sg18
I51
sg19
g1
(g20
g21
(dp1459
NI50
sI01
I1
stRp1460
(dp1461
g18
I51
sg25
Nsg26
Nsg27
Nsbsg28
I2
sg29
F52
sbs(g8
g1106
tp1462
g1
(g14
g3
NtRp1463
(dp1464
g17
F0.5
sg18
I51
sg19
g1
(g20
g21
(dp1465
NI51
stRp1466
(dp1467
g18
I51
sg25
Nsg26
Nsg27
Nsbsg28
I2
sg29
F52
sbs(g9
S'contains(woman)'
p1468
tp1469
g1
(g14
g3
NtRp1470
(dp1471
g17
F0.5
sg18
I43
sg19
g1
(g20
g21
(dp1472
NI43
stRp1473
(dp1474
g18
I43
sg25
Nsg26
Nsg27
Nsbsg28
I2
sg29
F44
sbs(g8
g1093
tp1475
g1
(g14
g3
NtRp1476
(dp1477
g17
F0.5
sg18
I51
sg19
g1
(g20
g21
(dp1478
NI51
stRp1479
(dp1480
g18
I51
sg25
Nsg26
Nsg27
Nsbsg28
I2
sg29
F52
sbs(g9
S'contains(high)'
p1481
tp1482
g1
(g14
g3
NtRp1483
(dp1484
g17
F0.5
sg18
I43
sg19
g1
(g20
g21
(dp1485
NI43
stRp1486
(dp1487
g18
I43
sg25
Nsg26
Nsg27
Nsbsg28
I2
sg29
F44
sbs(g9
g1085
tp1488
g1
(g14
g3
NtRp1489
(dp1490
g17
F0.5
sg18
I43
sg19
g1
(g20
g21
(dp1491
NI43
stRp1492
(dp1493
g18
I43
sg25
Nsg26
Nsg27
Nsbsg28
I2
sg29
F44
sbs(g8
g1318
tp1494
g1
(g14
g3
NtRp1495
(dp1496
g17
F0.5
sg18
I51
sg19
g1
(g20
g21
(dp1497
NI51
stRp1498
(dp1499
g18
I51
sg25
Nsg26
Nsg27
Nsbsg28
I2
sg29
F52
sbs(g9
S'contains(everest)'
p1500
tp1501
g1
(g14
g3
NtRp1502
(dp1503
g17
F0.5
sg18
I43
sg19
g1
(g20
g21
(dp1504
NI43
stRp1505
(dp1506
g18
I43
sg25
Nsg26
Nsg27
Nsbsg28
I2
sg29
F44
sbs(g8
g208
tp1507
g1
(g14
g3
NtRp1508
(dp1509
g17
F0.5
sg18
I51
sg19
g1
(g20
g21
(dp1510
NI50
sI01
I1
stRp1511
(dp1512
g18
I51
sg25
Nsg26
Nsg27
Nsbsg28
I2
sg29
F52
sbs(S'LookAndShape'
p1513
S'contains(how)'
tp1514
g1
(g14
g3
NtRp1515
(dp1516
g17
F0.5
sg18
I43
sg19
g1
(g20
g21
(dp1517
NI30
sI01
I13
stRp1518
(dp1519
g18
I43
sg25
Nsg26
Nsg27
Nsbsg28
I2
sg29
F44
sbs(g135
g1397
tp1520
g1
(g14
g3
NtRp1521
(dp1522
g17
F0.5
sg18
I51
sg19
g1
(g20
g21
(dp1523
NI47
sI01
I4
stRp1524
(dp1525
g18
I51
sg25
Nsg26
Nsg27
Nsbsg28
I2
sg29
F52
sbs(g120
g193
tp1526
g1
(g14
g3
NtRp1527
(dp1528
g17
F0.5
sg18
I51
sg19
g1
(g20
g21
(dp1529
NI50
sI01
I1
stRp1530
(dp1531
g18
I51
sg25
Nsg26
Nsg27
Nsbsg28
I2
sg29
F52
sbs(S'Dimension'
p1532
g1026
tp1533
g1
(g14
g3
NtRp1534
(dp1535
g17
F0.5
sg18
I51
sg19
g1
(g20
g21
(dp1536
NI50
sI01
I1
stRp1537
(dp1538
g18
I51
sg25
Nsg26
Nsg27
Nsbsg28
I2
sg29
F52
sbs(g9
g1267
tp1539
g1
(g14
g3
NtRp1540
(dp1541
g17
F0.5
sg18
I43
sg19
g1
(g20
g21
(dp1542
NI43
stRp1543
(dp1544
g18
I43
sg25
Nsg26
Nsg27
Nsbsg28
I2
sg29
F44
sbs(g9
g1371
tp1545
g1
(g14
g3
NtRp1546
(dp1547
g17
F0.5
sg18
I43
sg19
g1
(g20
g21
(dp1548
NI43
stRp1549
(dp1550
g18
I43
sg25
Nsg26
Nsg27
Nsbsg28
I2
sg29
F44
sbs(g943
S"contains(hitler's)"
p1551
tp1552
g1
(g14
g3
NtRp1553
(dp1554
g17
F0.5
sg18
I51
sg19
g1
(g20
g21
(dp1555
NI50
sI01
I1
stRp1556
(dp1557
g18
I51
sg25
Nsg26
Nsg27
Nsbsg28
I2
sg29
F52
sbs(g8
g144
tp1558
g1
(g14
g3
NtRp1559
(dp1560
g17
F0.5
sg18
I51
sg19
g1
(g20
g21
(dp1561
NI51
stRp1562
(dp1563
g18
I51
sg25
Nsg26
Nsg27
Nsbsg28
I2
sg29
F52
sbs(g9
g987
tp1564
g1
(g14
g3
NtRp1565
(dp1566
g17
F0.5
sg18
I43
sg19
g1
(g20
g21
(dp1567
NI43
stRp1568
(dp1569
g18
I43
sg25
Nsg26
Nsg27
Nsbsg28
I2
sg29
F44
sbs(g8
g1349
tp1570
g1
(g14
g3
NtRp1571
(dp1572
g17
F0.5
sg18
I51
sg19
g1
(g20
g21
(dp1573
NI51
stRp1574
(dp1575
g18
I51
sg25
Nsg26
Nsg27
Nsbsg28
I2
sg29
F52
sbs(g9
g1239
tp1576
g1
(g14
g3
NtRp1577
(dp1578
g17
F0.5
sg18
I43
sg19
g1
(g20
g21
(dp1579
NI43
stRp1580
(dp1581
g18
I43
sg25
Nsg26
Nsg27
Nsbsg28
I2
sg29
F44
sbs(g8
S'contains(?)'
tp1582
g1
(g14
g3
NtRp1583
(dp1584
g17
F0.5
sg18
I51
sg19
g1
(g20
g21
(dp1585
I01
I51
stRp1586
(dp1587
g18
I51
sg25
Nsg26
Nsg27
Nsbsg28
I2
sg29
F52
sbs(g9
S'contains(tree)'
p1588
tp1589
g1
(g14
g3
NtRp1590
(dp1591
g17
F0.5
sg18
I43
sg19
g1
(g20
g21
(dp1592
NI43
stRp1593
(dp1594
g18
I43
sg25
Nsg26
Nsg27
Nsbsg28
I2
sg29
F44
sbs(S'Dimension'
g972
tp1595
g1
(g14
g3
NtRp1596
(dp1597
g17
F0.5
sg18
I51
sg19
g1
(g20
g21
(dp1598
NI50
sI01
I1
stRp1599
(dp1600
g18
I51
sg25
Nsg26
Nsg27
Nsbsg28
I2
sg29
F52
sbs(S'LookAndShape'
g105
tp1601
g1
(g14
g3
NtRp1602
(dp1603
g17
F0.5
sg18
I43
sg19
g1
(g20
g21
(dp1604
NI42
sI01
I1
stRp1605
(dp1606
g18
I43
sg25
Nsg26
Nsg27
Nsbsg28
I2
sg29
F44
sbs(g9
S'contains(in)'
p1607
tp1608
g1
(g14
g3
NtRp1609
(dp1610
g17
F0.5
sg18
I43
sg19
g1
(g20
g21
(dp1611
NI43
stRp1612
(dp1613
g18
I43
sg25
Nsg26
Nsg27
Nsbsg28
I2
sg29
F44
sbs(g66
g1588
tp1614
g1
(g14
g3
NtRp1615
(dp1616
g17
F0.5
sg18
I51
sg19
g1
(g20
g21
(dp1617
NI49
sI01
I2
stRp1618
(dp1619
g18
I51
sg25
Nsg26
Nsg27
Nsbsg28
I2
sg29
F52
sbs(g9
g1259
tp1620
g1
(g14
g3
NtRp1621
(dp1622
g17
F0.5
sg18
I43
sg19
g1
(g20
g21
(dp1623
NI43
stRp1624
(dp1625
g18
I43
sg25
Nsg26
Nsg27
Nsbsg28
I2
sg29
F44
sbs(g8
S'contains(people)'
p1626
tp1627
g1
(g14
g3
NtRp1628
(dp1629
g17
F0.5
sg18
I51
sg19
g1
(g20
g21
(dp1630
NI51
stRp1631
(dp1632
g18
I51
sg25
Nsg26
Nsg27
Nsbsg28
I2
sg29
F52
sbs(g9
g909
tp1633
g1
(g14
g3
NtRp1634
(dp1635
g17
F0.5
sg18
I43
sg19
g1
(g20
g21
(dp1636
NI43
stRp1637
(dp1638
g18
I43
sg25
Nsg26
Nsg27
Nsbsg28
I2
sg29
F44
sbs(g442
S'contains(is)'
tp1639
g1
(g14
g3
NtRp1640
(dp1641
g17
F0.5
sg18
I51
sg19
g1
(g20
g21
(dp1642
NI20
sI01
I31
stRp1643
(dp1644
g18
I51
sg25
Nsg26
Nsg27
Nsbsg28
I2
sg29
F52
sbs(g8
g363
tp1645
g1
(g14
g3
NtRp1646
(dp1647
g17
F0.5
sg18
I51
sg19
g1
(g20
g21
(dp1648
NI51
stRp1649
(dp1650
g18
I51
sg25
Nsg26
Nsg27
Nsbsg28
I2
sg29
F52
sbs(g1012
g343
tp1651
g1
(g14
g3
NtRp1652
(dp1653
g17
F0.5
sg18
I51
sg19
g1
(g20
g21
(dp1654
NI49
sI01
I2
stRp1655
(dp1656
g18
I51
sg25
Nsg26
Nsg27
Nsbsg28
I2
sg29
F52
sbs(g9
g1551
tp1657
g1
(g14
g3
NtRp1658
(dp1659
g17
F0.5
sg18
I43
sg19
g1
(g20
g21
(dp1660
NI43
stRp1661
(dp1662
g18
I43
sg25
Nsg26
Nsg27
Nsbsg28
I2
sg29
F44
sbs(S'Dimension'
p1663
g287
tp1664
g1
(g14
g3
NtRp1665
(dp1666
g17
F0.5
sg18
I51
sg19
g1
(g20
g21
(dp1667
NI50
sI01
I1
stRp1668
(dp1669
g18
I51
sg25
Nsg26
Nsg27
Nsbsg28
I2
sg29
F52
sbs(S'LookAndShape'
g864
tp1670
g1
(g14
g3
NtRp1671
(dp1672
g17
F0.5
sg18
I43
sg19
g1
(g20
g21
(dp1673
NI41
sI01
I2
stRp1674
(dp1675
g18
I43
sg25
Nsg26
Nsg27
Nsbsg28
I2
sg29
F44
sbs(g8
S'contains(pretty)'
p1676
tp1677
g1
(g14
g3
NtRp1678
(dp1679
g17
F0.5
sg18
I51
sg19
g1
(g20
g21
(dp1680
NI51
stRp1681
(dp1682
g18
I51
sg25
Nsg26
Nsg27
Nsbsg28
I2
sg29
F52
sbs(g9
S'contains(korea)'
p1683
tp1684
g1
(g14
g3
NtRp1685
(dp1686
g17
F0.5
sg18
I43
sg19
g1
(g20
g21
(dp1687
NI43
stRp1688
(dp1689
g18
I43
sg25
Nsg26
Nsg27
Nsbsg28
I2
sg29
F44
sbs(g815
g1033
tp1690
g1
(g14
g3
NtRp1691
(dp1692
g17
F0.5
sg18
I43
sg19
g1
(g20
g21
(dp1693
NI42
sI01
I1
stRp1694
(dp1695
g18
I43
sg25
Nsg26
Nsg27
Nsbsg28
I2
sg29
F44
sbs(g908
g837
tp1696
g1
(g14
g3
NtRp1697
(dp1698
g17
F0.5
sg18
I51
sg19
g1
(g20
g21
(dp1699
NI48
sI01
I3
stRp1700
(dp1701
g18
I51
sg25
Nsg26
Nsg27
Nsbsg28
I2
sg29
F52
sbs(S'Dimension'
p1702
g1481
tp1703
g1
(g14
g3
NtRp1704
(dp1705
g17
F0.5
sg18
I51
sg19
g1
(g20
g21
(dp1706
NI48
sI01
I3
stRp1707
(dp1708
g18
I51
sg25
Nsg26
Nsg27
Nsbsg28
I2
sg29
F52
sbs(g9
g1171
tp1709
g1
(g14
g3
NtRp1710
(dp1711
g17
F0.5
sg18
I43
sg19
g1
(g20
g21
(dp1712
NI43
stRp1713
(dp1714
g18
I43
sg25
Nsg26
Nsg27
Nsbsg28
I2
sg29
F44
sbs(S'LookAndShape'
g788
tp1715
g1
(g14
g3
NtRp1716
(dp1717
g17
F0.5
sg18
I43
sg19
g1
(g20
g21
(dp1718
NI42
sI01
I1
stRp1719
(dp1720
g18
I43
sg25
Nsg26
Nsg27
Nsbsg28
I2
sg29
F44
sbs(g1455
S'contains(plane)'
tp1721
g1
(g14
g3
NtRp1722
(dp1723
g17
F0.5
sg18
I51
sg19
g1
(g20
g21
(dp1724
NI50
sI01
I1
stRp1725
(dp1726
g18
I51
sg25
Nsg26
Nsg27
Nsbsg28
I2
sg29
F52
sbs(g8
S'contains(are)'
tp1727
g1
(g14
g3
NtRp1728
(dp1729
g17
F0.5
sg18
I51
sg19
g1
(g20
g21
(dp1730
NI47
sI01
I4
stRp1731
(dp1732
g18
I51
sg25
Nsg26
Nsg27
Nsbsg28
I2
sg29
F52
sbs(g1092
S'contains(an)'
tp1733
g1
(g14
g3
NtRp1734
(dp1735
g17
F0.5
sg18
I43
sg19
g1
(g20
g21
(dp1736
NI36
sI01
I7
stRp1737
(dp1738
g18
I43
sg25
Nsg26
Nsg27
Nsbsg28
I2
sg29
F44
sbs(g9
g1139
tp1739
g1
(g14
g3
NtRp1740
(dp1741
g17
F0.5
sg18
I43
sg19
g1
(g20
g21
(dp1742
NI43
stRp1743
(dp1744
g18
I43
sg25
Nsg26
Nsg27
Nsbsg28
I2
sg29
F44
sbs(g135
S'contains(your)'
p1745
tp1746
g1
(g14
g3
NtRp1747
(dp1748
g17
F0.5
sg18
I51
sg19
g1
(g20
g21
(dp1749
NI49
sI01
I2
stRp1750
(dp1751
g18
I51
sg25
Nsg26
Nsg27
Nsbsg28
I2
sg29
F52
sbs(g9
g1013
tp1752
g1
(g14
g3
NtRp1753
(dp1754
g17
F0.5
sg18
I43
sg19
g1
(g20
g21
(dp1755
NI43
stRp1756
(dp1757
g18
I43
sg25
Nsg26
Nsg27
Nsbsg28
I2
sg29
F44
sbs(g9
g113
tp1758
g1
(g14
g3
NtRp1759
(dp1760
g17
F0.5
sg18
I43
sg19
g1
(g20
g21
(dp1761
NI43
stRp1762
(dp1763
g18
I43
sg25
Nsg26
Nsg27
Nsbsg28
I2
sg29
F44
sbs(g1370
S'contains(bottle)'
p1764
tp1765
g1
(g14
g3
NtRp1766
(dp1767
g17
F0.5
sg18
I51
sg19
g1
(g20
g21
(dp1768
NI50
sI01
I1
stRp1769
(dp1770
g18
I51
sg25
Nsg26
Nsg27
Nsbsg28
I2
sg29
F52
sbs(g9
S'contains(shoe)'
p1771
tp1772
g1
(g14
g3
NtRp1773
(dp1774
g17
F0.5
sg18
I43
sg19
g1
(g20
g21
(dp1775
NI43
stRp1776
(dp1777
g18
I43
sg25
Nsg26
Nsg27
Nsbsg28
I2
sg29
F44
sbs(g30
g958
tp1778
g1
(g14
g3
NtRp1779
(dp1780
g17
F0.5
sg18
I51
sg19
g1
(g20
g21
(dp1781
NI41
sI01
I10
stRp1782
(dp1783
g18
I51
sg25
Nsg26
Nsg27
Nsbsg28
I2
sg29
F52
sbs(g1532
g1060
tp1784
g1
(g14
g3
NtRp1785
(dp1786
g17
F0.5
sg18
I51
sg19
g1
(g20
g21
(dp1787
NI50
sI01
I1
stRp1788
(dp1789
g18
I51
sg25
Nsg26
Nsg27
Nsbsg28
I2
sg29
F52
sbs(g8
g681
tp1790
g1
(g14
g3
NtRp1791
(dp1792
g17
F0.5
sg18
I51
sg19
g1
(g20
g21
(dp1793
NI47
sI01
I4
stRp1794
(dp1795
g18
I51
sg25
Nsg26
Nsg27
Nsbsg28
I2
sg29
F52
sbs(g9
g1046
tp1796
g1
(g14
g3
NtRp1797
(dp1798
g17
F0.5
sg18
I43
sg19
g1
(g20
g21
(dp1799
NI43
stRp1800
(dp1801
g18
I43
sg25
Nsg26
Nsg27
Nsbsg28
I2
sg29
F44
sbs(g9
g98
tp1802
g1
(g14
g3
NtRp1803
(dp1804
g17
F0.5
sg18
I43
sg19
g1
(g20
g21
(dp1805
NI43
stRp1806
(dp1807
g18
I43
sg25
Nsg26
Nsg27
Nsbsg28
I2
sg29
F44
sbs(g8
S'contains(sense)'
p1808
tp1809
g1
(g14
g3
NtRp1810
(dp1811
g17
F0.5
sg18
I51
sg19
g1
(g20
g21
(dp1812
NI51
stRp1813
(dp1814
g18
I51
sg25
Nsg26
Nsg27
Nsbsg28
I2
sg29
F52
sbs(g8
g1356
tp1815
g1
(g14
g3
NtRp1816
(dp1817
g17
F0.5
sg18
I51
sg19
g1
(g20
g21
(dp1818
NI51
stRp1819
(dp1820
g18
I51
sg25
Nsg26
Nsg27
Nsbsg28
I2
sg29
F52
sbs(S'Dimension'
g1771
tp1821
g1
(g14
g3
NtRp1822
(dp1823
g17
F0.5
sg18
I51
sg19
g1
(g20
g21
(dp1824
NI50
sI01
I1
stRp1825
(dp1826
g18
I51
sg25
Nsg26
Nsg27
Nsbsg28
I2
sg29
F52
sbs(g1532
g82
tp1827
g1
(g14
g3
NtRp1828
(dp1829
g17
F0.5
sg18
I51
sg19
g1
(g20
g21
(dp1830
NI50
sI01
I1
stRp1831
(dp1832
g18
I51
sg25
Nsg26
Nsg27
Nsbsg28
I2
sg29
F52
sbs(g1663
g1468
tp1833
g1
(g14
g3
NtRp1834
(dp1835
g17
F0.5
sg18
I51
sg19
g1
(g20
g21
(dp1836
NI50
sI01
I1
stRp1837
(dp1838
g18
I51
sg25
Nsg26
Nsg27
Nsbsg28
I2
sg29
F52
sbs(S'LookAndShape'
g979
tp1839
g1
(g14
g3
NtRp1840
(dp1841
g17
F0.5
sg18
I43
sg19
g1
(g20
g21
(dp1842
NI42
sI01
I1
stRp1843
(dp1844
g18
I43
sg25
Nsg26
Nsg27
Nsbsg28
I2
sg29
F44
sbs(S'Dimension'
g1220
tp1845
g1
(g14
g3
NtRp1846
(dp1847
g17
F0.5
sg18
I51
sg19
g1
(g20
g21
(dp1848
NI50
sI01
I1
stRp1849
(dp1850
g18
I51
sg25
Nsg26
Nsg27
Nsbsg28
I2
sg29
F52
sbs(g986
S'contains(earthquake)'
p1851
tp1852
g1
(g14
g3
NtRp1853
(dp1854
g17
F0.5
sg18
I51
sg19
g1
(g20
g21
(dp1855
NI50
sI01
I1
stRp1856
(dp1857
g18
I51
sg25
Nsg26
Nsg27
Nsbsg28
I2
sg29
F52
sbs(g9
g1213
tp1858
g1
(g14
g3
NtRp1859
(dp1860
g17
F0.5
sg18
I43
sg19
g1
(g20
g21
(dp1861
NI43
stRp1862
(dp1863
g18
I43
sg25
Nsg26
Nsg27
Nsbsg28
I2
sg29
F44
sbs(g9
S'contains(denmark)'
p1864
tp1865
g1
(g14
g3
NtRp1866
(dp1867
g17
F0.5
sg18
I43
sg19
g1
(g20
g21
(dp1868
NI43
stRp1869
(dp1870
g18
I43
sg25
Nsg26
Nsg27
Nsbsg28
I2
sg29
F44
sbs(g9
g1206
tp1871
g1
(g14
g3
NtRp1872
(dp1873
g17
F0.5
sg18
I43
sg19
g1
(g20
g21
(dp1874
NI43
stRp1875
(dp1876
g18
I43
sg25
Nsg26
Nsg27
Nsbsg28
I2
sg29
F44
sbs(g9
g951
tp1877
g1
(g14
g3
NtRp1878
(dp1879
g17
F0.5
sg18
I43
sg19
g1
(g20
g21
(dp1880
NI43
stRp1881
(dp1882
g18
I43
sg25
Nsg26
Nsg27
Nsbsg28
I2
sg29
F44
sbs(g9
g1745
tp1883
g1
(g14
g3
NtRp1884
(dp1885
g17
F0.5
sg18
I43
sg19
g1
(g20
g21
(dp1886
NI43
stRp1887
(dp1888
g18
I43
sg25
Nsg26
Nsg27
Nsbsg28
I2
sg29
F44
sbs(g524
g844
tp1889
g1
(g14
g3
NtRp1890
(dp1891
g17
F0.5
sg18
I51
sg19
g1
(g20
g21
(dp1892
NI50
sI01
I1
stRp1893
(dp1894
g18
I51
sg25
Nsg26
Nsg27
Nsbsg28
I2
sg29
F52
sbs(S'LookAndShape'
g830
tp1895
g1
(g14
g3
NtRp1896
(dp1897
g17
F0.5
sg18
I43
sg19
g1
(g20
g21
(dp1898
NI42
sI01
I1
stRp1899
(dp1900
g18
I43
sg25
Nsg26
Nsg27
Nsbsg28
I2
sg29
F44
sbs(g12
S'contains(an)'
tp1901
g1
(g14
g3
NtRp1902
(dp1903
g17
F0.5
sg18
I51
sg19
g1
(g20
g21
(dp1904
NI48
sI01
I3
stRp1905
(dp1906
g18
I51
sg25
Nsg26
Nsg27
Nsbsg28
I2
sg29
F52
sbs(S'LookAndShape'
S'contains(man)'
p1907
tp1908
g1
(g14
g3
NtRp1909
(dp1910
g17
F0.5
sg18
I43
sg19
g1
(g20
g21
(dp1911
NI42
sI01
I1
stRp1912
(dp1913
g18
I43
sg25
Nsg26
Nsg27
Nsbsg28
I2
sg29
F44
sbs(g9
g510
tp1914
g1
(g14
g3
NtRp1915
(dp1916
g17
F0.5
sg18
I43
sg19
g1
(g20
g21
(dp1917
NI43
stRp1918
(dp1919
g18
I43
sg25
Nsg26
Nsg27
Nsbsg28
I2
sg29
F44
sbs(g362
g489
tp1920
g1
(g14
g3
NtRp1921
(dp1922
g17
F0.5
sg18
I43
sg19
g1
(g20
g21
(dp1923
NI38
sI01
I5
stRp1924
(dp1925
g18
I43
sg25
Nsg26
Nsg27
Nsbsg28
I2
sg29
F44
sbs(S'LookAndShape'
S'contains(plane)'
tp1926
g1
(g14
g3
NtRp1927
(dp1928
g17
F0.5
sg18
I43
sg19
g1
(g20
g21
(dp1929
NI42
sI01
I1
stRp1930
(dp1931
g18
I43
sg25
Nsg26
Nsg27
Nsbsg28
I2
sg29
F44
sbs(g89
g545
tp1932
g1
(g14
g3
NtRp1933
(dp1934
g17
F0.5
sg18
I51
sg19
g1
(g20
g21
(dp1935
NI50
sI01
I1
stRp1936
(dp1937
g18
I51
sg25
Nsg26
Nsg27
Nsbsg28
I2
sg29
F52
sbs(g8
g237
tp1938
g1
(g14
g3
NtRp1939
(dp1940
g17
F0.5
sg18
I51
sg19
g1
(g20
g21
(dp1941
NI51
stRp1942
(dp1943
g18
I51
sg25
Nsg26
Nsg27
Nsbsg28
I2
sg29
F52
sbs(g965
g774
tp1944
g1
(g14
g3
NtRp1945
(dp1946
g17
F0.5
sg18
I51
sg19
g1
(g20
g21
(dp1947
NI50
sI01
I1
stRp1948
(dp1949
g18
I51
sg25
Nsg26
Nsg27
Nsbsg28
I2
sg29
F52
sbs(g1455
S'contains(does)'
tp1950
g1
(g14
g3
NtRp1951
(dp1952
g17
F0.5
sg18
I51
sg19
g1
(g20
g21
(dp1953
NI50
sI01
I1
stRp1954
(dp1955
g18
I51
sg25
Nsg26
Nsg27
Nsbsg28
I2
sg29
F52
sbs(g9
g385
tp1956
g1
(g14
g3
NtRp1957
(dp1958
g17
F0.5
sg18
I43
sg19
g1
(g20
g21
(dp1959
NI43
stRp1960
(dp1961
g18
I43
sg25
Nsg26
Nsg27
Nsbsg28
I2
sg29
F44
sbs(g8
g1907
tp1962
g1
(g14
g3
NtRp1963
(dp1964
g17
F0.5
sg18
I51
sg19
g1
(g20
g21
(dp1965
NI51
stRp1966
(dp1967
g18
I51
sg25
Nsg26
Nsg27
Nsbsg28
I2
sg29
F52
sbs(S'LookAndShape'
S'contains(girl)'
p1968
tp1969
g1
(g14
g3
NtRp1970
(dp1971
g17
F0.5
sg18
I43
sg19
g1
(g20
g21
(dp1972
NI42
sI01
I1
stRp1973
(dp1974
g18
I43
sg25
Nsg26
Nsg27
Nsbsg28
I2
sg29
F44
sbs(g9
g517
tp1975
g1
(g14
g3
NtRp1976
(dp1977
g17
F0.5
sg18
I43
sg19
g1
(g20
g21
(dp1978
NI43
stRp1979
(dp1980
g18
I43
sg25
Nsg26
Nsg27
Nsbsg28
I2
sg29
F44
sbs(g44
g729
tp1981
g1
(g14
g3
NtRp1982
(dp1983
g17
F0.5
sg18
I51
sg19
g1
(g20
g21
(dp1984
NI50
sI01
I1
stRp1985
(dp1986
g18
I51
sg25
Nsg26
Nsg27
Nsbsg28
I2
sg29
F52
sbs(S'Dimension'
p1987
g1683
tp1988
g1
(g14
g3
NtRp1989
(dp1990
g17
F0.5
sg18
I51
sg19
g1
(g20
g21
(dp1991
NI50
sI01
I1
stRp1992
(dp1993
g18
I51
sg25
Nsg26
Nsg27
Nsbsg28
I2
sg29
F52
sbs(g9
S'contains(trees)'
p1994
tp1995
g1
(g14
g3
NtRp1996
(dp1997
g17
F0.5
sg18
I43
sg19
g1
(g20
g21
(dp1998
NI43
stRp1999
(dp2000
g18
I43
sg25
Nsg26
Nsg27
Nsbsg28
I2
sg29
F44
sbs(g1987
g1864
tp2001
g1
(g14
g3
NtRp2002
(dp2003
g17
F0.5
sg18
I51
sg19
g1
(g20
g21
(dp2004
NI50
sI01
I1
stRp2005
(dp2006
g18
I51
sg25
Nsg26
Nsg27
Nsbsg28
I2
sg29
F52
sbs(g8
g1968
tp2007
g1
(g14
g3
NtRp2008
(dp2009
g17
F0.5
sg18
I51
sg19
g1
(g20
g21
(dp2010
NI51
stRp2011
(dp2012
g18
I51
sg25
Nsg26
Nsg27
Nsbsg28
I2
sg29
F52
sbs(g9
g1851
tp2013
g1
(g14
g3
NtRp2014
(dp2015
g17
F0.5
sg18
I43
sg19
g1
(g20
g21
(dp2016
NI43
stRp2017
(dp2018
g18
I43
sg25
Nsg26
Nsg27
Nsbsg28
I2
sg29
F44
sbs(g408
g1178
tp2019
g1
(g14
g3
NtRp2020
(dp2021
g17
F0.5
sg18
I51
sg19
g1
(g20
g21
(dp2022
NI50
sI01
I1
stRp2023
(dp2024
g18
I51
sg25
Nsg26
Nsg27
Nsbsg28
I2
sg29
F52
sbs(g1192
g482
tp2025
g1
(g14
g3
NtRp2026
(dp2027
g17
F0.5
sg18
I51
sg19
g1
(g20
g21
(dp2028
NI47
sI01
I4
stRp2029
(dp2030
g18
I51
sg25
Nsg26
Nsg27
Nsbsg28
I2
sg29
F52
sbs(g8
g816
tp2031
g1
(g14
g3
NtRp2032
(dp2033
g17
F0.5
sg18
I51
sg19
g1
(g20
g21
(dp2034
NI51
stRp2035
(dp2036
g18
I51
sg25
Nsg26
Nsg27
Nsbsg28
I2
sg29
F52
sbs(g9
g1113
tp2037
g1
(g14
g3
NtRp2038
(dp2039
g17
F0.5
sg18
I43
sg19
g1
(g20
g21
(dp2040
NI43
stRp2041
(dp2042
g18
I43
sg25
Nsg26
Nsg27
Nsbsg28
I2
sg29
F44
sbs(g279
S'contains(strike)'
p2043
tp2044
g1
(g14
g3
NtRp2045
(dp2046
g17
F0.5
sg18
I51
sg19
g1
(g20
g21
(dp2047
NI50
sI01
I1
stRp2048
(dp2049
g18
I51
sg25
Nsg26
Nsg27
Nsbsg28
I2
sg29
F52
sbs(g9
g781
tp2050
g1
(g14
g3
NtRp2051
(dp2052
g17
F0.5
sg18
I43
sg19
g1
(g20
g21
(dp2053
NI43
stRp2054
(dp2055
g18
I43
sg25
Nsg26
Nsg27
Nsbsg28
I2
sg29
F44
sbs(g9
g702
tp2056
g1
(g14
g3
NtRp2057
(dp2058
g17
F0.5
sg18
I43
sg19
g1
(g20
g21
(dp2059
NI43
stRp2060
(dp2061
g18
I43
sg25
Nsg26
Nsg27
Nsbsg28
I2
sg29
F44
sbs(g1266
g767
tp2062
g1
(g14
g3
NtRp2063
(dp2064
g17
F0.5
sg18
I51
sg19
g1
(g20
g21
(dp2065
NI49
sI01
I2
stRp2066
(dp2067
g18
I51
sg25
Nsg26
Nsg27
Nsbsg28
I2
sg29
F52
sbs(g8
g736
tp2068
g1
(g14
g3
NtRp2069
(dp2070
g17
F0.5
sg18
I51
sg19
g1
(g20
g21
(dp2071
NI51
stRp2072
(dp2073
g18
I51
sg25
Nsg26
Nsg27
Nsbsg28
I2
sg29
F52
sbs(g9
g1053
tp2074
g1
(g14
g3
NtRp2075
(dp2076
g17
F0.5
sg18
I43
sg19
g1
(g20
g21
(dp2077
NI43
stRp2078
(dp2079
g18
I43
sg25
Nsg26
Nsg27
Nsbsg28
I2
sg29
F44
sbs(g128
g1808
tp2080
g1
(g14
g3
NtRp2081
(dp2082
g17
F0.5
sg18
I43
sg19
g1
(g20
g21
(dp2083
NI42
sI01
I1
stRp2084
(dp2085
g18
I43
sg25
Nsg26
Nsg27
Nsbsg28
I2
sg29
F44
sbs(g66
g1607
tp2086
g1
(g14
g3
NtRp2087
(dp2088
g17
F0.5
sg18
I51
sg19
g1
(g20
g21
(dp2089
NI46
sI01
I5
stRp2090
(dp2091
g18
I51
sg25
Nsg26
Nsg27
Nsbsg28
I2
sg29
F52
sbs(g1252
g624
tp2092
g1
(g14
g3
NtRp2093
(dp2094
g17
F0.5
sg18
I43
sg19
g1
(g20
g21
(dp2095
NI38
sI01
I5
stRp2096
(dp2097
g18
I43
sg25
Nsg26
Nsg27
Nsbsg28
I2
sg29
F44
sbs(S'LookAndShape'
p2098
g315
tp2099
g1
(g14
g3
NtRp2100
(dp2101
g17
F0.5
sg18
I43
sg19
g1
(g20
g21
(dp2102
NI42
sI01
I1
stRp2103
(dp2104
g18
I43
sg25
Nsg26
Nsg27
Nsbsg28
I2
sg29
F44
sbs(g9
g936
tp2105
g1
(g14
g3
NtRp2106
(dp2107
g17
F0.5
sg18
I43
sg19
g1
(g20
g21
(dp2108
NI43
stRp2109
(dp2110
g18
I43
sg25
Nsg26
Nsg27
Nsbsg28
I2
sg29
F44
sbs(g9
g588
tp2111
g1
(g14
g3
NtRp2112
(dp2113
g17
F0.5
sg18
I43
sg19
g1
(g20
g21
(dp2114
NI43
stRp2115
(dp2116
g18
I43
sg25
Nsg26
Nsg27
Nsbsg28
I2
sg29
F44
sbs(g573
g674
tp2117
g1
(g14
g3
NtRp2118
(dp2119
g17
F0.5
sg18
I51
sg19
g1
(g20
g21
(dp2120
NI50
sI01
I1
stRp2121
(dp2122
g18
I51
sg25
Nsg26
Nsg27
Nsbsg28
I2
sg29
F52
sbs(g1702
g1500
tp2123
g1
(g14
g3
NtRp2124
(dp2125
g17
F0.5
sg18
I51
sg19
g1
(g20
g21
(dp2126
NI50
sI01
I1
stRp2127
(dp2128
g18
I51
sg25
Nsg26
Nsg27
Nsbsg28
I2
sg29
F52
sbs(g9
g1764
tp2129
g1
(g14
g3
NtRp2130
(dp2131
g17
F0.5
sg18
I43
sg19
g1
(g20
g21
(dp2132
NI43
stRp2133
(dp2134
g18
I43
sg25
Nsg26
Nsg27
Nsbsg28
I2
sg29
F44
sbs(g1192
S'contains(the)'
tp2135
g1
(g14
g3
NtRp2136
(dp2137
g17
F0.5
sg18
I51
sg19
g1
(g20
g21
(dp2138
NI23
sI01
I28
stRp2139
(dp2140
g18
I51
sg25
Nsg26
Nsg27
Nsbsg28
I2
sg29
F52
sbs(g602
g559
tp2141
g1
(g14
g3
NtRp2142
(dp2143
g17
F0.5
sg18
I43
sg19
g1
(g20
g21
(dp2144
NI42
sI01
I1
stRp2145
(dp2146
g18
I43
sg25
Nsg26
Nsg27
Nsbsg28
I2
sg29
F44
sbs(g9
g552
tp2147
g1
(g14
g3
NtRp2148
(dp2149
g17
F0.5
sg18
I43
sg19
g1
(g20
g21
(dp2150
NI43
stRp2151
(dp2152
g18
I43
sg25
Nsg26
Nsg27
Nsbsg28
I2
sg29
F44
sbs(g8
g653
tp2153
g1
(g14
g3
NtRp2154
(dp2155
g17
F0.5
sg18
I51
sg19
g1
(g20
g21
(dp2156
NI51
stRp2157
(dp2158
g18
I51
sg25
Nsg26
Nsg27
Nsbsg28
I2
sg29
F52
sbs(g8
S'contains(scissors)'
p2159
tp2160
g1
(g14
g3
NtRp2161
(dp2162
g17
F0.5
sg18
I51
sg19
g1
(g20
g21
(dp2163
NI51
stRp2164
(dp2165
g18
I51
sg25
Nsg26
Nsg27
Nsbsg28
I2
sg29
F52
sbs(g9
g2043
tp2166
g1
(g14
g3
NtRp2167
(dp2168
g17
F0.5
sg18
I43
sg19
g1
(g20
g21
(dp2169
NI43
stRp2170
(dp2171
g18
I43
sg25
Nsg26
Nsg27
Nsbsg28
I2
sg29
F44
sbs(g9
g251
tp2172
g1
(g14
g3
NtRp2173
(dp2174
g17
F0.5
sg18
I43
sg19
g1
(g20
g21
(dp2175
NI43
stRp2176
(dp2177
g18
I43
sg25
Nsg26
Nsg27
Nsbsg28
I2
sg29
F44
sbs(g128
g496
tp2178
g1
(g14
g3
NtRp2179
(dp2180
g17
F0.5
sg18
I43
sg19
g1
(g20
g21
(dp2181
NI42
sI01
I1
stRp2182
(dp2183
g18
I43
sg25
Nsg26
Nsg27
Nsbsg28
I2
sg29
F44
sbs(g9
g1436
tp2184
g1
(g14
g3
NtRp2185
(dp2186
g17
F0.5
sg18
I43
sg19
g1
(g20
g21
(dp2187
NI12
sI01
I31
stRp2188
(dp2189
g18
I43
sg25
Nsg26
Nsg27
Nsbsg28
I2
sg29
F44
sbs(g8
g609
tp2190
g1
(g14
g3
NtRp2191
(dp2192
g17
F0.5
sg18
I51
sg19
g1
(g20
g21
(dp2193
NI51
stRp2194
(dp2195
g18
I51
sg25
Nsg26
Nsg27
Nsbsg28
I2
sg29
F52
sbs(g222
g1417
tp2196
g1
(g14
g3
NtRp2197
(dp2198
g17
F0.5
sg18
I51
sg19
g1
(g20
g21
(dp2199
NI50
sI01
I1
stRp2200
(dp2201
g18
I51
sg25
Nsg26
Nsg27
Nsbsg28
I2
sg29
F52
sbs(S'Dimension'
g1994
tp2202
g1
(g14
g3
NtRp2203
(dp2204
g17
F0.5
sg18
I51
sg19
g1
(g20
g21
(dp2205
NI50
sI01
I1
stRp2206
(dp2207
g18
I51
sg25
Nsg26
Nsg27
Nsbsg28
I2
sg29
F52
sbs(g2098
g1410
tp2208
g1
(g14
g3
NtRp2209
(dp2210
g17
F0.5
sg18
I43
sg19
g1
(g20
g21
(dp2211
NI42
sI01
I1
stRp2212
(dp2213
g18
I43
sg25
Nsg26
Nsg27
Nsbsg28
I2
sg29
F44
sbs(g9
g401
tp2214
g1
(g14
g3
NtRp2215
(dp2216
g17
F0.5
sg18
I43
sg19
g1
(g20
g21
(dp2217
NI43
stRp2218
(dp2219
g18
I43
sg25
Nsg26
Nsg27
Nsbsg28
I2
sg29
F44
sbs(g9
g638
tp2220
g1
(g14
g3
NtRp2221
(dp2222
g17
F0.5
sg18
I43
sg19
g1
(g20
g21
(dp2223
NI43
stRp2224
(dp2225
g18
I43
sg25
Nsg26
Nsg27
Nsbsg28
I2
sg29
F44
sbs(g279
g1378
tp2226
g1
(g14
g3
NtRp2227
(dp2228
g17
F0.5
sg18
I51
sg19
g1
(g20
g21
(dp2229
NI49
sI01
I2
stRp2230
(dp2231
g18
I51
sg25
Nsg26
Nsg27
Nsbsg28
I2
sg29
F52
sbs(g1317
g165
tp2232
g1
(g14
g3
NtRp2233
(dp2234
g17
F0.5
sg18
I43
sg19
g1
(g20
g21
(dp2235
NI42
sI01
I1
stRp2236
(dp2237
g18
I43
sg25
Nsg26
Nsg27
Nsbsg28
I2
sg29
F44
sbs(g9
g1363
tp2238
g1
(g14
g3
NtRp2239
(dp2240
g17
F0.5
sg18
I43
sg19
g1
(g20
g21
(dp2241
NI43
stRp2242
(dp2243
g18
I43
sg25
Nsg26
Nsg27
Nsbsg28
I2
sg29
F44
sbs(g9
g136
tp2244
g1
(g14
g3
NtRp2245
(dp2246
g17
F0.5
sg18
I43
sg19
g1
(g20
g21
(dp2247
NI43
stRp2248
(dp2249
g18
I43
sg25
Nsg26
Nsg27
Nsbsg28
I2
sg29
F44
sbs(g384
g435
tp2250
g1
(g14
g3
NtRp2251
(dp2252
g17
F0.5
sg18
I51
sg19
g1
(g20
g21
(dp2253
NI50
sI01
I1
stRp2254
(dp2255
g18
I51
sg25
Nsg26
Nsg27
Nsbsg28
I2
sg29
F52
sbs(g1513
g1626
tp2256
g1
(g14
g3
NtRp2257
(dp2258
g17
F0.5
sg18
I43
sg19
g1
(g20
g21
(dp2259
NI42
sI01
I1
stRp2260
(dp2261
g18
I43
sg25
Nsg26
Nsg27
Nsbsg28
I2
sg29
F44
sbs(S'LookAndShape'
g2159
tp2262
g1
(g14
g3
NtRp2263
(dp2264
g17
F0.5
sg18
I43
sg19
g1
(g20
g21
(dp2265
NI41
sI01
I2
stRp2266
(dp2267
g18
I43
sg25
Nsg26
Nsg27
Nsbsg28
I2
sg29
F44
sbs(S'LookAndShape'
g1310
tp2268
g1
(g14
g3
NtRp2269
(dp2270
g17
F0.5
sg18
I43
sg19
g1
(g20
g21
(dp2271
NI42
sI01
I1
stRp2272
(dp2273
g18
I43
sg25
Nsg26
Nsg27
Nsbsg28
I2
sg29
F44
sbs(g602
g1676
tp2274
g1
(g14
g3
NtRp2275
(dp2276
g17
F0.5
sg18
I43
sg19
g1
(g20
g21
(dp2277
NI42
sI01
I1
stRp2278
(dp2279
g18
I43
sg25
Nsg26
Nsg27
Nsbsg28
I2
sg29
F44
sbs(g1702
g722
tp2280
g1
(g14
g3
NtRp2281
(dp2282
g17
F0.5
sg18
I51
sg19
g1
(g20
g21
(dp2283
NI50
sI01
I1
stRp2284
(dp2285
g18
I51
sg25
Nsg26
Nsg27
Nsbsg28
I2
sg29
F52
sbssS'_label_probdist'
p2286
g1
(g14
g3
NtRp2287
(dp2288
g17
F0.5
sg18
I94
sg19
g1
(g20
g21
(dp2289
g8
I51
sg9
I43
stRp2290
(dp2291
g18
I94
sg25
Nsg26
(lp2292
(g8
I51
tp2293
a(g9
I43
tp2294
asg27
Nsbsg28
I2
sg29
F95
sbsb.