ccopy_reg
_reconstructor
p1
(cnltk.classify.naivebayes
NaiveBayesClassifier
p2
c__builtin__
object
p3
NtRp4
(dp5
S'_labels'
p6
(lp7
S'Dimension'
p8
aS'LookAndShape'
p9
asS'_feature_probdist'
p10
(dp11
(S'Dimension'
p12
S'contains(what)'
tp13
g1
(cnltk.probability
ELEProbDist
p14
g3
NtRp15
(dp16
S'_gamma'
p17
F0.5
sS'_N'
p18
I55
sS'_freqdist'
p19
cnltk.probability
FreqDist
p20
((dp21
I01
I18
sNI37
stRp22
sS'_bins'
p23
I2
sS'_divisor'
p24
F56
sbs(S'Dimension'
p25
S'contains(a)'
tp26
g1
(g14
g3
NtRp27
(dp28
g17
F0.5
sg18
I55
sg19
g20
((dp29
I01
I16
sNI39
stRp30
sg23
I2
sg24
F56
sbs(g9
S'contains(india)'
p31
tp32
g1
(g14
g3
NtRp33
(dp34
g17
F0.5
sg18
I43
sg19
g20
((dp35
NI43
stRp36
sg23
I2
sg24
F44
sbs(S'Dimension'
p37
S"contains(what's)"
p38
tp39
g1
(g14
g3
NtRp40
(dp41
g17
F0.5
sg18
I55
sg19
g20
((dp42
I01
I3
sNI52
stRp43
sg23
I2
sg24
F56
sbs(g9
S'contains(chris)'
p44
tp45
g1
(g14
g3
NtRp46
(dp47
g17
F0.5
sg18
I43
sg19
g20
((dp48
NI43
stRp49
sg23
I2
sg24
F44
sbs(g9
S'contains(up)'
p50
tp51
g1
(g14
g3
NtRp52
(dp53
g17
F0.5
sg18
I43
sg19
g20
((dp54
NI43
stRp55
sg23
I2
sg24
F44
sbs(S'Dimension'
p56
S'contains(tallest)'
p57
tp58
g1
(g14
g3
NtRp59
(dp60
g17
F0.5
sg18
I55
sg19
g20
((dp61
I01
I1
sNI54
stRp62
sg23
I2
sg24
F56
sbs(S'Dimension'
p63
S'contains(dog)'
p64
tp65
g1
(g14
g3
NtRp66
(dp67
g17
F0.5
sg18
I55
sg19
g20
((dp68
I01
I1
sNI54
stRp69
sg23
I2
sg24
F56
sbs(g9
S'contains(here)'
p70
tp71
g1
(g14
g3
NtRp72
(dp73
g17
F0.5
sg18
I43
sg19
g20
((dp74
NI43
stRp75
sg23
I2
sg24
F44
sbs(S'Dimension'
p76
S'contains(distance)'
p77
tp78
g1
(g14
g3
NtRp79
(dp80
g17
F0.5
sg18
I55
sg19
g20
((dp81
I01
I1
sNI54
stRp82
sg23
I2
sg24
F56
sbs(S'Dimension'
p83
S'contains(from)'
p84
tp85
g1
(g14
g3
NtRp86
(dp87
g17
F0.5
sg18
I55
sg19
g20
((dp88
I01
I6
sNI49
stRp89
sg23
I2
sg24
F56
sbs(g8
S'contains(dresses)'
p90
tp91
g1
(g14
g3
NtRp92
(dp93
g17
F0.5
sg18
I55
sg19
g20
((dp94
NI55
stRp95
sg23
I2
sg24
F56
sbs(S'Dimension'
p96
S'contains(mm)'
p97
tp98
g1
(g14
g3
NtRp99
(dp100
g17
F0.5
sg18
I55
sg19
g20
((dp101
I01
I1
sNI54
stRp102
sg23
I2
sg24
F56
sbs(S'Dimension'
p103
S'contains(scale)'
p104
tp105
g1
(g14
g3
NtRp106
(dp107
g17
F0.5
sg18
I55
sg19
g20
((dp108
I01
I1
sNI54
stRp109
sg23
I2
sg24
F56
sbs(S'LookAndShape'
p110
S'contains(to)'
tp111
g1
(g14
g3
NtRp112
(dp113
g17
F0.5
sg18
I43
sg19
g20
((dp114
I01
I1
sNI42
stRp115
sg23
I2
sg24
F44
sbs(S'Dimension'
p116
S'contains(car)'
p117
tp118
g1
(g14
g3
NtRp119
(dp120
g17
F0.5
sg18
I55
sg19
g20
((dp121
I01
I1
sNI54
stRp122
sg23
I2
sg24
F56
sbs(S'LookAndShape'
p123
S'contains(beautiful)'
p124
tp125
g1
(g14
g3
NtRp126
(dp127
g17
F0.5
sg18
I43
sg19
g20
((dp128
I01
I1
sNI42
stRp129
sg23
I2
sg24
F44
sbs(S'LookAndShape'
S'contains(sweatshirt)'
p130
tp131
g1
(g14
g3
NtRp132
(dp133
g17
F0.5
sg18
I43
sg19
g20
((dp134
I01
I1
sNI42
stRp135
sg23
I2
sg24
F44
sbs(g8
S'contains(ball)'
p136
tp137
g1
(g14
g3
NtRp138
(dp139
g17
F0.5
sg18
I55
sg19
g20
((dp140
NI55
stRp141
sg23
I2
sg24
F56
sbs(g8
S'contains(bag)'
p142
tp143
g1
(g14
g3
NtRp144
(dp145
g17
F0.5
sg18
I55
sg19
g20
((dp146
NI55
stRp147
sg23
I2
sg24
F56
sbs(g9
S'contains(become)'
p148
tp149
g1
(g14
g3
NtRp150
(dp151
g17
F0.5
sg18
I43
sg19
g20
((dp152
NI43
stRp153
sg23
I2
sg24
F44
sbs(g8
S'contains(makes)'
p154
tp155
g1
(g14
g3
NtRp156
(dp157
g17
F0.5
sg18
I55
sg19
g20
((dp158
NI55
stRp159
sg23
I2
sg24
F56
sbs(g9
S'contains(lisbon)'
p160
tp161
g1
(g14
g3
NtRp162
(dp163
g17
F0.5
sg18
I43
sg19
g20
((dp164
NI43
stRp165
sg23
I2
sg24
F44
sbs(g9
S"contains(napoleon's)"
p166
tp167
g1
(g14
g3
NtRp168
(dp169
g17
F0.5
sg18
I43
sg19
g20
((dp170
NI43
stRp171
sg23
I2
sg24
F44
sbs(S'LookAndShape'
p172
S'contains(look)'
p173
tp174
g1
(g14
g3
NtRp175
(dp176
g17
F0.5
sg18
I43
sg19
g20
((dp177
I01
I13
sNI30
stRp178
sg23
I2
sg24
F44
sbs(g9
S'contains(you)'
p179
tp180
g1
(g14
g3
NtRp181
(dp182
g17
F0.5
sg18
I43
sg19
g20
((dp183
NI43
stRp184
sg23
I2
sg24
F44
sbs(S'Dimension'
p185
g148
tp186
g1
(g14
g3
NtRp187
(dp188
g17
F0.5
sg18
I55
sg19
g20
((dp189
I01
I2
sNI53
stRp190
sg23
I2
sg24
F56
sbs(S'Dimension'
p191
S'contains(amazon)'
p192
tp193
g1
(g14
g3
NtRp194
(dp195
g17
F0.5
sg18
I55
sg19
g20
((dp196
I01
I1
sNI54
stRp197
sg23
I2
sg24
F56
sbs(g9
S'contains(fly)'
p198
tp199
g1
(g14
g3
NtRp200
(dp201
g17
F0.5
sg18
I43
sg19
g20
((dp202
NI43
stRp203
sg23
I2
sg24
F44
sbs(S'LookAndShape'
S'contains(clocks)'
p204
tp205
g1
(g14
g3
NtRp206
(dp207
g17
F0.5
sg18
I43
sg19
g20
((dp208
I01
I1
sNI42
stRp209
sg23
I2
sg24
F44
sbs(g63
S'contains(to)'
tp210
g1
(g14
g3
NtRp211
(dp212
g17
F0.5
sg18
I55
sg19
g20
((dp213
I01
I5
sNI50
stRp214
sg23
I2
sg24
F56
sbs(S'Dimension'
p215
S"contains(einstein's)"
p216
tp217
g1
(g14
g3
NtRp218
(dp219
g17
F0.5
sg18
I55
sg19
g20
((dp220
I01
I1
sNI54
stRp221
sg23
I2
sg24
F56
sbs(g172
S'contains(glass)'
p222
tp223
g1
(g14
g3
NtRp224
(dp225
g17
F0.5
sg18
I43
sg19
g20
((dp226
I01
I1
sNI42
stRp227
sg23
I2
sg24
F44
sbs(g9
g192
tp228
g1
(g14
g3
NtRp229
(dp230
g17
F0.5
sg18
I43
sg19
g20
((dp231
NI43
stRp232
sg23
I2
sg24
F44
sbs(S'LookAndShape'
p233
S'contains(scissor)'
p234
tp235
g1
(g14
g3
NtRp236
(dp237
g17
F0.5
sg18
I43
sg19
g20
((dp238
I01
I1
sNI42
stRp239
sg23
I2
sg24
F44
sbs(S'Dimension'
p240
S'contains(near)'
p241
tp242
g1
(g14
g3
NtRp243
(dp244
g17
F0.5
sg18
I55
sg19
g20
((dp245
I01
I3
sNI52
stRp246
sg23
I2
sg24
F56
sbs(g9
S'contains(old)'
p247
tp248
g1
(g14
g3
NtRp249
(dp250
g17
F0.5
sg18
I43
sg19
g20
((dp251
NI43
stRp252
sg23
I2
sg24
F44
sbs(g9
S'contains(world)'
p253
tp254
g1
(g14
g3
NtRp255
(dp256
g17
F0.5
sg18
I43
sg19
g20
((dp257
NI43
stRp258
sg23
I2
sg24
F44
sbs(g12
S'contains(average)'
p259
tp260
g1
(g14
g3
NtRp261
(dp262
g17
F0.5
sg18
I55
sg19
g20
((dp263
I01
I2
sNI53
stRp264
sg23
I2
sg24
F56
sbs(g8
S'contains(clothes)'
p265
tp266
g1
(g14
g3
NtRp267
(dp268
g17
F0.5
sg18
I55
sg19
g20
((dp269
NI55
stRp270
sg23
I2
sg24
F56
sbs(g8
S'contains(contour)'
p271
tp272
g1
(g14
g3
NtRp273
(dp274
g17
F0.5
sg18
I55
sg19
g20
((dp275
NI55
stRp276
sg23
I2
sg24
F56
sbs(S'LookAndShape'
p277
S'contains(atom)'
p278
tp279
g1
(g14
g3
NtRp280
(dp281
g17
F0.5
sg18
I43
sg19
g20
((dp282
I01
I1
sNI42
stRp283
sg23
I2
sg24
F44
sbs(g9
S'contains(what)'
tp284
g1
(g14
g3
NtRp285
(dp286
g17
F0.5
sg18
I43
sg19
g20
((dp287
I01
I30
sNI13
stRp288
sg23
I2
sg24
F44
sbs(g9
S'contains(benches)'
p289
tp290
g1
(g14
g3
NtRp291
(dp292
g17
F0.5
sg18
I43
sg19
g20
((dp293
I01
I1
sNI42
stRp294
sg23
I2
sg24
F44
sbs(g9
S'contains(tiny)'
p295
tp296
g1
(g14
g3
NtRp297
(dp298
g17
F0.5
sg18
I43
sg19
g20
((dp299
NI43
stRp300
sg23
I2
sg24
F44
sbs(g63
g50
tp301
g1
(g14
g3
NtRp302
(dp303
g17
F0.5
sg18
I55
sg19
g20
((dp304
I01
I1
sNI54
stRp305
sg23
I2
sg24
F56
sbs(g8
g130
tp306
g1
(g14
g3
NtRp307
(dp308
g17
F0.5
sg18
I55
sg19
g20
((dp309
NI55
stRp310
sg23
I2
sg24
F56
sbs(S'LookAndShape'
p311
S'contains(bicycle)'
p312
tp313
g1
(g14
g3
NtRp314
(dp315
g17
F0.5
sg18
I43
sg19
g20
((dp316
I01
I1
sNI42
stRp317
sg23
I2
sg24
F44
sbs(g233
S'contains(is)'
tp318
g1
(g14
g3
NtRp319
(dp320
g17
F0.5
sg18
I43
sg19
g20
((dp321
I01
I18
sNI25
stRp322
sg23
I2
sg24
F44
sbs(S'Dimension'
p323
S'contains(madrid)'
p324
tp325
g1
(g14
g3
NtRp326
(dp327
g17
F0.5
sg18
I55
sg19
g20
((dp328
I01
I1
sNI54
stRp329
sg23
I2
sg24
F56
sbs(S'Dimension'
p330
S'contains(planet)'
p331
tp332
g1
(g14
g3
NtRp333
(dp334
g17
F0.5
sg18
I55
sg19
g20
((dp335
I01
I1
sNI54
stRp336
sg23
I2
sg24
F56
sbs(S'Dimension'
p337
S'contains(her)'
p338
tp339
g1
(g14
g3
NtRp340
(dp341
g17
F0.5
sg18
I55
sg19
g20
((dp342
I01
I1
sNI54
stRp343
sg23
I2
sg24
F56
sbs(S'Dimension'
p344
S'contains(squirrel)'
p345
tp346
g1
(g14
g3
NtRp347
(dp348
g17
F0.5
sg18
I55
sg19
g20
((dp349
I01
I1
sNI54
stRp350
sg23
I2
sg24
F56
sbs(S'Dimension'
p351
S'contains(california)'
p352
tp353
g1
(g14
g3
NtRp354
(dp355
g17
F0.5
sg18
I55
sg19
g20
((dp356
I01
I1
sNI54
stRp357
sg23
I2
sg24
F56
sbs(g8
S'contains(jeans)'
p358
tp359
g1
(g14
g3
NtRp360
(dp361
g17
F0.5
sg18
I55
sg19
g20
((dp362
NI55
stRp363
sg23
I2
sg24
F56
sbs(g12
S'contains(person)'
tp364
g1
(g14
g3
NtRp365
(dp366
g17
F0.5
sg18
I55
sg19
g20
((dp367
I01
I1
sNI54
stRp368
sg23
I2
sg24
F56
sbs(g9
g57
tp369
g1
(g14
g3
NtRp370
(dp371
g17
F0.5
sg18
I43
sg19
g20
((dp372
NI43
stRp373
sg23
I2
sg24
F44
sbs(g9
S'contains(earth)'
p374
tp375
g1
(g14
g3
NtRp376
(dp377
g17
F0.5
sg18
I43
sg19
g20
((dp378
NI43
stRp379
sg23
I2
sg24
F44
sbs(S'Dimension'
g44
tp380
g1
(g14
g3
NtRp381
(dp382
g17
F0.5
sg18
I55
sg19
g20
((dp383
I01
I1
sNI54
stRp384
sg23
I2
sg24
F56
sbs(S'LookAndShape'
S'contains(bikes)'
p385
tp386
g1
(g14
g3
NtRp387
(dp388
g17
F0.5
sg18
I43
sg19
g20
((dp389
I01
I1
sNI42
stRp390
sg23
I2
sg24
F44
sbs(S'Dimension'
p391
S'contains(japan)'
p392
tp393
g1
(g14
g3
NtRp394
(dp395
g17
F0.5
sg18
I55
sg19
g20
((dp396
I01
I1
sNI54
stRp397
sg23
I2
sg24
F56
sbs(g83
g31
tp398
g1
(g14
g3
NtRp399
(dp400
g17
F0.5
sg18
I55
sg19
g20
((dp401
I01
I2
sNI53
stRp402
sg23
I2
sg24
F56
sbs(g123
S'contains(person)'
tp403
g1
(g14
g3
NtRp404
(dp405
g17
F0.5
sg18
I43
sg19
g20
((dp406
I01
I2
sNI41
stRp407
sg23
I2
sg24
F44
sbs(g233
S'contains(a)'
tp408
g1
(g14
g3
NtRp409
(dp410
g17
F0.5
sg18
I43
sg19
g20
((dp411
I01
I17
sNI26
stRp412
sg23
I2
sg24
F44
sbs(g9
S'contains(big)'
p413
tp414
g1
(g14
g3
NtRp415
(dp416
g17
F0.5
sg18
I43
sg19
g20
((dp417
NI43
stRp418
sg23
I2
sg24
F44
sbs(g8
S'contains(form)'
p419
tp420
g1
(g14
g3
NtRp421
(dp422
g17
F0.5
sg18
I55
sg19
g20
((dp423
NI55
stRp424
sg23
I2
sg24
F56
sbs(g8
S'contains(draw)'
p425
tp426
g1
(g14
g3
NtRp427
(dp428
g17
F0.5
sg18
I55
sg19
g20
((dp429
NI55
stRp430
sg23
I2
sg24
F56
sbs(g9
g241
tp431
g1
(g14
g3
NtRp432
(dp433
g17
F0.5
sg18
I43
sg19
g20
((dp434
NI43
stRp435
sg23
I2
sg24
F44
sbs(S'Dimension'
p436
S'contains(without)'
p437
tp438
g1
(g14
g3
NtRp439
(dp440
g17
F0.5
sg18
I55
sg19
g20
((dp441
I01
I1
sNI54
stRp442
sg23
I2
sg24
F56
sbs(g436
S'contains(touching)'
p443
tp444
g1
(g14
g3
NtRp445
(dp446
g17
F0.5
sg18
I55
sg19
g20
((dp447
I01
I1
sNI54
stRp448
sg23
I2
sg24
F56
sbs(S'Dimension'
p449
S'contains(go)'
p450
tp451
g1
(g14
g3
NtRp452
(dp453
g17
F0.5
sg18
I55
sg19
g20
((dp454
I01
I1
sNI54
stRp455
sg23
I2
sg24
F56
sbs(g9
g450
tp456
g1
(g14
g3
NtRp457
(dp458
g17
F0.5
sg18
I43
sg19
g20
((dp459
NI43
stRp460
sg23
I2
sg24
F44
sbs(g8
S'contains(stairs)'
p461
tp462
g1
(g14
g3
NtRp463
(dp464
g17
F0.5
sg18
I55
sg19
g20
((dp465
NI55
stRp466
sg23
I2
sg24
F56
sbs(g9
S'contains(pakistan)'
p467
tp468
g1
(g14
g3
NtRp469
(dp470
g17
F0.5
sg18
I43
sg19
g20
((dp471
NI43
stRp472
sg23
I2
sg24
F44
sbs(g8
S'contains(tall)'
p473
tp474
g1
(g14
g3
NtRp475
(dp476
g17
F0.5
sg18
I55
sg19
g20
((dp477
I01
I8
sNI47
stRp478
sg23
I2
sg24
F56
sbs(g8
S'contains(doll)'
p479
tp480
g1
(g14
g3
NtRp481
(dp482
g17
F0.5
sg18
I55
sg19
g20
((dp483
NI55
stRp484
sg23
I2
sg24
F56
sbs(S'LookAndShape'
S'contains(stripper)'
p485
tp486
g1
(g14
g3
NtRp487
(dp488
g17
F0.5
sg18
I43
sg19
g20
((dp489
I01
I1
sNI42
stRp490
sg23
I2
sg24
F44
sbs(S'Dimension'
p491
S'contains(mountain)'
p492
tp493
g1
(g14
g3
NtRp494
(dp495
g17
F0.5
sg18
I55
sg19
g20
((dp496
I01
I1
sNI54
stRp497
sg23
I2
sg24
F56
sbs(g9
S'contains(bird)'
p498
tp499
g1
(g14
g3
NtRp500
(dp501
g17
F0.5
sg18
I43
sg19
g20
((dp502
NI43
stRp503
sg23
I2
sg24
F44
sbs(g185
S'contains(shirt)'
p504
tp505
g1
(g14
g3
NtRp506
(dp507
g17
F0.5
sg18
I55
sg19
g20
((dp508
I01
I2
sNI53
stRp509
sg23
I2
sg24
F56
sbs(g9
S'contains(fiji)'
p510
tp511
g1
(g14
g3
NtRp512
(dp513
g17
F0.5
sg18
I43
sg19
g20
((dp514
NI43
stRp515
sg23
I2
sg24
F44
sbs(S'LookAndShape'
p516
g154
tp517
g1
(g14
g3
NtRp518
(dp519
g17
F0.5
sg18
I43
sg19
g20
((dp520
I01
I2
sNI41
stRp521
sg23
I2
sg24
F44
sbs(S'LookAndShape'
S'contains(model)'
p522
tp523
g1
(g14
g3
NtRp524
(dp525
g17
F0.5
sg18
I43
sg19
g20
((dp526
I01
I1
sNI42
stRp527
sg23
I2
sg24
F44
sbs(S'Dimension'
p528
S"contains(person's)"
p529
tp530
g1
(g14
g3
NtRp531
(dp532
g17
F0.5
sg18
I55
sg19
g20
((dp533
I01
I1
sNI54
stRp534
sg23
I2
sg24
F56
sbs(g8
S'contains(do)'
p535
tp536
g1
(g14
g3
NtRp537
(dp538
g17
F0.5
sg18
I55
sg19
g20
((dp539
NI55
stRp540
sg23
I2
sg24
F56
sbs(S'Dimension'
S'contains(they)'
p541
tp542
g1
(g14
g3
NtRp543
(dp544
g17
F0.5
sg18
I55
sg19
g20
((dp545
I01
I2
sNI53
stRp546
sg23
I2
sg24
F56
sbs(g63
S'contains(grow)'
p547
tp548
g1
(g14
g3
NtRp549
(dp550
g17
F0.5
sg18
I55
sg19
g20
((dp551
I01
I1
sNI54
stRp552
sg23
I2
sg24
F56
sbs(g277
S'contains(structure)'
p553
tp554
g1
(g14
g3
NtRp555
(dp556
g17
F0.5
sg18
I43
sg19
g20
((dp557
I01
I2
sNI41
stRp558
sg23
I2
sg24
F44
sbs(S'LookAndShape'
p559
S'contains(silhouette)'
p560
tp561
g1
(g14
g3
NtRp562
(dp563
g17
F0.5
sg18
I43
sg19
g20
((dp564
I01
I1
sNI42
stRp565
sg23
I2
sg24
F44
sbs(g9
S'contains(soccer)'
p566
tp567
g1
(g14
g3
NtRp568
(dp569
g17
F0.5
sg18
I43
sg19
g20
((dp570
NI43
stRp571
sg23
I2
sg24
F44
sbs(S'LookAndShape'
S'contains(bottles)'
p572
tp573
g1
(g14
g3
NtRp574
(dp575
g17
F0.5
sg18
I43
sg19
g20
((dp576
I01
I1
sNI42
stRp577
sg23
I2
sg24
F44
sbs(g9
S'contains(biggest)'
p578
tp579
g1
(g14
g3
NtRp580
(dp581
g17
F0.5
sg18
I43
sg19
g20
((dp582
NI43
stRp583
sg23
I2
sg24
F44
sbs(g9
S'contains(short)'
p584
tp585
g1
(g14
g3
NtRp586
(dp587
g17
F0.5
sg18
I43
sg19
g20
((dp588
NI43
stRp589
sg23
I2
sg24
F44
sbs(S'LookAndShape'
S'contains(pen)'
p590
tp591
g1
(g14
g3
NtRp592
(dp593
g17
F0.5
sg18
I43
sg19
g20
((dp594
I01
I1
sNI42
stRp595
sg23
I2
sg24
F44
sbs(S'LookAndShape'
p596
S'contains(of)'
tp597
g1
(g14
g3
NtRp598
(dp599
g17
F0.5
sg18
I43
sg19
g20
((dp600
I01
I8
sNI35
stRp601
sg23
I2
sg24
F44
sbs(g391
S'contains(it)'
p602
tp603
g1
(g14
g3
NtRp604
(dp605
g17
F0.5
sg18
I55
sg19
g20
((dp606
I01
I1
sNI54
stRp607
sg23
I2
sg24
F56
sbs(g9
g38
tp608
g1
(g14
g3
NtRp609
(dp610
g17
F0.5
sg18
I43
sg19
g20
((dp611
NI43
stRp612
sg23
I2
sg24
F44
sbs(g240
S'contains(lightnings)'
p613
tp614
g1
(g14
g3
NtRp615
(dp616
g17
F0.5
sg18
I55
sg19
g20
((dp617
I01
I1
sNI54
stRp618
sg23
I2
sg24
F56
sbs(g9
S'contains(mount)'
p619
tp620
g1
(g14
g3
NtRp621
(dp622
g17
F0.5
sg18
I43
sg19
g20
((dp623
NI43
stRp624
sg23
I2
sg24
F44
sbs(g9
S'contains(arc)'
p625
tp626
g1
(g14
g3
NtRp627
(dp628
g17
F0.5
sg18
I43
sg19
g20
((dp629
NI43
stRp630
sg23
I2
sg24
F44
sbs(S'LookAndShape'
S'contains(buildings)'
p631
tp632
g1
(g14
g3
NtRp633
(dp634
g17
F0.5
sg18
I43
sg19
g20
((dp635
I01
I1
sNI42
stRp636
sg23
I2
sg24
F44
sbs(g449
g498
tp637
g1
(g14
g3
NtRp638
(dp639
g17
F0.5
sg18
I55
sg19
g20
((dp640
I01
I1
sNI54
stRp641
sg23
I2
sg24
F56
sbs(g9
g492
tp642
g1
(g14
g3
NtRp643
(dp644
g17
F0.5
sg18
I43
sg19
g20
((dp645
NI43
stRp646
sg23
I2
sg24
F44
sbs(g9
S'contains(are)'
tp647
g1
(g14
g3
NtRp648
(dp649
g17
F0.5
sg18
I43
sg19
g20
((dp650
I01
I12
sNI31
stRp651
sg23
I2
sg24
F44
sbs(g172
S'contains(does)'
tp652
g1
(g14
g3
NtRp653
(dp654
g17
F0.5
sg18
I43
sg19
g20
((dp655
I01
I8
sNI35
stRp656
sg23
I2
sg24
F44
sbs(g9
S'contains(capacity)'
p657
tp658
g1
(g14
g3
NtRp659
(dp660
g17
F0.5
sg18
I43
sg19
g20
((dp661
NI43
stRp662
sg23
I2
sg24
F44
sbs(g9
S'contains(field)'
p663
tp664
g1
(g14
g3
NtRp665
(dp666
g17
F0.5
sg18
I43
sg19
g20
((dp667
NI43
stRp668
sg23
I2
sg24
F44
sbs(g83
S'contains(far)'
p669
tp670
g1
(g14
g3
NtRp671
(dp672
g17
F0.5
sg18
I55
sg19
g20
((dp673
I01
I6
sNI49
stRp674
sg23
I2
sg24
F56
sbs(g8
S'contains(men)'
p675
tp676
g1
(g14
g3
NtRp677
(dp678
g17
F0.5
sg18
I55
sg19
g20
((dp679
NI55
stRp680
sg23
I2
sg24
F56
sbs(g96
S'contains(order)'
p681
tp682
g1
(g14
g3
NtRp683
(dp684
g17
F0.5
sg18
I55
sg19
g20
((dp685
I01
I3
sNI52
stRp686
sg23
I2
sg24
F56
sbs(g9
S'contains(stomach)'
p687
tp688
g1
(g14
g3
NtRp689
(dp690
g17
F0.5
sg18
I43
sg19
g20
((dp691
NI43
stRp692
sg23
I2
sg24
F44
sbs(g9
g681
tp693
g1
(g14
g3
NtRp694
(dp695
g17
F0.5
sg18
I43
sg19
g20
((dp696
NI43
stRp697
sg23
I2
sg24
F44
sbs(S'LookAndShape'
p698
S'contains(building)'
p699
tp700
g1
(g14
g3
NtRp701
(dp702
g17
F0.5
sg18
I43
sg19
g20
((dp703
I01
I1
sNI42
stRp704
sg23
I2
sg24
F44
sbs(g9
S'contains(water)'
p705
tp706
g1
(g14
g3
NtRp707
(dp708
g17
F0.5
sg18
I43
sg19
g20
((dp709
NI43
stRp710
sg23
I2
sg24
F44
sbs(g8
S'contains(shirts)'
p711
tp712
g1
(g14
g3
NtRp713
(dp714
g17
F0.5
sg18
I55
sg19
g20
((dp715
NI55
stRp716
sg23
I2
sg24
F56
sbs(g9
S'contains(hand)'
p717
tp718
g1
(g14
g3
NtRp719
(dp720
g17
F0.5
sg18
I43
sg19
g20
((dp721
NI43
stRp722
sg23
I2
sg24
F44
sbs(g9
S'contains(air)'
p723
tp724
g1
(g14
g3
NtRp725
(dp726
g17
F0.5
sg18
I43
sg19
g20
((dp727
NI43
stRp728
sg23
I2
sg24
F44
sbs(S'LookAndShape'
S'contains(hair)'
p729
tp730
g1
(g14
g3
NtRp731
(dp732
g17
F0.5
sg18
I43
sg19
g20
((dp733
I01
I1
sNI42
stRp734
sg23
I2
sg24
F44
sbs(g8
g729
tp735
g1
(g14
g3
NtRp736
(dp737
g17
F0.5
sg18
I55
sg19
g20
((dp738
NI55
stRp739
sg23
I2
sg24
F56
sbs(g8
S'contains(apple)'
p740
tp741
g1
(g14
g3
NtRp742
(dp743
g17
F0.5
sg18
I55
sg19
g20
((dp744
NI55
stRp745
sg23
I2
sg24
F56
sbs(g8
S'contains(lady)'
p746
tp747
g1
(g14
g3
NtRp748
(dp749
g17
F0.5
sg18
I55
sg19
g20
((dp750
NI55
stRp751
sg23
I2
sg24
F56
sbs(S'Dimension'
g705
tp752
g1
(g14
g3
NtRp753
(dp754
g17
F0.5
sg18
I55
sg19
g20
((dp755
I01
I1
sNI54
stRp756
sg23
I2
sg24
F56
sbs(g9
g613
tp757
g1
(g14
g3
NtRp758
(dp759
g17
F0.5
sg18
I43
sg19
g20
((dp760
NI43
stRp761
sg23
I2
sg24
F44
sbs(g9
g104
tp762
g1
(g14
g3
NtRp763
(dp764
g17
F0.5
sg18
I43
sg19
g20
((dp765
NI43
stRp766
sg23
I2
sg24
F44
sbs(g528
g687
tp767
g1
(g14
g3
NtRp768
(dp769
g17
F0.5
sg18
I55
sg19
g20
((dp770
I01
I1
sNI54
stRp771
sg23
I2
sg24
F56
sbs(g559
g746
tp772
g1
(g14
g3
NtRp773
(dp774
g17
F0.5
sg18
I43
sg19
g20
((dp775
I01
I1
sNI42
stRp776
sg23
I2
sg24
F44
sbs(S'Dimension'
p777
S'contains(regular)'
p778
tp779
g1
(g14
g3
NtRp780
(dp781
g17
F0.5
sg18
I55
sg19
g20
((dp782
I01
I3
sNI52
stRp783
sg23
I2
sg24
F56
sbs(g596
S'contains(the)'
tp784
g1
(g14
g3
NtRp785
(dp786
g17
F0.5
sg18
I43
sg19
g20
((dp787
I01
I11
sNI32
stRp788
sg23
I2
sg24
F44
sbs(S'Dimension'
p789
S'contains(of)'
tp790
g1
(g14
g3
NtRp791
(dp792
g17
F0.5
sg18
I55
sg19
g20
((dp793
I01
I21
sNI34
stRp794
sg23
I2
sg24
F56
sbs(g596
S'contains(shape)'
p795
tp796
g1
(g14
g3
NtRp797
(dp798
g17
F0.5
sg18
I43
sg19
g20
((dp799
I01
I1
sNI42
stRp800
sg23
I2
sg24
F44
sbs(g215
S'contains(feet)'
p801
tp802
g1
(g14
g3
NtRp803
(dp804
g17
F0.5
sg18
I55
sg19
g20
((dp805
I01
I3
sNI52
stRp806
sg23
I2
sg24
F56
sbs(S'Dimension'
p807
S'contains(inches)'
p808
tp809
g1
(g14
g3
NtRp810
(dp811
g17
F0.5
sg18
I55
sg19
g20
((dp812
I01
I1
sNI54
stRp813
sg23
I2
sg24
F56
sbs(g191
S'contains(extension)'
p814
tp815
g1
(g14
g3
NtRp816
(dp817
g17
F0.5
sg18
I55
sg19
g20
((dp818
I01
I2
sNI53
stRp819
sg23
I2
sg24
F56
sbs(g9
S'contains(can)'
p820
tp821
g1
(g14
g3
NtRp822
(dp823
g17
F0.5
sg18
I43
sg19
g20
((dp824
NI43
stRp825
sg23
I2
sg24
F44
sbs(S'Dimension'
p826
g566
tp827
g1
(g14
g3
NtRp828
(dp829
g17
F0.5
sg18
I55
sg19
g20
((dp830
I01
I1
sNI54
stRp831
sg23
I2
sg24
F56
sbs(g9
S'contains(kilowatt)'
p832
tp833
g1
(g14
g3
NtRp834
(dp835
g17
F0.5
sg18
I43
sg19
g20
((dp836
NI43
stRp837
sg23
I2
sg24
F44
sbs(g8
S'contains(folder)'
p838
tp839
g1
(g14
g3
NtRp840
(dp841
g17
F0.5
sg18
I55
sg19
g20
((dp842
NI55
stRp843
sg23
I2
sg24
F56
sbs(S'Dimension'
p844
S'contains(magnitude)'
p845
tp846
g1
(g14
g3
NtRp847
(dp848
g17
F0.5
sg18
I55
sg19
g20
((dp849
I01
I4
sNI51
stRp850
sg23
I2
sg24
F56
sbs(g8
g289
tp851
g1
(g14
g3
NtRp852
(dp853
g17
F0.5
sg18
I55
sg19
g20
((dp854
NI55
stRp855
sg23
I2
sg24
F56
sbs(g9
g529
tp856
g1
(g14
g3
NtRp857
(dp858
g17
F0.5
sg18
I43
sg19
g20
((dp859
NI43
stRp860
sg23
I2
sg24
F44
sbs(g8
g278
tp861
g1
(g14
g3
NtRp862
(dp863
g17
F0.5
sg18
I55
sg19
g20
((dp864
NI55
stRp865
sg23
I2
sg24
F56
sbs(S'Dimension'
p866
S'contains(bug)'
p867
tp868
g1
(g14
g3
NtRp869
(dp870
g17
F0.5
sg18
I55
sg19
g20
((dp871
I01
I1
sNI54
stRp872
sg23
I2
sg24
F56
sbs(g9
S'contains(?)'
tp873
g1
(g14
g3
NtRp874
(dp875
g17
F0.5
sg18
I43
sg19
g20
((dp876
I01
I43
stRp877
sg23
I1
sg24
F43.5
sbs(g9
S'contains(boston)'
p878
tp879
g1
(g14
g3
NtRp880
(dp881
g17
F0.5
sg18
I43
sg19
g20
((dp882
NI43
stRp883
sg23
I2
sg24
F44
sbs(g8
S'contains(outline)'
p884
tp885
g1
(g14
g3
NtRp886
(dp887
g17
F0.5
sg18
I55
sg19
g20
((dp888
NI55
stRp889
sg23
I2
sg24
F56
sbs(g9
g808
tp890
g1
(g14
g3
NtRp891
(dp892
g17
F0.5
sg18
I43
sg19
g20
((dp893
NI43
stRp894
sg23
I2
sg24
F44
sbs(S'Dimension'
S'contains(lamp)'
p895
tp896
g1
(g14
g3
NtRp897
(dp898
g17
F0.5
sg18
I55
sg19
g20
((dp899
I01
I1
sNI54
stRp900
sg23
I2
sg24
F56
sbs(g344
S'contains(jump)'
p901
tp902
g1
(g14
g3
NtRp903
(dp904
g17
F0.5
sg18
I55
sg19
g20
((dp905
I01
I1
sNI54
stRp906
sg23
I2
sg24
F56
sbs(g9
S'contains(highway)'
p907
tp908
g1
(g14
g3
NtRp909
(dp910
g17
F0.5
sg18
I43
sg19
g20
((dp911
NI43
stRp912
sg23
I2
sg24
F44
sbs(g8
g795
tp913
g1
(g14
g3
NtRp914
(dp915
g17
F0.5
sg18
I55
sg19
g20
((dp916
NI55
stRp917
sg23
I2
sg24
F56
sbs(g8
g485
tp918
g1
(g14
g3
NtRp919
(dp920
g17
F0.5
sg18
I55
sg19
g20
((dp921
NI55
stRp922
sg23
I2
sg24
F56
sbs(g8
g572
tp923
g1
(g14
g3
NtRp924
(dp925
g17
F0.5
sg18
I55
sg19
g20
((dp926
NI55
stRp927
sg23
I2
sg24
F56
sbs(g25
S'contains(be)'
p928
tp929
g1
(g14
g3
NtRp930
(dp931
g17
F0.5
sg18
I55
sg19
g20
((dp932
I01
I5
sNI50
stRp933
sg23
I2
sg24
F56
sbs(S'LookAndShape'
p934
S'contains(ugly)'
p935
tp936
g1
(g14
g3
NtRp937
(dp938
g17
F0.5
sg18
I43
sg19
g20
((dp939
I01
I2
sNI41
stRp940
sg23
I2
sg24
F44
sbs(g8
g222
tp941
g1
(g14
g3
NtRp942
(dp943
g17
F0.5
sg18
I55
sg19
g20
((dp944
NI55
stRp945
sg23
I2
sg24
F56
sbs(S'LookAndShape'
S'contains(snow)'
p946
tp947
g1
(g14
g3
NtRp948
(dp949
g17
F0.5
sg18
I43
sg19
g20
((dp950
I01
I1
sNI42
stRp951
sg23
I2
sg24
F44
sbs(g185
S'contains(laundry)'
p952
tp953
g1
(g14
g3
NtRp954
(dp955
g17
F0.5
sg18
I55
sg19
g20
((dp956
I01
I2
sNI53
stRp957
sg23
I2
sg24
F56
sbs(g789
S'contains(that)'
tp958
g1
(g14
g3
NtRp959
(dp960
g17
F0.5
sg18
I55
sg19
g20
((dp961
I01
I3
sNI52
stRp962
sg23
I2
sg24
F56
sbs(g9
S'contains(european)'
p963
tp964
g1
(g14
g3
NtRp965
(dp966
g17
F0.5
sg18
I43
sg19
g20
((dp967
NI43
stRp968
sg23
I2
sg24
F44
sbs(g8
g385
tp969
g1
(g14
g3
NtRp970
(dp971
g17
F0.5
sg18
I55
sg19
g20
((dp972
NI55
stRp973
sg23
I2
sg24
F56
sbs(g391
S'contains(spain)'
p974
tp975
g1
(g14
g3
NtRp976
(dp977
g17
F0.5
sg18
I55
sg19
g20
((dp978
I01
I1
sNI54
stRp979
sg23
I2
sg24
F56
sbs(g8
g173
tp980
g1
(g14
g3
NtRp981
(dp982
g17
F0.5
sg18
I55
sg19
g20
((dp983
NI55
stRp984
sg23
I2
sg24
F56
sbs(g185
S'contains(after)'
p985
tp986
g1
(g14
g3
NtRp987
(dp988
g17
F0.5
sg18
I55
sg19
g20
((dp989
I01
I2
sNI53
stRp990
sg23
I2
sg24
F56
sbs(g83
g510
tp991
g1
(g14
g3
NtRp992
(dp993
g17
F0.5
sg18
I55
sg19
g20
((dp994
I01
I1
sNI54
stRp995
sg23
I2
sg24
F56
sbs(g9
g392
tp996
g1
(g14
g3
NtRp997
(dp998
g17
F0.5
sg18
I43
sg19
g20
((dp999
NI43
stRp1000
sg23
I2
sg24
F44
sbs(g789
S'contains(size)'
p1001
tp1002
g1
(g14
g3
NtRp1003
(dp1004
g17
F0.5
sg18
I55
sg19
g20
((dp1005
I01
I10
sNI45
stRp1006
sg23
I2
sg24
F56
sbs(g9
S'contains(london)'
p1007
tp1008
g1
(g14
g3
NtRp1009
(dp1010
g17
F0.5
sg18
I43
sg19
g20
((dp1011
NI43
stRp1012
sg23
I2
sg24
F44
sbs(g844
S'contains(normal)'
p1013
tp1014
g1
(g14
g3
NtRp1015
(dp1016
g17
F0.5
sg18
I55
sg19
g20
((dp1017
I01
I1
sNI54
stRp1018
sg23
I2
sg24
F56
sbs(S'Dimension'
p1019
S'contains(train)'
p1020
tp1021
g1
(g14
g3
NtRp1022
(dp1023
g17
F0.5
sg18
I55
sg19
g20
((dp1024
I01
I1
sNI54
stRp1025
sg23
I2
sg24
F56
sbs(g9
g77
tp1026
g1
(g14
g3
NtRp1027
(dp1028
g17
F0.5
sg18
I43
sg19
g20
((dp1029
NI43
stRp1030
sg23
I2
sg24
F44
sbs(g215
S'contains(was)'
p1031
tp1032
g1
(g14
g3
NtRp1033
(dp1034
g17
F0.5
sg18
I55
sg19
g20
((dp1035
I01
I1
sNI54
stRp1036
sg23
I2
sg24
F56
sbs(g436
S'contains(magnets)'
p1037
tp1038
g1
(g14
g3
NtRp1039
(dp1040
g17
F0.5
sg18
I55
sg19
g20
((dp1041
I01
I1
sNI54
stRp1042
sg23
I2
sg24
F56
sbs(g9
S'contains(ants)'
p1043
tp1044
g1
(g14
g3
NtRp1045
(dp1046
g17
F0.5
sg18
I43
sg19
g20
((dp1047
NI43
stRp1048
sg23
I2
sg24
F44
sbs(g9
g324
tp1049
g1
(g14
g3
NtRp1050
(dp1051
g17
F0.5
sg18
I43
sg19
g20
((dp1052
NI43
stRp1053
sg23
I2
sg24
F44
sbs(g9
g64
tp1054
g1
(g14
g3
NtRp1055
(dp1056
g17
F0.5
sg18
I43
sg19
g20
((dp1057
NI43
stRp1058
sg23
I2
sg24
F44
sbs(S'Dimension'
S'contains(nm)'
p1059
tp1060
g1
(g14
g3
NtRp1061
(dp1062
g17
F0.5
sg18
I55
sg19
g20
((dp1063
I01
I1
sNI54
stRp1064
sg23
I2
sg24
F56
sbs(g56
g253
tp1065
g1
(g14
g3
NtRp1066
(dp1067
g17
F0.5
sg18
I55
sg19
g20
((dp1068
I01
I1
sNI54
stRp1069
sg23
I2
sg24
F56
sbs(S'LookAndShape'
p1070
g358
tp1071
g1
(g14
g3
NtRp1072
(dp1073
g17
F0.5
sg18
I43
sg19
g20
((dp1074
I01
I1
sNI42
stRp1075
sg23
I2
sg24
F44
sbs(g25
S'contains(human)'
p1076
tp1077
g1
(g14
g3
NtRp1078
(dp1079
g17
F0.5
sg18
I55
sg19
g20
((dp1080
I01
I2
sNI53
stRp1081
sg23
I2
sg24
F56
sbs(S'Dimension'
p1082
S'contains(package)'
p1083
tp1084
g1
(g14
g3
NtRp1085
(dp1086
g17
F0.5
sg18
I55
sg19
g20
((dp1087
I01
I1
sNI54
stRp1088
sg23
I2
sg24
F56
sbs(S'LookAndShape'
g265
tp1089
g1
(g14
g3
NtRp1090
(dp1091
g17
F0.5
sg18
I43
sg19
g20
((dp1092
I01
I1
sNI42
stRp1093
sg23
I2
sg24
F44
sbs(g9
g352
tp1094
g1
(g14
g3
NtRp1095
(dp1096
g17
F0.5
sg18
I43
sg19
g20
((dp1097
NI43
stRp1098
sg23
I2
sg24
F44
sbs(g8
S'contains(how)'
tp1099
g1
(g14
g3
NtRp1100
(dp1101
g17
F0.5
sg18
I55
sg19
g20
((dp1102
I01
I34
sNI21
stRp1103
sg23
I2
sg24
F56
sbs(g8
g590
tp1104
g1
(g14
g3
NtRp1105
(dp1106
g17
F0.5
sg18
I55
sg19
g20
((dp1107
NI55
stRp1108
sg23
I2
sg24
F56
sbs(g9
g1020
tp1109
g1
(g14
g3
NtRp1110
(dp1111
g17
F0.5
sg18
I43
sg19
g20
((dp1112
NI43
stRp1113
sg23
I2
sg24
F44
sbs(g8
g234
tp1114
g1
(g14
g3
NtRp1115
(dp1116
g17
F0.5
sg18
I55
sg19
g20
((dp1117
NI55
stRp1118
sg23
I2
sg24
F56
sbs(g8
S'contains(trousers)'
p1119
tp1120
g1
(g14
g3
NtRp1121
(dp1122
g17
F0.5
sg18
I55
sg19
g20
((dp1123
NI55
stRp1124
sg23
I2
sg24
F56
sbs(S'LookAndShape'
p1125
S'contains(defines)'
p1126
tp1127
g1
(g14
g3
NtRp1128
(dp1129
g17
F0.5
sg18
I43
sg19
g20
((dp1130
I01
I1
sNI42
stRp1131
sg23
I2
sg24
F44
sbs(g9
g338
tp1132
g1
(g14
g3
NtRp1133
(dp1134
g17
F0.5
sg18
I43
sg19
g20
((dp1135
NI43
stRp1136
sg23
I2
sg24
F44
sbs(g9
g1013
tp1137
g1
(g14
g3
NtRp1138
(dp1139
g17
F0.5
sg18
I43
sg19
g20
((dp1140
NI43
stRp1141
sg23
I2
sg24
F44
sbs(g8
g553
tp1142
g1
(g14
g3
NtRp1143
(dp1144
g17
F0.5
sg18
I55
sg19
g20
((dp1145
NI55
stRp1146
sg23
I2
sg24
F56
sbs(g9
g541
tp1147
g1
(g14
g3
NtRp1148
(dp1149
g17
F0.5
sg18
I43
sg19
g20
((dp1150
NI43
stRp1151
sg23
I2
sg24
F44
sbs(S'LookAndShape'
S'contains(ovnis)'
p1152
tp1153
g1
(g14
g3
NtRp1154
(dp1155
g17
F0.5
sg18
I43
sg19
g20
((dp1156
I01
I2
sNI41
stRp1157
sg23
I2
sg24
F44
sbs(S'LookAndShape'
S'contains(airplane)'
p1158
tp1159
g1
(g14
g3
NtRp1160
(dp1161
g17
F0.5
sg18
I43
sg19
g20
((dp1162
I01
I1
sNI42
stRp1163
sg23
I2
sg24
F44
sbs(g337
S'contains(his)'
p1164
tp1165
g1
(g14
g3
NtRp1166
(dp1167
g17
F0.5
sg18
I55
sg19
g20
((dp1168
I01
I1
sNI54
stRp1169
sg23
I2
sg24
F56
sbs(S'Dimension'
p1170
S'contains(volume)'
p1171
tp1172
g1
(g14
g3
NtRp1173
(dp1174
g17
F0.5
sg18
I55
sg19
g20
((dp1175
I01
I4
sNI51
stRp1176
sg23
I2
sg24
F56
sbs(g9
S'contains(two)'
p1177
tp1178
g1
(g14
g3
NtRp1179
(dp1180
g17
F0.5
sg18
I43
sg19
g20
((dp1181
NI43
stRp1182
sg23
I2
sg24
F44
sbs(g9
g259
tp1183
g1
(g14
g3
NtRp1184
(dp1185
g17
F0.5
sg18
I43
sg19
g20
((dp1186
NI43
stRp1187
sg23
I2
sg24
F44
sbs(g9
g985
tp1188
g1
(g14
g3
NtRp1189
(dp1190
g17
F0.5
sg18
I43
sg19
g20
((dp1191
NI43
stRp1192
sg23
I2
sg24
F44
sbs(g9
S'contains(small)'
p1193
tp1194
g1
(g14
g3
NtRp1195
(dp1196
g17
F0.5
sg18
I43
sg19
g20
((dp1197
NI43
stRp1198
sg23
I2
sg24
F44
sbs(g323
g160
tp1199
g1
(g14
g3
NtRp1200
(dp1201
g17
F0.5
sg18
I55
sg19
g20
((dp1202
I01
I1
sNI54
stRp1203
sg23
I2
sg24
F56
sbs(g8
S'contains(sun)'
p1204
tp1205
g1
(g14
g3
NtRp1206
(dp1207
g17
F0.5
sg18
I55
sg19
g20
((dp1208
NI55
stRp1209
sg23
I2
sg24
F56
sbs(g9
S'contains(forest)'
p1210
tp1211
g1
(g14
g3
NtRp1212
(dp1213
g17
F0.5
sg18
I43
sg19
g20
((dp1214
NI43
stRp1215
sg23
I2
sg24
F44
sbs(g103
g963
tp1216
g1
(g14
g3
NtRp1217
(dp1218
g17
F0.5
sg18
I55
sg19
g20
((dp1219
I01
I1
sNI54
stRp1220
sg23
I2
sg24
F56
sbs(g596
g136
tp1221
g1
(g14
g3
NtRp1222
(dp1223
g17
F0.5
sg18
I43
sg19
g20
((dp1224
I01
I1
sNI42
stRp1225
sg23
I2
sg24
F44
sbs(g8
S'contains(like)'
p1226
tp1227
g1
(g14
g3
NtRp1228
(dp1229
g17
F0.5
sg18
I55
sg19
g20
((dp1230
NI55
stRp1231
sg23
I2
sg24
F56
sbs(g1125
S'contains(that)'
tp1232
g1
(g14
g3
NtRp1233
(dp1234
g17
F0.5
sg18
I43
sg19
g20
((dp1235
I01
I3
sNI40
stRp1236
sg23
I2
sg24
F44
sbs(S'LookAndShape'
g461
tp1237
g1
(g14
g3
NtRp1238
(dp1239
g17
F0.5
sg18
I43
sg19
g20
((dp1240
I01
I1
sNI42
stRp1241
sg23
I2
sg24
F44
sbs(S'Dimension'
p1242
g198
tp1243
g1
(g14
g3
NtRp1244
(dp1245
g17
F0.5
sg18
I55
sg19
g20
((dp1246
I01
I1
sNI54
stRp1247
sg23
I2
sg24
F56
sbs(g8
g946
tp1248
g1
(g14
g3
NtRp1249
(dp1250
g17
F0.5
sg18
I55
sg19
g20
((dp1251
NI55
stRp1252
sg23
I2
sg24
F56
sbs(g9
S'contains(woman)'
p1253
tp1254
g1
(g14
g3
NtRp1255
(dp1256
g17
F0.5
sg18
I43
sg19
g20
((dp1257
NI43
stRp1258
sg23
I2
sg24
F44
sbs(g8
g935
tp1259
g1
(g14
g3
NtRp1260
(dp1261
g17
F0.5
sg18
I55
sg19
g20
((dp1262
NI55
stRp1263
sg23
I2
sg24
F56
sbs(g9
S'contains(high)'
p1264
tp1265
g1
(g14
g3
NtRp1266
(dp1267
g17
F0.5
sg18
I43
sg19
g20
((dp1268
NI43
stRp1269
sg23
I2
sg24
F44
sbs(g9
g928
tp1270
g1
(g14
g3
NtRp1271
(dp1272
g17
F0.5
sg18
I43
sg19
g20
((dp1273
NI43
stRp1274
sg23
I2
sg24
F44
sbs(g8
g1126
tp1275
g1
(g14
g3
NtRp1276
(dp1277
g17
F0.5
sg18
I55
sg19
g20
((dp1278
NI55
stRp1279
sg23
I2
sg24
F56
sbs(g9
S'contains(everest)'
p1280
tp1281
g1
(g14
g3
NtRp1282
(dp1283
g17
F0.5
sg18
I43
sg19
g20
((dp1284
NI43
stRp1285
sg23
I2
sg24
F44
sbs(g8
g179
tp1286
g1
(g14
g3
NtRp1287
(dp1288
g17
F0.5
sg18
I55
sg19
g20
((dp1289
I01
I2
sNI53
stRp1290
sg23
I2
sg24
F56
sbs(S'LookAndShape'
p1291
S'contains(how)'
tp1292
g1
(g14
g3
NtRp1293
(dp1294
g17
F0.5
sg18
I43
sg19
g20
((dp1295
I01
I13
sNI30
stRp1296
sg23
I2
sg24
F44
sbs(g116
g1193
tp1297
g1
(g14
g3
NtRp1298
(dp1299
g17
F0.5
sg18
I55
sg19
g20
((dp1300
I01
I4
sNI51
stRp1301
sg23
I2
sg24
F56
sbs(g103
g166
tp1302
g1
(g14
g3
NtRp1303
(dp1304
g17
F0.5
sg18
I55
sg19
g20
((dp1305
I01
I1
sNI54
stRp1306
sg23
I2
sg24
F56
sbs(S'Dimension'
p1307
g878
tp1308
g1
(g14
g3
NtRp1309
(dp1310
g17
F0.5
sg18
I55
sg19
g20
((dp1311
I01
I1
sNI54
stRp1312
sg23
I2
sg24
F56
sbs(g9
g1083
tp1313
g1
(g14
g3
NtRp1314
(dp1315
g17
F0.5
sg18
I43
sg19
g20
((dp1316
NI43
stRp1317
sg23
I2
sg24
F44
sbs(g9
g1171
tp1318
g1
(g14
g3
NtRp1319
(dp1320
g17
F0.5
sg18
I43
sg19
g20
((dp1321
NI43
stRp1322
sg23
I2
sg24
F44
sbs(g807
S"contains(hitler's)"
p1323
tp1324
g1
(g14
g3
NtRp1325
(dp1326
g17
F0.5
sg18
I55
sg19
g20
((dp1327
I01
I1
sNI54
stRp1328
sg23
I2
sg24
F56
sbs(g8
g124
tp1329
g1
(g14
g3
NtRp1330
(dp1331
g17
F0.5
sg18
I55
sg19
g20
((dp1332
NI55
stRp1333
sg23
I2
sg24
F56
sbs(g9
g845
tp1334
g1
(g14
g3
NtRp1335
(dp1336
g17
F0.5
sg18
I43
sg19
g20
((dp1337
NI43
stRp1338
sg23
I2
sg24
F44
sbs(g8
g1152
tp1339
g1
(g14
g3
NtRp1340
(dp1341
g17
F0.5
sg18
I55
sg19
g20
((dp1342
NI55
stRp1343
sg23
I2
sg24
F56
sbs(g9
g1059
tp1344
g1
(g14
g3
NtRp1345
(dp1346
g17
F0.5
sg18
I43
sg19
g20
((dp1347
NI43
stRp1348
sg23
I2
sg24
F44
sbs(g8
S'contains(?)'
tp1349
g1
(g14
g3
NtRp1350
(dp1351
g17
F0.5
sg18
I55
sg19
g20
((dp1352
I01
I55
stRp1353
sg23
I1
sg24
F55.5
sbs(g9
S'contains(tree)'
p1354
tp1355
g1
(g14
g3
NtRp1356
(dp1357
g17
F0.5
sg18
I43
sg19
g20
((dp1358
NI43
stRp1359
sg23
I2
sg24
F44
sbs(S'Dimension'
g832
tp1360
g1
(g14
g3
NtRp1361
(dp1362
g17
F0.5
sg18
I55
sg19
g20
((dp1363
I01
I1
sNI54
stRp1364
sg23
I2
sg24
F56
sbs(S'LookAndShape'
g90
tp1365
g1
(g14
g3
NtRp1366
(dp1367
g17
F0.5
sg18
I43
sg19
g20
((dp1368
I01
I1
sNI42
stRp1369
sg23
I2
sg24
F44
sbs(g9
S'contains(in)'
p1370
tp1371
g1
(g14
g3
NtRp1372
(dp1373
g17
F0.5
sg18
I43
sg19
g20
((dp1374
NI43
stRp1375
sg23
I2
sg24
F44
sbs(g56
g1354
tp1376
g1
(g14
g3
NtRp1377
(dp1378
g17
F0.5
sg18
I55
sg19
g20
((dp1379
I01
I2
sNI53
stRp1380
sg23
I2
sg24
F56
sbs(g9
g1076
tp1381
g1
(g14
g3
NtRp1382
(dp1383
g17
F0.5
sg18
I43
sg19
g20
((dp1384
NI43
stRp1385
sg23
I2
sg24
F44
sbs(g9
S'contains(elephant)'
p1386
tp1387
g1
(g14
g3
NtRp1388
(dp1389
g17
F0.5
sg18
I43
sg19
g20
((dp1390
NI43
stRp1391
sg23
I2
sg24
F44
sbs(g8
S'contains(people)'
p1392
tp1393
g1
(g14
g3
NtRp1394
(dp1395
g17
F0.5
sg18
I55
sg19
g20
((dp1396
NI55
stRp1397
sg23
I2
sg24
F56
sbs(g9
g778
tp1398
g1
(g14
g3
NtRp1399
(dp1400
g17
F0.5
sg18
I43
sg19
g20
((dp1401
NI43
stRp1402
sg23
I2
sg24
F44
sbs(S'Dimension'
p1403
S'contains(is)'
tp1404
g1
(g14
g3
NtRp1405
(dp1406
g17
F0.5
sg18
I55
sg19
g20
((dp1407
I01
I33
sNI22
stRp1408
sg23
I2
sg24
F56
sbs(g8
g312
tp1409
g1
(g14
g3
NtRp1410
(dp1411
g17
F0.5
sg18
I55
sg19
g20
((dp1412
NI55
stRp1413
sg23
I2
sg24
F56
sbs(g866
g295
tp1414
g1
(g14
g3
NtRp1415
(dp1416
g17
F0.5
sg18
I55
sg19
g20
((dp1417
I01
I2
sNI53
stRp1418
sg23
I2
sg24
F56
sbs(g9
g1323
tp1419
g1
(g14
g3
NtRp1420
(dp1421
g17
F0.5
sg18
I43
sg19
g20
((dp1422
NI43
stRp1423
sg23
I2
sg24
F44
sbs(S'Dimension'
p1424
g247
tp1425
g1
(g14
g3
NtRp1426
(dp1427
g17
F0.5
sg18
I55
sg19
g20
((dp1428
I01
I1
sNI54
stRp1429
sg23
I2
sg24
F56
sbs(S'LookAndShape'
g740
tp1430
g1
(g14
g3
NtRp1431
(dp1432
g17
F0.5
sg18
I43
sg19
g20
((dp1433
I01
I2
sNI41
stRp1434
sg23
I2
sg24
F44
sbs(g8
S'contains(pretty)'
p1435
tp1436
g1
(g14
g3
NtRp1437
(dp1438
g17
F0.5
sg18
I55
sg19
g20
((dp1439
NI55
stRp1440
sg23
I2
sg24
F56
sbs(g9
S'contains(korea)'
p1441
tp1442
g1
(g14
g3
NtRp1443
(dp1444
g17
F0.5
sg18
I43
sg19
g20
((dp1445
NI43
stRp1446
sg23
I2
sg24
F44
sbs(g698
g884
tp1447
g1
(g14
g3
NtRp1448
(dp1449
g17
F0.5
sg18
I43
sg19
g20
((dp1450
I01
I1
sNI42
stRp1451
sg23
I2
sg24
F44
sbs(g777
g717
tp1452
g1
(g14
g3
NtRp1453
(dp1454
g17
F0.5
sg18
I55
sg19
g20
((dp1455
I01
I3
sNI52
stRp1456
sg23
I2
sg24
F56
sbs(S'Dimension'
p1457
g1264
tp1458
g1
(g14
g3
NtRp1459
(dp1460
g17
F0.5
sg18
I55
sg19
g20
((dp1461
I01
I3
sNI52
stRp1462
sg23
I2
sg24
F56
sbs(g9
g1001
tp1463
g1
(g14
g3
NtRp1464
(dp1465
g17
F0.5
sg18
I43
sg19
g20
((dp1466
NI43
stRp1467
sg23
I2
sg24
F44
sbs(S'LookAndShape'
g675
tp1468
g1
(g14
g3
NtRp1469
(dp1470
g17
F0.5
sg18
I43
sg19
g20
((dp1471
I01
I1
sNI42
stRp1472
sg23
I2
sg24
F44
sbs(g1242
S'contains(plane)'
tp1473
g1
(g14
g3
NtRp1474
(dp1475
g17
F0.5
sg18
I55
sg19
g20
((dp1476
I01
I1
sNI54
stRp1477
sg23
I2
sg24
F56
sbs(g8
S'contains(are)'
tp1478
g1
(g14
g3
NtRp1479
(dp1480
g17
F0.5
sg18
I55
sg19
g20
((dp1481
I01
I6
sNI49
stRp1482
sg23
I2
sg24
F56
sbs(g934
S'contains(an)'
tp1483
g1
(g14
g3
NtRp1484
(dp1485
g17
F0.5
sg18
I43
sg19
g20
((dp1486
I01
I7
sNI36
stRp1487
sg23
I2
sg24
F44
sbs(g9
g974
tp1488
g1
(g14
g3
NtRp1489
(dp1490
g17
F0.5
sg18
I43
sg19
g20
((dp1491
NI43
stRp1492
sg23
I2
sg24
F44
sbs(g116
S'contains(your)'
p1493
tp1494
g1
(g14
g3
NtRp1495
(dp1496
g17
F0.5
sg18
I55
sg19
g20
((dp1497
I01
I2
sNI53
stRp1498
sg23
I2
sg24
F56
sbs(g9
g867
tp1499
g1
(g14
g3
NtRp1500
(dp1501
g17
F0.5
sg18
I43
sg19
g20
((dp1502
NI43
stRp1503
sg23
I2
sg24
F44
sbs(g9
g97
tp1504
g1
(g14
g3
NtRp1505
(dp1506
g17
F0.5
sg18
I43
sg19
g20
((dp1507
NI43
stRp1508
sg23
I2
sg24
F44
sbs(g1170
S'contains(bottle)'
p1509
tp1510
g1
(g14
g3
NtRp1511
(dp1512
g17
F0.5
sg18
I55
sg19
g20
((dp1513
I01
I1
sNI54
stRp1514
sg23
I2
sg24
F56
sbs(g9
S'contains(shoe)'
p1515
tp1516
g1
(g14
g3
NtRp1517
(dp1518
g17
F0.5
sg18
I43
sg19
g20
((dp1519
NI43
stRp1520
sg23
I2
sg24
F44
sbs(g25
g820
tp1521
g1
(g14
g3
NtRp1522
(dp1523
g17
F0.5
sg18
I55
sg19
g20
((dp1524
I01
I10
sNI45
stRp1525
sg23
I2
sg24
F56
sbs(g1307
g907
tp1526
g1
(g14
g3
NtRp1527
(dp1528
g17
F0.5
sg18
I55
sg19
g20
((dp1529
I01
I1
sNI54
stRp1530
sg23
I2
sg24
F56
sbs(S'Dimension'
g584
tp1531
g1
(g14
g3
NtRp1532
(dp1533
g17
F0.5
sg18
I55
sg19
g20
((dp1534
I01
I4
sNI51
stRp1535
sg23
I2
sg24
F56
sbs(g9
g895
tp1536
g1
(g14
g3
NtRp1537
(dp1538
g17
F0.5
sg18
I43
sg19
g20
((dp1539
NI43
stRp1540
sg23
I2
sg24
F44
sbs(g9
g84
tp1541
g1
(g14
g3
NtRp1542
(dp1543
g17
F0.5
sg18
I43
sg19
g20
((dp1544
NI43
stRp1545
sg23
I2
sg24
F44
sbs(g8
S'contains(sense)'
p1546
tp1547
g1
(g14
g3
NtRp1548
(dp1549
g17
F0.5
sg18
I55
sg19
g20
((dp1550
NI55
stRp1551
sg23
I2
sg24
F56
sbs(g8
g1158
tp1552
g1
(g14
g3
NtRp1553
(dp1554
g17
F0.5
sg18
I55
sg19
g20
((dp1555
NI55
stRp1556
sg23
I2
sg24
F56
sbs(S'Dimension'
g1515
tp1557
g1
(g14
g3
NtRp1558
(dp1559
g17
F0.5
sg18
I55
sg19
g20
((dp1560
I01
I1
sNI54
stRp1561
sg23
I2
sg24
F56
sbs(g1307
g70
tp1562
g1
(g14
g3
NtRp1563
(dp1564
g17
F0.5
sg18
I55
sg19
g20
((dp1565
I01
I1
sNI54
stRp1566
sg23
I2
sg24
F56
sbs(g1424
g1253
tp1567
g1
(g14
g3
NtRp1568
(dp1569
g17
F0.5
sg18
I55
sg19
g20
((dp1570
I01
I1
sNI54
stRp1571
sg23
I2
sg24
F56
sbs(S'LookAndShape'
g838
tp1572
g1
(g14
g3
NtRp1573
(dp1574
g17
F0.5
sg18
I43
sg19
g20
((dp1575
I01
I1
sNI42
stRp1576
sg23
I2
sg24
F44
sbs(S'Dimension'
g1043
tp1577
g1
(g14
g3
NtRp1578
(dp1579
g17
F0.5
sg18
I55
sg19
g20
((dp1580
I01
I1
sNI54
stRp1581
sg23
I2
sg24
F56
sbs(g844
S'contains(earthquake)'
p1582
tp1583
g1
(g14
g3
NtRp1584
(dp1585
g17
F0.5
sg18
I55
sg19
g20
((dp1586
I01
I1
sNI54
stRp1587
sg23
I2
sg24
F56
sbs(g9
g1037
tp1588
g1
(g14
g3
NtRp1589
(dp1590
g17
F0.5
sg18
I43
sg19
g20
((dp1591
NI43
stRp1592
sg23
I2
sg24
F44
sbs(g9
S'contains(denmark)'
p1593
tp1594
g1
(g14
g3
NtRp1595
(dp1596
g17
F0.5
sg18
I43
sg19
g20
((dp1597
NI43
stRp1598
sg23
I2
sg24
F44
sbs(g9
g1031
tp1599
g1
(g14
g3
NtRp1600
(dp1601
g17
F0.5
sg18
I43
sg19
g20
((dp1602
NI43
stRp1603
sg23
I2
sg24
F44
sbs(g9
g814
tp1604
g1
(g14
g3
NtRp1605
(dp1606
g17
F0.5
sg18
I43
sg19
g20
((dp1607
NI43
stRp1608
sg23
I2
sg24
F44
sbs(g9
g1493
tp1609
g1
(g14
g3
NtRp1610
(dp1611
g17
F0.5
sg18
I43
sg19
g20
((dp1612
NI43
stRp1613
sg23
I2
sg24
F44
sbs(g449
g723
tp1614
g1
(g14
g3
NtRp1615
(dp1616
g17
F0.5
sg18
I55
sg19
g20
((dp1617
I01
I1
sNI54
stRp1618
sg23
I2
sg24
F56
sbs(S'LookAndShape'
g711
tp1619
g1
(g14
g3
NtRp1620
(dp1621
g17
F0.5
sg18
I43
sg19
g20
((dp1622
I01
I1
sNI42
stRp1623
sg23
I2
sg24
F44
sbs(S'Dimension'
p1624
S'contains(an)'
tp1625
g1
(g14
g3
NtRp1626
(dp1627
g17
F0.5
sg18
I55
sg19
g20
((dp1628
I01
I4
sNI51
stRp1629
sg23
I2
sg24
F56
sbs(S'LookAndShape'
S'contains(man)'
p1630
tp1631
g1
(g14
g3
NtRp1632
(dp1633
g17
F0.5
sg18
I43
sg19
g20
((dp1634
I01
I1
sNI42
stRp1635
sg23
I2
sg24
F44
sbs(g9
g437
tp1636
g1
(g14
g3
NtRp1637
(dp1638
g17
F0.5
sg18
I43
sg19
g20
((dp1639
NI43
stRp1640
sg23
I2
sg24
F44
sbs(g311
g419
tp1641
g1
(g14
g3
NtRp1642
(dp1643
g17
F0.5
sg18
I43
sg19
g20
((dp1644
I01
I5
sNI38
stRp1645
sg23
I2
sg24
F44
sbs(S'LookAndShape'
S'contains(plane)'
tp1646
g1
(g14
g3
NtRp1647
(dp1648
g17
F0.5
sg18
I43
sg19
g20
((dp1649
I01
I1
sNI42
stRp1650
sg23
I2
sg24
F44
sbs(g76
g467
tp1651
g1
(g14
g3
NtRp1652
(dp1653
g17
F0.5
sg18
I55
sg19
g20
((dp1654
I01
I1
sNI54
stRp1655
sg23
I2
sg24
F56
sbs(g8
g204
tp1656
g1
(g14
g3
NtRp1657
(dp1658
g17
F0.5
sg18
I55
sg19
g20
((dp1659
NI55
stRp1660
sg23
I2
sg24
F56
sbs(g826
g663
tp1661
g1
(g14
g3
NtRp1662
(dp1663
g17
F0.5
sg18
I55
sg19
g20
((dp1664
I01
I1
sNI54
stRp1665
sg23
I2
sg24
F56
sbs(g1242
S'contains(does)'
tp1666
g1
(g14
g3
NtRp1667
(dp1668
g17
F0.5
sg18
I55
sg19
g20
((dp1669
I01
I1
sNI54
stRp1670
sg23
I2
sg24
F56
sbs(g9
g331
tp1671
g1
(g14
g3
NtRp1672
(dp1673
g17
F0.5
sg18
I43
sg19
g20
((dp1674
NI43
stRp1675
sg23
I2
sg24
F44
sbs(g8
g1630
tp1676
g1
(g14
g3
NtRp1677
(dp1678
g17
F0.5
sg18
I55
sg19
g20
((dp1679
NI55
stRp1680
sg23
I2
sg24
F56
sbs(S'LookAndShape'
S'contains(girl)'
p1681
tp1682
g1
(g14
g3
NtRp1683
(dp1684
g17
F0.5
sg18
I43
sg19
g20
((dp1685
I01
I1
sNI42
stRp1686
sg23
I2
sg24
F44
sbs(g9
g443
tp1687
g1
(g14
g3
NtRp1688
(dp1689
g17
F0.5
sg18
I43
sg19
g20
((dp1690
NI43
stRp1691
sg23
I2
sg24
F44
sbs(g37
g625
tp1692
g1
(g14
g3
NtRp1693
(dp1694
g17
F0.5
sg18
I55
sg19
g20
((dp1695
I01
I1
sNI54
stRp1696
sg23
I2
sg24
F56
sbs(S'Dimension'
p1697
g1441
tp1698
g1
(g14
g3
NtRp1699
(dp1700
g17
F0.5
sg18
I55
sg19
g20
((dp1701
I01
I1
sNI54
stRp1702
sg23
I2
sg24
F56
sbs(g9
S'contains(trees)'
p1703
tp1704
g1
(g14
g3
NtRp1705
(dp1706
g17
F0.5
sg18
I43
sg19
g20
((dp1707
NI43
stRp1708
sg23
I2
sg24
F44
sbs(g1697
g1593
tp1709
g1
(g14
g3
NtRp1710
(dp1711
g17
F0.5
sg18
I55
sg19
g20
((dp1712
I01
I1
sNI54
stRp1713
sg23
I2
sg24
F56
sbs(g8
g1681
tp1714
g1
(g14
g3
NtRp1715
(dp1716
g17
F0.5
sg18
I55
sg19
g20
((dp1717
NI55
stRp1718
sg23
I2
sg24
F56
sbs(g9
g1582
tp1719
g1
(g14
g3
NtRp1720
(dp1721
g17
F0.5
sg18
I43
sg19
g20
((dp1722
NI43
stRp1723
sg23
I2
sg24
F44
sbs(g351
g1007
tp1724
g1
(g14
g3
NtRp1725
(dp1726
g17
F0.5
sg18
I55
sg19
g20
((dp1727
I01
I1
sNI54
stRp1728
sg23
I2
sg24
F56
sbs(g1019
g413
tp1729
g1
(g14
g3
NtRp1730
(dp1731
g17
F0.5
sg18
I55
sg19
g20
((dp1732
I01
I4
sNI51
stRp1733
sg23
I2
sg24
F56
sbs(g8
g699
tp1734
g1
(g14
g3
NtRp1735
(dp1736
g17
F0.5
sg18
I55
sg19
g20
((dp1737
NI55
stRp1738
sg23
I2
sg24
F56
sbs(g9
g952
tp1739
g1
(g14
g3
NtRp1740
(dp1741
g17
F0.5
sg18
I43
sg19
g20
((dp1742
NI43
stRp1743
sg23
I2
sg24
F44
sbs(g240
S'contains(strike)'
p1744
tp1745
g1
(g14
g3
NtRp1746
(dp1747
g17
F0.5
sg18
I55
sg19
g20
((dp1748
I01
I1
sNI54
stRp1749
sg23
I2
sg24
F56
sbs(g9
g669
tp1750
g1
(g14
g3
NtRp1751
(dp1752
g17
F0.5
sg18
I43
sg19
g20
((dp1753
NI43
stRp1754
sg23
I2
sg24
F44
sbs(g9
g602
tp1755
g1
(g14
g3
NtRp1756
(dp1757
g17
F0.5
sg18
I43
sg19
g20
((dp1758
NI43
stRp1759
sg23
I2
sg24
F44
sbs(g1082
g657
tp1760
g1
(g14
g3
NtRp1761
(dp1762
g17
F0.5
sg18
I55
sg19
g20
((dp1763
I01
I2
sNI53
stRp1764
sg23
I2
sg24
F56
sbs(g1624
g1386
tp1765
g1
(g14
g3
NtRp1766
(dp1767
g17
F0.5
sg18
I55
sg19
g20
((dp1768
I01
I1
sNI54
stRp1769
sg23
I2
sg24
F56
sbs(g8
g631
tp1770
g1
(g14
g3
NtRp1771
(dp1772
g17
F0.5
sg18
I55
sg19
g20
((dp1773
NI55
stRp1774
sg23
I2
sg24
F56
sbs(g9
g901
tp1775
g1
(g14
g3
NtRp1776
(dp1777
g17
F0.5
sg18
I43
sg19
g20
((dp1778
NI43
stRp1779
sg23
I2
sg24
F44
sbs(g110
g1546
tp1780
g1
(g14
g3
NtRp1781
(dp1782
g17
F0.5
sg18
I43
sg19
g20
((dp1783
I01
I1
sNI42
stRp1784
sg23
I2
sg24
F44
sbs(g56
g1370
tp1785
g1
(g14
g3
NtRp1786
(dp1787
g17
F0.5
sg18
I55
sg19
g20
((dp1788
I01
I5
sNI50
stRp1789
sg23
I2
sg24
F56
sbs(g9
S'contains(johanna)'
p1790
tp1791
g1
(g14
g3
NtRp1792
(dp1793
g17
F0.5
sg18
I43
sg19
g20
((dp1794
NI43
stRp1795
sg23
I2
sg24
F44
sbs(g1070
g535
tp1796
g1
(g14
g3
NtRp1797
(dp1798
g17
F0.5
sg18
I43
sg19
g20
((dp1799
I01
I5
sNI38
stRp1800
sg23
I2
sg24
F44
sbs(g1403
g1790
tp1801
g1
(g14
g3
NtRp1802
(dp1803
g17
F0.5
sg18
I55
sg19
g20
((dp1804
I01
I1
sNI54
stRp1805
sg23
I2
sg24
F56
sbs(S'LookAndShape'
p1806
g271
tp1807
g1
(g14
g3
NtRp1808
(dp1809
g17
F0.5
sg18
I43
sg19
g20
((dp1810
I01
I1
sNI42
stRp1811
sg23
I2
sg24
F44
sbs(g9
g801
tp1812
g1
(g14
g3
NtRp1813
(dp1814
g17
F0.5
sg18
I43
sg19
g20
((dp1815
NI43
stRp1816
sg23
I2
sg24
F44
sbs(g9
g504
tp1817
g1
(g14
g3
NtRp1818
(dp1819
g17
F0.5
sg18
I43
sg19
g20
((dp1820
NI43
stRp1821
sg23
I2
sg24
F44
sbs(g491
g578
tp1822
g1
(g14
g3
NtRp1823
(dp1824
g17
F0.5
sg18
I55
sg19
g20
((dp1825
I01
I1
sNI54
stRp1826
sg23
I2
sg24
F56
sbs(g1457
g1280
tp1827
g1
(g14
g3
NtRp1828
(dp1829
g17
F0.5
sg18
I55
sg19
g20
((dp1830
I01
I1
sNI54
stRp1831
sg23
I2
sg24
F56
sbs(g9
g1509
tp1832
g1
(g14
g3
NtRp1833
(dp1834
g17
F0.5
sg18
I43
sg19
g20
((dp1835
NI43
stRp1836
sg23
I2
sg24
F44
sbs(g1019
S'contains(the)'
tp1837
g1
(g14
g3
NtRp1838
(dp1839
g17
F0.5
sg18
I55
sg19
g20
((dp1840
I01
I28
sNI27
stRp1841
sg23
I2
sg24
F56
sbs(g516
g479
tp1842
g1
(g14
g3
NtRp1843
(dp1844
g17
F0.5
sg18
I43
sg19
g20
((dp1845
I01
I1
sNI42
stRp1846
sg23
I2
sg24
F44
sbs(g9
g473
tp1847
g1
(g14
g3
NtRp1848
(dp1849
g17
F0.5
sg18
I43
sg19
g20
((dp1850
NI43
stRp1851
sg23
I2
sg24
F44
sbs(g8
g560
tp1852
g1
(g14
g3
NtRp1853
(dp1854
g17
F0.5
sg18
I55
sg19
g20
((dp1855
NI55
stRp1856
sg23
I2
sg24
F56
sbs(g8
S'contains(scissors)'
p1857
tp1858
g1
(g14
g3
NtRp1859
(dp1860
g17
F0.5
sg18
I55
sg19
g20
((dp1861
NI55
stRp1862
sg23
I2
sg24
F56
sbs(g9
g1744
tp1863
g1
(g14
g3
NtRp1864
(dp1865
g17
F0.5
sg18
I43
sg19
g20
((dp1866
NI43
stRp1867
sg23
I2
sg24
F44
sbs(g9
g216
tp1868
g1
(g14
g3
NtRp1869
(dp1870
g17
F0.5
sg18
I43
sg19
g20
((dp1871
NI43
stRp1872
sg23
I2
sg24
F44
sbs(g110
g425
tp1873
g1
(g14
g3
NtRp1874
(dp1875
g17
F0.5
sg18
I43
sg19
g20
((dp1876
I01
I1
sNI42
stRp1877
sg23
I2
sg24
F44
sbs(g9
g1226
tp1878
g1
(g14
g3
NtRp1879
(dp1880
g17
F0.5
sg18
I43
sg19
g20
((dp1881
I01
I31
sNI12
stRp1882
sg23
I2
sg24
F44
sbs(g8
g522
tp1883
g1
(g14
g3
NtRp1884
(dp1885
g17
F0.5
sg18
I55
sg19
g20
((dp1886
NI55
stRp1887
sg23
I2
sg24
F56
sbs(g191
g1210
tp1888
g1
(g14
g3
NtRp1889
(dp1890
g17
F0.5
sg18
I55
sg19
g20
((dp1891
I01
I1
sNI54
stRp1892
sg23
I2
sg24
F56
sbs(S'Dimension'
g1703
tp1893
g1
(g14
g3
NtRp1894
(dp1895
g17
F0.5
sg18
I55
sg19
g20
((dp1896
I01
I1
sNI54
stRp1897
sg23
I2
sg24
F56
sbs(g1806
g1204
tp1898
g1
(g14
g3
NtRp1899
(dp1900
g17
F0.5
sg18
I43
sg19
g20
((dp1901
I01
I1
sNI42
stRp1902
sg23
I2
sg24
F44
sbs(g9
g345
tp1903
g1
(g14
g3
NtRp1904
(dp1905
g17
F0.5
sg18
I43
sg19
g20
((dp1906
NI43
stRp1907
sg23
I2
sg24
F44
sbs(g9
g547
tp1908
g1
(g14
g3
NtRp1909
(dp1910
g17
F0.5
sg18
I43
sg19
g20
((dp1911
NI43
stRp1912
sg23
I2
sg24
F44
sbs(g240
g1177
tp1913
g1
(g14
g3
NtRp1914
(dp1915
g17
F0.5
sg18
I55
sg19
g20
((dp1916
I01
I2
sNI53
stRp1917
sg23
I2
sg24
F56
sbs(g1125
g142
tp1918
g1
(g14
g3
NtRp1919
(dp1920
g17
F0.5
sg18
I43
sg19
g20
((dp1921
I01
I1
sNI42
stRp1922
sg23
I2
sg24
F44
sbs(g9
g1164
tp1923
g1
(g14
g3
NtRp1924
(dp1925
g17
F0.5
sg18
I43
sg19
g20
((dp1926
NI43
stRp1927
sg23
I2
sg24
F44
sbs(g9
g117
tp1928
g1
(g14
g3
NtRp1929
(dp1930
g17
F0.5
sg18
I43
sg19
g20
((dp1931
NI43
stRp1932
sg23
I2
sg24
F44
sbs(g330
g374
tp1933
g1
(g14
g3
NtRp1934
(dp1935
g17
F0.5
sg18
I55
sg19
g20
((dp1936
I01
I1
sNI54
stRp1937
sg23
I2
sg24
F56
sbs(g1291
g1392
tp1938
g1
(g14
g3
NtRp1939
(dp1940
g17
F0.5
sg18
I43
sg19
g20
((dp1941
I01
I1
sNI42
stRp1942
sg23
I2
sg24
F44
sbs(S'LookAndShape'
g1857
tp1943
g1
(g14
g3
NtRp1944
(dp1945
g17
F0.5
sg18
I43
sg19
g20
((dp1946
I01
I2
sNI41
stRp1947
sg23
I2
sg24
F44
sbs(S'LookAndShape'
g1119
tp1948
g1
(g14
g3
NtRp1949
(dp1950
g17
F0.5
sg18
I43
sg19
g20
((dp1951
I01
I1
sNI42
stRp1952
sg23
I2
sg24
F44
sbs(g516
g1435
tp1953
g1
(g14
g3
NtRp1954
(dp1955
g17
F0.5
sg18
I43
sg19
g20
((dp1956
I01
I1
sNI42
stRp1957
sg23
I2
sg24
F44
sbs(g1457
g619
tp1958
g1
(g14
g3
NtRp1959
(dp1960
g17
F0.5
sg18
I55
sg19
g20
((dp1961
I01
I1
sNI54
stRp1962
sg23
I2
sg24
F56
sbssS'_label_probdist'
p1963
g1
(g14
g3
NtRp1964
(dp1965
g17
F0.5
sg18
I98
sg19
g20
((dp1966
g8
I55
sg9
I43
stRp1967
sg23
I2
sg24
F99
sbsb.