ccopy_reg
_reconstructor
p0
(cnltk.classify.naivebayes
NaiveBayesClassifier
p1
c__builtin__
object
p2
Ntp3
Rp4
(dp5
S'_labels'
p6
(lp7
S'Meaning'
p8
aS'Composition'
p9
aS'Abbreviation'
p10
asS'_feature_probdist'
p11
(dp12
(S'Composition'
p13
S'contains(batteries)'
p14
tp15
g0
(cnltk.probability
ELEProbDist
p16
g2
Ntp17
Rp18
(dp19
S'_gamma'
p20
F0.5
sS'_N'
p21
I23
sS'_freqdist'
p22
g0
(cnltk.probability
FreqDist
p23
c__builtin__
dict
p24
(dp25
I01
I1
sNI22
stp26
Rp27
(dp28
g21
I23
sS'_max_cache'
p29
NsS'_item_cache'
p30
NsS'_Nr_cache'
p31
NsbsS'_bins'
p32
I2
sS'_divisor'
p33
F24.0
sbs(S'Composition'
p34
S'contains(snake)'
p35
tp36
g0
(g16
g2
Ntp37
Rp38
(dp39
g20
F0.5
sg21
I23
sg22
g0
(g23
g24
(dp40
I01
I1
sNI22
stp41
Rp42
(dp43
g21
I23
sg29
Nsg30
Nsg31
Nsbsg32
I2
sg33
F24.0
sbs(g9
S'contains(s)'
p44
tp45
g0
(g16
g2
Ntp46
Rp47
(dp48
g20
F0.5
sg21
I23
sg22
g0
(g23
g24
(dp49
NI23
stp50
Rp51
(dp52
g21
I23
sg29
Nsg30
Nsg31
Nsbsg32
I2
sg33
F24.0
sbs(S'Meaning'
p53
S'contains(are)'
p54
tp55
g0
(g16
g2
Ntp56
Rp57
(dp58
g20
F0.5
sg21
I60
sg22
g0
(g23
g24
(dp59
I01
I9
sNI51
stp60
Rp61
(dp62
g21
I60
sg29
Nsg30
Nsg31
Nsbsg32
I2
sg33
F61.0
sbs(S'Meaning'
p63
S'contains(ground)'
p64
tp65
g0
(g16
g2
Ntp66
Rp67
(dp68
g20
F0.5
sg21
I60
sg22
g0
(g23
g24
(dp69
I01
I1
sNI59
stp70
Rp71
(dp72
g21
I60
sg29
Nsg30
Nsg31
Nsbsg32
I2
sg33
F61.0
sbs(g9
S'contains(dogs)'
p73
tp74
g0
(g16
g2
Ntp75
Rp76
(dp77
g20
F0.5
sg21
I23
sg22
g0
(g23
g24
(dp78
NI23
stp79
Rp80
(dp81
g21
I23
sg29
Nsg30
Nsg31
Nsbsg32
I2
sg33
F24.0
sbs(S'Composition'
p82
S'contains(buses)'
p83
tp84
g0
(g16
g2
Ntp85
Rp86
(dp87
g20
F0.5
sg21
I23
sg22
g0
(g23
g24
(dp88
I01
I2
sNI21
stp89
Rp90
(dp91
g21
I23
sg29
Nsg30
Nsg31
Nsbsg32
I2
sg33
F24.0
sbs(g10
S'contains(lockers)'
p92
tp93
g0
(g16
g2
Ntp94
Rp95
(dp96
g20
F0.5
sg21
I18
sg22
g0
(g23
g24
(dp97
NI18
stp98
Rp99
(dp100
g21
I18
sg29
Nsg30
Nsg31
Nsbsg32
I2
sg33
F19.0
sbs(g8
S'contains(aids)'
p101
tp102
g0
(g16
g2
Ntp103
Rp104
(dp105
g20
F0.5
sg21
I60
sg22
g0
(g23
g24
(dp106
NI60
stp107
Rp108
(dp109
g21
I60
sg29
Nsg30
Nsg31
Nsbsg32
I2
sg33
F61.0
sbs(S'Abbreviation'
p110
S'contains(motors)'
p111
tp112
g0
(g16
g2
Ntp113
Rp114
(dp115
g20
F0.5
sg21
I18
sg22
g0
(g23
g24
(dp116
I01
I1
sNI17
stp117
Rp118
(dp119
g21
I18
sg29
Nsg30
Nsg31
Nsbsg32
I2
sg33
F19.0
sbs(g9
S'contains(stand)'
p120
tp121
g0
(g16
g2
Ntp122
Rp123
(dp124
g20
F0.5
sg21
I23
sg22
g0
(g23
g24
(dp125
NI23
stp126
Rp127
(dp128
g21
I23
sg29
Nsg30
Nsg31
Nsbsg32
I2
sg33
F24.0
sbs(g8
S'contains(paper)'
p129
tp130
g0
(g16
g2
Ntp131
Rp132
(dp133
g20
F0.5
sg21
I60
sg22
g0
(g23
g24
(dp134
NI60
stp135
Rp136
(dp137
g21
I60
sg29
Nsg30
Nsg31
Nsbsg32
I2
sg33
F61.0
sbs(g10
S'contains(bad)'
p138
tp139
g0
(g16
g2
Ntp140
Rp141
(dp142
g20
F0.5
sg21
I18
sg22
g0
(g23
g24
(dp143
NI18
stp144
Rp145
(dp146
g21
I18
sg29
Nsg30
Nsg31
Nsbsg32
I2
sg33
F19.0
sbs(S'Abbreviation'
p147
S'contains(bph)'
p148
tp149
g0
(g16
g2
Ntp150
Rp151
(dp152
g20
F0.5
sg21
I18
sg22
g0
(g23
g24
(dp153
I01
I1
sNI17
stp154
Rp155
(dp156
g21
I18
sg29
Nsg30
Nsg31
Nsbsg32
I2
sg33
F19.0
sbs(g9
S'contains(war)'
p157
tp158
g0
(g16
g2
Ntp159
Rp160
(dp161
g20
F0.5
sg21
I23
sg22
g0
(g23
g24
(dp162
NI23
stp163
Rp164
(dp165
g21
I23
sg29
Nsg30
Nsg31
Nsbsg32
I2
sg33
F24.0
sbs(g10
S'contains(ass)'
p166
tp167
g0
(g16
g2
Ntp168
Rp169
(dp170
g20
F0.5
sg21
I18
sg22
g0
(g23
g24
(dp171
NI18
stp172
Rp173
(dp174
g21
I18
sg29
Nsg30
Nsg31
Nsbsg32
I2
sg33
F19.0
sbs(g8
S'contains(widow)'
p175
tp176
g0
(g16
g2
Ntp177
Rp178
(dp179
g20
F0.5
sg21
I60
sg22
g0
(g23
g24
(dp180
NI60
stp181
Rp182
(dp183
g21
I60
sg29
Nsg30
Nsg31
Nsbsg32
I2
sg33
F61.0
sbs(g8
g83
tp184
g0
(g16
g2
Ntp185
Rp186
(dp187
g20
F0.5
sg21
I60
sg22
g0
(g23
g24
(dp188
NI60
stp189
Rp190
(dp191
g21
I60
sg29
Nsg30
Nsg31
Nsbsg32
I2
sg33
F61.0
sbs(g9
g64
tp192
g0
(g16
g2
Ntp193
Rp194
(dp195
g20
F0.5
sg21
I23
sg22
g0
(g23
g24
(dp196
NI23
stp197
Rp198
(dp199
g21
I23
sg29
Nsg30
Nsg31
Nsbsg32
I2
sg33
F24.0
sbs(g9
S'contains(an)'
p200
tp201
g0
(g16
g2
Ntp202
Rp203
(dp204
g20
F0.5
sg21
I23
sg22
g0
(g23
g24
(dp205
NI23
stp206
Rp207
(dp208
g21
I23
sg29
Nsg30
Nsg31
Nsbsg32
I2
sg33
F24.0
sbs(g10
S'contains(dunkin)'
p209
tp210
g0
(g16
g2
Ntp211
Rp212
(dp213
g20
F0.5
sg21
I18
sg22
g0
(g23
g24
(dp214
NI18
stp215
Rp216
(dp217
g21
I18
sg29
Nsg30
Nsg31
Nsbsg32
I2
sg33
F19.0
sbs(S'Composition'
p218
S'contains(plastic)'
p219
tp220
g0
(g16
g2
Ntp221
Rp222
(dp223
g20
F0.5
sg21
I23
sg22
g0
(g23
g24
(dp224
I01
I1
sNI22
stp225
Rp226
(dp227
g21
I23
sg29
Nsg30
Nsg31
Nsbsg32
I2
sg33
F24.0
sbs(S'Meaning'
p228
S'contains(cars)'
p229
tp230
g0
(g16
g2
Ntp231
Rp232
(dp233
g20
F0.5
sg21
I60
sg22
g0
(g23
g24
(dp234
I01
I1
sNI59
stp235
Rp236
(dp237
g21
I60
sg29
Nsg30
Nsg31
Nsbsg32
I2
sg33
F61.0
sbs(g9
S'contains(general)'
p238
tp239
g0
(g16
g2
Ntp240
Rp241
(dp242
g20
F0.5
sg21
I23
sg22
g0
(g23
g24
(dp243
NI23
stp244
Rp245
(dp246
g21
I23
sg29
Nsg30
Nsg31
Nsbsg32
I2
sg33
F24.0
sbs(g10
S'contains(donuts)'
p247
tp248
g0
(g16
g2
Ntp249
Rp250
(dp251
g20
F0.5
sg21
I18
sg22
g0
(g23
g24
(dp252
NI18
stp253
Rp254
(dp255
g21
I18
sg29
Nsg30
Nsg31
Nsbsg32
I2
sg33
F19.0
sbs(S'Meaning'
p256
S'contains(wtf)'
p257
tp258
g0
(g16
g2
Ntp259
Rp260
(dp261
g20
F0.5
sg21
I60
sg22
g0
(g23
g24
(dp262
I01
I1
sNI59
stp263
Rp264
(dp265
g21
I60
sg29
Nsg30
Nsg31
Nsbsg32
I2
sg33
F61.0
sbs(g8
S'contains(eenty)'
p266
tp267
g0
(g16
g2
Ntp268
Rp269
(dp270
g20
F0.5
sg21
I60
sg22
g0
(g23
g24
(dp271
NI60
stp272
Rp273
(dp274
g21
I60
sg29
Nsg30
Nsg31
Nsbsg32
I2
sg33
F61.0
sbs(S'Composition'
p275
S'contains(my)'
p276
tp277
g0
(g16
g2
Ntp278
Rp279
(dp280
g20
F0.5
sg21
I23
sg22
g0
(g23
g24
(dp281
I01
I1
sNI22
stp282
Rp283
(dp284
g21
I23
sg29
Nsg30
Nsg31
Nsbsg32
I2
sg33
F24.0
sbs(g9
S'contains(micro)'
p285
tp286
g0
(g16
g2
Ntp287
Rp288
(dp289
g20
F0.5
sg21
I23
sg22
g0
(g23
g24
(dp290
NI23
stp291
Rp292
(dp293
g21
I23
sg29
Nsg30
Nsg31
Nsbsg32
I2
sg33
F24.0
sbs(S'Abbreviation'
p294
S'contains(m)'
p295
tp296
g0
(g16
g2
Ntp297
Rp298
(dp299
g20
F0.5
sg21
I18
sg22
g0
(g23
g24
(dp300
I01
I1
sNI17
stp301
Rp302
(dp303
g21
I18
sg29
Nsg30
Nsg31
Nsbsg32
I2
sg33
F19.0
sbs(g9
S'contains(meaning)'
p304
tp305
g0
(g16
g2
Ntp306
Rp307
(dp308
g20
F0.5
sg21
I23
sg22
g0
(g23
g24
(dp309
NI23
stp310
Rp311
(dp312
g21
I23
sg29
Nsg30
Nsg31
Nsbsg32
I2
sg33
F24.0
sbs(S'Composition'
p313
S'contains(b)'
p314
tp315
g0
(g16
g2
Ntp316
Rp317
(dp318
g20
F0.5
sg21
I23
sg22
g0
(g23
g24
(dp319
I01
I1
sNI22
stp320
Rp321
(dp322
g21
I23
sg29
Nsg30
Nsg31
Nsbsg32
I2
sg33
F24.0
sbs(S'Composition'
p323
S'contains(bicycles)'
p324
tp325
g0
(g16
g2
Ntp326
Rp327
(dp328
g20
F0.5
sg21
I23
sg22
g0
(g23
g24
(dp329
I01
I1
sNI22
stp330
Rp331
(dp332
g21
I23
sg29
Nsg30
Nsg31
Nsbsg32
I2
sg33
F24.0
sbs(g9
S'contains(doors)'
p333
tp334
g0
(g16
g2
Ntp335
Rp336
(dp337
g20
F0.5
sg21
I23
sg22
g0
(g23
g24
(dp338
NI23
stp339
Rp340
(dp341
g21
I23
sg29
Nsg30
Nsg31
Nsbsg32
I2
sg33
F24.0
sbs(S'Meaning'
p342
S'contains(rock)'
p343
tp344
g0
(g16
g2
Ntp345
Rp346
(dp347
g20
F0.5
sg21
I60
sg22
g0
(g23
g24
(dp348
I01
I1
sNI59
stp349
Rp350
(dp351
g21
I60
sg29
Nsg30
Nsg31
Nsbsg32
I2
sg33
F61.0
sbs(g9
g229
tp352
g0
(g16
g2
Ntp353
Rp354
(dp355
g20
F0.5
sg21
I23
sg22
g0
(g23
g24
(dp356
NI23
stp357
Rp358
(dp359
g21
I23
sg29
Nsg30
Nsg31
Nsbsg32
I2
sg33
F24.0
sbs(g9
S'contains(for)'
p360
tp361
g0
(g16
g2
Ntp362
Rp363
(dp364
g20
F0.5
sg21
I23
sg22
g0
(g23
g24
(dp365
NI23
stp366
Rp367
(dp368
g21
I23
sg29
Nsg30
Nsg31
Nsbsg32
I2
sg33
F24.0
sbs(g10
S'contains(purse)'
p369
tp370
g0
(g16
g2
Ntp371
Rp372
(dp373
g20
F0.5
sg21
I18
sg22
g0
(g23
g24
(dp374
NI18
stp375
Rp376
(dp377
g21
I18
sg29
Nsg30
Nsg31
Nsbsg32
I2
sg33
F19.0
sbs(S'Abbreviation'
p378
S'contains(word)'
p379
tp380
g0
(g16
g2
Ntp381
Rp382
(dp383
g20
F0.5
sg21
I18
sg22
g0
(g23
g24
(dp384
I01
I1
sNI17
stp385
Rp386
(dp387
g21
I18
sg29
Nsg30
Nsg31
Nsbsg32
I2
sg33
F19.0
sbs(S'Abbreviation'
p388
S'contains(cross)'
p389
tp390
g0
(g16
g2
Ntp391
Rp392
(dp393
g20
F0.5
sg21
I18
sg22
g0
(g23
g24
(dp394
I01
I1
sNI17
stp395
Rp396
(dp397
g21
I18
sg29
Nsg30
Nsg31
Nsbsg32
I2
sg33
F19.0
sbs(g9
S'contains(girl)'
p398
tp399
g0
(g16
g2
Ntp400
Rp401
(dp402
g20
F0.5
sg21
I23
sg22
g0
(g23
g24
(dp403
NI23
stp404
Rp405
(dp406
g21
I23
sg29
Nsg30
Nsg31
Nsbsg32
I2
sg33
F24.0
sbs(S'Abbreviation'
p407
S'contains(surnames)'
p408
tp409
g0
(g16
g2
Ntp410
Rp411
(dp412
g20
F0.5
sg21
I18
sg22
g0
(g23
g24
(dp413
I01
I1
sNI17
stp414
Rp415
(dp416
g21
I18
sg29
Nsg30
Nsg31
Nsbsg32
I2
sg33
F19.0
sbs(g8
S'contains(abbreviated)'
p417
tp418
g0
(g16
g2
Ntp419
Rp420
(dp421
g20
F0.5
sg21
I60
sg22
g0
(g23
g24
(dp422
NI60
stp423
Rp424
(dp425
g21
I60
sg29
Nsg30
Nsg31
Nsbsg32
I2
sg33
F61.0
sbs(g10
S'contains(hog)'
p426
tp427
g0
(g16
g2
Ntp428
Rp429
(dp430
g20
F0.5
sg21
I18
sg22
g0
(g23
g24
(dp431
NI18
stp432
Rp433
(dp434
g21
I18
sg29
Nsg30
Nsg31
Nsbsg32
I2
sg33
F19.0
sbs(S'Abbreviation'
p435
S'contains(sids)'
p436
tp437
g0
(g16
g2
Ntp438
Rp439
(dp440
g20
F0.5
sg21
I18
sg22
g0
(g23
g24
(dp441
I01
I1
sNI17
stp442
Rp443
(dp444
g21
I18
sg29
Nsg30
Nsg31
Nsbsg32
I2
sg33
F19.0
sbs(g10
S'contains(is)'
p445
tp446
g0
(g16
g2
Ntp447
Rp448
(dp449
g20
F0.5
sg21
I18
sg22
g0
(g23
g24
(dp450
I01
I7
sNI11
stp451
Rp452
(dp453
g21
I18
sg29
Nsg30
Nsg31
Nsbsg32
I2
sg33
F19.0
sbs(g8
g360
tp454
g0
(g16
g2
Ntp455
Rp456
(dp457
g20
F0.5
sg21
I60
sg22
g0
(g23
g24
(dp458
NI60
stp459
Rp460
(dp461
g21
I60
sg29
Nsg30
Nsg31
Nsbsg32
I2
sg33
F61.0
sbs(g10
S'contains(planets)'
p462
tp463
g0
(g16
g2
Ntp464
Rp465
(dp466
g20
F0.5
sg21
I18
sg22
g0
(g23
g24
(dp467
NI18
stp468
Rp469
(dp470
g21
I18
sg29
Nsg30
Nsg31
Nsbsg32
I2
sg33
F19.0
sbs(g10
g229
tp471
g0
(g16
g2
Ntp472
Rp473
(dp474
g20
F0.5
sg21
I18
sg22
g0
(g23
g24
(dp475
NI18
stp476
Rp477
(dp478
g21
I18
sg29
Nsg30
Nsg31
Nsbsg32
I2
sg33
F19.0
sbs(g9
S'contains(stupid)'
p479
tp480
g0
(g16
g2
Ntp481
Rp482
(dp483
g20
F0.5
sg21
I23
sg22
g0
(g23
g24
(dp484
NI23
stp485
Rp486
(dp487
g21
I23
sg29
Nsg30
Nsg31
Nsbsg32
I2
sg33
F24.0
sbs(S'Meaning'
p488
S'contains(player)'
p489
tp490
g0
(g16
g2
Ntp491
Rp492
(dp493
g20
F0.5
sg21
I60
sg22
g0
(g23
g24
(dp494
I01
I1
sNI59
stp495
Rp496
(dp497
g21
I60
sg29
Nsg30
Nsg31
Nsbsg32
I2
sg33
F61.0
sbs(g9
S'contains(in)'
p498
tp499
g0
(g16
g2
Ntp500
Rp501
(dp502
g20
F0.5
sg21
I23
sg22
g0
(g23
g24
(dp503
NI23
stp504
Rp505
(dp506
g21
I23
sg29
Nsg30
Nsg31
Nsbsg32
I2
sg33
F24.0
sbs(g9
S'contains(signs)'
p507
tp508
g0
(g16
g2
Ntp509
Rp510
(dp511
g20
F0.5
sg21
I23
sg22
g0
(g23
g24
(dp512
NI23
stp513
Rp514
(dp515
g21
I23
sg29
Nsg30
Nsg31
Nsbsg32
I2
sg33
F24.0
sbs(g9
S'contains(full)'
p516
tp517
g0
(g16
g2
Ntp518
Rp519
(dp520
g20
F0.5
sg21
I23
sg22
g0
(g23
g24
(dp521
NI23
stp522
Rp523
(dp524
g21
I23
sg29
Nsg30
Nsg31
Nsbsg32
I2
sg33
F24.0
sbs(g9
g408
tp525
g0
(g16
g2
Ntp526
Rp527
(dp528
g20
F0.5
sg21
I23
sg22
g0
(g23
g24
(dp529
NI23
stp530
Rp531
(dp532
g21
I23
sg29
Nsg30
Nsg31
Nsbsg32
I2
sg33
F24.0
sbs(S'Meaning'
p533
S'contains(eye)'
p534
tp535
g0
(g16
g2
Ntp536
Rp537
(dp538
g20
F0.5
sg21
I60
sg22
g0
(g23
g24
(dp539
I01
I1
sNI59
stp540
Rp541
(dp542
g21
I60
sg29
Nsg30
Nsg31
Nsbsg32
I2
sg33
F61.0
sbs(g8
g516
tp543
g0
(g16
g2
Ntp544
Rp545
(dp546
g20
F0.5
sg21
I60
sg22
g0
(g23
g24
(dp547
NI60
stp548
Rp549
(dp550
g21
I60
sg29
Nsg30
Nsg31
Nsbsg32
I2
sg33
F61.0
sbs(g8
S'contains(cloud)'
p551
tp552
g0
(g16
g2
Ntp553
Rp554
(dp555
g20
F0.5
sg21
I60
sg22
g0
(g23
g24
(dp556
NI60
stp557
Rp558
(dp559
g21
I60
sg29
Nsg30
Nsg31
Nsbsg32
I2
sg33
F61.0
sbs(g8
S'contains(locks)'
p560
tp561
g0
(g16
g2
Ntp562
Rp563
(dp564
g20
F0.5
sg21
I60
sg22
g0
(g23
g24
(dp565
NI60
stp566
Rp567
(dp568
g21
I60
sg29
Nsg30
Nsg31
Nsbsg32
I2
sg33
F61.0
sbs(g8
S'contains(investigation)'
p569
tp570
g0
(g16
g2
Ntp571
Rp572
(dp573
g20
F0.5
sg21
I60
sg22
g0
(g23
g24
(dp574
NI60
stp575
Rp576
(dp577
g21
I60
sg29
Nsg30
Nsg31
Nsbsg32
I2
sg33
F61.0
sbs(g10
S'contains(homogeneous)'
p578
tp579
g0
(g16
g2
Ntp580
Rp581
(dp582
g20
F0.5
sg21
I18
sg22
g0
(g23
g24
(dp583
NI18
stp584
Rp585
(dp586
g21
I18
sg29
Nsg30
Nsg31
Nsbsg32
I2
sg33
F19.0
sbs(g9
S'contains(animal)'
p587
tp588
g0
(g16
g2
Ntp589
Rp590
(dp591
g20
F0.5
sg21
I23
sg22
g0
(g23
g24
(dp592
NI23
stp593
Rp594
(dp595
g21
I23
sg29
Nsg30
Nsg31
Nsbsg32
I2
sg33
F24.0
sbs(g8
g498
tp596
g0
(g16
g2
Ntp597
Rp598
(dp599
g20
F0.5
sg21
I60
sg22
g0
(g23
g24
(dp600
NI60
stp601
Rp602
(dp603
g21
I60
sg29
Nsg30
Nsg31
Nsbsg32
I2
sg33
F61.0
sbs(g8
S'contains(nasdaq)'
p604
tp605
g0
(g16
g2
Ntp606
Rp607
(dp608
g20
F0.5
sg21
I60
sg22
g0
(g23
g24
(dp609
NI60
stp610
Rp611
(dp612
g21
I60
sg29
Nsg30
Nsg31
Nsbsg32
I2
sg33
F61.0
sbs(g10
g64
tp613
g0
(g16
g2
Ntp614
Rp615
(dp616
g20
F0.5
sg21
I18
sg22
g0
(g23
g24
(dp617
NI18
stp618
Rp619
(dp620
g21
I18
sg29
Nsg30
Nsg31
Nsbsg32
I2
sg33
F19.0
sbs(g9
g534
tp621
g0
(g16
g2
Ntp622
Rp623
(dp624
g20
F0.5
sg21
I23
sg22
g0
(g23
g24
(dp625
NI23
stp626
Rp627
(dp628
g21
I23
sg29
Nsg30
Nsg31
Nsbsg32
I2
sg33
F24.0
sbs(g10
S'contains(ant)'
p629
tp630
g0
(g16
g2
Ntp631
Rp632
(dp633
g20
F0.5
sg21
I18
sg22
g0
(g23
g24
(dp634
NI18
stp635
Rp636
(dp637
g21
I18
sg29
Nsg30
Nsg31
Nsbsg32
I2
sg33
F19.0
sbs(g9
S'contains(mean)'
p638
tp639
g0
(g16
g2
Ntp640
Rp641
(dp642
g20
F0.5
sg21
I23
sg22
g0
(g23
g24
(dp643
NI23
stp644
Rp645
(dp646
g21
I23
sg29
Nsg30
Nsg31
Nsbsg32
I2
sg33
F24.0
sbs(S'Abbreviation'
p647
S'contains(national)'
p648
tp649
g0
(g16
g2
Ntp650
Rp651
(dp652
g20
F0.5
sg21
I18
sg22
g0
(g23
g24
(dp653
I01
I1
sNI17
stp654
Rp655
(dp656
g21
I18
sg29
Nsg30
Nsg31
Nsbsg32
I2
sg33
F19.0
sbs(S'Composition'
p657
g92
tp658
g0
(g16
g2
Ntp659
Rp660
(dp661
g20
F0.5
sg21
I23
sg22
g0
(g23
g24
(dp662
I01
I1
sNI22
stp663
Rp664
(dp665
g21
I23
sg29
Nsg30
Nsg31
Nsbsg32
I2
sg33
F24.0
sbs(g9
S'contains(selfish)'
p666
tp667
g0
(g16
g2
Ntp668
Rp669
(dp670
g20
F0.5
sg21
I23
sg22
g0
(g23
g24
(dp671
NI23
stp672
Rp673
(dp674
g21
I23
sg29
Nsg30
Nsg31
Nsbsg32
I2
sg33
F24.0
sbs(S'Composition'
p675
S'contains(the)'
p676
tp677
g0
(g16
g2
Ntp678
Rp679
(dp680
g20
F0.5
sg21
I23
sg22
g0
(g23
g24
(dp681
I01
I6
sNI17
stp682
Rp683
(dp684
g21
I23
sg29
Nsg30
Nsg31
Nsbsg32
I2
sg33
F24.0
sbs(S'Composition'
p685
S'contains(metal)'
p686
tp687
g0
(g16
g2
Ntp688
Rp689
(dp690
g20
F0.5
sg21
I23
sg22
g0
(g23
g24
(dp691
I01
I1
sNI22
stp692
Rp693
(dp694
g21
I23
sg29
Nsg30
Nsg31
Nsbsg32
I2
sg33
F24.0
sbs(g10
g14
tp695
g0
(g16
g2
Ntp696
Rp697
(dp698
g20
F0.5
sg21
I18
sg22
g0
(g23
g24
(dp699
NI18
stp700
Rp701
(dp702
g21
I18
sg29
Nsg30
Nsg31
Nsbsg32
I2
sg33
F19.0
sbs(g10
S'contains(asshole)'
p703
tp704
g0
(g16
g2
Ntp705
Rp706
(dp707
g20
F0.5
sg21
I18
sg22
g0
(g23
g24
(dp708
NI18
stp709
Rp710
(dp711
g21
I18
sg29
Nsg30
Nsg31
Nsbsg32
I2
sg33
F19.0
sbs(g8
S'contains(g)'
p712
tp713
g0
(g16
g2
Ntp714
Rp715
(dp716
g20
F0.5
sg21
I60
sg22
g0
(g23
g24
(dp717
NI60
stp718
Rp719
(dp720
g21
I60
sg29
Nsg30
Nsg31
Nsbsg32
I2
sg33
F61.0
sbs(g10
S'contains(juice)'
p721
tp722
g0
(g16
g2
Ntp723
Rp724
(dp725
g20
F0.5
sg21
I18
sg22
g0
(g23
g24
(dp726
NI18
stp727
Rp728
(dp729
g21
I18
sg29
Nsg30
Nsg31
Nsbsg32
I2
sg33
F19.0
sbs(S'Abbreviation'
p730
g120
tp731
g0
(g16
g2
Ntp732
Rp733
(dp734
g20
F0.5
sg21
I18
sg22
g0
(g23
g24
(dp735
I01
I9
sNI9
stp736
Rp737
(dp738
g21
I18
sg29
Nsg30
Nsg31
Nsbsg32
I2
sg33
F19.0
sbs(g9
S'contains(nafta)'
p739
tp740
g0
(g16
g2
Ntp741
Rp742
(dp743
g20
F0.5
sg21
I23
sg22
g0
(g23
g24
(dp744
NI23
stp745
Rp746
(dp747
g21
I23
sg29
Nsg30
Nsg31
Nsbsg32
I2
sg33
F24.0
sbs(g9
S'contains(a)'
p748
tp749
g0
(g16
g2
Ntp750
Rp751
(dp752
g20
F0.5
sg21
I23
sg22
g0
(g23
g24
(dp753
I01
I5
sNI18
stp754
Rp755
(dp756
g21
I23
sg29
Nsg30
Nsg31
Nsbsg32
I2
sg33
F24.0
sbs(g10
S'contains(trees)'
p757
tp758
g0
(g16
g2
Ntp759
Rp760
(dp761
g20
F0.5
sg21
I18
sg22
g0
(g23
g24
(dp762
NI18
stp763
Rp764
(dp765
g21
I18
sg29
Nsg30
Nsg31
Nsbsg32
I2
sg33
F19.0
sbs(g10
S'contains(plug)'
p766
tp767
g0
(g16
g2
Ntp768
Rp769
(dp770
g20
F0.5
sg21
I18
sg22
g0
(g23
g24
(dp771
NI18
stp772
Rp773
(dp774
g21
I18
sg29
Nsg30
Nsg31
Nsbsg32
I2
sg33
F19.0
sbs(g10
S'contains(milk)'
p775
tp776
g0
(g16
g2
Ntp777
Rp778
(dp779
g20
F0.5
sg21
I18
sg22
g0
(g23
g24
(dp780
NI18
stp781
Rp782
(dp783
g21
I18
sg29
Nsg30
Nsg31
Nsbsg32
I2
sg33
F19.0
sbs(g8
S'contains(?)'
p784
tp785
g0
(g16
g2
Ntp786
Rp787
(dp788
g20
F0.5
sg21
I60
sg22
g0
(g23
g24
(dp789
I01
I60
stp790
Rp791
(dp792
g21
I60
sg29
Nsg30
Nsg31
Nsbsg32
I2
sg33
F61.0
sbs(S'Abbreviation'
p793
g604
tp794
g0
(g16
g2
Ntp795
Rp796
(dp797
g20
F0.5
sg21
I18
sg22
g0
(g23
g24
(dp798
I01
I1
sNI17
stp799
Rp800
(dp801
g21
I18
sg29
Nsg30
Nsg31
Nsbsg32
I2
sg33
F19.0
sbs(g9
g266
tp802
g0
(g16
g2
Ntp803
Rp804
(dp805
g20
F0.5
sg21
I23
sg22
g0
(g23
g24
(dp806
NI23
stp807
Rp808
(dp809
g21
I23
sg29
Nsg30
Nsg31
Nsbsg32
I2
sg33
F24.0
sbs(S'Composition'
p810
g560
tp811
g0
(g16
g2
Ntp812
Rp813
(dp814
g20
F0.5
sg21
I23
sg22
g0
(g23
g24
(dp815
I01
I1
sNI22
stp816
Rp817
(dp818
g21
I23
sg29
Nsg30
Nsg31
Nsbsg32
I2
sg33
F24.0
sbs(S'Meaning'
p819
S'contains(of)'
p820
tp821
g0
(g16
g2
Ntp822
Rp823
(dp824
g20
F0.5
sg21
I60
sg22
g0
(g23
g24
(dp825
I01
I15
sNI45
stp826
Rp827
(dp828
g21
I60
sg29
Nsg30
Nsg31
Nsbsg32
I2
sg33
F61.0
sbs(g8
g111
tp829
g0
(g16
g2
Ntp830
Rp831
(dp832
g20
F0.5
sg21
I60
sg22
g0
(g23
g24
(dp833
NI60
stp834
Rp835
(dp836
g21
I60
sg29
Nsg30
Nsg31
Nsbsg32
I2
sg33
F61.0
sbs(S'Meaning'
p837
g587
tp838
g0
(g16
g2
Ntp839
Rp840
(dp841
g20
F0.5
sg21
I60
sg22
g0
(g23
g24
(dp842
I01
I1
sNI59
stp843
Rp844
(dp845
g21
I60
sg29
Nsg30
Nsg31
Nsbsg32
I2
sg33
F61.0
sbs(g9
S'contains(abbreviation)'
p846
tp847
g0
(g16
g2
Ntp848
Rp849
(dp850
g20
F0.5
sg21
I23
sg22
g0
(g23
g24
(dp851
NI23
stp852
Rp853
(dp854
g21
I23
sg29
Nsg30
Nsg31
Nsbsg32
I2
sg33
F24.0
sbs(g9
S'contains(mad)'
p855
tp856
g0
(g16
g2
Ntp857
Rp858
(dp859
g20
F0.5
sg21
I23
sg22
g0
(g23
g24
(dp860
NI23
stp861
Rp862
(dp863
g21
I23
sg29
Nsg30
Nsg31
Nsbsg32
I2
sg33
F24.0
sbs(S'Meaning'
p864
S'contains(thief)'
p865
tp866
g0
(g16
g2
Ntp867
Rp868
(dp869
g20
F0.5
sg21
I60
sg22
g0
(g23
g24
(dp870
I01
I1
sNI59
stp871
Rp872
(dp873
g21
I60
sg29
Nsg30
Nsg31
Nsbsg32
I2
sg33
F61.0
sbs(g9
S'contains(duck)'
p874
tp875
g0
(g16
g2
Ntp876
Rp877
(dp878
g20
F0.5
sg21
I23
sg22
g0
(g23
g24
(dp879
NI23
stp880
Rp881
(dp882
g21
I23
sg29
Nsg30
Nsg31
Nsbsg32
I2
sg33
F24.0
sbs(g9
S'contains(slut)'
p883
tp884
g0
(g16
g2
Ntp885
Rp886
(dp887
g20
F0.5
sg21
I23
sg22
g0
(g23
g24
(dp888
NI23
stp889
Rp890
(dp891
g21
I23
sg29
Nsg30
Nsg31
Nsbsg32
I2
sg33
F24.0
sbs(g8
S'contains(cnn)'
p892
tp893
g0
(g16
g2
Ntp894
Rp895
(dp896
g20
F0.5
sg21
I60
sg22
g0
(g23
g24
(dp897
NI60
stp898
Rp899
(dp900
g21
I60
sg29
Nsg30
Nsg31
Nsbsg32
I2
sg33
F61.0
sbs(S'Abbreviation'
p901
S'contains(classified)'
p902
tp903
g0
(g16
g2
Ntp904
Rp905
(dp906
g20
F0.5
sg21
I18
sg22
g0
(g23
g24
(dp907
I01
I1
sNI17
stp908
Rp909
(dp910
g21
I18
sg29
Nsg30
Nsg31
Nsbsg32
I2
sg33
F19.0
sbs(S'Meaning'
p911
S'contains(miscellaneous)'
p912
tp913
g0
(g16
g2
Ntp914
Rp915
(dp916
g20
F0.5
sg21
I60
sg22
g0
(g23
g24
(dp917
I01
I1
sNI59
stp918
Rp919
(dp920
g21
I60
sg29
Nsg30
Nsg31
Nsbsg32
I2
sg33
F61.0
sbs(g8
S'contains(sun)'
p921
tp922
g0
(g16
g2
Ntp923
Rp924
(dp925
g20
F0.5
sg21
I60
sg22
g0
(g23
g24
(dp926
NI60
stp927
Rp928
(dp929
g21
I60
sg29
Nsg30
Nsg31
Nsbsg32
I2
sg33
F61.0
sbs(g9
S'contains(starbucks)'
p930
tp931
g0
(g16
g2
Ntp932
Rp933
(dp934
g20
F0.5
sg21
I23
sg22
g0
(g23
g24
(dp935
NI23
stp936
Rp937
(dp938
g21
I23
sg29
Nsg30
Nsg31
Nsbsg32
I2
sg33
F24.0
sbs(g647
S'contains(expression)'
p939
tp940
g0
(g16
g2
Ntp941
Rp942
(dp943
g20
F0.5
sg21
I18
sg22
g0
(g23
g24
(dp944
I01
I1
sNI17
stp945
Rp946
(dp947
g21
I18
sg29
Nsg30
Nsg31
Nsbsg32
I2
sg33
F19.0
sbs(g9
S"contains(what's)"
p948
tp949
g0
(g16
g2
Ntp950
Rp951
(dp952
g20
F0.5
sg21
I23
sg22
g0
(g23
g24
(dp953
NI23
stp954
Rp955
(dp956
g21
I23
sg29
Nsg30
Nsg31
Nsbsg32
I2
sg33
F24.0
sbs(g10
g874
tp957
g0
(g16
g2
Ntp958
Rp959
(dp960
g20
F0.5
sg21
I18
sg22
g0
(g23
g24
(dp961
NI18
stp962
Rp963
(dp964
g21
I18
sg29
Nsg30
Nsg31
Nsbsg32
I2
sg33
F19.0
sbs(g9
S'contains(car)'
p965
tp966
g0
(g16
g2
Ntp967
Rp968
(dp969
g20
F0.5
sg21
I23
sg22
g0
(g23
g24
(dp970
NI23
stp971
Rp972
(dp973
g21
I23
sg29
Nsg30
Nsg31
Nsbsg32
I2
sg33
F24.0
sbs(S'Meaning'
p974
S'contains(clever)'
p975
tp976
g0
(g16
g2
Ntp977
Rp978
(dp979
g20
F0.5
sg21
I60
sg22
g0
(g23
g24
(dp980
I01
I1
sNI59
stp981
Rp982
(dp983
g21
I60
sg29
Nsg30
Nsg31
Nsbsg32
I2
sg33
F61.0
sbs(S'Meaning'
p984
S'contains(booger)'
p985
tp986
g0
(g16
g2
Ntp987
Rp988
(dp989
g20
F0.5
sg21
I60
sg22
g0
(g23
g24
(dp990
I01
I1
sNI59
stp991
Rp992
(dp993
g21
I60
sg29
Nsg30
Nsg31
Nsbsg32
I2
sg33
F61.0
sbs(g407
S'contains(prefix)'
p994
tp995
g0
(g16
g2
Ntp996
Rp997
(dp998
g20
F0.5
sg21
I18
sg22
g0
(g23
g24
(dp999
I01
I1
sNI17
stp1000
Rp1001
(dp1002
g21
I18
sg29
Nsg30
Nsg31
Nsbsg32
I2
sg33
F19.0
sbs(g10
g948
tp1003
g0
(g16
g2
Ntp1004
Rp1005
(dp1006
g20
F0.5
sg21
I18
sg22
g0
(g23
g24
(dp1007
NI18
stp1008
Rp1009
(dp1010
g21
I18
sg29
Nsg30
Nsg31
Nsbsg32
I2
sg33
F19.0
sbs(g10
S'contains(cloak)'
p1011
tp1012
g0
(g16
g2
Ntp1013
Rp1014
(dp1015
g20
F0.5
sg21
I18
sg22
g0
(g23
g24
(dp1016
NI18
stp1017
Rp1018
(dp1019
g21
I18
sg29
Nsg30
Nsg31
Nsbsg32
I2
sg33
F19.0
sbs(g8
S'contains(inri)'
p1020
tp1021
g0
(g16
g2
Ntp1022
Rp1023
(dp1024
g20
F0.5
sg21
I60
sg22
g0
(g23
g24
(dp1025
NI60
stp1026
Rp1027
(dp1028
g21
I60
sg29
Nsg30
Nsg31
Nsbsg32
I2
sg33
F61.0
sbs(g647
g569
tp1029
g0
(g16
g2
Ntp1030
Rp1031
(dp1032
g20
F0.5
sg21
I18
sg22
g0
(g23
g24
(dp1033
I01
I1
sNI17
stp1034
Rp1035
(dp1036
g21
I18
sg29
Nsg30
Nsg31
Nsbsg32
I2
sg33
F19.0
sbs(S'Meaning'
p1037
S'contains(a)'
p1038
tp1039
g0
(g16
g2
Ntp1040
Rp1041
(dp1042
g20
F0.5
sg21
I60
sg22
g0
(g23
g24
(dp1043
I01
I12
sNI48
stp1044
Rp1045
(dp1046
g21
I60
sg29
Nsg30
Nsg31
Nsbsg32
I2
sg33
F61.0
sbs(g10
g560
tp1047
g0
(g16
g2
Ntp1048
Rp1049
(dp1050
g20
F0.5
sg21
I18
sg22
g0
(g23
g24
(dp1051
NI18
stp1052
Rp1053
(dp1054
g21
I18
sg29
Nsg30
Nsg31
Nsbsg32
I2
sg33
F19.0
sbs(g388
S'contains(used)'
p1055
tp1056
g0
(g16
g2
Ntp1057
Rp1058
(dp1059
g20
F0.5
sg21
I18
sg22
g0
(g23
g24
(dp1060
I01
I2
sNI16
stp1061
Rp1062
(dp1063
g21
I18
sg29
Nsg30
Nsg31
Nsbsg32
I2
sg33
F19.0
sbs(g10
g516
tp1064
g0
(g16
g2
Ntp1065
Rp1066
(dp1067
g20
F0.5
sg21
I18
sg22
g0
(g23
g24
(dp1068
I01
I2
sNI16
stp1069
Rp1070
(dp1071
g21
I18
sg29
Nsg30
Nsg31
Nsbsg32
I2
sg33
F19.0
sbs(g10
S'contains(bag)'
p1072
tp1073
g0
(g16
g2
Ntp1074
Rp1075
(dp1076
g20
F0.5
sg21
I18
sg22
g0
(g23
g24
(dp1077
NI18
stp1078
Rp1079
(dp1080
g21
I18
sg29
Nsg30
Nsg31
Nsbsg32
I2
sg33
F19.0
sbs(g10
S'contains(zapping)'
p1081
tp1082
g0
(g16
g2
Ntp1083
Rp1084
(dp1085
g20
F0.5
sg21
I18
sg22
g0
(g23
g24
(dp1086
NI18
stp1087
Rp1088
(dp1089
g21
I18
sg29
Nsg30
Nsg31
Nsbsg32
I2
sg33
F19.0
sbs(g9
S'contains(t)'
p1090
tp1091
g0
(g16
g2
Ntp1092
Rp1093
(dp1094
g20
F0.5
sg21
I23
sg22
g0
(g23
g24
(dp1095
NI23
stp1096
Rp1097
(dp1098
g21
I23
sg29
Nsg30
Nsg31
Nsbsg32
I2
sg33
F24.0
sbs(g8
g902
tp1099
g0
(g16
g2
Ntp1100
Rp1101
(dp1102
g20
F0.5
sg21
I60
sg22
g0
(g23
g24
(dp1103
NI60
stp1104
Rp1105
(dp1106
g21
I60
sg29
Nsg30
Nsg31
Nsbsg32
I2
sg33
F61.0
sbs(g9
S'contains(brain)'
p1107
tp1108
g0
(g16
g2
Ntp1109
Rp1110
(dp1111
g20
F0.5
sg21
I23
sg22
g0
(g23
g24
(dp1112
NI23
stp1113
Rp1114
(dp1115
g21
I23
sg29
Nsg30
Nsg31
Nsbsg32
I2
sg33
F24.0
sbs(g9
g1020
tp1116
g0
(g16
g2
Ntp1117
Rp1118
(dp1119
g20
F0.5
sg21
I23
sg22
g0
(g23
g24
(dp1120
NI23
stp1121
Rp1122
(dp1123
g21
I23
sg29
Nsg30
Nsg31
Nsbsg32
I2
sg33
F24.0
sbs(g10
S'contains(children)'
p1124
tp1125
g0
(g16
g2
Ntp1126
Rp1127
(dp1128
g20
F0.5
sg21
I18
sg22
g0
(g23
g24
(dp1129
NI18
stp1130
Rp1131
(dp1132
g21
I18
sg29
Nsg30
Nsg31
Nsbsg32
I2
sg33
F19.0
sbs(S'Composition'
p1133
S'contains(beverage)'
p1134
tp1135
g0
(g16
g2
Ntp1136
Rp1137
(dp1138
g20
F0.5
sg21
I23
sg22
g0
(g23
g24
(dp1139
I01
I1
sNI22
stp1140
Rp1141
(dp1142
g21
I23
sg29
Nsg30
Nsg31
Nsbsg32
I2
sg33
F24.0
sbs(g10
S'contains(your)'
p1143
tp1144
g0
(g16
g2
Ntp1145
Rp1146
(dp1147
g20
F0.5
sg21
I18
sg22
g0
(g23
g24
(dp1148
NI18
stp1149
Rp1150
(dp1151
g21
I18
sg29
Nsg30
Nsg31
Nsbsg32
I2
sg33
F19.0
sbs(S'Abbreviation'
p1152
g739
tp1153
g0
(g16
g2
Ntp1154
Rp1155
(dp1156
g20
F0.5
sg21
I18
sg22
g0
(g23
g24
(dp1157
I01
I1
sNI17
stp1158
Rp1159
(dp1160
g21
I18
sg29
Nsg30
Nsg31
Nsbsg32
I2
sg33
F19.0
sbs(g8
g846
tp1161
g0
(g16
g2
Ntp1162
Rp1163
(dp1164
g20
F0.5
sg21
I60
sg22
g0
(g23
g24
(dp1165
NI60
stp1166
Rp1167
(dp1168
g21
I60
sg29
Nsg30
Nsg31
Nsbsg32
I2
sg33
F61.0
sbs(S'Meaning'
p1169
g703
tp1170
g0
(g16
g2
Ntp1171
Rp1172
(dp1173
g20
F0.5
sg21
I60
sg22
g0
(g23
g24
(dp1174
I01
I1
sNI59
stp1175
Rp1176
(dp1177
g21
I60
sg29
Nsg30
Nsg31
Nsbsg32
I2
sg33
F61.0
sbs(g9
g703
tp1178
g0
(g16
g2
Ntp1179
Rp1180
(dp1181
g20
F0.5
sg21
I23
sg22
g0
(g23
g24
(dp1182
NI23
stp1183
Rp1184
(dp1185
g21
I23
sg29
Nsg30
Nsg31
Nsbsg32
I2
sg33
F24.0
sbs(g9
g629
tp1186
g0
(g16
g2
Ntp1187
Rp1188
(dp1189
g20
F0.5
sg21
I23
sg22
g0
(g23
g24
(dp1190
NI23
stp1191
Rp1192
(dp1193
g21
I23
sg29
Nsg30
Nsg31
Nsbsg32
I2
sg33
F24.0
sbs(g8
g436
tp1194
g0
(g16
g2
Ntp1195
Rp1196
(dp1197
g20
F0.5
sg21
I60
sg22
g0
(g23
g24
(dp1198
NI60
stp1199
Rp1200
(dp1201
g21
I60
sg29
Nsg30
Nsg31
Nsbsg32
I2
sg33
F61.0
sbs(g10
S'contains(com)'
p1202
tp1203
g0
(g16
g2
Ntp1204
Rp1205
(dp1206
g20
F0.5
sg21
I18
sg22
g0
(g23
g24
(dp1207
I01
I1
sNI17
stp1208
Rp1209
(dp1210
g21
I18
sg29
Nsg30
Nsg31
Nsbsg32
I2
sg33
F19.0
sbs(g8
g120
tp1211
g0
(g16
g2
Ntp1212
Rp1213
(dp1214
g20
F0.5
sg21
I60
sg22
g0
(g23
g24
(dp1215
NI60
stp1216
Rp1217
(dp1218
g21
I60
sg29
Nsg30
Nsg31
Nsbsg32
I2
sg33
F61.0
sbs(g10
S'contains(pencil)'
p1219
tp1220
g0
(g16
g2
Ntp1221
Rp1222
(dp1223
g20
F0.5
sg21
I18
sg22
g0
(g23
g24
(dp1224
NI18
stp1225
Rp1226
(dp1227
g21
I18
sg29
Nsg30
Nsg31
Nsbsg32
I2
sg33
F19.0
sbs(g10
S'contains(bang)'
p1228
tp1229
g0
(g16
g2
Ntp1230
Rp1231
(dp1232
g20
F0.5
sg21
I18
sg22
g0
(g23
g24
(dp1233
NI18
stp1234
Rp1235
(dp1236
g21
I18
sg29
Nsg30
Nsg31
Nsbsg32
I2
sg33
F19.0
sbs(g8
S'contains(:)'
p1237
tp1238
g0
(g16
g2
Ntp1239
Rp1240
(dp1241
g20
F0.5
sg21
I60
sg22
g0
(g23
g24
(dp1242
NI60
stp1243
Rp1244
(dp1245
g21
I60
sg29
Nsg30
Nsg31
Nsbsg32
I2
sg33
F61.0
sbs(S'Meaning'
p1246
g462
tp1247
g0
(g16
g2
Ntp1248
Rp1249
(dp1250
g20
F0.5
sg21
I60
sg22
g0
(g23
g24
(dp1251
I01
I1
sNI59
stp1252
Rp1253
(dp1254
g21
I60
sg29
Nsg30
Nsg31
Nsbsg32
I2
sg33
F61.0
sbs(g9
S'contains(badass)'
p1255
tp1256
g0
(g16
g2
Ntp1257
Rp1258
(dp1259
g20
F0.5
sg21
I23
sg22
g0
(g23
g24
(dp1260
NI23
stp1261
Rp1262
(dp1263
g21
I23
sg29
Nsg30
Nsg31
Nsbsg32
I2
sg33
F24.0
sbs(g8
S'contains(what)'
p1264
tp1265
g0
(g16
g2
Ntp1266
Rp1267
(dp1268
g20
F0.5
sg21
I60
sg22
g0
(g23
g24
(dp1269
I01
I48
sNI12
stp1270
Rp1271
(dp1272
g21
I60
sg29
Nsg30
Nsg31
Nsbsg32
I2
sg33
F61.0
sbs(g10
g507
tp1273
g0
(g16
g2
Ntp1274
Rp1275
(dp1276
g20
F0.5
sg21
I18
sg22
g0
(g23
g24
(dp1277
NI18
stp1278
Rp1279
(dp1280
g21
I18
sg29
Nsg30
Nsg31
Nsbsg32
I2
sg33
F19.0
sbs(S'Meaning'
p1281
g578
tp1282
g0
(g16
g2
Ntp1283
Rp1284
(dp1285
g20
F0.5
sg21
I60
sg22
g0
(g23
g24
(dp1286
I01
I1
sNI59
stp1287
Rp1288
(dp1289
g21
I60
sg29
Nsg30
Nsg31
Nsbsg32
I2
sg33
F61.0
sbs(S'Abbreviation'
p1290
S'contains(o)'
p1291
tp1292
g0
(g16
g2
Ntp1293
Rp1294
(dp1295
g20
F0.5
sg21
I18
sg22
g0
(g23
g24
(dp1296
I01
I2
sNI16
stp1297
Rp1298
(dp1299
g21
I18
sg29
Nsg30
Nsg31
Nsbsg32
I2
sg33
F19.0
sbs(g10
g534
tp1300
g0
(g16
g2
Ntp1301
Rp1302
(dp1303
g20
F0.5
sg21
I18
sg22
g0
(g23
g24
(dp1304
NI18
stp1305
Rp1306
(dp1307
g21
I18
sg29
Nsg30
Nsg31
Nsbsg32
I2
sg33
F19.0
sbs(S'Meaning'
p1308
S'contains(tidy)'
p1309
tp1310
g0
(g16
g2
Ntp1311
Rp1312
(dp1313
g20
F0.5
sg21
I60
sg22
g0
(g23
g24
(dp1314
I01
I1
sNI59
stp1315
Rp1316
(dp1317
g21
I60
sg29
Nsg30
Nsg31
Nsbsg32
I2
sg33
F61.0
sbs(g9
g1237
tp1318
g0
(g16
g2
Ntp1319
Rp1320
(dp1321
g20
F0.5
sg21
I23
sg22
g0
(g23
g24
(dp1322
NI23
stp1323
Rp1324
(dp1325
g21
I23
sg29
Nsg30
Nsg31
Nsbsg32
I2
sg33
F24.0
sbs(S'Abbreviation'
p1326
g892
tp1327
g0
(g16
g2
Ntp1328
Rp1329
(dp1330
g20
F0.5
sg21
I18
sg22
g0
(g23
g24
(dp1331
I01
I1
sNI17
stp1332
Rp1333
(dp1334
g21
I18
sg29
Nsg30
Nsg31
Nsbsg32
I2
sg33
F19.0
sbs(g9
S'contains(on)'
p1335
tp1336
g0
(g16
g2
Ntp1337
Rp1338
(dp1339
g20
F0.5
sg21
I23
sg22
g0
(g23
g24
(dp1340
NI23
stp1341
Rp1342
(dp1343
g21
I23
sg29
Nsg30
Nsg31
Nsbsg32
I2
sg33
F24.0
sbs(S'Meaning'
p1344
g1124
tp1345
g0
(g16
g2
Ntp1346
Rp1347
(dp1348
g20
F0.5
sg21
I60
sg22
g0
(g23
g24
(dp1349
I01
I1
sNI59
stp1350
Rp1351
(dp1352
g21
I60
sg29
Nsg30
Nsg31
Nsbsg32
I2
sg33
F61.0
sbs(g10
S'contains(pen)'
p1353
tp1354
g0
(g16
g2
Ntp1355
Rp1356
(dp1357
g20
F0.5
sg21
I18
sg22
g0
(g23
g24
(dp1358
NI18
stp1359
Rp1360
(dp1361
g21
I18
sg29
Nsg30
Nsg31
Nsbsg32
I2
sg33
F19.0
sbs(S'Meaning'
p1362
g930
tp1363
g0
(g16
g2
Ntp1364
Rp1365
(dp1366
g20
F0.5
sg21
I60
sg22
g0
(g23
g24
(dp1367
I01
I1
sNI59
stp1368
Rp1369
(dp1370
g21
I60
sg29
Nsg30
Nsg31
Nsbsg32
I2
sg33
F61.0
sbs(g9
g712
tp1371
g0
(g16
g2
Ntp1372
Rp1373
(dp1374
g20
F0.5
sg21
I23
sg22
g0
(g23
g24
(dp1375
NI23
stp1376
Rp1377
(dp1378
g21
I23
sg29
Nsg30
Nsg31
Nsbsg32
I2
sg33
F24.0
sbs(g8
S'contains(nn)'
p1379
tp1380
g0
(g16
g2
Ntp1381
Rp1382
(dp1383
g20
F0.5
sg21
I60
sg22
g0
(g23
g24
(dp1384
NI60
stp1385
Rp1386
(dp1387
g21
I60
sg29
Nsg30
Nsg31
Nsbsg32
I2
sg33
F61.0
sbs(g730
g360
tp1388
g0
(g16
g2
Ntp1389
Rp1390
(dp1391
g20
F0.5
sg21
I18
sg22
g0
(g23
g24
(dp1392
I01
I12
sNI6
stp1393
Rp1394
(dp1395
g21
I18
sg29
Nsg30
Nsg31
Nsbsg32
I2
sg33
F19.0
sbs(g9
g1291
tp1396
g0
(g16
g2
Ntp1397
Rp1398
(dp1399
g20
F0.5
sg21
I23
sg22
g0
(g23
g24
(dp1400
NI23
stp1401
Rp1402
(dp1403
g21
I23
sg29
Nsg30
Nsg31
Nsbsg32
I2
sg33
F24.0
sbs(g9
g436
tp1404
g0
(g16
g2
Ntp1405
Rp1406
(dp1407
g20
F0.5
sg21
I23
sg22
g0
(g23
g24
(dp1408
NI23
stp1409
Rp1410
(dp1411
g21
I23
sg29
Nsg30
Nsg31
Nsbsg32
I2
sg33
F24.0
sbs(g8
S'contains(,)'
p1412
tp1413
g0
(g16
g2
Ntp1414
Rp1415
(dp1416
g20
F0.5
sg21
I60
sg22
g0
(g23
g24
(dp1417
NI60
stp1418
Rp1419
(dp1420
g21
I60
sg29
Nsg30
Nsg31
Nsbsg32
I2
sg33
F61.0
sbs(S'Meaning'
p1421
S'contains(chicken)'
p1422
tp1423
g0
(g16
g2
Ntp1424
Rp1425
(dp1426
g20
F0.5
sg21
I60
sg22
g0
(g23
g24
(dp1427
I01
I1
sNI59
stp1428
Rp1429
(dp1430
g21
I60
sg29
Nsg30
Nsg31
Nsbsg32
I2
sg33
F61.0
sbs(g10
g314
tp1431
g0
(g16
g2
Ntp1432
Rp1433
(dp1434
g20
F0.5
sg21
I18
sg22
g0
(g23
g24
(dp1435
NI18
stp1436
Rp1437
(dp1438
g21
I18
sg29
Nsg30
Nsg31
Nsbsg32
I2
sg33
F19.0
sbs(g10
S'contains(?)'
p1439
tp1440
g0
(g16
g2
Ntp1441
Rp1442
(dp1443
g20
F0.5
sg21
I18
sg22
g0
(g23
g24
(dp1444
I01
I18
stp1445
Rp1446
(dp1447
g21
I18
sg29
Nsg30
Nsg31
Nsbsg32
I2
sg33
F19.0
sbs(g10
g489
tp1448
g0
(g16
g2
Ntp1449
Rp1450
(dp1451
g20
F0.5
sg21
I18
sg22
g0
(g23
g24
(dp1452
NI18
stp1453
Rp1454
(dp1455
g21
I18
sg29
Nsg30
Nsg31
Nsbsg32
I2
sg33
F19.0
sbs(g8
S'contains(jacket)'
p1456
tp1457
g0
(g16
g2
Ntp1458
Rp1459
(dp1460
g20
F0.5
sg21
I60
sg22
g0
(g23
g24
(dp1461
NI60
stp1462
Rp1463
(dp1464
g21
I60
sg29
Nsg30
Nsg31
Nsbsg32
I2
sg33
F61.0
sbs(S'Meaning'
p1465
g757
tp1466
g0
(g16
g2
Ntp1467
Rp1468
(dp1469
g20
F0.5
sg21
I60
sg22
g0
(g23
g24
(dp1470
I01
I1
sNI59
stp1471
Rp1472
(dp1473
g21
I60
sg29
Nsg30
Nsg31
Nsbsg32
I2
sg33
F61.0
sbs(g10
S'contains(what)'
p1474
tp1475
g0
(g16
g2
Ntp1476
Rp1477
(dp1478
g20
F0.5
sg21
I18
sg22
g0
(g23
g24
(dp1479
I01
I18
stp1480
Rp1481
(dp1482
g21
I18
sg29
Nsg30
Nsg31
Nsbsg32
I2
sg33
F19.0
sbs(S'Abbreviation'
p1483
g285
tp1484
g0
(g16
g2
Ntp1485
Rp1486
(dp1487
g20
F0.5
sg21
I18
sg22
g0
(g23
g24
(dp1488
I01
I1
sNI17
stp1489
Rp1490
(dp1491
g21
I18
sg29
Nsg30
Nsg31
Nsbsg32
I2
sg33
F19.0
sbs(g10
g175
tp1492
g0
(g16
g2
Ntp1493
Rp1494
(dp1495
g20
F0.5
sg21
I18
sg22
g0
(g23
g24
(dp1496
NI18
stp1497
Rp1498
(dp1499
g21
I18
sg29
Nsg30
Nsg31
Nsbsg32
I2
sg33
F19.0
sbs(g974
S'contains(the)'
p1500
tp1501
g0
(g16
g2
Ntp1502
Rp1503
(dp1504
g20
F0.5
sg21
I60
sg22
g0
(g23
g24
(dp1505
I01
I20
sNI40
stp1506
Rp1507
(dp1508
g21
I60
sg29
Nsg30
Nsg31
Nsbsg32
I2
sg33
F61.0
sbs(S'Meaning'
p1509
S'contains(elephant)'
p1510
tp1511
g0
(g16
g2
Ntp1512
Rp1513
(dp1514
g20
F0.5
sg21
I60
sg22
g0
(g23
g24
(dp1515
I01
I1
sNI59
stp1516
Rp1517
(dp1518
g21
I60
sg29
Nsg30
Nsg31
Nsbsg32
I2
sg33
F61.0
sbs(g9
g138
tp1519
g0
(g16
g2
Ntp1520
Rp1521
(dp1522
g20
F0.5
sg21
I23
sg22
g0
(g23
g24
(dp1523
NI23
stp1524
Rp1525
(dp1526
g21
I23
sg29
Nsg30
Nsg31
Nsbsg32
I2
sg33
F24.0
sbs(g10
g1255
tp1527
g0
(g16
g2
Ntp1528
Rp1529
(dp1530
g20
F0.5
sg21
I18
sg22
g0
(g23
g24
(dp1531
NI18
stp1532
Rp1533
(dp1534
g21
I18
sg29
Nsg30
Nsg31
Nsbsg32
I2
sg33
F19.0
sbs(S'Composition'
p1535
g551
tp1536
g0
(g16
g2
Ntp1537
Rp1538
(dp1539
g20
F0.5
sg21
I23
sg22
g0
(g23
g24
(dp1540
I01
I1
sNI22
stp1541
Rp1542
(dp1543
g21
I23
sg29
Nsg30
Nsg31
Nsbsg32
I2
sg33
F24.0
sbs(g9
g1228
tp1544
g0
(g16
g2
Ntp1545
Rp1546
(dp1547
g20
F0.5
sg21
I23
sg22
g0
(g23
g24
(dp1548
NI23
stp1549
Rp1550
(dp1551
g21
I23
sg29
Nsg30
Nsg31
Nsbsg32
I2
sg33
F24.0
sbs(g8
g1134
tp1552
g0
(g16
g2
Ntp1553
Rp1554
(dp1555
g20
F0.5
sg21
I60
sg22
g0
(g23
g24
(dp1556
NI60
stp1557
Rp1558
(dp1559
g21
I60
sg29
Nsg30
Nsg31
Nsbsg32
I2
sg33
F61.0
sbs(S'Meaning'
p1560
S'contains(street)'
p1561
tp1562
g0
(g16
g2
Ntp1563
Rp1564
(dp1565
g20
F0.5
sg21
I60
sg22
g0
(g23
g24
(dp1566
I01
I1
sNI59
stp1567
Rp1568
(dp1569
g21
I60
sg29
Nsg30
Nsg31
Nsbsg32
I2
sg33
F61.0
sbs(g10
g200
tp1570
g0
(g16
g2
Ntp1571
Rp1572
(dp1573
g20
F0.5
sg21
I18
sg22
g0
(g23
g24
(dp1574
NI18
stp1575
Rp1576
(dp1577
g21
I18
sg29
Nsg30
Nsg31
Nsbsg32
I2
sg33
F19.0
sbs(g8
S'contains(irish)'
p1578
tp1579
g0
(g16
g2
Ntp1580
Rp1581
(dp1582
g20
F0.5
sg21
I60
sg22
g0
(g23
g24
(dp1583
NI60
stp1584
Rp1585
(dp1586
g21
I60
sg29
Nsg30
Nsg31
Nsbsg32
I2
sg33
F61.0
sbs(g9
g1124
tp1587
g0
(g16
g2
Ntp1588
Rp1589
(dp1590
g20
F0.5
sg21
I23
sg22
g0
(g23
g24
(dp1591
NI23
stp1592
Rp1593
(dp1594
g21
I23
sg29
Nsg30
Nsg31
Nsbsg32
I2
sg33
F24.0
sbs(g8
S'contains(psi)'
p1595
tp1596
g0
(g16
g2
Ntp1597
Rp1598
(dp1599
g20
F0.5
sg21
I60
sg22
g0
(g23
g24
(dp1600
NI60
stp1601
Rp1602
(dp1603
g21
I60
sg29
Nsg30
Nsg31
Nsbsg32
I2
sg33
F61.0
sbs(g10
g1422
tp1604
g0
(g16
g2
Ntp1605
Rp1606
(dp1607
g20
F0.5
sg21
I18
sg22
g0
(g23
g24
(dp1608
NI18
stp1609
Rp1610
(dp1611
g21
I18
sg29
Nsg30
Nsg31
Nsbsg32
I2
sg33
F19.0
sbs(g388
S'contains(jesus)'
p1612
tp1613
g0
(g16
g2
Ntp1614
Rp1615
(dp1616
g20
F0.5
sg21
I18
sg22
g0
(g23
g24
(dp1617
I01
I1
sNI17
stp1618
Rp1619
(dp1620
g21
I18
sg29
Nsg30
Nsg31
Nsbsg32
I2
sg33
F19.0
sbs(g10
g35
tp1621
g0
(g16
g2
Ntp1622
Rp1623
(dp1624
g20
F0.5
sg21
I18
sg22
g0
(g23
g24
(dp1625
NI18
stp1626
Rp1627
(dp1628
g21
I18
sg29
Nsg30
Nsg31
Nsbsg32
I2
sg33
F19.0
sbs(g8
g1612
tp1629
g0
(g16
g2
Ntp1630
Rp1631
(dp1632
g20
F0.5
sg21
I60
sg22
g0
(g23
g24
(dp1633
NI60
stp1634
Rp1635
(dp1636
g21
I60
sg29
Nsg30
Nsg31
Nsbsg32
I2
sg33
F61.0
sbs(g9
S'contains(plo)'
p1637
tp1638
g0
(g16
g2
Ntp1639
Rp1640
(dp1641
g20
F0.5
sg21
I23
sg22
g0
(g23
g24
(dp1642
NI23
stp1643
Rp1644
(dp1645
g21
I23
sg29
Nsg30
Nsg31
Nsbsg32
I2
sg33
F24.0
sbs(g9
g1055
tp1646
g0
(g16
g2
Ntp1647
Rp1648
(dp1649
g20
F0.5
sg21
I23
sg22
g0
(g23
g24
(dp1650
NI23
stp1651
Rp1652
(dp1653
g21
I23
sg29
Nsg30
Nsg31
Nsbsg32
I2
sg33
F24.0
sbs(g9
g1561
tp1654
g0
(g16
g2
Ntp1655
Rp1656
(dp1657
g20
F0.5
sg21
I23
sg22
g0
(g23
g24
(dp1658
NI23
stp1659
Rp1660
(dp1661
g21
I23
sg29
Nsg30
Nsg31
Nsbsg32
I2
sg33
F24.0
sbs(g110
S'contains(name)'
p1662
tp1663
g0
(g16
g2
Ntp1664
Rp1665
(dp1666
g20
F0.5
sg21
I18
sg22
g0
(g23
g24
(dp1667
I01
I2
sNI16
stp1668
Rp1669
(dp1670
g21
I18
sg29
Nsg30
Nsg31
Nsbsg32
I2
sg33
F19.0
sbs(g8
g238
tp1671
g0
(g16
g2
Ntp1672
Rp1673
(dp1674
g20
F0.5
sg21
I60
sg22
g0
(g23
g24
(dp1675
NI60
stp1676
Rp1677
(dp1678
g21
I60
sg29
Nsg30
Nsg31
Nsbsg32
I2
sg33
F61.0
sbs(g819
g721
tp1679
g0
(g16
g2
Ntp1680
Rp1681
(dp1682
g20
F0.5
sg21
I60
sg22
g0
(g23
g24
(dp1683
I01
I1
sNI59
stp1684
Rp1685
(dp1686
g21
I60
sg29
Nsg30
Nsg31
Nsbsg32
I2
sg33
F61.0
sbs(g9
g462
tp1687
g0
(g16
g2
Ntp1688
Rp1689
(dp1690
g20
F0.5
sg21
I23
sg22
g0
(g23
g24
(dp1691
NI23
stp1692
Rp1693
(dp1694
g21
I23
sg29
Nsg30
Nsg31
Nsbsg32
I2
sg33
F24.0
sbs(g388
g1020
tp1695
g0
(g16
g2
Ntp1696
Rp1697
(dp1698
g20
F0.5
sg21
I18
sg22
g0
(g23
g24
(dp1699
I01
I1
sNI17
stp1700
Rp1701
(dp1702
g21
I18
sg29
Nsg30
Nsg31
Nsbsg32
I2
sg33
F19.0
sbs(g8
S'contains(.)'
p1703
tp1704
g0
(g16
g2
Ntp1705
Rp1706
(dp1707
g20
F0.5
sg21
I60
sg22
g0
(g23
g24
(dp1708
NI60
stp1709
Rp1710
(dp1711
g21
I60
sg29
Nsg30
Nsg31
Nsbsg32
I2
sg33
F61.0
sbs(g8
g994
tp1712
g0
(g16
g2
Ntp1713
Rp1714
(dp1715
g20
F0.5
sg21
I60
sg22
g0
(g23
g24
(dp1716
NI60
stp1717
Rp1718
(dp1719
g21
I60
sg29
Nsg30
Nsg31
Nsbsg32
I2
sg33
F61.0
sbs(S'Meaning'
p1720
g333
tp1721
g0
(g16
g2
Ntp1722
Rp1723
(dp1724
g20
F0.5
sg21
I60
sg22
g0
(g23
g24
(dp1725
I01
I1
sNI59
stp1726
Rp1727
(dp1728
g21
I60
sg29
Nsg30
Nsg31
Nsbsg32
I2
sg33
F61.0
sbs(S'Meaning'
p1729
g1107
tp1730
g0
(g16
g2
Ntp1731
Rp1732
(dp1733
g20
F0.5
sg21
I60
sg22
g0
(g23
g24
(dp1734
I01
I1
sNI59
stp1735
Rp1736
(dp1737
g21
I60
sg29
Nsg30
Nsg31
Nsbsg32
I2
sg33
F61.0
sbs(g8
g1055
tp1738
g0
(g16
g2
Ntp1739
Rp1740
(dp1741
g20
F0.5
sg21
I60
sg22
g0
(g23
g24
(dp1742
NI60
stp1743
Rp1744
(dp1745
g21
I60
sg29
Nsg30
Nsg31
Nsbsg32
I2
sg33
F61.0
sbs(g8
g1637
tp1746
g0
(g16
g2
Ntp1747
Rp1748
(dp1749
g20
F0.5
sg21
I60
sg22
g0
(g23
g24
(dp1750
NI60
stp1751
Rp1752
(dp1753
g21
I60
sg29
Nsg30
Nsg31
Nsbsg32
I2
sg33
F61.0
sbs(g10
g1309
tp1754
g0
(g16
g2
Ntp1755
Rp1756
(dp1757
g20
F0.5
sg21
I18
sg22
g0
(g23
g24
(dp1758
NI18
stp1759
Rp1760
(dp1761
g21
I18
sg29
Nsg30
Nsg31
Nsbsg32
I2
sg33
F19.0
sbs(g378
S'contains(laser)'
p1762
tp1763
g0
(g16
g2
Ntp1764
Rp1765
(dp1766
g20
F0.5
sg21
I18
sg22
g0
(g23
g24
(dp1767
I01
I1
sNI17
stp1768
Rp1769
(dp1770
g21
I18
sg29
Nsg30
Nsg31
Nsbsg32
I2
sg33
F19.0
sbs(g10
S'contains(ear)'
p1771
tp1772
g0
(g16
g2
Ntp1773
Rp1774
(dp1775
g20
F0.5
sg21
I18
sg22
g0
(g23
g24
(dp1776
NI18
stp1777
Rp1778
(dp1779
g21
I18
sg29
Nsg30
Nsg31
Nsbsg32
I2
sg33
F19.0
sbs(g730
g101
tp1780
g0
(g16
g2
Ntp1781
Rp1782
(dp1783
g20
F0.5
sg21
I18
sg22
g0
(g23
g24
(dp1784
I01
I1
sNI17
stp1785
Rp1786
(dp1787
g21
I18
sg29
Nsg30
Nsg31
Nsbsg32
I2
sg33
F19.0
sbs(g647
g417
tp1788
g0
(g16
g2
Ntp1789
Rp1790
(dp1791
g20
F0.5
sg21
I18
sg22
g0
(g23
g24
(dp1792
I01
I1
sNI17
stp1793
Rp1794
(dp1795
g21
I18
sg29
Nsg30
Nsg31
Nsbsg32
I2
sg33
F19.0
sbs(g9
g994
tp1796
g0
(g16
g2
Ntp1797
Rp1798
(dp1799
g20
F0.5
sg21
I23
sg22
g0
(g23
g24
(dp1800
NI23
stp1801
Rp1802
(dp1803
g21
I23
sg29
Nsg30
Nsg31
Nsbsg32
I2
sg33
F24.0
sbs(g8
g939
tp1804
g0
(g16
g2
Ntp1805
Rp1806
(dp1807
g20
F0.5
sg21
I60
sg22
g0
(g23
g24
(dp1808
NI60
stp1809
Rp1810
(dp1811
g21
I60
sg29
Nsg30
Nsg31
Nsbsg32
I2
sg33
F61.0
sbs(g10
S'contains(earth)'
p1812
tp1813
g0
(g16
g2
Ntp1814
Rp1815
(dp1816
g20
F0.5
sg21
I18
sg22
g0
(g23
g24
(dp1817
NI18
stp1818
Rp1819
(dp1820
g21
I18
sg29
Nsg30
Nsg31
Nsbsg32
I2
sg33
F19.0
sbs(g10
g883
tp1821
g0
(g16
g2
Ntp1822
Rp1823
(dp1824
g20
F0.5
sg21
I18
sg22
g0
(g23
g24
(dp1825
NI18
stp1826
Rp1827
(dp1828
g21
I18
sg29
Nsg30
Nsg31
Nsbsg32
I2
sg33
F19.0
sbs(g9
g417
tp1829
g0
(g16
g2
Ntp1830
Rp1831
(dp1832
g20
F0.5
sg21
I23
sg22
g0
(g23
g24
(dp1833
NI23
stp1834
Rp1835
(dp1836
g21
I23
sg29
Nsg30
Nsg31
Nsbsg32
I2
sg33
F24.0
sbs(g901
g1412
tp1837
g0
(g16
g2
Ntp1838
Rp1839
(dp1840
g20
F0.5
sg21
I18
sg22
g0
(g23
g24
(dp1841
I01
I1
sNI17
stp1842
Rp1843
(dp1844
g21
I18
sg29
Nsg30
Nsg31
Nsbsg32
I2
sg33
F19.0
sbs(g9
g1762
tp1845
g0
(g16
g2
Ntp1846
Rp1847
(dp1848
g20
F0.5
sg21
I23
sg22
g0
(g23
g24
(dp1849
NI23
stp1850
Rp1851
(dp1852
g21
I23
sg29
Nsg30
Nsg31
Nsbsg32
I2
sg33
F24.0
sbs(g8
g1090
tp1853
g0
(g16
g2
Ntp1854
Rp1855
(dp1856
g20
F0.5
sg21
I60
sg22
g0
(g23
g24
(dp1857
NI60
stp1858
Rp1859
(dp1860
g21
I60
sg29
Nsg30
Nsg31
Nsbsg32
I2
sg33
F61.0
sbs(g901
g266
tp1861
g0
(g16
g2
Ntp1862
Rp1863
(dp1864
g20
F0.5
sg21
I18
sg22
g0
(g23
g24
(dp1865
I01
I1
sNI17
stp1866
Rp1867
(dp1868
g21
I18
sg29
Nsg30
Nsg31
Nsbsg32
I2
sg33
F19.0
sbs(S'Meaning'
p1869
g766
tp1870
g0
(g16
g2
Ntp1871
Rp1872
(dp1873
g20
F0.5
sg21
I60
sg22
g0
(g23
g24
(dp1874
I01
I1
sNI59
stp1875
Rp1876
(dp1877
g21
I60
sg29
Nsg30
Nsg31
Nsbsg32
I2
sg33
F61.0
sbs(g8
g1662
tp1878
g0
(g16
g2
Ntp1879
Rp1880
(dp1881
g20
F0.5
sg21
I60
sg22
g0
(g23
g24
(dp1882
NI60
stp1883
Rp1884
(dp1885
g21
I60
sg29
Nsg30
Nsg31
Nsbsg32
I2
sg33
F61.0
sbs(g9
g101
tp1886
g0
(g16
g2
Ntp1887
Rp1888
(dp1889
g20
F0.5
sg21
I23
sg22
g0
(g23
g24
(dp1890
NI23
stp1891
Rp1892
(dp1893
g21
I23
sg29
Nsg30
Nsg31
Nsbsg32
I2
sg33
F24.0
sbs(g9
g1309
tp1894
g0
(g16
g2
Ntp1895
Rp1896
(dp1897
g20
F0.5
sg21
I23
sg22
g0
(g23
g24
(dp1898
NI23
stp1899
Rp1900
(dp1901
g21
I23
sg29
Nsg30
Nsg31
Nsbsg32
I2
sg33
F24.0
sbs(g9
g721
tp1902
g0
(g16
g2
Ntp1903
Rp1904
(dp1905
g20
F0.5
sg21
I23
sg22
g0
(g23
g24
(dp1906
NI23
stp1907
Rp1908
(dp1909
g21
I23
sg29
Nsg30
Nsg31
Nsbsg32
I2
sg33
F24.0
sbs(g9
g111
tp1910
g0
(g16
g2
Ntp1911
Rp1912
(dp1913
g20
F0.5
sg21
I23
sg22
g0
(g23
g24
(dp1914
NI23
stp1915
Rp1916
(dp1917
g21
I23
sg29
Nsg30
Nsg31
Nsbsg32
I2
sg33
F24.0
sbs(g10
S'contains(the)'
p1918
tp1919
g0
(g16
g2
Ntp1920
Rp1921
(dp1922
g20
F0.5
sg21
I18
sg22
g0
(g23
g24
(dp1923
I01
I8
sNI10
stp1924
Rp1925
(dp1926
g21
I18
sg29
Nsg30
Nsg31
Nsbsg32
I2
sg33
F19.0
sbs(g9
g766
tp1927
g0
(g16
g2
Ntp1928
Rp1929
(dp1930
g20
F0.5
sg21
I23
sg22
g0
(g23
g24
(dp1931
NI23
stp1932
Rp1933
(dp1934
g21
I23
sg29
Nsg30
Nsg31
Nsbsg32
I2
sg33
F24.0
sbs(g10
g1561
tp1935
g0
(g16
g2
Ntp1936
Rp1937
(dp1938
g20
F0.5
sg21
I18
sg22
g0
(g23
g24
(dp1939
NI18
stp1940
Rp1941
(dp1942
g21
I18
sg29
Nsg30
Nsg31
Nsbsg32
I2
sg33
F19.0
sbs(g8
g648
tp1943
g0
(g16
g2
Ntp1944
Rp1945
(dp1946
g20
F0.5
sg21
I60
sg22
g0
(g23
g24
(dp1947
NI60
stp1948
Rp1949
(dp1950
g21
I60
sg29
Nsg30
Nsg31
Nsbsg32
I2
sg33
F61.0
sbs(g8
g389
tp1951
g0
(g16
g2
Ntp1952
Rp1953
(dp1954
g20
F0.5
sg21
I60
sg22
g0
(g23
g24
(dp1955
NI60
stp1956
Rp1957
(dp1958
g21
I60
sg29
Nsg30
Nsg31
Nsbsg32
I2
sg33
F61.0
sbs(g9
S'contains(claus)'
p1959
tp1960
g0
(g16
g2
Ntp1961
Rp1962
(dp1963
g20
F0.5
sg21
I23
sg22
g0
(g23
g24
(dp1964
NI23
stp1965
Rp1966
(dp1967
g21
I23
sg29
Nsg30
Nsg31
Nsbsg32
I2
sg33
F24.0
sbs(g9
S'contains(company)'
p1968
tp1969
g0
(g16
g2
Ntp1970
Rp1971
(dp1972
g20
F0.5
sg21
I23
sg22
g0
(g23
g24
(dp1973
NI23
stp1974
Rp1975
(dp1976
g21
I23
sg29
Nsg30
Nsg31
Nsbsg32
I2
sg33
F24.0
sbs(S'Meaning'
p1977
g883
tp1978
g0
(g16
g2
Ntp1979
Rp1980
(dp1981
g20
F0.5
sg21
I60
sg22
g0
(g23
g24
(dp1982
I01
I1
sNI59
stp1983
Rp1984
(dp1985
g21
I60
sg29
Nsg30
Nsg31
Nsbsg32
I2
sg33
F61.0
sbs(g10
S'contains(pretty)'
p1986
tp1987
g0
(g16
g2
Ntp1988
Rp1989
(dp1990
g20
F0.5
sg21
I18
sg22
g0
(g23
g24
(dp1991
NI18
stp1992
Rp1993
(dp1994
g21
I18
sg29
Nsg30
Nsg31
Nsbsg32
I2
sg33
F19.0
sbs(S'Meaning'
p1995
g479
tp1996
g0
(g16
g2
Ntp1997
Rp1998
(dp1999
g20
F0.5
sg21
I60
sg22
g0
(g23
g24
(dp2000
I01
I1
sNI59
stp2001
Rp2002
(dp2003
g21
I60
sg29
Nsg30
Nsg31
Nsbsg32
I2
sg33
F61.0
sbs(g8
g44
tp2004
g0
(g16
g2
Ntp2005
Rp2006
(dp2007
g20
F0.5
sg21
I60
sg22
g0
(g23
g24
(dp2008
NI60
stp2009
Rp2010
(dp2011
g21
I60
sg29
Nsg30
Nsg31
Nsbsg32
I2
sg33
F61.0
sbs(g9
g1422
tp2012
g0
(g16
g2
Ntp2013
Rp2014
(dp2015
g20
F0.5
sg21
I23
sg22
g0
(g23
g24
(dp2016
NI23
stp2017
Rp2018
(dp2019
g21
I23
sg29
Nsg30
Nsg31
Nsbsg32
I2
sg33
F24.0
sbs(g10
S'contains(rubber)'
p2020
tp2021
g0
(g16
g2
Ntp2022
Rp2023
(dp2024
g20
F0.5
sg21
I18
sg22
g0
(g23
g24
(dp2025
NI18
stp2026
Rp2027
(dp2028
g21
I18
sg29
Nsg30
Nsg31
Nsbsg32
I2
sg33
F19.0
sbs(g9
g1578
tp2029
g0
(g16
g2
Ntp2030
Rp2031
(dp2032
g20
F0.5
sg21
I23
sg22
g0
(g23
g24
(dp2033
NI23
stp2034
Rp2035
(dp2036
g21
I23
sg29
Nsg30
Nsg31
Nsbsg32
I2
sg33
F24.0
sbs(g9
S'contains(avenue)'
p2037
tp2038
g0
(g16
g2
Ntp2039
Rp2040
(dp2041
g20
F0.5
sg21
I23
sg22
g0
(g23
g24
(dp2042
NI23
stp2043
Rp2044
(dp2045
g21
I23
sg29
Nsg30
Nsg31
Nsbsg32
I2
sg33
F24.0
sbs(g9
g578
tp2046
g0
(g16
g2
Ntp2047
Rp2048
(dp2049
g20
F0.5
sg21
I23
sg22
g0
(g23
g24
(dp2050
NI23
stp2051
Rp2052
(dp2053
g21
I23
sg29
Nsg30
Nsg31
Nsbsg32
I2
sg33
F24.0
sbs(g10
S'contains(mellon)'
p2054
tp2055
g0
(g16
g2
Ntp2056
Rp2057
(dp2058
g20
F0.5
sg21
I18
sg22
g0
(g23
g24
(dp2059
NI18
stp2060
Rp2061
(dp2062
g21
I18
sg29
Nsg30
Nsg31
Nsbsg32
I2
sg33
F19.0
sbs(S'Meaning'
p2063
S'contains(haircut)'
p2064
tp2065
g0
(g16
g2
Ntp2066
Rp2067
(dp2068
g20
F0.5
sg21
I60
sg22
g0
(g23
g24
(dp2069
I01
I1
sNI59
stp2070
Rp2071
(dp2072
g21
I60
sg29
Nsg30
Nsg31
Nsbsg32
I2
sg33
F61.0
sbs(g275
g129
tp2073
g0
(g16
g2
Ntp2074
Rp2075
(dp2076
g20
F0.5
sg21
I23
sg22
g0
(g23
g24
(dp2077
I01
I1
sNI22
stp2078
Rp2079
(dp2080
g21
I23
sg29
Nsg30
Nsg31
Nsbsg32
I2
sg33
F24.0
sbs(g901
S'contains(reading)'
p2081
tp2082
g0
(g16
g2
Ntp2083
Rp2084
(dp2085
g20
F0.5
sg21
I18
sg22
g0
(g23
g24
(dp2086
I01
I1
sNI17
stp2087
Rp2088
(dp2089
g21
I18
sg29
Nsg30
Nsg31
Nsbsg32
I2
sg33
F19.0
sbs(g10
g551
tp2090
g0
(g16
g2
Ntp2091
Rp2092
(dp2093
g20
F0.5
sg21
I18
sg22
g0
(g23
g24
(dp2094
NI18
stp2095
Rp2096
(dp2097
g21
I18
sg29
Nsg30
Nsg31
Nsbsg32
I2
sg33
F19.0
sbs(g10
g129
tp2098
g0
(g16
g2
Ntp2099
Rp2100
(dp2101
g20
F0.5
sg21
I18
sg22
g0
(g23
g24
(dp2102
NI18
stp2103
Rp2104
(dp2105
g21
I18
sg29
Nsg30
Nsg31
Nsbsg32
I2
sg33
F19.0
sbs(g8
S'contains(as)'
p2106
tp2107
g0
(g16
g2
Ntp2108
Rp2109
(dp2110
g20
F0.5
sg21
I60
sg22
g0
(g23
g24
(dp2111
NI60
stp2112
Rp2113
(dp2114
g21
I60
sg29
Nsg30
Nsg31
Nsbsg32
I2
sg33
F61.0
sbs(g9
S'contains(?)'
p2115
tp2116
g0
(g16
g2
Ntp2117
Rp2118
(dp2119
g20
F0.5
sg21
I23
sg22
g0
(g23
g24
(dp2120
I01
I23
stp2121
Rp2122
(dp2123
g21
I23
sg29
Nsg30
Nsg31
Nsbsg32
I2
sg33
F24.0
sbs(g407
g498
tp2124
g0
(g16
g2
Ntp2125
Rp2126
(dp2127
g20
F0.5
sg21
I18
sg22
g0
(g23
g24
(dp2128
I01
I1
sNI17
stp2129
Rp2130
(dp2131
g21
I18
sg29
Nsg30
Nsg31
Nsbsg32
I2
sg33
F19.0
sbs(g10
g587
tp2132
g0
(g16
g2
Ntp2133
Rp2134
(dp2135
g20
F0.5
sg21
I18
sg22
g0
(g23
g24
(dp2136
NI18
stp2137
Rp2138
(dp2139
g21
I18
sg29
Nsg30
Nsg31
Nsbsg32
I2
sg33
F19.0
sbs(g9
S'contains(ads)'
p2140
tp2141
g0
(g16
g2
Ntp2142
Rp2143
(dp2144
g20
F0.5
sg21
I23
sg22
g0
(g23
g24
(dp2145
NI23
stp2146
Rp2147
(dp2148
g21
I23
sg29
Nsg30
Nsg31
Nsbsg32
I2
sg33
F24.0
sbs(g8
g1291
tp2149
g0
(g16
g2
Ntp2150
Rp2151
(dp2152
g20
F0.5
sg21
I60
sg22
g0
(g23
g24
(dp2153
NI60
stp2154
Rp2155
(dp2156
g21
I60
sg29
Nsg30
Nsg31
Nsbsg32
I2
sg33
F61.0
sbs(g8
g276
tp2157
g0
(g16
g2
Ntp2158
Rp2159
(dp2160
g20
F0.5
sg21
I60
sg22
g0
(g23
g24
(dp2161
NI60
stp2162
Rp2163
(dp2164
g21
I60
sg29
Nsg30
Nsg31
Nsbsg32
I2
sg33
F61.0
sbs(g9
g426
tp2165
g0
(g16
g2
Ntp2166
Rp2167
(dp2168
g20
F0.5
sg21
I23
sg22
g0
(g23
g24
(dp2169
NI23
stp2170
Rp2171
(dp2172
g21
I23
sg29
Nsg30
Nsg31
Nsbsg32
I2
sg33
F24.0
sbs(g9
S'contains(what)'
p2173
tp2174
g0
(g16
g2
Ntp2175
Rp2176
(dp2177
g20
F0.5
sg21
I23
sg22
g0
(g23
g24
(dp2178
I01
I23
stp2179
Rp2180
(dp2181
g21
I23
sg29
Nsg30
Nsg31
Nsbsg32
I2
sg33
F24.0
sbs(g9
g2064
tp2182
g0
(g16
g2
Ntp2183
Rp2184
(dp2185
g20
F0.5
sg21
I23
sg22
g0
(g23
g24
(dp2186
NI23
stp2187
Rp2188
(dp2189
g21
I23
sg29
Nsg30
Nsg31
Nsbsg32
I2
sg33
F24.0
sbs(g8
S'contains(form)'
p2190
tp2191
g0
(g16
g2
Ntp2192
Rp2193
(dp2194
g20
F0.5
sg21
I60
sg22
g0
(g23
g24
(dp2195
NI60
stp2196
Rp2197
(dp2198
g21
I60
sg29
Nsg30
Nsg31
Nsbsg32
I2
sg33
F61.0
sbs(g8
g1812
tp2199
g0
(g16
g2
Ntp2200
Rp2201
(dp2202
g20
F0.5
sg21
I60
sg22
g0
(g23
g24
(dp2203
NI60
stp2204
Rp2205
(dp2206
g21
I60
sg29
Nsg30
Nsg31
Nsbsg32
I2
sg33
F61.0
sbs(g10
S'contains(happy)'
p2207
tp2208
g0
(g16
g2
Ntp2209
Rp2210
(dp2211
g20
F0.5
sg21
I18
sg22
g0
(g23
g24
(dp2212
NI18
stp2213
Rp2214
(dp2215
g21
I18
sg29
Nsg30
Nsg31
Nsbsg32
I2
sg33
F19.0
sbs(g8
g408
tp2216
g0
(g16
g2
Ntp2217
Rp2218
(dp2219
g20
F0.5
sg21
I60
sg22
g0
(g23
g24
(dp2220
NI60
stp2221
Rp2222
(dp2223
g21
I60
sg29
Nsg30
Nsg31
Nsbsg32
I2
sg33
F61.0
sbs(g10
g398
tp2224
g0
(g16
g2
Ntp2225
Rp2226
(dp2227
g20
F0.5
sg21
I18
sg22
g0
(g23
g24
(dp2228
NI18
stp2229
Rp2230
(dp2231
g21
I18
sg29
Nsg30
Nsg31
Nsbsg32
I2
sg33
F19.0
sbs(g9
g389
tp2232
g0
(g16
g2
Ntp2233
Rp2234
(dp2235
g20
F0.5
sg21
I23
sg22
g0
(g23
g24
(dp2236
NI23
stp2237
Rp2238
(dp2239
g21
I23
sg29
Nsg30
Nsg31
Nsbsg32
I2
sg33
F24.0
sbs(g9
g975
tp2240
g0
(g16
g2
Ntp2241
Rp2242
(dp2243
g20
F0.5
sg21
I23
sg22
g0
(g23
g24
(dp2244
NI23
stp2245
Rp2246
(dp2247
g21
I23
sg29
Nsg30
Nsg31
Nsbsg32
I2
sg33
F24.0
sbs(g294
g712
tp2248
g0
(g16
g2
Ntp2249
Rp2250
(dp2251
g20
F0.5
sg21
I18
sg22
g0
(g23
g24
(dp2252
I01
I1
sNI17
stp2253
Rp2254
(dp2255
g21
I18
sg29
Nsg30
Nsg31
Nsbsg32
I2
sg33
F19.0
sbs(g9
g369
tp2256
g0
(g16
g2
Ntp2257
Rp2258
(dp2259
g20
F0.5
sg21
I23
sg22
g0
(g23
g24
(dp2260
NI23
stp2261
Rp2262
(dp2263
g21
I23
sg29
Nsg30
Nsg31
Nsbsg32
I2
sg33
F24.0
sbs(S'Meaning'
p2264
S'contains(santa)'
p2265
tp2266
g0
(g16
g2
Ntp2267
Rp2268
(dp2269
g20
F0.5
sg21
I60
sg22
g0
(g23
g24
(dp2270
I01
I1
sNI59
stp2271
Rp2272
(dp2273
g21
I60
sg29
Nsg30
Nsg31
Nsbsg32
I2
sg33
F61.0
sbs(g10
g975
tp2274
g0
(g16
g2
Ntp2275
Rp2276
(dp2277
g20
F0.5
sg21
I18
sg22
g0
(g23
g24
(dp2278
NI18
stp2279
Rp2280
(dp2281
g21
I18
sg29
Nsg30
Nsg31
Nsbsg32
I2
sg33
F19.0
sbs(S'Meaning'
p2282
g2054
tp2283
g0
(g16
g2
Ntp2284
Rp2285
(dp2286
g20
F0.5
sg21
I60
sg22
g0
(g23
g24
(dp2287
I01
I1
sNI59
stp2288
Rp2289
(dp2290
g21
I60
sg29
Nsg30
Nsg31
Nsbsg32
I2
sg33
F61.0
sbs(g9
S'contains(when)'
p2291
tp2292
g0
(g16
g2
Ntp2293
Rp2294
(dp2295
g20
F0.5
sg21
I23
sg22
g0
(g23
g24
(dp2296
NI23
stp2297
Rp2298
(dp2299
g21
I23
sg29
Nsg30
Nsg31
Nsbsg32
I2
sg33
F24.0
sbs(g8
g1335
tp2300
g0
(g16
g2
Ntp2301
Rp2302
(dp2303
g20
F0.5
sg21
I60
sg22
g0
(g23
g24
(dp2304
NI60
stp2305
Rp2306
(dp2307
g21
I60
sg29
Nsg30
Nsg31
Nsbsg32
I2
sg33
F61.0
sbs(g9
g1353
tp2308
g0
(g16
g2
Ntp2309
Rp2310
(dp2311
g20
F0.5
sg21
I23
sg22
g0
(g23
g24
(dp2312
NI23
stp2313
Rp2314
(dp2315
g21
I23
sg29
Nsg30
Nsg31
Nsbsg32
I2
sg33
F24.0
sbs(g8
g1202
tp2316
g0
(g16
g2
Ntp2317
Rp2318
(dp2319
g20
F0.5
sg21
I60
sg22
g0
(g23
g24
(dp2320
NI60
stp2321
Rp2322
(dp2323
g21
I60
sg29
Nsg30
Nsg31
Nsbsg32
I2
sg33
F61.0
sbs(g10
g324
tp2324
g0
(g16
g2
Ntp2325
Rp2326
(dp2327
g20
F0.5
sg21
I18
sg22
g0
(g23
g24
(dp2328
NI18
stp2329
Rp2330
(dp2331
g21
I18
sg29
Nsg30
Nsg31
Nsbsg32
I2
sg33
F19.0
sbs(g10
g666
tp2332
g0
(g16
g2
Ntp2333
Rp2334
(dp2335
g20
F0.5
sg21
I18
sg22
g0
(g23
g24
(dp2336
NI18
stp2337
Rp2338
(dp2339
g21
I18
sg29
Nsg30
Nsg31
Nsbsg32
I2
sg33
F19.0
sbs(g9
g1595
tp2340
g0
(g16
g2
Ntp2341
Rp2342
(dp2343
g20
F0.5
sg21
I23
sg22
g0
(g23
g24
(dp2344
NI23
stp2345
Rp2346
(dp2347
g21
I23
sg29
Nsg30
Nsg31
Nsbsg32
I2
sg33
F24.0
sbs(g8
g295
tp2348
g0
(g16
g2
Ntp2349
Rp2350
(dp2351
g20
F0.5
sg21
I60
sg22
g0
(g23
g24
(dp2352
NI60
stp2353
Rp2354
(dp2355
g21
I60
sg29
Nsg30
Nsg31
Nsbsg32
I2
sg33
F61.0
sbs(g10
g1703
tp2356
g0
(g16
g2
Ntp2357
Rp2358
(dp2359
g20
F0.5
sg21
I18
sg22
g0
(g23
g24
(dp2360
I01
I3
sNI15
stp2361
Rp2362
(dp2363
g21
I18
sg29
Nsg30
Nsg31
Nsbsg32
I2
sg33
F19.0
sbs(g901
g1237
tp2364
g0
(g16
g2
Ntp2365
Rp2366
(dp2367
g20
F0.5
sg21
I18
sg22
g0
(g23
g24
(dp2368
I01
I1
sNI17
stp2369
Rp2370
(dp2371
g21
I18
sg29
Nsg30
Nsg31
Nsbsg32
I2
sg33
F19.0
sbs(g110
g238
tp2372
g0
(g16
g2
Ntp2373
Rp2374
(dp2375
g20
F0.5
sg21
I18
sg22
g0
(g23
g24
(dp2376
I01
I1
sNI17
stp2377
Rp2378
(dp2379
g21
I18
sg29
Nsg30
Nsg31
Nsbsg32
I2
sg33
F19.0
sbs(g9
g257
tp2380
g0
(g16
g2
Ntp2381
Rp2382
(dp2383
g20
F0.5
sg21
I23
sg22
g0
(g23
g24
(dp2384
NI23
stp2385
Rp2386
(dp2387
g21
I23
sg29
Nsg30
Nsg31
Nsbsg32
I2
sg33
F24.0
sbs(g901
g2140
tp2388
g0
(g16
g2
Ntp2389
Rp2390
(dp2391
g20
F0.5
sg21
I18
sg22
g0
(g23
g24
(dp2392
I01
I1
sNI17
stp2393
Rp2394
(dp2395
g21
I18
sg29
Nsg30
Nsg31
Nsbsg32
I2
sg33
F19.0
sbs(g9
g1202
tp2396
g0
(g16
g2
Ntp2397
Rp2398
(dp2399
g20
F0.5
sg21
I23
sg22
g0
(g23
g24
(dp2400
NI23
stp2401
Rp2402
(dp2403
g21
I23
sg29
Nsg30
Nsg31
Nsbsg32
I2
sg33
F24.0
sbs(g8
S'contains(other)'
p2404
tp2405
g0
(g16
g2
Ntp2406
Rp2407
(dp2408
g20
F0.5
sg21
I60
sg22
g0
(g23
g24
(dp2409
NI60
stp2410
Rp2411
(dp2412
g21
I60
sg29
Nsg30
Nsg31
Nsbsg32
I2
sg33
F61.0
sbs(S'Composition'
p2413
g1219
tp2414
g0
(g16
g2
Ntp2415
Rp2416
(dp2417
g20
F0.5
sg21
I23
sg22
g0
(g23
g24
(dp2418
I01
I1
sNI22
stp2419
Rp2420
(dp2421
g21
I23
sg29
Nsg30
Nsg31
Nsbsg32
I2
sg33
F24.0
sbs(g9
g2404
tp2422
g0
(g16
g2
Ntp2423
Rp2424
(dp2425
g20
F0.5
sg21
I23
sg22
g0
(g23
g24
(dp2426
NI23
stp2427
Rp2428
(dp2429
g21
I23
sg29
Nsg30
Nsg31
Nsbsg32
I2
sg33
F24.0
sbs(g10
S'contains(mellons)'
p2430
tp2431
g0
(g16
g2
Ntp2432
Rp2433
(dp2434
g20
F0.5
sg21
I18
sg22
g0
(g23
g24
(dp2435
NI18
stp2436
Rp2437
(dp2438
g21
I18
sg29
Nsg30
Nsg31
Nsbsg32
I2
sg33
F19.0
sbs(g9
g247
tp2439
g0
(g16
g2
Ntp2440
Rp2441
(dp2442
g20
F0.5
sg21
I23
sg22
g0
(g23
g24
(dp2443
NI23
stp2444
Rp2445
(dp2446
g21
I23
sg29
Nsg30
Nsg31
Nsbsg32
I2
sg33
F24.0
sbs(g9
g1081
tp2447
g0
(g16
g2
Ntp2448
Rp2449
(dp2450
g20
F0.5
sg21
I23
sg22
g0
(g23
g24
(dp2451
NI23
stp2452
Rp2453
(dp2454
g21
I23
sg29
Nsg30
Nsg31
Nsbsg32
I2
sg33
F24.0
sbs(g10
g1959
tp2455
g0
(g16
g2
Ntp2456
Rp2457
(dp2458
g20
F0.5
sg21
I18
sg22
g0
(g23
g24
(dp2459
NI18
stp2460
Rp2461
(dp2462
g21
I18
sg29
Nsg30
Nsg31
Nsbsg32
I2
sg33
F19.0
sbs(g8
g739
tp2463
g0
(g16
g2
Ntp2464
Rp2465
(dp2466
g20
F0.5
sg21
I60
sg22
g0
(g23
g24
(dp2467
NI60
stp2468
Rp2469
(dp2470
g21
I60
sg29
Nsg30
Nsg31
Nsbsg32
I2
sg33
F61.0
sbs(g10
S'contains(backpacks)'
p2471
tp2472
g0
(g16
g2
Ntp2473
Rp2474
(dp2475
g20
F0.5
sg21
I18
sg22
g0
(g23
g24
(dp2476
NI18
stp2477
Rp2478
(dp2479
g21
I18
sg29
Nsg30
Nsg31
Nsbsg32
I2
sg33
F19.0
sbs(g8
S'contains(made)'
p2480
tp2481
g0
(g16
g2
Ntp2482
Rp2483
(dp2484
g20
F0.5
sg21
I60
sg22
g0
(g23
g24
(dp2485
NI60
stp2486
Rp2487
(dp2488
g21
I60
sg29
Nsg30
Nsg31
Nsbsg32
I2
sg33
F61.0
sbs(g9
g209
tp2489
g0
(g16
g2
Ntp2490
Rp2491
(dp2492
g20
F0.5
sg21
I23
sg22
g0
(g23
g24
(dp2493
NI23
stp2494
Rp2495
(dp2496
g21
I23
sg29
Nsg30
Nsg31
Nsbsg32
I2
sg33
F24.0
sbs(g10
g2037
tp2497
g0
(g16
g2
Ntp2498
Rp2499
(dp2500
g20
F0.5
sg21
I18
sg22
g0
(g23
g24
(dp2501
NI18
stp2502
Rp2503
(dp2504
g21
I18
sg29
Nsg30
Nsg31
Nsbsg32
I2
sg33
F19.0
sbs(g10
g1134
tp2505
g0
(g16
g2
Ntp2506
Rp2507
(dp2508
g20
F0.5
sg21
I18
sg22
g0
(g23
g24
(dp2509
NI18
stp2510
Rp2511
(dp2512
g21
I18
sg29
Nsg30
Nsg31
Nsbsg32
I2
sg33
F19.0
sbs(g10
g83
tp2513
g0
(g16
g2
Ntp2514
Rp2515
(dp2516
g20
F0.5
sg21
I18
sg22
g0
(g23
g24
(dp2517
NI18
stp2518
Rp2519
(dp2520
g21
I18
sg29
Nsg30
Nsg31
Nsbsg32
I2
sg33
F19.0
sbs(S'Meaning'
p2521
g2037
tp2522
g0
(g16
g2
Ntp2523
Rp2524
(dp2525
g20
F0.5
sg21
I60
sg22
g0
(g23
g24
(dp2526
I01
I1
sNI59
stp2527
Rp2528
(dp2529
g21
I60
sg29
Nsg30
Nsg31
Nsbsg32
I2
sg33
F61.0
sbs(S'Composition'
p2530
g2020
tp2531
g0
(g16
g2
Ntp2532
Rp2533
(dp2534
g20
F0.5
sg21
I23
sg22
g0
(g23
g24
(dp2535
I01
I1
sNI22
stp2536
Rp2537
(dp2538
g21
I23
sg29
Nsg30
Nsg31
Nsbsg32
I2
sg33
F24.0
sbs(g9
g1510
tp2539
g0
(g16
g2
Ntp2540
Rp2541
(dp2542
g20
F0.5
sg21
I23
sg22
g0
(g23
g24
(dp2543
NI23
stp2544
Rp2545
(dp2546
g21
I23
sg29
Nsg30
Nsg31
Nsbsg32
I2
sg33
F24.0
sbs(g294
g1090
tp2547
g0
(g16
g2
Ntp2548
Rp2549
(dp2550
g20
F0.5
sg21
I18
sg22
g0
(g23
g24
(dp2551
I01
I1
sNI17
stp2552
Rp2553
(dp2554
g21
I18
sg29
Nsg30
Nsg31
Nsbsg32
I2
sg33
F19.0
sbs(g8
g148
tp2555
g0
(g16
g2
Ntp2556
Rp2557
(dp2558
g20
F0.5
sg21
I60
sg22
g0
(g23
g24
(dp2559
NI60
stp2560
Rp2561
(dp2562
g21
I60
sg29
Nsg30
Nsg31
Nsbsg32
I2
sg33
F61.0
sbs(S'Composition'
p2563
g1072
tp2564
g0
(g16
g2
Ntp2565
Rp2566
(dp2567
g20
F0.5
sg21
I23
sg22
g0
(g23
g24
(dp2568
I01
I2
sNI21
stp2569
Rp2570
(dp2571
g21
I23
sg29
Nsg30
Nsg31
Nsbsg32
I2
sg33
F24.0
sbs(g8
g638
tp2572
g0
(g16
g2
Ntp2573
Rp2574
(dp2575
g20
F0.5
sg21
I60
sg22
g0
(g23
g24
(dp2576
I01
I12
sNI48
stp2577
Rp2578
(dp2579
g21
I60
sg29
Nsg30
Nsg31
Nsbsg32
I2
sg33
F61.0
sbs(S'Meaning'
p2580
g1081
tp2581
g0
(g16
g2
Ntp2582
Rp2583
(dp2584
g20
F0.5
sg21
I60
sg22
g0
(g23
g24
(dp2585
I01
I1
sNI59
stp2586
Rp2587
(dp2588
g21
I60
sg29
Nsg30
Nsg31
Nsbsg32
I2
sg33
F61.0
sbs(g647
S'contains(bureau)'
p2589
tp2590
g0
(g16
g2
Ntp2591
Rp2592
(dp2593
g20
F0.5
sg21
I18
sg22
g0
(g23
g24
(dp2594
I01
I1
sNI17
stp2595
Rp2596
(dp2597
g21
I18
sg29
Nsg30
Nsg31
Nsbsg32
I2
sg33
F19.0
sbs(S'Meaning'
p2598
S'contains(atm)'
p2599
tp2600
g0
(g16
g2
Ntp2601
Rp2602
(dp2603
g20
F0.5
sg21
I60
sg22
g0
(g23
g24
(dp2604
I01
I1
sNI59
stp2605
Rp2606
(dp2607
g21
I60
sg29
Nsg30
Nsg31
Nsbsg32
I2
sg33
F61.0
sbs(g10
g921
tp2608
g0
(g16
g2
Ntp2609
Rp2610
(dp2611
g20
F0.5
sg21
I18
sg22
g0
(g23
g24
(dp2612
NI18
stp2613
Rp2614
(dp2615
g21
I18
sg29
Nsg30
Nsg31
Nsbsg32
I2
sg33
F19.0
sbs(g10
S'contains(mouse)'
p2616
tp2617
g0
(g16
g2
Ntp2618
Rp2619
(dp2620
g20
F0.5
sg21
I18
sg22
g0
(g23
g24
(dp2621
NI18
stp2622
Rp2623
(dp2624
g21
I18
sg29
Nsg30
Nsg31
Nsbsg32
I2
sg33
F19.0
sbs(g9
S'contains(word)'
p2625
tp2626
g0
(g16
g2
Ntp2627
Rp2628
(dp2629
g20
F0.5
sg21
I23
sg22
g0
(g23
g24
(dp2630
NI23
stp2631
Rp2632
(dp2633
g21
I23
sg29
Nsg30
Nsg31
Nsbsg32
I2
sg33
F24.0
sbs(g10
g73
tp2634
g0
(g16
g2
Ntp2635
Rp2636
(dp2637
g20
F0.5
sg21
I18
sg22
g0
(g23
g24
(dp2638
NI18
stp2639
Rp2640
(dp2641
g21
I18
sg29
Nsg30
Nsg31
Nsbsg32
I2
sg33
F19.0
sbs(g8
g285
tp2642
g0
(g16
g2
Ntp2643
Rp2644
(dp2645
g20
F0.5
sg21
I60
sg22
g0
(g23
g24
(dp2646
NI60
stp2647
Rp2648
(dp2649
g21
I60
sg29
Nsg30
Nsg31
Nsbsg32
I2
sg33
F61.0
sbs(g8
g686
tp2650
g0
(g16
g2
Ntp2651
Rp2652
(dp2653
g20
F0.5
sg21
I60
sg22
g0
(g23
g24
(dp2654
NI60
stp2655
Rp2656
(dp2657
g21
I60
sg29
Nsg30
Nsg31
Nsbsg32
I2
sg33
F61.0
sbs(g2563
g1143
tp2658
g0
(g16
g2
Ntp2659
Rp2660
(dp2661
g20
F0.5
sg21
I23
sg22
g0
(g23
g24
(dp2662
I01
I5
sNI18
stp2663
Rp2664
(dp2665
g21
I23
sg29
Nsg30
Nsg31
Nsbsg32
I2
sg33
F24.0
sbs(S'Meaning'
p2666
g73
tp2667
g0
(g16
g2
Ntp2668
Rp2669
(dp2670
g20
F0.5
sg21
I60
sg22
g0
(g23
g24
(dp2671
I01
I1
sNI59
stp2672
Rp2673
(dp2674
g21
I60
sg29
Nsg30
Nsg31
Nsbsg32
I2
sg33
F61.0
sbs(g974
g2625
tp2675
g0
(g16
g2
Ntp2676
Rp2677
(dp2678
g20
F0.5
sg21
I60
sg22
g0
(g23
g24
(dp2679
I01
I5
sNI55
stp2680
Rp2681
(dp2682
g21
I60
sg29
Nsg30
Nsg31
Nsbsg32
I2
sg33
F61.0
sbs(g9
g569
tp2683
g0
(g16
g2
Ntp2684
Rp2685
(dp2686
g20
F0.5
sg21
I23
sg22
g0
(g23
g24
(dp2687
NI23
stp2688
Rp2689
(dp2690
g21
I23
sg29
Nsg30
Nsg31
Nsbsg32
I2
sg33
F24.0
sbs(S'Meaning'
p2691
g1771
tp2692
g0
(g16
g2
Ntp2693
Rp2694
(dp2695
g20
F0.5
sg21
I60
sg22
g0
(g23
g24
(dp2696
I01
I1
sNI59
stp2697
Rp2698
(dp2699
g21
I60
sg29
Nsg30
Nsg31
Nsbsg32
I2
sg33
F61.0
sbs(g10
g965
tp2700
g0
(g16
g2
Ntp2701
Rp2702
(dp2703
g20
F0.5
sg21
I18
sg22
g0
(g23
g24
(dp2704
NI18
stp2705
Rp2706
(dp2707
g21
I18
sg29
Nsg30
Nsg31
Nsbsg32
I2
sg33
F19.0
sbs(g10
S'contains(protective)'
p2708
tp2709
g0
(g16
g2
Ntp2710
Rp2711
(dp2712
g20
F0.5
sg21
I18
sg22
g0
(g23
g24
(dp2713
NI18
stp2714
Rp2715
(dp2716
g21
I18
sg29
Nsg30
Nsg31
Nsbsg32
I2
sg33
F19.0
sbs(g10
S'contains(broke)'
p2717
tp2718
g0
(g16
g2
Ntp2719
Rp2720
(dp2721
g20
F0.5
sg21
I18
sg22
g0
(g23
g24
(dp2722
NI18
stp2723
Rp2724
(dp2725
g21
I18
sg29
Nsg30
Nsg31
Nsbsg32
I2
sg33
F19.0
sbs(g10
g930
tp2726
g0
(g16
g2
Ntp2727
Rp2728
(dp2729
g20
F0.5
sg21
I18
sg22
g0
(g23
g24
(dp2730
NI18
stp2731
Rp2732
(dp2733
g21
I18
sg29
Nsg30
Nsg31
Nsbsg32
I2
sg33
F19.0
sbs(S'Meaning'
p2734
g666
tp2735
g0
(g16
g2
Ntp2736
Rp2737
(dp2738
g20
F0.5
sg21
I60
sg22
g0
(g23
g24
(dp2739
I01
I1
sNI59
stp2740
Rp2741
(dp2742
g21
I60
sg29
Nsg30
Nsg31
Nsbsg32
I2
sg33
F61.0
sbs(g10
g912
tp2743
g0
(g16
g2
Ntp2744
Rp2745
(dp2746
g20
F0.5
sg21
I18
sg22
g0
(g23
g24
(dp2747
NI18
stp2748
Rp2749
(dp2750
g21
I18
sg29
Nsg30
Nsg31
Nsbsg32
I2
sg33
F19.0
sbs(g10
g2265
tp2751
g0
(g16
g2
Ntp2752
Rp2753
(dp2754
g20
F0.5
sg21
I18
sg22
g0
(g23
g24
(dp2755
NI18
stp2756
Rp2757
(dp2758
g21
I18
sg29
Nsg30
Nsg31
Nsbsg32
I2
sg33
F19.0
sbs(g8
g324
tp2759
g0
(g16
g2
Ntp2760
Rp2761
(dp2762
g20
F0.5
sg21
I60
sg22
g0
(g23
g24
(dp2763
NI60
stp2764
Rp2765
(dp2766
g21
I60
sg29
Nsg30
Nsg31
Nsbsg32
I2
sg33
F61.0
sbs(S'Composition'
p2767
S'contains(battery)'
p2768
tp2769
g0
(g16
g2
Ntp2770
Rp2771
(dp2772
g20
F0.5
sg21
I23
sg22
g0
(g23
g24
(dp2773
I01
I1
sNI22
stp2774
Rp2775
(dp2776
g21
I23
sg29
Nsg30
Nsg31
Nsbsg32
I2
sg33
F24.0
sbs(g730
g846
tp2777
g0
(g16
g2
Ntp2778
Rp2779
(dp2780
g20
F0.5
sg21
I18
sg22
g0
(g23
g24
(dp2781
I01
I4
sNI14
stp2782
Rp2783
(dp2784
g21
I18
sg29
Nsg30
Nsg31
Nsbsg32
I2
sg33
F19.0
sbs(g10
g2480
tp2785
g0
(g16
g2
Ntp2786
Rp2787
(dp2788
g20
F0.5
sg21
I18
sg22
g0
(g23
g24
(dp2789
NI18
stp2790
Rp2791
(dp2792
g21
I18
sg29
Nsg30
Nsg31
Nsbsg32
I2
sg33
F19.0
sbs(g9
g1771
tp2793
g0
(g16
g2
Ntp2794
Rp2795
(dp2796
g20
F0.5
sg21
I23
sg22
g0
(g23
g24
(dp2797
NI23
stp2798
Rp2799
(dp2800
g21
I23
sg29
Nsg30
Nsg31
Nsbsg32
I2
sg33
F24.0
sbs(g9
g865
tp2801
g0
(g16
g2
Ntp2802
Rp2803
(dp2804
g20
F0.5
sg21
I23
sg22
g0
(g23
g24
(dp2805
NI23
stp2806
Rp2807
(dp2808
g21
I23
sg29
Nsg30
Nsg31
Nsbsg32
I2
sg33
F24.0
sbs(g9
g892
tp2809
g0
(g16
g2
Ntp2810
Rp2811
(dp2812
g20
F0.5
sg21
I23
sg22
g0
(g23
g24
(dp2813
NI23
stp2814
Rp2815
(dp2816
g21
I23
sg29
Nsg30
Nsg31
Nsbsg32
I2
sg33
F24.0
sbs(g9
g2265
tp2817
g0
(g16
g2
Ntp2818
Rp2819
(dp2820
g20
F0.5
sg21
I23
sg22
g0
(g23
g24
(dp2821
NI23
stp2822
Rp2823
(dp2824
g21
I23
sg29
Nsg30
Nsg31
Nsbsg32
I2
sg33
F24.0
sbs(g9
g912
tp2825
g0
(g16
g2
Ntp2826
Rp2827
(dp2828
g20
F0.5
sg21
I23
sg22
g0
(g23
g24
(dp2829
NI23
stp2830
Rp2831
(dp2832
g21
I23
sg29
Nsg30
Nsg31
Nsbsg32
I2
sg33
F24.0
sbs(g8
g35
tp2833
g0
(g16
g2
Ntp2834
Rp2835
(dp2836
g20
F0.5
sg21
I60
sg22
g0
(g23
g24
(dp2837
NI60
stp2838
Rp2839
(dp2840
g21
I60
sg29
Nsg30
Nsg31
Nsbsg32
I2
sg33
F61.0
sbs(g8
g14
tp2841
g0
(g16
g2
Ntp2842
Rp2843
(dp2844
g20
F0.5
sg21
I60
sg22
g0
(g23
g24
(dp2845
NI60
stp2846
Rp2847
(dp2848
g21
I60
sg29
Nsg30
Nsg31
Nsbsg32
I2
sg33
F61.0
sbs(g9
g2717
tp2849
g0
(g16
g2
Ntp2850
Rp2851
(dp2852
g20
F0.5
sg21
I23
sg22
g0
(g23
g24
(dp2853
NI23
stp2854
Rp2855
(dp2856
g21
I23
sg29
Nsg30
Nsg31
Nsbsg32
I2
sg33
F24.0
sbs(S'Meaning'
p2857
g775
tp2858
g0
(g16
g2
Ntp2859
Rp2860
(dp2861
g20
F0.5
sg21
I60
sg22
g0
(g23
g24
(dp2862
I01
I1
sNI59
stp2863
Rp2864
(dp2865
g21
I60
sg29
Nsg30
Nsg31
Nsbsg32
I2
sg33
F61.0
sbs(S'Meaning'
p2866
g507
tp2867
g0
(g16
g2
Ntp2868
Rp2869
(dp2870
g20
F0.5
sg21
I60
sg22
g0
(g23
g24
(dp2871
I01
I1
sNI59
stp2872
Rp2873
(dp2874
g21
I60
sg29
Nsg30
Nsg31
Nsbsg32
I2
sg33
F61.0
sbs(g675
g921
tp2875
g0
(g16
g2
Ntp2876
Rp2877
(dp2878
g20
F0.5
sg21
I23
sg22
g0
(g23
g24
(dp2879
I01
I1
sNI22
stp2880
Rp2881
(dp2882
g21
I23
sg29
Nsg30
Nsg31
Nsbsg32
I2
sg33
F24.0
sbs(g407
S'contains(a)'
p2883
tp2884
g0
(g16
g2
Ntp2885
Rp2886
(dp2887
g20
F0.5
sg21
I18
sg22
g0
(g23
g24
(dp2888
I01
I1
sNI17
stp2889
Rp2890
(dp2891
g21
I18
sg29
Nsg30
Nsg31
Nsbsg32
I2
sg33
F19.0
sbs(g8
g2140
tp2892
g0
(g16
g2
Ntp2893
Rp2894
(dp2895
g20
F0.5
sg21
I60
sg22
g0
(g23
g24
(dp2896
NI60
stp2897
Rp2898
(dp2899
g21
I60
sg29
Nsg30
Nsg31
Nsbsg32
I2
sg33
F61.0
sbs(g9
g2599
tp2900
g0
(g16
g2
Ntp2901
Rp2902
(dp2903
g20
F0.5
sg21
I23
sg22
g0
(g23
g24
(dp2904
NI23
stp2905
Rp2906
(dp2907
g21
I23
sg29
Nsg30
Nsg31
Nsbsg32
I2
sg33
F24.0
sbs(g407
g2106
tp2908
g0
(g16
g2
Ntp2909
Rp2910
(dp2911
g20
F0.5
sg21
I18
sg22
g0
(g23
g24
(dp2912
I01
I1
sNI17
stp2913
Rp2914
(dp2915
g21
I18
sg29
Nsg30
Nsg31
Nsbsg32
I2
sg33
F19.0
sbs(g10
g343
tp2916
g0
(g16
g2
Ntp2917
Rp2918
(dp2919
g20
F0.5
sg21
I18
sg22
g0
(g23
g24
(dp2920
NI18
stp2921
Rp2922
(dp2923
g21
I18
sg29
Nsg30
Nsg31
Nsbsg32
I2
sg33
F19.0
sbs(S'Meaning'
p2924
g629
tp2925
g0
(g16
g2
Ntp2926
Rp2927
(dp2928
g20
F0.5
sg21
I60
sg22
g0
(g23
g24
(dp2929
I01
I1
sNI59
stp2930
Rp2931
(dp2932
g21
I60
sg29
Nsg30
Nsg31
Nsbsg32
I2
sg33
F61.0
sbs(g10
g686
tp2933
g0
(g16
g2
Ntp2934
Rp2935
(dp2936
g20
F0.5
sg21
I18
sg22
g0
(g23
g24
(dp2937
NI18
stp2938
Rp2939
(dp2940
g21
I18
sg29
Nsg30
Nsg31
Nsbsg32
I2
sg33
F19.0
sbs(g10
g1510
tp2941
g0
(g16
g2
Ntp2942
Rp2943
(dp2944
g20
F0.5
sg21
I18
sg22
g0
(g23
g24
(dp2945
NI18
stp2946
Rp2947
(dp2948
g21
I18
sg29
Nsg30
Nsg31
Nsbsg32
I2
sg33
F19.0
sbs(g9
g604
tp2949
g0
(g16
g2
Ntp2950
Rp2951
(dp2952
g20
F0.5
sg21
I23
sg22
g0
(g23
g24
(dp2953
NI23
stp2954
Rp2955
(dp2956
g21
I23
sg29
Nsg30
Nsg31
Nsbsg32
I2
sg33
F24.0
sbs(S'Meaning'
p2957
g948
tp2958
g0
(g16
g2
Ntp2959
Rp2960
(dp2961
g20
F0.5
sg21
I60
sg22
g0
(g23
g24
(dp2962
I01
I12
sNI48
stp2963
Rp2964
(dp2965
g21
I60
sg29
Nsg30
Nsg31
Nsbsg32
I2
sg33
F61.0
sbs(g9
g775
tp2966
g0
(g16
g2
Ntp2967
Rp2968
(dp2969
g20
F0.5
sg21
I23
sg22
g0
(g23
g24
(dp2970
NI23
stp2971
Rp2972
(dp2973
g21
I23
sg29
Nsg30
Nsg31
Nsbsg32
I2
sg33
F24.0
sbs(g9
g2471
tp2974
g0
(g16
g2
Ntp2975
Rp2976
(dp2977
g20
F0.5
sg21
I23
sg22
g0
(g23
g24
(dp2978
NI23
stp2979
Rp2980
(dp2981
g21
I23
sg29
Nsg30
Nsg31
Nsbsg32
I2
sg33
F24.0
sbs(g9
g295
tp2982
g0
(g16
g2
Ntp2983
Rp2984
(dp2985
g20
F0.5
sg21
I23
sg22
g0
(g23
g24
(dp2986
NI23
stp2987
Rp2988
(dp2989
g21
I23
sg29
Nsg30
Nsg31
Nsbsg32
I2
sg33
F24.0
sbs(g8
g2020
tp2990
g0
(g16
g2
Ntp2991
Rp2992
(dp2993
g20
F0.5
sg21
I60
sg22
g0
(g23
g24
(dp2994
NI60
stp2995
Rp2996
(dp2997
g21
I60
sg29
Nsg30
Nsg31
Nsbsg32
I2
sg33
F61.0
sbs(g9
g1612
tp2998
g0
(g16
g2
Ntp2999
Rp3000
(dp3001
g20
F0.5
sg21
I23
sg22
g0
(g23
g24
(dp3002
NI23
stp3003
Rp3004
(dp3005
g21
I23
sg29
Nsg30
Nsg31
Nsbsg32
I2
sg33
F24.0
sbs(S'Meaning'
p3006
g209
tp3007
g0
(g16
g2
Ntp3008
Rp3009
(dp3010
g20
F0.5
sg21
I60
sg22
g0
(g23
g24
(dp3011
I01
I1
sNI59
stp3012
Rp3013
(dp3014
g21
I60
sg29
Nsg30
Nsg31
Nsbsg32
I2
sg33
F61.0
sbs(S'Meaning'
p3015
g1986
tp3016
g0
(g16
g2
Ntp3017
Rp3018
(dp3019
g20
F0.5
sg21
I60
sg22
g0
(g23
g24
(dp3020
I01
I1
sNI59
stp3021
Rp3022
(dp3023
g21
I60
sg29
Nsg30
Nsg31
Nsbsg32
I2
sg33
F61.0
sbs(g8
g314
tp3024
g0
(g16
g2
Ntp3025
Rp3026
(dp3027
g20
F0.5
sg21
I60
sg22
g0
(g23
g24
(dp3028
NI60
stp3029
Rp3030
(dp3031
g21
I60
sg29
Nsg30
Nsg31
Nsbsg32
I2
sg33
F61.0
sbs(g9
S'contains(of)'
p3032
tp3033
g0
(g16
g2
Ntp3034
Rp3035
(dp3036
g20
F0.5
sg21
I23
sg22
g0
(g23
g24
(dp3037
I01
I23
stp3038
Rp3039
(dp3040
g21
I23
sg29
Nsg30
Nsg31
Nsbsg32
I2
sg33
F24.0
sbs(g9
g648
tp3041
g0
(g16
g2
Ntp3042
Rp3043
(dp3044
g20
F0.5
sg21
I23
sg22
g0
(g23
g24
(dp3045
NI23
stp3046
Rp3047
(dp3048
g21
I23
sg29
Nsg30
Nsg31
Nsbsg32
I2
sg33
F24.0
sbs(g8
S'contains(does)'
p3049
tp3050
g0
(g16
g2
Ntp3051
Rp3052
(dp3053
g20
F0.5
sg21
I60
sg22
g0
(g23
g24
(dp3054
I01
I12
sNI48
stp3055
Rp3056
(dp3057
g21
I60
sg29
Nsg30
Nsg31
Nsbsg32
I2
sg33
F61.0
sbs(g9
g175
tp3058
g0
(g16
g2
Ntp3059
Rp3060
(dp3061
g20
F0.5
sg21
I23
sg22
g0
(g23
g24
(dp3062
I01
I1
sNI22
stp3063
Rp3064
(dp3065
g21
I23
sg29
Nsg30
Nsg31
Nsbsg32
I2
sg33
F24.0
sbs(g378
S'contains(mean)'
p3066
tp3067
g0
(g16
g2
Ntp3068
Rp3069
(dp3070
g20
F0.5
sg21
I18
sg22
g0
(g23
g24
(dp3071
I01
I2
sNI16
stp3072
Rp3073
(dp3074
g21
I18
sg29
Nsg30
Nsg31
Nsbsg32
I2
sg33
F19.0
sbs(g9
g2430
tp3075
g0
(g16
g2
Ntp3076
Rp3077
(dp3078
g20
F0.5
sg21
I23
sg22
g0
(g23
g24
(dp3079
NI23
stp3080
Rp3081
(dp3082
g21
I23
sg29
Nsg30
Nsg31
Nsbsg32
I2
sg33
F24.0
sbs(g10
g276
tp3083
g0
(g16
g2
Ntp3084
Rp3085
(dp3086
g20
F0.5
sg21
I18
sg22
g0
(g23
g24
(dp3087
NI18
stp3088
Rp3089
(dp3090
g21
I18
sg29
Nsg30
Nsg31
Nsbsg32
I2
sg33
F19.0
sbs(g9
g1703
tp3091
g0
(g16
g2
Ntp3092
Rp3093
(dp3094
g20
F0.5
sg21
I23
sg22
g0
(g23
g24
(dp3095
NI23
stp3096
Rp3097
(dp3098
g21
I23
sg29
Nsg30
Nsg31
Nsbsg32
I2
sg33
F24.0
sbs(g730
S'contains(does)'
p3099
tp3100
g0
(g16
g2
Ntp3101
Rp3102
(dp3103
g20
F0.5
sg21
I18
sg22
g0
(g23
g24
(dp3104
I01
I11
sNI7
stp3105
Rp3106
(dp3107
g21
I18
sg29
Nsg30
Nsg31
Nsbsg32
I2
sg33
F19.0
sbs(g9
g1412
tp3108
g0
(g16
g2
Ntp3109
Rp3110
(dp3111
g20
F0.5
sg21
I23
sg22
g0
(g23
g24
(dp3112
NI23
stp3113
Rp3114
(dp3115
g21
I23
sg29
Nsg30
Nsg31
Nsbsg32
I2
sg33
F24.0
sbs(S'Meaning'
p3116
g1011
tp3117
g0
(g16
g2
Ntp3118
Rp3119
(dp3120
g20
F0.5
sg21
I60
sg22
g0
(g23
g24
(dp3121
I01
I1
sNI59
stp3122
Rp3123
(dp3124
g21
I60
sg29
Nsg30
Nsg31
Nsbsg32
I2
sg33
F61.0
sbs(g10
S'contains(are)'
p3125
tp3126
g0
(g16
g2
Ntp3127
Rp3128
(dp3129
g20
F0.5
sg21
I18
sg22
g0
(g23
g24
(dp3130
NI18
stp3131
Rp3132
(dp3133
g21
I18
sg29
Nsg30
Nsg31
Nsbsg32
I2
sg33
F19.0
sbs(g8
g219
tp3134
g0
(g16
g2
Ntp3135
Rp3136
(dp3137
g20
F0.5
sg21
I60
sg22
g0
(g23
g24
(dp3138
NI60
stp3139
Rp3140
(dp3141
g21
I60
sg29
Nsg30
Nsg31
Nsbsg32
I2
sg33
F61.0
sbs(g53
g2430
tp3142
g0
(g16
g2
Ntp3143
Rp3144
(dp3145
g20
F0.5
sg21
I60
sg22
g0
(g23
g24
(dp3146
I01
I1
sNI59
stp3147
Rp3148
(dp3149
g21
I60
sg29
Nsg30
Nsg31
Nsbsg32
I2
sg33
F61.0
sbs(g8
g1968
tp3150
g0
(g16
g2
Ntp3151
Rp3152
(dp3153
g20
F0.5
sg21
I60
sg22
g0
(g23
g24
(dp3154
NI60
stp3155
Rp3156
(dp3157
g21
I60
sg29
Nsg30
Nsg31
Nsbsg32
I2
sg33
F61.0
sbs(S'Meaning'
p3158
g369
tp3159
g0
(g16
g2
Ntp3160
Rp3161
(dp3162
g20
F0.5
sg21
I60
sg22
g0
(g23
g24
(dp3163
I01
I1
sNI59
stp3164
Rp3165
(dp3166
g21
I60
sg29
Nsg30
Nsg31
Nsbsg32
I2
sg33
F61.0
sbs(S'Meaning'
p3167
g1255
tp3168
g0
(g16
g2
Ntp3169
Rp3170
(dp3171
g20
F0.5
sg21
I60
sg22
g0
(g23
g24
(dp3172
I01
I1
sNI59
stp3173
Rp3174
(dp3175
g21
I60
sg29
Nsg30
Nsg31
Nsbsg32
I2
sg33
F61.0
sbs(g9
S'contains(is)'
p3176
tp3177
g0
(g16
g2
Ntp3178
Rp3179
(dp3180
g20
F0.5
sg21
I23
sg22
g0
(g23
g24
(dp3181
I01
I16
sNI7
stp3182
Rp3183
(dp3184
g21
I23
sg29
Nsg30
Nsg31
Nsbsg32
I2
sg33
F24.0
sbs(g901
g2404
tp3185
g0
(g16
g2
Ntp3186
Rp3187
(dp3188
g20
F0.5
sg21
I18
sg22
g0
(g23
g24
(dp3189
I01
I1
sNI17
stp3190
Rp3191
(dp3192
g21
I18
sg29
Nsg30
Nsg31
Nsbsg32
I2
sg33
F19.0
sbs(g8
g2291
tp3193
g0
(g16
g2
Ntp3194
Rp3195
(dp3196
g20
F0.5
sg21
I60
sg22
g0
(g23
g24
(dp3197
NI60
stp3198
Rp3199
(dp3200
g21
I60
sg29
Nsg30
Nsg31
Nsbsg32
I2
sg33
F61.0
sbs(g1037
g874
tp3201
g0
(g16
g2
Ntp3202
Rp3203
(dp3204
g20
F0.5
sg21
I60
sg22
g0
(g23
g24
(dp3205
I01
I1
sNI59
stp3206
Rp3207
(dp3208
g21
I60
sg29
Nsg30
Nsg31
Nsbsg32
I2
sg33
F61.0
sbs(g9
g489
tp3209
g0
(g16
g2
Ntp3210
Rp3211
(dp3212
g20
F0.5
sg21
I23
sg22
g0
(g23
g24
(dp3213
NI23
stp3214
Rp3215
(dp3216
g21
I23
sg29
Nsg30
Nsg31
Nsbsg32
I2
sg33
F24.0
sbs(S'Abbreviation'
p3217
g1595
tp3218
g0
(g16
g2
Ntp3219
Rp3220
(dp3221
g20
F0.5
sg21
I18
sg22
g0
(g23
g24
(dp3222
I01
I1
sNI17
stp3223
Rp3224
(dp3225
g21
I18
sg29
Nsg30
Nsg31
Nsbsg32
I2
sg33
F19.0
sbs(S'Composition'
p3226
g1456
tp3227
g0
(g16
g2
Ntp3228
Rp3229
(dp3230
g20
F0.5
sg21
I23
sg22
g0
(g23
g24
(dp3231
I01
I1
sNI22
stp3232
Rp3233
(dp3234
g21
I23
sg29
Nsg30
Nsg31
Nsbsg32
I2
sg33
F24.0
sbs(g388
g2291
tp3235
g0
(g16
g2
Ntp3236
Rp3237
(dp3238
g20
F0.5
sg21
I18
sg22
g0
(g23
g24
(dp3239
I01
I3
sNI15
stp3240
Rp3241
(dp3242
g21
I18
sg29
Nsg30
Nsg31
Nsbsg32
I2
sg33
F19.0
sbs(g10
g479
tp3243
g0
(g16
g2
Ntp3244
Rp3245
(dp3246
g20
F0.5
sg21
I18
sg22
g0
(g23
g24
(dp3247
NI18
stp3248
Rp3249
(dp3250
g21
I18
sg29
Nsg30
Nsg31
Nsbsg32
I2
sg33
F19.0
sbs(S'Meaning'
p3251
g398
tp3252
g0
(g16
g2
Ntp3253
Rp3254
(dp3255
g20
F0.5
sg21
I60
sg22
g0
(g23
g24
(dp3256
I01
I1
sNI59
stp3257
Rp3258
(dp3259
g21
I60
sg29
Nsg30
Nsg31
Nsbsg32
I2
sg33
F61.0
sbs(S'Meaning'
p3260
g2207
tp3261
g0
(g16
g2
Ntp3262
Rp3263
(dp3264
g20
F0.5
sg21
I60
sg22
g0
(g23
g24
(dp3265
I01
I2
sNI58
stp3266
Rp3267
(dp3268
g21
I60
sg29
Nsg30
Nsg31
Nsbsg32
I2
sg33
F61.0
sbs(g10
g1456
tp3269
g0
(g16
g2
Ntp3270
Rp3271
(dp3272
g20
F0.5
sg21
I18
sg22
g0
(g23
g24
(dp3273
NI18
stp3274
Rp3275
(dp3276
g21
I18
sg29
Nsg30
Nsg31
Nsbsg32
I2
sg33
F19.0
sbs(g8
g2616
tp3277
g0
(g16
g2
Ntp3278
Rp3279
(dp3280
g20
F0.5
sg21
I60
sg22
g0
(g23
g24
(dp3281
NI60
stp3282
Rp3283
(dp3284
g21
I60
sg29
Nsg30
Nsg31
Nsbsg32
I2
sg33
F61.0
sbs(g388
g1335
tp3285
g0
(g16
g2
Ntp3286
Rp3287
(dp3288
g20
F0.5
sg21
I18
sg22
g0
(g23
g24
(dp3289
I01
I1
sNI17
stp3290
Rp3291
(dp3292
g21
I18
sg29
Nsg30
Nsg31
Nsbsg32
I2
sg33
F19.0
sbs(S'Meaning'
p3293
S'contains(pencil)'
p3294
tp3295
g0
(g16
g2
Ntp3296
Rp3297
(dp3298
g20
F0.5
sg21
I60
sg22
g0
(g23
g24
(dp3299
I01
I1
sNI59
stp3300
Rp3301
(dp3302
g21
I60
sg29
Nsg30
Nsg31
Nsbsg32
I2
sg33
F61.0
sbs(g8
g2589
tp3303
g0
(g16
g2
Ntp3304
Rp3305
(dp3306
g20
F0.5
sg21
I60
sg22
g0
(g23
g24
(dp3307
NI60
stp3308
Rp3309
(dp3310
g21
I60
sg29
Nsg30
Nsg31
Nsbsg32
I2
sg33
F61.0
sbs(g9
g3049
tp3311
g0
(g16
g2
Ntp3312
Rp3313
(dp3314
g20
F0.5
sg21
I23
sg22
g0
(g23
g24
(dp3315
NI23
stp3316
Rp3317
(dp3318
g21
I23
sg29
Nsg30
Nsg31
Nsbsg32
I2
sg33
F24.0
sbs(g3006
g247
tp3319
g0
(g16
g2
Ntp3320
Rp3321
(dp3322
g20
F0.5
sg21
I60
sg22
g0
(g23
g24
(dp3323
I01
I1
sNI59
stp3324
Rp3325
(dp3326
g21
I60
sg29
Nsg30
Nsg31
Nsbsg32
I2
sg33
F61.0
sbs(g9
g1662
tp3327
g0
(g16
g2
Ntp3328
Rp3329
(dp3330
g20
F0.5
sg21
I23
sg22
g0
(g23
g24
(dp3331
NI23
stp3332
Rp3333
(dp3334
g21
I23
sg29
Nsg30
Nsg31
Nsbsg32
I2
sg33
F24.0
sbs(g9
g2054
tp3335
g0
(g16
g2
Ntp3336
Rp3337
(dp3338
g20
F0.5
sg21
I23
sg22
g0
(g23
g24
(dp3339
NI23
stp3340
Rp3341
(dp3342
g21
I23
sg29
Nsg30
Nsg31
Nsbsg32
I2
sg33
F24.0
sbs(g10
g219
tp3343
g0
(g16
g2
Ntp3344
Rp3345
(dp3346
g20
F0.5
sg21
I18
sg22
g0
(g23
g24
(dp3347
NI18
stp3348
Rp3349
(dp3350
g21
I18
sg29
Nsg30
Nsg31
Nsbsg32
I2
sg33
F19.0
sbs(g82
g3125
tp3351
g0
(g16
g2
Ntp3352
Rp3353
(dp3354
g20
F0.5
sg21
I23
sg22
g0
(g23
g24
(dp3355
I01
I7
sNI16
stp3356
Rp3357
(dp3358
g21
I23
sg29
Nsg30
Nsg31
Nsbsg32
I2
sg33
F24.0
sbs(g819
g304
tp3359
g0
(g16
g2
Ntp3360
Rp3361
(dp3362
g20
F0.5
sg21
I60
sg22
g0
(g23
g24
(dp3363
I01
I15
sNI45
stp3364
Rp3365
(dp3366
g21
I60
sg29
Nsg30
Nsg31
Nsbsg32
I2
sg33
F61.0
sbs(g8
g92
tp3367
g0
(g16
g2
Ntp3368
Rp3369
(dp3370
g20
F0.5
sg21
I60
sg22
g0
(g23
g24
(dp3371
NI60
stp3372
Rp3373
(dp3374
g21
I60
sg29
Nsg30
Nsg31
Nsbsg32
I2
sg33
F61.0
sbs(g10
g304
tp3375
g0
(g16
g2
Ntp3376
Rp3377
(dp3378
g20
F0.5
sg21
I18
sg22
g0
(g23
g24
(dp3379
NI18
stp3380
Rp3381
(dp3382
g21
I18
sg29
Nsg30
Nsg31
Nsbsg32
I2
sg33
F19.0
sbs(g10
g333
tp3383
g0
(g16
g2
Ntp3384
Rp3385
(dp3386
g20
F0.5
sg21
I18
sg22
g0
(g23
g24
(dp3387
NI18
stp3388
Rp3389
(dp3390
g21
I18
sg29
Nsg30
Nsg31
Nsbsg32
I2
sg33
F19.0
sbs(g9
g166
tp3391
g0
(g16
g2
Ntp3392
Rp3393
(dp3394
g20
F0.5
sg21
I23
sg22
g0
(g23
g24
(dp3395
NI23
stp3396
Rp3397
(dp3398
g21
I23
sg29
Nsg30
Nsg31
Nsbsg32
I2
sg33
F24.0
sbs(g8
g1072
tp3399
g0
(g16
g2
Ntp3400
Rp3401
(dp3402
g20
F0.5
sg21
I60
sg22
g0
(g23
g24
(dp3403
NI60
stp3404
Rp3405
(dp3406
g21
I60
sg29
Nsg30
Nsg31
Nsbsg32
I2
sg33
F61.0
sbs(S'Meaning'
p3407
g2471
tp3408
g0
(g16
g2
Ntp3409
Rp3410
(dp3411
g20
F0.5
sg21
I60
sg22
g0
(g23
g24
(dp3412
I01
I1
sNI59
stp3413
Rp3414
(dp3415
g21
I60
sg29
Nsg30
Nsg31
Nsbsg32
I2
sg33
F61.0
sbs(g9
g148
tp3416
g0
(g16
g2
Ntp3417
Rp3418
(dp3419
g20
F0.5
sg21
I23
sg22
g0
(g23
g24
(dp3420
NI23
stp3421
Rp3422
(dp3423
g21
I23
sg29
Nsg30
Nsg31
Nsbsg32
I2
sg33
F24.0
sbs(g9
g2081
tp3424
g0
(g16
g2
Ntp3425
Rp3426
(dp3427
g20
F0.5
sg21
I23
sg22
g0
(g23
g24
(dp3428
NI23
stp3429
Rp3430
(dp3431
g21
I23
sg29
Nsg30
Nsg31
Nsbsg32
I2
sg33
F24.0
sbs(S'Meaning'
p3432
g2708
tp3433
g0
(g16
g2
Ntp3434
Rp3435
(dp3436
g20
F0.5
sg21
I60
sg22
g0
(g23
g24
(dp3437
I01
I1
sNI59
stp3438
Rp3439
(dp3440
g21
I60
sg29
Nsg30
Nsg31
Nsbsg32
I2
sg33
F61.0
sbs(g110
g1968
tp3441
g0
(g16
g2
Ntp3442
Rp3443
(dp3444
g20
F0.5
sg21
I18
sg22
g0
(g23
g24
(dp3445
I01
I1
sNI17
stp3446
Rp3447
(dp3448
g21
I18
sg29
Nsg30
Nsg31
Nsbsg32
I2
sg33
F19.0
sbs(S'Meaning'
p3449
g965
tp3450
g0
(g16
g2
Ntp3451
Rp3452
(dp3453
g20
F0.5
sg21
I60
sg22
g0
(g23
g24
(dp3454
I01
I1
sNI59
stp3455
Rp3456
(dp3457
g21
I60
sg29
Nsg30
Nsg31
Nsbsg32
I2
sg33
F61.0
sbs(g819
S'contains(is)'
p3458
tp3459
g0
(g16
g2
Ntp3460
Rp3461
(dp3462
g20
F0.5
sg21
I60
sg22
g0
(g23
g24
(dp3463
I01
I27
sNI33
stp3464
Rp3465
(dp3466
g21
I60
sg29
Nsg30
Nsg31
Nsbsg32
I2
sg33
F61.0
sbs(g407
g1578
tp3467
g0
(g16
g2
Ntp3468
Rp3469
(dp3470
g20
F0.5
sg21
I18
sg22
g0
(g23
g24
(dp3471
I01
I1
sNI17
stp3472
Rp3473
(dp3474
g21
I18
sg29
Nsg30
Nsg31
Nsbsg32
I2
sg33
F19.0
sbs(g8
g157
tp3475
g0
(g16
g2
Ntp3476
Rp3477
(dp3478
g20
F0.5
sg21
I60
sg22
g0
(g23
g24
(dp3479
I01
I1
sNI59
stp3480
Rp3481
(dp3482
g21
I60
sg29
Nsg30
Nsg31
Nsbsg32
I2
sg33
F61.0
sbs(g1290
g44
tp3483
g0
(g16
g2
Ntp3484
Rp3485
(dp3486
g20
F0.5
sg21
I18
sg22
g0
(g23
g24
(dp3487
I01
I1
sNI17
stp3488
Rp3489
(dp3490
g21
I18
sg29
Nsg30
Nsg31
Nsbsg32
I2
sg33
F19.0
sbs(g10
g157
tp3491
g0
(g16
g2
Ntp3492
Rp3493
(dp3494
g20
F0.5
sg21
I18
sg22
g0
(g23
g24
(dp3495
NI18
stp3496
Rp3497
(dp3498
g21
I18
sg29
Nsg30
Nsg31
Nsbsg32
I2
sg33
F19.0
sbs(g8
g2081
tp3499
g0
(g16
g2
Ntp3500
Rp3501
(dp3502
g20
F0.5
sg21
I60
sg22
g0
(g23
g24
(dp3503
NI60
stp3504
Rp3505
(dp3506
g21
I60
sg29
Nsg30
Nsg31
Nsbsg32
I2
sg33
F61.0
sbs(g9
g1986
tp3507
g0
(g16
g2
Ntp3508
Rp3509
(dp3510
g20
F0.5
sg21
I23
sg22
g0
(g23
g24
(dp3511
NI23
stp3512
Rp3513
(dp3514
g21
I23
sg29
Nsg30
Nsg31
Nsbsg32
I2
sg33
F24.0
sbs(S'Meaning'
p3515
g1228
tp3516
g0
(g16
g2
Ntp3517
Rp3518
(dp3519
g20
F0.5
sg21
I60
sg22
g0
(g23
g24
(dp3520
I01
I1
sNI59
stp3521
Rp3522
(dp3523
g21
I60
sg29
Nsg30
Nsg31
Nsbsg32
I2
sg33
F61.0
sbs(g10
g2599
tp3524
g0
(g16
g2
Ntp3525
Rp3526
(dp3527
g20
F0.5
sg21
I18
sg22
g0
(g23
g24
(dp3528
NI18
stp3529
Rp3530
(dp3531
g21
I18
sg29
Nsg30
Nsg31
Nsbsg32
I2
sg33
F19.0
sbs(S'Meaning'
p3532
g855
tp3533
g0
(g16
g2
Ntp3534
Rp3535
(dp3536
g20
F0.5
sg21
I60
sg22
g0
(g23
g24
(dp3537
I01
I1
sNI59
stp3538
Rp3539
(dp3540
g21
I60
sg29
Nsg30
Nsg31
Nsbsg32
I2
sg33
F61.0
sbs(g9
g1011
tp3541
g0
(g16
g2
Ntp3542
Rp3543
(dp3544
g20
F0.5
sg21
I23
sg22
g0
(g23
g24
(dp3545
NI23
stp3546
Rp3547
(dp3548
g21
I23
sg29
Nsg30
Nsg31
Nsbsg32
I2
sg33
F24.0
sbs(g10
g1107
tp3549
g0
(g16
g2
Ntp3550
Rp3551
(dp3552
g20
F0.5
sg21
I18
sg22
g0
(g23
g24
(dp3553
NI18
stp3554
Rp3555
(dp3556
g21
I18
sg29
Nsg30
Nsg31
Nsbsg32
I2
sg33
F19.0
sbs(g9
g343
tp3557
g0
(g16
g2
Ntp3558
Rp3559
(dp3560
g20
F0.5
sg21
I23
sg22
g0
(g23
g24
(dp3561
NI23
stp3562
Rp3563
(dp3564
g21
I23
sg29
Nsg30
Nsg31
Nsbsg32
I2
sg33
F24.0
sbs(g9
g2106
tp3565
g0
(g16
g2
Ntp3566
Rp3567
(dp3568
g20
F0.5
sg21
I23
sg22
g0
(g23
g24
(dp3569
NI23
stp3570
Rp3571
(dp3572
g21
I23
sg29
Nsg30
Nsg31
Nsbsg32
I2
sg33
F24.0
sbs(g10
g865
tp3573
g0
(g16
g2
Ntp3574
Rp3575
(dp3576
g20
F0.5
sg21
I18
sg22
g0
(g23
g24
(dp3577
NI18
stp3578
Rp3579
(dp3580
g21
I18
sg29
Nsg30
Nsg31
Nsbsg32
I2
sg33
F19.0
sbs(g8
g2768
tp3581
g0
(g16
g2
Ntp3582
Rp3583
(dp3584
g20
F0.5
sg21
I60
sg22
g0
(g23
g24
(dp3585
NI60
stp3586
Rp3587
(dp3588
g21
I60
sg29
Nsg30
Nsg31
Nsbsg32
I2
sg33
F61.0
sbs(g10
S'contains(of)'
p3589
tp3590
g0
(g16
g2
Ntp3591
Rp3592
(dp3593
g20
F0.5
sg21
I18
sg22
g0
(g23
g24
(dp3594
I01
I4
sNI14
stp3595
Rp3596
(dp3597
g21
I18
sg29
Nsg30
Nsg31
Nsbsg32
I2
sg33
F19.0
sbs(g2264
g1959
tp3598
g0
(g16
g2
Ntp3599
Rp3600
(dp3601
g20
F0.5
sg21
I60
sg22
g0
(g23
g24
(dp3602
I01
I1
sNI59
stp3603
Rp3604
(dp3605
g21
I60
sg29
Nsg30
Nsg31
Nsbsg32
I2
sg33
F61.0
sbs(g10
g2190
tp3606
g0
(g16
g2
Ntp3607
Rp3608
(dp3609
g20
F0.5
sg21
I18
sg22
g0
(g23
g24
(dp3610
I01
I1
sNI17
stp3611
Rp3612
(dp3613
g21
I18
sg29
Nsg30
Nsg31
Nsbsg32
I2
sg33
F19.0
sbs(g10
g2768
tp3614
g0
(g16
g2
Ntp3615
Rp3616
(dp3617
g20
F0.5
sg21
I18
sg22
g0
(g23
g24
(dp3618
NI18
stp3619
Rp3620
(dp3621
g21
I18
sg29
Nsg30
Nsg31
Nsbsg32
I2
sg33
F19.0
sbs(S'Composition'
p3622
g1812
tp3623
g0
(g16
g2
Ntp3624
Rp3625
(dp3626
g20
F0.5
sg21
I23
sg22
g0
(g23
g24
(dp3627
I01
I1
sNI22
stp3628
Rp3629
(dp3630
g21
I23
sg29
Nsg30
Nsg31
Nsbsg32
I2
sg33
F24.0
sbs(S'Meaning'
p3631
g166
tp3632
g0
(g16
g2
Ntp3633
Rp3634
(dp3635
g20
F0.5
sg21
I60
sg22
g0
(g23
g24
(dp3636
I01
I1
sNI59
stp3637
Rp3638
(dp3639
g21
I60
sg29
Nsg30
Nsg31
Nsbsg32
I2
sg33
F61.0
sbs(g9
g985
tp3640
g0
(g16
g2
Ntp3641
Rp3642
(dp3643
g20
F0.5
sg21
I23
sg22
g0
(g23
g24
(dp3644
NI23
stp3645
Rp3646
(dp3647
g21
I23
sg29
Nsg30
Nsg31
Nsbsg32
I2
sg33
F24.0
sbs(S'Meaning'
p3648
g426
tp3649
g0
(g16
g2
Ntp3650
Rp3651
(dp3652
g20
F0.5
sg21
I60
sg22
g0
(g23
g24
(dp3653
I01
I1
sNI59
stp3654
Rp3655
(dp3656
g21
I60
sg29
Nsg30
Nsg31
Nsbsg32
I2
sg33
F61.0
sbs(g3631
g138
tp3657
g0
(g16
g2
Ntp3658
Rp3659
(dp3660
g20
F0.5
sg21
I60
sg22
g0
(g23
g24
(dp3661
I01
I1
sNI59
stp3662
Rp3663
(dp3664
g21
I60
sg29
Nsg30
Nsg31
Nsbsg32
I2
sg33
F61.0
sbs(g407
g1379
tp3665
g0
(g16
g2
Ntp3666
Rp3667
(dp3668
g20
F0.5
sg21
I18
sg22
g0
(g23
g24
(dp3669
I01
I1
sNI17
stp3670
Rp3671
(dp3672
g21
I18
sg29
Nsg30
Nsg31
Nsbsg32
I2
sg33
F19.0
sbs(g2957
g2717
tp3673
g0
(g16
g2
Ntp3674
Rp3675
(dp3676
g20
F0.5
sg21
I60
sg22
g0
(g23
g24
(dp3677
I01
I1
sNI59
stp3678
Rp3679
(dp3680
g21
I60
sg29
Nsg30
Nsg31
Nsbsg32
I2
sg33
F61.0
sbs(g9
g2708
tp3681
g0
(g16
g2
Ntp3682
Rp3683
(dp3684
g20
F0.5
sg21
I23
sg22
g0
(g23
g24
(dp3685
NI23
stp3686
Rp3687
(dp3688
g21
I23
sg29
Nsg30
Nsg31
Nsbsg32
I2
sg33
F24.0
sbs(g9
g2190
tp3689
g0
(g16
g2
Ntp3690
Rp3691
(dp3692
g20
F0.5
sg21
I23
sg22
g0
(g23
g24
(dp3693
NI23
stp3694
Rp3695
(dp3696
g21
I23
sg29
Nsg30
Nsg31
Nsbsg32
I2
sg33
F24.0
sbs(g2521
g200
tp3697
g0
(g16
g2
Ntp3698
Rp3699
(dp3700
g20
F0.5
sg21
I60
sg22
g0
(g23
g24
(dp3701
I01
I5
sNI55
stp3702
Rp3703
(dp3704
g21
I60
sg29
Nsg30
Nsg31
Nsbsg32
I2
sg33
F61.0
sbs(g10
g257
tp3705
g0
(g16
g2
Ntp3706
Rp3707
(dp3708
g20
F0.5
sg21
I18
sg22
g0
(g23
g24
(dp3709
NI18
stp3710
Rp3711
(dp3712
g21
I18
sg29
Nsg30
Nsg31
Nsbsg32
I2
sg33
F19.0
sbs(g9
g2480
tp3713
g0
(g16
g2
Ntp3714
Rp3715
(dp3716
g20
F0.5
sg21
I23
sg22
g0
(g23
g24
(dp3717
I01
I23
stp3718
Rp3719
(dp3720
g21
I23
sg29
Nsg30
Nsg31
Nsbsg32
I2
sg33
F24.0
sbs(S'Meaning'
p3721
g1353
tp3722
g0
(g16
g2
Ntp3723
Rp3724
(dp3725
g20
F0.5
sg21
I60
sg22
g0
(g23
g24
(dp3726
I01
I1
sNI59
stp3727
Rp3728
(dp3729
g21
I60
sg29
Nsg30
Nsg31
Nsbsg32
I2
sg33
F61.0
sbs(g8
g1143
tp3730
g0
(g16
g2
Ntp3731
Rp3732
(dp3733
g20
F0.5
sg21
I60
sg22
g0
(g23
g24
(dp3734
NI60
stp3735
Rp3736
(dp3737
g21
I60
sg29
Nsg30
Nsg31
Nsbsg32
I2
sg33
F61.0
sbs(g10
g2064
tp3738
g0
(g16
g2
Ntp3739
Rp3740
(dp3741
g20
F0.5
sg21
I18
sg22
g0
(g23
g24
(dp3742
NI18
stp3743
Rp3744
(dp3745
g21
I18
sg29
Nsg30
Nsg31
Nsbsg32
I2
sg33
F19.0
sbs(g9
g939
tp3746
g0
(g16
g2
Ntp3747
Rp3748
(dp3749
g20
F0.5
sg21
I23
sg22
g0
(g23
g24
(dp3750
NI23
stp3751
Rp3752
(dp3753
g21
I23
sg29
Nsg30
Nsg31
Nsbsg32
I2
sg33
F24.0
sbs(g9
g1379
tp3754
g0
(g16
g2
Ntp3755
Rp3756
(dp3757
g20
F0.5
sg21
I23
sg22
g0
(g23
g24
(dp3758
NI23
stp3759
Rp3760
(dp3761
g21
I23
sg29
Nsg30
Nsg31
Nsbsg32
I2
sg33
F24.0
sbs(g10
g985
tp3762
g0
(g16
g2
Ntp3763
Rp3764
(dp3765
g20
F0.5
sg21
I18
sg22
g0
(g23
g24
(dp3766
NI18
stp3767
Rp3768
(dp3769
g21
I18
sg29
Nsg30
Nsg31
Nsbsg32
I2
sg33
F19.0
sbs(g9
g902
tp3770
g0
(g16
g2
Ntp3771
Rp3772
(dp3773
g20
F0.5
sg21
I23
sg22
g0
(g23
g24
(dp3774
NI23
stp3775
Rp3776
(dp3777
g21
I23
sg29
Nsg30
Nsg31
Nsbsg32
I2
sg33
F24.0
sbs(S'Composition'
p3778
g2616
tp3779
g0
(g16
g2
Ntp3780
Rp3781
(dp3782
g20
F0.5
sg21
I23
sg22
g0
(g23
g24
(dp3783
I01
I1
sNI22
stp3784
Rp3785
(dp3786
g21
I23
sg29
Nsg30
Nsg31
Nsbsg32
I2
sg33
F24.0
sbs(g10
g855
tp3787
g0
(g16
g2
Ntp3788
Rp3789
(dp3790
g20
F0.5
sg21
I18
sg22
g0
(g23
g24
(dp3791
NI18
stp3792
Rp3793
(dp3794
g21
I18
sg29
Nsg30
Nsg31
Nsbsg32
I2
sg33
F19.0
sbs(g9
g757
tp3795
g0
(g16
g2
Ntp3796
Rp3797
(dp3798
g20
F0.5
sg21
I23
sg22
g0
(g23
g24
(dp3799
NI23
stp3800
Rp3801
(dp3802
g21
I23
sg29
Nsg30
Nsg31
Nsbsg32
I2
sg33
F24.0
sbs(g9
g2589
tp3803
g0
(g16
g2
Ntp3804
Rp3805
(dp3806
g20
F0.5
sg21
I23
sg22
g0
(g23
g24
(dp3807
NI23
stp3808
Rp3809
(dp3810
g21
I23
sg29
Nsg30
Nsg31
Nsbsg32
I2
sg33
F24.0
sbs(g8
g1762
tp3811
g0
(g16
g2
Ntp3812
Rp3813
(dp3814
g20
F0.5
sg21
I60
sg22
g0
(g23
g24
(dp3815
NI60
stp3816
Rp3817
(dp3818
g21
I60
sg29
Nsg30
Nsg31
Nsbsg32
I2
sg33
F61.0
sbs(S'Abbreviation'
p3819
g1637
tp3820
g0
(g16
g2
Ntp3821
Rp3822
(dp3823
g20
F0.5
sg21
I18
sg22
g0
(g23
g24
(dp3824
I01
I1
sNI17
stp3825
Rp3826
(dp3827
g21
I18
sg29
Nsg30
Nsg31
Nsbsg32
I2
sg33
F19.0
sbs(g9
g2207
tp3828
g0
(g16
g2
Ntp3829
Rp3830
(dp3831
g20
F0.5
sg21
I23
sg22
g0
(g23
g24
(dp3832
NI23
stp3833
Rp3834
(dp3835
g21
I23
sg29
Nsg30
Nsg31
Nsbsg32
I2
sg33
F24.0
sbssS'_label_probdist'
p3836
g0
(g16
g2
Ntp3837
Rp3838
(dp3839
g20
F0.5
sg21
I101
sg22
g0
(g23
g24
(dp3840
g10
I18
sg8
I60
sg9
I23
stp3841
Rp3842
(dp3843
g21
I101
sg29
Nsg30
(lp3844
(g8
I60
tp3845
a(g9
I23
tp3846
a(g10
I18
tp3847
asg31
Nsbsg32
I3
sg33
F102.5
sbsb.