ccopy_reg
_reconstructor
p1
(cnltk.classify.naivebayes
NaiveBayesClassifier
p2
c__builtin__
object
p3
NtRp4
(dp5
S'_labels'
p6
(lp7
S'Dimension'
p8
aS'LookAndShape'
p9
asS'_feature_probdist'
p10
(dp11
(S'Dimension'
p12
S'contains(what)'
tp13
g1
(cnltk.probability
ELEProbDist
p14
g3
NtRp15
(dp16
S'_gamma'
p17
F0.5
sS'_N'
p18
I51
sS'_freqdist'
p19
cnltk.probability
FreqDist
p20
((dp21
I01
I25
sNI26
stRp22
sS'_bins'
p23
I2
sS'_divisor'
p24
F52
sbs(S'Dimension'
p25
S'contains(a)'
tp26
g1
(g14
g3
NtRp27
(dp28
g17
F0.5
sg18
I51
sg19
g20
((dp29
I01
I20
sNI31
stRp30
sg23
I2
sg24
F52
sbs(g9
S'contains(india)'
p31
tp32
g1
(g14
g3
NtRp33
(dp34
g17
F0.5
sg18
I53
sg19
g20
((dp35
NI53
stRp36
sg23
I2
sg24
F54
sbs(S'Dimension'
p37
S"contains(what's)"
p38
tp39
g1
(g14
g3
NtRp40
(dp41
g17
F0.5
sg18
I51
sg19
g20
((dp42
I01
I3
sNI48
stRp43
sg23
I2
sg24
F52
sbs(g9
S'contains(up)'
p44
tp45
g1
(g14
g3
NtRp46
(dp47
g17
F0.5
sg18
I53
sg19
g20
((dp48
NI53
stRp49
sg23
I2
sg24
F54
sbs(g8
S'contains(tallest)'
p50
tp51
g1
(g14
g3
NtRp52
(dp53
g17
F0.5
sg18
I51
sg19
g20
((dp54
I01
I1
sNI50
stRp55
sg23
I2
sg24
F52
sbs(S'Dimension'
p56
S'contains(dog)'
p57
tp58
g1
(g14
g3
NtRp59
(dp60
g17
F0.5
sg18
I51
sg19
g20
((dp61
I01
I1
sNI50
stRp62
sg23
I2
sg24
F52
sbs(g9
S'contains(here)'
p63
tp64
g1
(g14
g3
NtRp65
(dp66
g17
F0.5
sg18
I53
sg19
g20
((dp67
NI53
stRp68
sg23
I2
sg24
F54
sbs(S'Dimension'
p69
S'contains(distance)'
p70
tp71
g1
(g14
g3
NtRp72
(dp73
g17
F0.5
sg18
I51
sg19
g20
((dp74
I01
I1
sNI50
stRp75
sg23
I2
sg24
F52
sbs(S'Dimension'
p76
S'contains(from)'
p77
tp78
g1
(g14
g3
NtRp79
(dp80
g17
F0.5
sg18
I51
sg19
g20
((dp81
I01
I6
sNI45
stRp82
sg23
I2
sg24
F52
sbs(g8
S'contains(dresses)'
p83
tp84
g1
(g14
g3
NtRp85
(dp86
g17
F0.5
sg18
I51
sg19
g20
((dp87
NI51
stRp88
sg23
I2
sg24
F52
sbs(S'Dimension'
p89
S'contains(area)'
p90
tp91
g1
(g14
g3
NtRp92
(dp93
g17
F0.5
sg18
I51
sg19
g20
((dp94
I01
I3
sNI48
stRp95
sg23
I2
sg24
F52
sbs(S'Dimension'
p96
S'contains(mm)'
p97
tp98
g1
(g14
g3
NtRp99
(dp100
g17
F0.5
sg18
I51
sg19
g20
((dp101
I01
I1
sNI50
stRp102
sg23
I2
sg24
F52
sbs(S'Dimension'
p103
S'contains(scale)'
p104
tp105
g1
(g14
g3
NtRp106
(dp107
g17
F0.5
sg18
I51
sg19
g20
((dp108
I01
I1
sNI50
stRp109
sg23
I2
sg24
F52
sbs(S'LookAndShape'
p110
S'contains(to)'
tp111
g1
(g14
g3
NtRp112
(dp113
g17
F0.5
sg18
I53
sg19
g20
((dp114
I01
I1
sNI52
stRp115
sg23
I2
sg24
F54
sbs(S'LookAndShape'
p116
S'contains(beautiful)'
p117
tp118
g1
(g14
g3
NtRp119
(dp120
g17
F0.5
sg18
I53
sg19
g20
((dp121
I01
I1
sNI52
stRp122
sg23
I2
sg24
F54
sbs(S'LookAndShape'
S'contains(sweatshirt)'
p123
tp124
g1
(g14
g3
NtRp125
(dp126
g17
F0.5
sg18
I53
sg19
g20
((dp127
I01
I1
sNI52
stRp128
sg23
I2
sg24
F54
sbs(g8
S'contains(ball)'
p129
tp130
g1
(g14
g3
NtRp131
(dp132
g17
F0.5
sg18
I51
sg19
g20
((dp133
NI51
stRp134
sg23
I2
sg24
F52
sbs(g8
S'contains(bag)'
p135
tp136
g1
(g14
g3
NtRp137
(dp138
g17
F0.5
sg18
I51
sg19
g20
((dp139
NI51
stRp140
sg23
I2
sg24
F52
sbs(g9
S'contains(become)'
p141
tp142
g1
(g14
g3
NtRp143
(dp144
g17
F0.5
sg18
I53
sg19
g20
((dp145
NI53
stRp146
sg23
I2
sg24
F54
sbs(g8
S'contains(makes)'
p147
tp148
g1
(g14
g3
NtRp149
(dp150
g17
F0.5
sg18
I51
sg19
g20
((dp151
NI51
stRp152
sg23
I2
sg24
F52
sbs(g9
S'contains(lisbon)'
p153
tp154
g1
(g14
g3
NtRp155
(dp156
g17
F0.5
sg18
I53
sg19
g20
((dp157
NI53
stRp158
sg23
I2
sg24
F54
sbs(g9
S"contains(napoleon's)"
p159
tp160
g1
(g14
g3
NtRp161
(dp162
g17
F0.5
sg18
I53
sg19
g20
((dp163
NI53
stRp164
sg23
I2
sg24
F54
sbs(S'LookAndShape'
p165
S'contains(look)'
p166
tp167
g1
(g14
g3
NtRp168
(dp169
g17
F0.5
sg18
I53
sg19
g20
((dp170
I01
I21
sNI32
stRp171
sg23
I2
sg24
F54
sbs(S'Dimension'
p172
S'contains(dinner)'
tp173
g1
(g14
g3
NtRp174
(dp175
g17
F0.5
sg18
I51
sg19
g20
((dp176
I01
I1
sNI50
stRp177
sg23
I2
sg24
F52
sbs(S'Dimension'
p178
g141
tp179
g1
(g14
g3
NtRp180
(dp181
g17
F0.5
sg18
I51
sg19
g20
((dp182
I01
I2
sNI49
stRp183
sg23
I2
sg24
F52
sbs(S'Dimension'
p184
S'contains(amazon)'
p185
tp186
g1
(g14
g3
NtRp187
(dp188
g17
F0.5
sg18
I51
sg19
g20
((dp189
I01
I1
sNI50
stRp190
sg23
I2
sg24
F52
sbs(g9
S'contains(fly)'
p191
tp192
g1
(g14
g3
NtRp193
(dp194
g17
F0.5
sg18
I53
sg19
g20
((dp195
NI53
stRp196
sg23
I2
sg24
F54
sbs(S'LookAndShape'
S'contains(clocks)'
p197
tp198
g1
(g14
g3
NtRp199
(dp200
g17
F0.5
sg18
I53
sg19
g20
((dp201
I01
I1
sNI52
stRp202
sg23
I2
sg24
F54
sbs(g56
S'contains(to)'
tp203
g1
(g14
g3
NtRp204
(dp205
g17
F0.5
sg18
I51
sg19
g20
((dp206
I01
I5
sNI46
stRp207
sg23
I2
sg24
F52
sbs(S'LookAndShape'
p208
S'contains(food)'
p209
tp210
g1
(g14
g3
NtRp211
(dp212
g17
F0.5
sg18
I53
sg19
g20
((dp213
I01
I2
sNI51
stRp214
sg23
I2
sg24
F54
sbs(g8
g209
tp215
g1
(g14
g3
NtRp216
(dp217
g17
F0.5
sg18
I51
sg19
g20
((dp218
NI51
stRp219
sg23
I2
sg24
F52
sbs(S'Dimension'
p220
S"contains(einstein's)"
p221
tp222
g1
(g14
g3
NtRp223
(dp224
g17
F0.5
sg18
I51
sg19
g20
((dp225
I01
I1
sNI50
stRp226
sg23
I2
sg24
F52
sbs(g165
S'contains(glass)'
p227
tp228
g1
(g14
g3
NtRp229
(dp230
g17
F0.5
sg18
I53
sg19
g20
((dp231
I01
I1
sNI52
stRp232
sg23
I2
sg24
F54
sbs(g9
g185
tp233
g1
(g14
g3
NtRp234
(dp235
g17
F0.5
sg18
I53
sg19
g20
((dp236
NI53
stRp237
sg23
I2
sg24
F54
sbs(S'LookAndShape'
p238
S'contains(scissor)'
p239
tp240
g1
(g14
g3
NtRp241
(dp242
g17
F0.5
sg18
I53
sg19
g20
((dp243
I01
I1
sNI52
stRp244
sg23
I2
sg24
F54
sbs(S'Dimension'
p245
S'contains(near)'
p246
tp247
g1
(g14
g3
NtRp248
(dp249
g17
F0.5
sg18
I51
sg19
g20
((dp250
I01
I3
sNI48
stRp251
sg23
I2
sg24
F52
sbs(g208
S'contains(dinner)'
tp252
g1
(g14
g3
NtRp253
(dp254
g17
F0.5
sg18
I53
sg19
g20
((dp255
I01
I1
sNI52
stRp256
sg23
I2
sg24
F54
sbs(g9
S'contains(old)'
p257
tp258
g1
(g14
g3
NtRp259
(dp260
g17
F0.5
sg18
I53
sg19
g20
((dp261
NI53
stRp262
sg23
I2
sg24
F54
sbs(g9
S'contains(world)'
p263
tp264
g1
(g14
g3
NtRp265
(dp266
g17
F0.5
sg18
I53
sg19
g20
((dp267
NI53
stRp268
sg23
I2
sg24
F54
sbs(g12
S'contains(average)'
p269
tp270
g1
(g14
g3
NtRp271
(dp272
g17
F0.5
sg18
I51
sg19
g20
((dp273
I01
I2
sNI49
stRp274
sg23
I2
sg24
F52
sbs(g8
S'contains(clothes)'
p275
tp276
g1
(g14
g3
NtRp277
(dp278
g17
F0.5
sg18
I51
sg19
g20
((dp279
NI51
stRp280
sg23
I2
sg24
F52
sbs(g8
S'contains(contour)'
p281
tp282
g1
(g14
g3
NtRp283
(dp284
g17
F0.5
sg18
I51
sg19
g20
((dp285
NI51
stRp286
sg23
I2
sg24
F52
sbs(S'LookAndShape'
p287
S'contains(usually)'
p288
tp289
g1
(g14
g3
NtRp290
(dp291
g17
F0.5
sg18
I53
sg19
g20
((dp292
I01
I1
sNI52
stRp293
sg23
I2
sg24
F54
sbs(S'LookAndShape'
p294
S'contains(atom)'
p295
tp296
g1
(g14
g3
NtRp297
(dp298
g17
F0.5
sg18
I53
sg19
g20
((dp299
I01
I1
sNI52
stRp300
sg23
I2
sg24
F54
sbs(g9
S'contains(what)'
tp301
g1
(g14
g3
NtRp302
(dp303
g17
F0.5
sg18
I53
sg19
g20
((dp304
I01
I30
sNI23
stRp305
sg23
I2
sg24
F54
sbs(g9
S'contains(benches)'
p306
tp307
g1
(g14
g3
NtRp308
(dp309
g17
F0.5
sg18
I53
sg19
g20
((dp310
I01
I1
sNI52
stRp311
sg23
I2
sg24
F54
sbs(g9
S'contains(tiny)'
p312
tp313
g1
(g14
g3
NtRp314
(dp315
g17
F0.5
sg18
I53
sg19
g20
((dp316
NI53
stRp317
sg23
I2
sg24
F54
sbs(g56
g44
tp318
g1
(g14
g3
NtRp319
(dp320
g17
F0.5
sg18
I51
sg19
g20
((dp321
I01
I1
sNI50
stRp322
sg23
I2
sg24
F52
sbs(g8
g123
tp323
g1
(g14
g3
NtRp324
(dp325
g17
F0.5
sg18
I51
sg19
g20
((dp326
NI51
stRp327
sg23
I2
sg24
F52
sbs(S'LookAndShape'
p328
S'contains(bicycle)'
p329
tp330
g1
(g14
g3
NtRp331
(dp332
g17
F0.5
sg18
I53
sg19
g20
((dp333
I01
I1
sNI52
stRp334
sg23
I2
sg24
F54
sbs(g238
S'contains(is)'
tp335
g1
(g14
g3
NtRp336
(dp337
g17
F0.5
sg18
I53
sg19
g20
((dp338
I01
I20
sNI33
stRp339
sg23
I2
sg24
F54
sbs(S'Dimension'
p340
S'contains(madrid)'
p341
tp342
g1
(g14
g3
NtRp343
(dp344
g17
F0.5
sg18
I51
sg19
g20
((dp345
I01
I1
sNI50
stRp346
sg23
I2
sg24
F52
sbs(g89
S'contains(planet)'
p347
tp348
g1
(g14
g3
NtRp349
(dp350
g17
F0.5
sg18
I51
sg19
g20
((dp351
I01
I2
sNI49
stRp352
sg23
I2
sg24
F52
sbs(g9
S'contains(mattress)'
p353
tp354
g1
(g14
g3
NtRp355
(dp356
g17
F0.5
sg18
I53
sg19
g20
((dp357
NI53
stRp358
sg23
I2
sg24
F54
sbs(S'LookAndShape'
p359
S'contains(agathe)'
p360
tp361
g1
(g14
g3
NtRp362
(dp363
g17
F0.5
sg18
I53
sg19
g20
((dp364
I01
I1
sNI52
stRp365
sg23
I2
sg24
F54
sbs(g359
S'contains(morning)'
p366
tp367
g1
(g14
g3
NtRp368
(dp369
g17
F0.5
sg18
I53
sg19
g20
((dp370
I01
I1
sNI52
stRp371
sg23
I2
sg24
F54
sbs(g287
S'contains(tattoos)'
p372
tp373
g1
(g14
g3
NtRp374
(dp375
g17
F0.5
sg18
I53
sg19
g20
((dp376
I01
I1
sNI52
stRp377
sg23
I2
sg24
F54
sbs(S'Dimension'
p378
S'contains(squirrel)'
p379
tp380
g1
(g14
g3
NtRp381
(dp382
g17
F0.5
sg18
I51
sg19
g20
((dp383
I01
I1
sNI50
stRp384
sg23
I2
sg24
F52
sbs(S'Dimension'
p385
S'contains(california)'
p386
tp387
g1
(g14
g3
NtRp388
(dp389
g17
F0.5
sg18
I51
sg19
g20
((dp390
I01
I1
sNI50
stRp391
sg23
I2
sg24
F52
sbs(g8
S'contains(jeans)'
p392
tp393
g1
(g14
g3
NtRp394
(dp395
g17
F0.5
sg18
I51
sg19
g20
((dp396
NI51
stRp397
sg23
I2
sg24
F52
sbs(g12
S'contains(person)'
tp398
g1
(g14
g3
NtRp399
(dp400
g17
F0.5
sg18
I51
sg19
g20
((dp401
I01
I1
sNI50
stRp402
sg23
I2
sg24
F52
sbs(g8
S'contains(night)'
p403
tp404
g1
(g14
g3
NtRp405
(dp406
g17
F0.5
sg18
I51
sg19
g20
((dp407
NI51
stRp408
sg23
I2
sg24
F52
sbs(g9
g50
tp409
g1
(g14
g3
NtRp410
(dp411
g17
F0.5
sg18
I53
sg19
g20
((dp412
NI53
stRp413
sg23
I2
sg24
F54
sbs(g9
S'contains(earth)'
p414
tp415
g1
(g14
g3
NtRp416
(dp417
g17
F0.5
sg18
I53
sg19
g20
((dp418
NI53
stRp419
sg23
I2
sg24
F54
sbs(S'LookAndShape'
S'contains(bikes)'
p420
tp421
g1
(g14
g3
NtRp422
(dp423
g17
F0.5
sg18
I53
sg19
g20
((dp424
I01
I1
sNI52
stRp425
sg23
I2
sg24
F54
sbs(S'Dimension'
p426
S'contains(japan)'
p427
tp428
g1
(g14
g3
NtRp429
(dp430
g17
F0.5
sg18
I51
sg19
g20
((dp431
I01
I1
sNI50
stRp432
sg23
I2
sg24
F52
sbs(g8
S'contains(jenn)'
p433
tp434
g1
(g14
g3
NtRp435
(dp436
g17
F0.5
sg18
I51
sg19
g20
((dp437
NI51
stRp438
sg23
I2
sg24
F52
sbs(g76
g31
tp439
g1
(g14
g3
NtRp440
(dp441
g17
F0.5
sg18
I51
sg19
g20
((dp442
I01
I2
sNI49
stRp443
sg23
I2
sg24
F52
sbs(g116
S'contains(person)'
tp444
g1
(g14
g3
NtRp445
(dp446
g17
F0.5
sg18
I53
sg19
g20
((dp447
I01
I2
sNI51
stRp448
sg23
I2
sg24
F54
sbs(g238
S'contains(a)'
tp449
g1
(g14
g3
NtRp450
(dp451
g17
F0.5
sg18
I53
sg19
g20
((dp452
I01
I17
sNI36
stRp453
sg23
I2
sg24
F54
sbs(g9
S'contains(big)'
p454
tp455
g1
(g14
g3
NtRp456
(dp457
g17
F0.5
sg18
I53
sg19
g20
((dp458
NI53
stRp459
sg23
I2
sg24
F54
sbs(g8
g288
tp460
g1
(g14
g3
NtRp461
(dp462
g17
F0.5
sg18
I51
sg19
g20
((dp463
NI51
stRp464
sg23
I2
sg24
F52
sbs(g8
S'contains(form)'
p465
tp466
g1
(g14
g3
NtRp467
(dp468
g17
F0.5
sg18
I51
sg19
g20
((dp469
NI51
stRp470
sg23
I2
sg24
F52
sbs(g8
S'contains(draw)'
p471
tp472
g1
(g14
g3
NtRp473
(dp474
g17
F0.5
sg18
I51
sg19
g20
((dp475
NI51
stRp476
sg23
I2
sg24
F52
sbs(g9
g246
tp477
g1
(g14
g3
NtRp478
(dp479
g17
F0.5
sg18
I53
sg19
g20
((dp480
NI53
stRp481
sg23
I2
sg24
F54
sbs(S'Dimension'
p482
S'contains(without)'
p483
tp484
g1
(g14
g3
NtRp485
(dp486
g17
F0.5
sg18
I51
sg19
g20
((dp487
I01
I1
sNI50
stRp488
sg23
I2
sg24
F52
sbs(g482
S'contains(touching)'
p489
tp490
g1
(g14
g3
NtRp491
(dp492
g17
F0.5
sg18
I51
sg19
g20
((dp493
I01
I1
sNI50
stRp494
sg23
I2
sg24
F52
sbs(g9
S'contains(go)'
p495
tp496
g1
(g14
g3
NtRp497
(dp498
g17
F0.5
sg18
I53
sg19
g20
((dp499
NI53
stRp500
sg23
I2
sg24
F54
sbs(g8
S'contains(stairs)'
p501
tp502
g1
(g14
g3
NtRp503
(dp504
g17
F0.5
sg18
I51
sg19
g20
((dp505
NI51
stRp506
sg23
I2
sg24
F52
sbs(g9
S'contains(pakistan)'
p507
tp508
g1
(g14
g3
NtRp509
(dp510
g17
F0.5
sg18
I53
sg19
g20
((dp511
NI53
stRp512
sg23
I2
sg24
F54
sbs(S'LookAndShape'
p513
S'contains(bob)'
p514
tp515
g1
(g14
g3
NtRp516
(dp517
g17
F0.5
sg18
I53
sg19
g20
((dp518
I01
I1
sNI52
stRp519
sg23
I2
sg24
F54
sbs(g8
S'contains(tall)'
p520
tp521
g1
(g14
g3
NtRp522
(dp523
g17
F0.5
sg18
I51
sg19
g20
((dp524
I01
I2
sNI49
stRp525
sg23
I2
sg24
F52
sbs(g8
S'contains(doll)'
p526
tp527
g1
(g14
g3
NtRp528
(dp529
g17
F0.5
sg18
I51
sg19
g20
((dp530
NI51
stRp531
sg23
I2
sg24
F52
sbs(S'LookAndShape'
S'contains(stripper)'
p532
tp533
g1
(g14
g3
NtRp534
(dp535
g17
F0.5
sg18
I53
sg19
g20
((dp536
I01
I1
sNI52
stRp537
sg23
I2
sg24
F54
sbs(g8
S'contains(georgina)'
p538
tp539
g1
(g14
g3
NtRp540
(dp541
g17
F0.5
sg18
I51
sg19
g20
((dp542
NI51
stRp543
sg23
I2
sg24
F52
sbs(S'Dimension'
p544
S'contains(mountain)'
p545
tp546
g1
(g14
g3
NtRp547
(dp548
g17
F0.5
sg18
I51
sg19
g20
((dp549
I01
I1
sNI50
stRp550
sg23
I2
sg24
F52
sbs(g9
S'contains(bird)'
p551
tp552
g1
(g14
g3
NtRp553
(dp554
g17
F0.5
sg18
I53
sg19
g20
((dp555
NI53
stRp556
sg23
I2
sg24
F54
sbs(g178
S'contains(shirt)'
p557
tp558
g1
(g14
g3
NtRp559
(dp560
g17
F0.5
sg18
I51
sg19
g20
((dp561
I01
I2
sNI49
stRp562
sg23
I2
sg24
F52
sbs(g9
S'contains(fiji)'
p563
tp564
g1
(g14
g3
NtRp565
(dp566
g17
F0.5
sg18
I53
sg19
g20
((dp567
NI53
stRp568
sg23
I2
sg24
F54
sbs(S'LookAndShape'
p569
S'contains(sun)'
p570
tp571
g1
(g14
g3
NtRp572
(dp573
g17
F0.5
sg18
I53
sg19
g20
((dp574
I01
I1
sNI52
stRp575
sg23
I2
sg24
F54
sbs(S'LookAndShape'
p576
g147
tp577
g1
(g14
g3
NtRp578
(dp579
g17
F0.5
sg18
I53
sg19
g20
((dp580
I01
I2
sNI51
stRp581
sg23
I2
sg24
F54
sbs(S'LookAndShape'
S'contains(model)'
p582
tp583
g1
(g14
g3
NtRp584
(dp585
g17
F0.5
sg18
I53
sg19
g20
((dp586
I01
I1
sNI52
stRp587
sg23
I2
sg24
F54
sbs(S'Dimension'
p588
S"contains(person's)"
p589
tp590
g1
(g14
g3
NtRp591
(dp592
g17
F0.5
sg18
I51
sg19
g20
((dp593
I01
I1
sNI50
stRp594
sg23
I2
sg24
F52
sbs(g8
S'contains(do)'
p595
tp596
g1
(g14
g3
NtRp597
(dp598
g17
F0.5
sg18
I51
sg19
g20
((dp599
NI51
stRp600
sg23
I2
sg24
F52
sbs(g56
S'contains(grow)'
p601
tp602
g1
(g14
g3
NtRp603
(dp604
g17
F0.5
sg18
I51
sg19
g20
((dp605
I01
I1
sNI50
stRp606
sg23
I2
sg24
F52
sbs(g294
S'contains(structure)'
p607
tp608
g1
(g14
g3
NtRp609
(dp610
g17
F0.5
sg18
I53
sg19
g20
((dp611
I01
I2
sNI51
stRp612
sg23
I2
sg24
F54
sbs(S'LookAndShape'
p613
S'contains(silhouette)'
p614
tp615
g1
(g14
g3
NtRp616
(dp617
g17
F0.5
sg18
I53
sg19
g20
((dp618
I01
I1
sNI52
stRp619
sg23
I2
sg24
F54
sbs(g9
S'contains(soccer)'
p620
tp621
g1
(g14
g3
NtRp622
(dp623
g17
F0.5
sg18
I53
sg19
g20
((dp624
NI53
stRp625
sg23
I2
sg24
F54
sbs(S'LookAndShape'
S'contains(bottles)'
p626
tp627
g1
(g14
g3
NtRp628
(dp629
g17
F0.5
sg18
I53
sg19
g20
((dp630
I01
I1
sNI52
stRp631
sg23
I2
sg24
F54
sbs(g9
S'contains(biggest)'
p632
tp633
g1
(g14
g3
NtRp634
(dp635
g17
F0.5
sg18
I53
sg19
g20
((dp636
NI53
stRp637
sg23
I2
sg24
F54
sbs(S'Dimension'
p638
S'contains(king)'
p639
tp640
g1
(g14
g3
NtRp641
(dp642
g17
F0.5
sg18
I51
sg19
g20
((dp643
I01
I1
sNI50
stRp644
sg23
I2
sg24
F52
sbs(g9
S'contains(short)'
p645
tp646
g1
(g14
g3
NtRp647
(dp648
g17
F0.5
sg18
I53
sg19
g20
((dp649
NI53
stRp650
sg23
I2
sg24
F54
sbs(S'LookAndShape'
S'contains(pen)'
p651
tp652
g1
(g14
g3
NtRp653
(dp654
g17
F0.5
sg18
I53
sg19
g20
((dp655
I01
I1
sNI52
stRp656
sg23
I2
sg24
F54
sbs(S'LookAndShape'
p657
S'contains(of)'
tp658
g1
(g14
g3
NtRp659
(dp660
g17
F0.5
sg18
I53
sg19
g20
((dp661
I01
I10
sNI43
stRp662
sg23
I2
sg24
F54
sbs(g426
S'contains(it)'
p663
tp664
g1
(g14
g3
NtRp665
(dp666
g17
F0.5
sg18
I51
sg19
g20
((dp667
I01
I1
sNI50
stRp668
sg23
I2
sg24
F52
sbs(g9
g38
tp669
g1
(g14
g3
NtRp670
(dp671
g17
F0.5
sg18
I53
sg19
g20
((dp672
NI53
stRp673
sg23
I2
sg24
F54
sbs(g245
S'contains(lightnings)'
p674
tp675
g1
(g14
g3
NtRp676
(dp677
g17
F0.5
sg18
I51
sg19
g20
((dp678
I01
I1
sNI50
stRp679
sg23
I2
sg24
F52
sbs(g9
S'contains(bath)'
p680
tp681
g1
(g14
g3
NtRp682
(dp683
g17
F0.5
sg18
I53
sg19
g20
((dp684
NI53
stRp685
sg23
I2
sg24
F54
sbs(S'LookAndShape'
p686
S'contains(at)'
p687
tp688
g1
(g14
g3
NtRp689
(dp690
g17
F0.5
sg18
I53
sg19
g20
((dp691
I01
I1
sNI52
stRp692
sg23
I2
sg24
F54
sbs(g9
S'contains(mount)'
p693
tp694
g1
(g14
g3
NtRp695
(dp696
g17
F0.5
sg18
I53
sg19
g20
((dp697
NI53
stRp698
sg23
I2
sg24
F54
sbs(g9
S'contains(arc)'
p699
tp700
g1
(g14
g3
NtRp701
(dp702
g17
F0.5
sg18
I53
sg19
g20
((dp703
NI53
stRp704
sg23
I2
sg24
F54
sbs(S'LookAndShape'
S'contains(i)'
p705
tp706
g1
(g14
g3
NtRp707
(dp708
g17
F0.5
sg18
I53
sg19
g20
((dp709
I01
I1
sNI52
stRp710
sg23
I2
sg24
F54
sbs(S'LookAndShape'
S'contains(buildings)'
p711
tp712
g1
(g14
g3
NtRp713
(dp714
g17
F0.5
sg18
I53
sg19
g20
((dp715
I01
I1
sNI52
stRp716
sg23
I2
sg24
F54
sbs(S'Dimension'
p717
g551
tp718
g1
(g14
g3
NtRp719
(dp720
g17
F0.5
sg18
I51
sg19
g20
((dp721
I01
I1
sNI50
stRp722
sg23
I2
sg24
F52
sbs(g9
g545
tp723
g1
(g14
g3
NtRp724
(dp725
g17
F0.5
sg18
I53
sg19
g20
((dp726
NI53
stRp727
sg23
I2
sg24
F54
sbs(g9
S'contains(are)'
tp728
g1
(g14
g3
NtRp729
(dp730
g17
F0.5
sg18
I53
sg19
g20
((dp731
I01
I12
sNI41
stRp732
sg23
I2
sg24
F54
sbs(g165
S'contains(does)'
tp733
g1
(g14
g3
NtRp734
(dp735
g17
F0.5
sg18
I53
sg19
g20
((dp736
I01
I10
sNI43
stRp737
sg23
I2
sg24
F54
sbs(g9
S'contains(capacity)'
p738
tp739
g1
(g14
g3
NtRp740
(dp741
g17
F0.5
sg18
I53
sg19
g20
((dp742
NI53
stRp743
sg23
I2
sg24
F54
sbs(g9
S'contains(field)'
p744
tp745
g1
(g14
g3
NtRp746
(dp747
g17
F0.5
sg18
I53
sg19
g20
((dp748
NI53
stRp749
sg23
I2
sg24
F54
sbs(g76
S'contains(far)'
p750
tp751
g1
(g14
g3
NtRp752
(dp753
g17
F0.5
sg18
I51
sg19
g20
((dp754
I01
I6
sNI45
stRp755
sg23
I2
sg24
F52
sbs(g8
S'contains(men)'
p756
tp757
g1
(g14
g3
NtRp758
(dp759
g17
F0.5
sg18
I51
sg19
g20
((dp760
NI51
stRp761
sg23
I2
sg24
F52
sbs(g96
S'contains(order)'
p762
tp763
g1
(g14
g3
NtRp764
(dp765
g17
F0.5
sg18
I51
sg19
g20
((dp766
I01
I3
sNI48
stRp767
sg23
I2
sg24
F52
sbs(g9
S'contains(stomach)'
p768
tp769
g1
(g14
g3
NtRp770
(dp771
g17
F0.5
sg18
I53
sg19
g20
((dp772
NI53
stRp773
sg23
I2
sg24
F54
sbs(g9
g762
tp774
g1
(g14
g3
NtRp775
(dp776
g17
F0.5
sg18
I53
sg19
g20
((dp777
NI53
stRp778
sg23
I2
sg24
F54
sbs(g8
S'contains(ben)'
p779
tp780
g1
(g14
g3
NtRp781
(dp782
g17
F0.5
sg18
I51
sg19
g20
((dp783
NI51
stRp784
sg23
I2
sg24
F52
sbs(S'LookAndShape'
p785
S'contains(building)'
p786
tp787
g1
(g14
g3
NtRp788
(dp789
g17
F0.5
sg18
I53
sg19
g20
((dp790
I01
I1
sNI52
stRp791
sg23
I2
sg24
F54
sbs(g9
S'contains(water)'
p792
tp793
g1
(g14
g3
NtRp794
(dp795
g17
F0.5
sg18
I53
sg19
g20
((dp796
NI53
stRp797
sg23
I2
sg24
F54
sbs(g8
S'contains(shirts)'
p798
tp799
g1
(g14
g3
NtRp800
(dp801
g17
F0.5
sg18
I51
sg19
g20
((dp802
NI51
stRp803
sg23
I2
sg24
F52
sbs(g9
S'contains(hand)'
p804
tp805
g1
(g14
g3
NtRp806
(dp807
g17
F0.5
sg18
I53
sg19
g20
((dp808
NI53
stRp809
sg23
I2
sg24
F54
sbs(g9
S'contains(air)'
p810
tp811
g1
(g14
g3
NtRp812
(dp813
g17
F0.5
sg18
I53
sg19
g20
((dp814
NI53
stRp815
sg23
I2
sg24
F54
sbs(S'LookAndShape'
S'contains(hair)'
p816
tp817
g1
(g14
g3
NtRp818
(dp819
g17
F0.5
sg18
I53
sg19
g20
((dp820
I01
I1
sNI52
stRp821
sg23
I2
sg24
F54
sbs(g8
g816
tp822
g1
(g14
g3
NtRp823
(dp824
g17
F0.5
sg18
I51
sg19
g20
((dp825
NI51
stRp826
sg23
I2
sg24
F52
sbs(g8
S'contains(apple)'
p827
tp828
g1
(g14
g3
NtRp829
(dp830
g17
F0.5
sg18
I51
sg19
g20
((dp831
NI51
stRp832
sg23
I2
sg24
F52
sbs(g9
S'contains(tub)'
p833
tp834
g1
(g14
g3
NtRp835
(dp836
g17
F0.5
sg18
I53
sg19
g20
((dp837
NI53
stRp838
sg23
I2
sg24
F54
sbs(g8
S'contains(did)'
p839
tp840
g1
(g14
g3
NtRp841
(dp842
g17
F0.5
sg18
I51
sg19
g20
((dp843
NI51
stRp844
sg23
I2
sg24
F52
sbs(S'Dimension'
p845
g792
tp846
g1
(g14
g3
NtRp847
(dp848
g17
F0.5
sg18
I51
sg19
g20
((dp849
I01
I1
sNI50
stRp850
sg23
I2
sg24
F52
sbs(g9
g674
tp851
g1
(g14
g3
NtRp852
(dp853
g17
F0.5
sg18
I53
sg19
g20
((dp854
NI53
stRp855
sg23
I2
sg24
F54
sbs(g9
g104
tp856
g1
(g14
g3
NtRp857
(dp858
g17
F0.5
sg18
I53
sg19
g20
((dp859
NI53
stRp860
sg23
I2
sg24
F54
sbs(g588
g768
tp861
g1
(g14
g3
NtRp862
(dp863
g17
F0.5
sg18
I51
sg19
g20
((dp864
I01
I1
sNI50
stRp865
sg23
I2
sg24
F52
sbs(g613
S'contains(lady)'
p866
tp867
g1
(g14
g3
NtRp868
(dp869
g17
F0.5
sg18
I53
sg19
g20
((dp870
I01
I1
sNI52
stRp871
sg23
I2
sg24
F54
sbs(g513
g403
tp872
g1
(g14
g3
NtRp873
(dp874
g17
F0.5
sg18
I53
sg19
g20
((dp875
I01
I1
sNI52
stRp876
sg23
I2
sg24
F54
sbs(S'Dimension'
p877
S'contains(regular)'
p878
tp879
g1
(g14
g3
NtRp880
(dp881
g17
F0.5
sg18
I51
sg19
g20
((dp882
I01
I4
sNI47
stRp883
sg23
I2
sg24
F52
sbs(g657
S'contains(the)'
tp884
g1
(g14
g3
NtRp885
(dp886
g17
F0.5
sg18
I53
sg19
g20
((dp887
I01
I15
sNI38
stRp888
sg23
I2
sg24
F54
sbs(S'Dimension'
p889
S'contains(of)'
tp890
g1
(g14
g3
NtRp891
(dp892
g17
F0.5
sg18
I51
sg19
g20
((dp893
I01
I28
sNI23
stRp894
sg23
I2
sg24
F52
sbs(g657
S'contains(shape)'
p895
tp896
g1
(g14
g3
NtRp897
(dp898
g17
F0.5
sg18
I53
sg19
g20
((dp899
I01
I3
sNI50
stRp900
sg23
I2
sg24
F54
sbs(g8
g705
tp901
g1
(g14
g3
NtRp902
(dp903
g17
F0.5
sg18
I51
sg19
g20
((dp904
NI51
stRp905
sg23
I2
sg24
F52
sbs(g220
S'contains(feet)'
p906
tp907
g1
(g14
g3
NtRp908
(dp909
g17
F0.5
sg18
I51
sg19
g20
((dp910
I01
I3
sNI48
stRp911
sg23
I2
sg24
F52
sbs(S'Dimension'
p912
S'contains(inches)'
p913
tp914
g1
(g14
g3
NtRp915
(dp916
g17
F0.5
sg18
I51
sg19
g20
((dp917
I01
I1
sNI50
stRp918
sg23
I2
sg24
F52
sbs(g184
S'contains(extension)'
p919
tp920
g1
(g14
g3
NtRp921
(dp922
g17
F0.5
sg18
I51
sg19
g20
((dp923
I01
I4
sNI47
stRp924
sg23
I2
sg24
F52
sbs(g9
S'contains(can)'
p925
tp926
g1
(g14
g3
NtRp927
(dp928
g17
F0.5
sg18
I53
sg19
g20
((dp929
NI53
stRp930
sg23
I2
sg24
F54
sbs(g8
g366
tp931
g1
(g14
g3
NtRp932
(dp933
g17
F0.5
sg18
I51
sg19
g20
((dp934
NI51
stRp935
sg23
I2
sg24
F52
sbs(S'Dimension'
p936
g620
tp937
g1
(g14
g3
NtRp938
(dp939
g17
F0.5
sg18
I51
sg19
g20
((dp940
I01
I2
sNI49
stRp941
sg23
I2
sg24
F52
sbs(g9
S'contains(kilowatt)'
p942
tp943
g1
(g14
g3
NtRp944
(dp945
g17
F0.5
sg18
I53
sg19
g20
((dp946
NI53
stRp947
sg23
I2
sg24
F54
sbs(g8
S'contains(folder)'
p948
tp949
g1
(g14
g3
NtRp950
(dp951
g17
F0.5
sg18
I51
sg19
g20
((dp952
NI51
stRp953
sg23
I2
sg24
F52
sbs(S'Dimension'
p954
S'contains(magnitude)'
p955
tp956
g1
(g14
g3
NtRp957
(dp958
g17
F0.5
sg18
I51
sg19
g20
((dp959
I01
I4
sNI47
stRp960
sg23
I2
sg24
F52
sbs(g8
g306
tp961
g1
(g14
g3
NtRp962
(dp963
g17
F0.5
sg18
I51
sg19
g20
((dp964
NI51
stRp965
sg23
I2
sg24
F52
sbs(g9
g589
tp966
g1
(g14
g3
NtRp967
(dp968
g17
F0.5
sg18
I53
sg19
g20
((dp969
NI53
stRp970
sg23
I2
sg24
F54
sbs(g8
g295
tp971
g1
(g14
g3
NtRp972
(dp973
g17
F0.5
sg18
I51
sg19
g20
((dp974
NI51
stRp975
sg23
I2
sg24
F52
sbs(S'Dimension'
p976
S'contains(bug)'
p977
tp978
g1
(g14
g3
NtRp979
(dp980
g17
F0.5
sg18
I51
sg19
g20
((dp981
I01
I1
sNI50
stRp982
sg23
I2
sg24
F52
sbs(g9
S'contains(on)'
p983
tp984
g1
(g14
g3
NtRp985
(dp986
g17
F0.5
sg18
I53
sg19
g20
((dp987
NI53
stRp988
sg23
I2
sg24
F54
sbs(S'LookAndShape'
S'contains(airplane)'
p989
tp990
g1
(g14
g3
NtRp991
(dp992
g17
F0.5
sg18
I53
sg19
g20
((dp993
I01
I1
sNI52
stRp994
sg23
I2
sg24
F54
sbs(g9
S'contains(boston)'
p995
tp996
g1
(g14
g3
NtRp997
(dp998
g17
F0.5
sg18
I53
sg19
g20
((dp999
NI53
stRp1000
sg23
I2
sg24
F54
sbs(g8
S'contains(outline)'
p1001
tp1002
g1
(g14
g3
NtRp1003
(dp1004
g17
F0.5
sg18
I51
sg19
g20
((dp1005
NI51
stRp1006
sg23
I2
sg24
F52
sbs(g9
g913
tp1007
g1
(g14
g3
NtRp1008
(dp1009
g17
F0.5
sg18
I53
sg19
g20
((dp1010
NI53
stRp1011
sg23
I2
sg24
F54
sbs(S'Dimension'
p1012
S'contains(lamp)'
p1013
tp1014
g1
(g14
g3
NtRp1015
(dp1016
g17
F0.5
sg18
I51
sg19
g20
((dp1017
I01
I1
sNI50
stRp1018
sg23
I2
sg24
F52
sbs(g378
S'contains(jump)'
p1019
tp1020
g1
(g14
g3
NtRp1021
(dp1022
g17
F0.5
sg18
I51
sg19
g20
((dp1023
I01
I1
sNI50
stRp1024
sg23
I2
sg24
F52
sbs(g9
S'contains(highway)'
p1025
tp1026
g1
(g14
g3
NtRp1027
(dp1028
g17
F0.5
sg18
I53
sg19
g20
((dp1029
NI53
stRp1030
sg23
I2
sg24
F54
sbs(g8
g895
tp1031
g1
(g14
g3
NtRp1032
(dp1033
g17
F0.5
sg18
I51
sg19
g20
((dp1034
NI51
stRp1035
sg23
I2
sg24
F52
sbs(g8
g532
tp1036
g1
(g14
g3
NtRp1037
(dp1038
g17
F0.5
sg18
I51
sg19
g20
((dp1039
NI51
stRp1040
sg23
I2
sg24
F52
sbs(g8
g626
tp1041
g1
(g14
g3
NtRp1042
(dp1043
g17
F0.5
sg18
I51
sg19
g20
((dp1044
NI51
stRp1045
sg23
I2
sg24
F52
sbs(g976
S'contains(be)'
p1046
tp1047
g1
(g14
g3
NtRp1048
(dp1049
g17
F0.5
sg18
I51
sg19
g20
((dp1050
I01
I4
sNI47
stRp1051
sg23
I2
sg24
F52
sbs(S'LookAndShape'
p1052
S'contains(ugly)'
p1053
tp1054
g1
(g14
g3
NtRp1055
(dp1056
g17
F0.5
sg18
I53
sg19
g20
((dp1057
I01
I2
sNI51
stRp1058
sg23
I2
sg24
F54
sbs(g8
g227
tp1059
g1
(g14
g3
NtRp1060
(dp1061
g17
F0.5
sg18
I51
sg19
g20
((dp1062
NI51
stRp1063
sg23
I2
sg24
F52
sbs(S'LookAndShape'
S'contains(snow)'
p1064
tp1065
g1
(g14
g3
NtRp1066
(dp1067
g17
F0.5
sg18
I53
sg19
g20
((dp1068
I01
I1
sNI52
stRp1069
sg23
I2
sg24
F54
sbs(g178
S'contains(laundry)'
p1070
tp1071
g1
(g14
g3
NtRp1072
(dp1073
g17
F0.5
sg18
I51
sg19
g20
((dp1074
I01
I2
sNI49
stRp1075
sg23
I2
sg24
F52
sbs(g889
S'contains(that)'
tp1076
g1
(g14
g3
NtRp1077
(dp1078
g17
F0.5
sg18
I51
sg19
g20
((dp1079
I01
I3
sNI48
stRp1080
sg23
I2
sg24
F52
sbs(g8
S'contains(this)'
p1081
tp1082
g1
(g14
g3
NtRp1083
(dp1084
g17
F0.5
sg18
I51
sg19
g20
((dp1085
NI51
stRp1086
sg23
I2
sg24
F52
sbs(g9
S'contains(european)'
p1087
tp1088
g1
(g14
g3
NtRp1089
(dp1090
g17
F0.5
sg18
I53
sg19
g20
((dp1091
NI53
stRp1092
sg23
I2
sg24
F54
sbs(g8
g420
tp1093
g1
(g14
g3
NtRp1094
(dp1095
g17
F0.5
sg18
I51
sg19
g20
((dp1096
NI51
stRp1097
sg23
I2
sg24
F52
sbs(S'Dimension'
p1098
g833
tp1099
g1
(g14
g3
NtRp1100
(dp1101
g17
F0.5
sg18
I51
sg19
g20
((dp1102
I01
I1
sNI50
stRp1103
sg23
I2
sg24
F52
sbs(g426
S'contains(spain)'
p1104
tp1105
g1
(g14
g3
NtRp1106
(dp1107
g17
F0.5
sg18
I51
sg19
g20
((dp1108
I01
I1
sNI50
stRp1109
sg23
I2
sg24
F52
sbs(g8
g166
tp1110
g1
(g14
g3
NtRp1111
(dp1112
g17
F0.5
sg18
I51
sg19
g20
((dp1113
NI51
stRp1114
sg23
I2
sg24
F52
sbs(g178
S'contains(after)'
p1115
tp1116
g1
(g14
g3
NtRp1117
(dp1118
g17
F0.5
sg18
I51
sg19
g20
((dp1119
I01
I2
sNI49
stRp1120
sg23
I2
sg24
F52
sbs(g76
g563
tp1121
g1
(g14
g3
NtRp1122
(dp1123
g17
F0.5
sg18
I51
sg19
g20
((dp1124
I01
I1
sNI50
stRp1125
sg23
I2
sg24
F52
sbs(S'LookAndShape'
p1126
g779
tp1127
g1
(g14
g3
NtRp1128
(dp1129
g17
F0.5
sg18
I53
sg19
g20
((dp1130
I01
I1
sNI52
stRp1131
sg23
I2
sg24
F54
sbs(g686
g433
tp1132
g1
(g14
g3
NtRp1133
(dp1134
g17
F0.5
sg18
I53
sg19
g20
((dp1135
I01
I1
sNI52
stRp1136
sg23
I2
sg24
F54
sbs(g8
g514
tp1137
g1
(g14
g3
NtRp1138
(dp1139
g17
F0.5
sg18
I51
sg19
g20
((dp1140
NI51
stRp1141
sg23
I2
sg24
F52
sbs(g9
g427
tp1142
g1
(g14
g3
NtRp1143
(dp1144
g17
F0.5
sg18
I53
sg19
g20
((dp1145
NI53
stRp1146
sg23
I2
sg24
F54
sbs(g9
S'contains(?)'
tp1147
g1
(g14
g3
NtRp1148
(dp1149
g17
F0.5
sg18
I53
sg19
g20
((dp1150
I01
I53
stRp1151
sg23
I1
sg24
F53.5
sbs(g9
g70
tp1152
g1
(g14
g3
NtRp1153
(dp1154
g17
F0.5
sg18
I53
sg19
g20
((dp1155
NI53
stRp1156
sg23
I2
sg24
F54
sbs(g220
S'contains(was)'
p1157
tp1158
g1
(g14
g3
NtRp1159
(dp1160
g17
F0.5
sg18
I51
sg19
g20
((dp1161
I01
I1
sNI50
stRp1162
sg23
I2
sg24
F52
sbs(g638
g353
tp1163
g1
(g14
g3
NtRp1164
(dp1165
g17
F0.5
sg18
I51
sg19
g20
((dp1166
I01
I1
sNI50
stRp1167
sg23
I2
sg24
F52
sbs(g482
S'contains(magnets)'
p1168
tp1169
g1
(g14
g3
NtRp1170
(dp1171
g17
F0.5
sg18
I51
sg19
g20
((dp1172
I01
I1
sNI50
stRp1173
sg23
I2
sg24
F52
sbs(g9
S'contains(ants)'
p1174
tp1175
g1
(g14
g3
NtRp1176
(dp1177
g17
F0.5
sg18
I53
sg19
g20
((dp1178
NI53
stRp1179
sg23
I2
sg24
F54
sbs(g9
g341
tp1180
g1
(g14
g3
NtRp1181
(dp1182
g17
F0.5
sg18
I53
sg19
g20
((dp1183
NI53
stRp1184
sg23
I2
sg24
F54
sbs(g9
g57
tp1185
g1
(g14
g3
NtRp1186
(dp1187
g17
F0.5
sg18
I53
sg19
g20
((dp1188
NI53
stRp1189
sg23
I2
sg24
F54
sbs(S'Dimension'
S'contains(nm)'
p1190
tp1191
g1
(g14
g3
NtRp1192
(dp1193
g17
F0.5
sg18
I51
sg19
g20
((dp1194
I01
I1
sNI50
stRp1195
sg23
I2
sg24
F52
sbs(g8
g263
tp1196
g1
(g14
g3
NtRp1197
(dp1198
g17
F0.5
sg18
I51
sg19
g20
((dp1199
I01
I1
sNI50
stRp1200
sg23
I2
sg24
F52
sbs(S'LookAndShape'
p1201
g392
tp1202
g1
(g14
g3
NtRp1203
(dp1204
g17
F0.5
sg18
I53
sg19
g20
((dp1205
I01
I1
sNI52
stRp1206
sg23
I2
sg24
F54
sbs(g845
S'contains(human)'
p1207
tp1208
g1
(g14
g3
NtRp1209
(dp1210
g17
F0.5
sg18
I51
sg19
g20
((dp1211
I01
I1
sNI50
stRp1212
sg23
I2
sg24
F52
sbs(S'Dimension'
p1213
S'contains(package)'
p1214
tp1215
g1
(g14
g3
NtRp1216
(dp1217
g17
F0.5
sg18
I51
sg19
g20
((dp1218
I01
I1
sNI50
stRp1219
sg23
I2
sg24
F52
sbs(S'LookAndShape'
g275
tp1220
g1
(g14
g3
NtRp1221
(dp1222
g17
F0.5
sg18
I53
sg19
g20
((dp1223
I01
I1
sNI52
stRp1224
sg23
I2
sg24
F54
sbs(g9
g386
tp1225
g1
(g14
g3
NtRp1226
(dp1227
g17
F0.5
sg18
I53
sg19
g20
((dp1228
NI53
stRp1229
sg23
I2
sg24
F54
sbs(g8
S'contains(how)'
tp1230
g1
(g14
g3
NtRp1231
(dp1232
g17
F0.5
sg18
I51
sg19
g20
((dp1233
I01
I23
sNI28
stRp1234
sg23
I2
sg24
F52
sbs(g8
g651
tp1235
g1
(g14
g3
NtRp1236
(dp1237
g17
F0.5
sg18
I51
sg19
g20
((dp1238
NI51
stRp1239
sg23
I2
sg24
F52
sbs(g8
g239
tp1240
g1
(g14
g3
NtRp1241
(dp1242
g17
F0.5
sg18
I51
sg19
g20
((dp1243
NI51
stRp1244
sg23
I2
sg24
F52
sbs(g8
S'contains(trousers)'
p1245
tp1246
g1
(g14
g3
NtRp1247
(dp1248
g17
F0.5
sg18
I51
sg19
g20
((dp1249
NI51
stRp1250
sg23
I2
sg24
F52
sbs(S'LookAndShape'
p1251
S'contains(defines)'
p1252
tp1253
g1
(g14
g3
NtRp1254
(dp1255
g17
F0.5
sg18
I53
sg19
g20
((dp1256
I01
I1
sNI52
stRp1257
sg23
I2
sg24
F54
sbs(g8
g360
tp1258
g1
(g14
g3
NtRp1259
(dp1260
g17
F0.5
sg18
I51
sg19
g20
((dp1261
NI51
stRp1262
sg23
I2
sg24
F52
sbs(g9
S'contains(normal)'
p1263
tp1264
g1
(g14
g3
NtRp1265
(dp1266
g17
F0.5
sg18
I53
sg19
g20
((dp1267
NI53
stRp1268
sg23
I2
sg24
F54
sbs(g9
S'contains(pad)'
p1269
tp1270
g1
(g14
g3
NtRp1271
(dp1272
g17
F0.5
sg18
I53
sg19
g20
((dp1273
NI53
stRp1274
sg23
I2
sg24
F54
sbs(g8
g607
tp1275
g1
(g14
g3
NtRp1276
(dp1277
g17
F0.5
sg18
I51
sg19
g20
((dp1278
NI51
stRp1279
sg23
I2
sg24
F52
sbs(S'LookAndShape'
S'contains(ovnis)'
p1280
tp1281
g1
(g14
g3
NtRp1282
(dp1283
g17
F0.5
sg18
I53
sg19
g20
((dp1284
I01
I2
sNI51
stRp1285
sg23
I2
sg24
F54
sbs(S'Dimension'
p1286
S'contains(volume)'
p1287
tp1288
g1
(g14
g3
NtRp1289
(dp1290
g17
F0.5
sg18
I51
sg19
g20
((dp1291
I01
I6
sNI45
stRp1292
sg23
I2
sg24
F52
sbs(g9
S'contains(two)'
p1293
tp1294
g1
(g14
g3
NtRp1295
(dp1296
g17
F0.5
sg18
I53
sg19
g20
((dp1297
NI53
stRp1298
sg23
I2
sg24
F54
sbs(S'Dimension'
p1299
S'contains(everest)'
p1300
tp1301
g1
(g14
g3
NtRp1302
(dp1303
g17
F0.5
sg18
I51
sg19
g20
((dp1304
I01
I1
sNI50
stRp1305
sg23
I2
sg24
F52
sbs(g9
g269
tp1306
g1
(g14
g3
NtRp1307
(dp1308
g17
F0.5
sg18
I53
sg19
g20
((dp1309
NI53
stRp1310
sg23
I2
sg24
F54
sbs(g9
g1115
tp1311
g1
(g14
g3
NtRp1312
(dp1313
g17
F0.5
sg18
I53
sg19
g20
((dp1314
NI53
stRp1315
sg23
I2
sg24
F54
sbs(g9
S'contains(small)'
p1316
tp1317
g1
(g14
g3
NtRp1318
(dp1319
g17
F0.5
sg18
I53
sg19
g20
((dp1320
NI53
stRp1321
sg23
I2
sg24
F54
sbs(g340
g153
tp1322
g1
(g14
g3
NtRp1323
(dp1324
g17
F0.5
sg18
I51
sg19
g20
((dp1325
I01
I1
sNI50
stRp1326
sg23
I2
sg24
F52
sbs(g8
g570
tp1327
g1
(g14
g3
NtRp1328
(dp1329
g17
F0.5
sg18
I51
sg19
g20
((dp1330
NI51
stRp1331
sg23
I2
sg24
F52
sbs(g9
S'contains(forest)'
p1332
tp1333
g1
(g14
g3
NtRp1334
(dp1335
g17
F0.5
sg18
I53
sg19
g20
((dp1336
NI53
stRp1337
sg23
I2
sg24
F54
sbs(g103
g1087
tp1338
g1
(g14
g3
NtRp1339
(dp1340
g17
F0.5
sg18
I51
sg19
g20
((dp1341
I01
I1
sNI50
stRp1342
sg23
I2
sg24
F52
sbs(g657
g129
tp1343
g1
(g14
g3
NtRp1344
(dp1345
g17
F0.5
sg18
I53
sg19
g20
((dp1346
I01
I1
sNI52
stRp1347
sg23
I2
sg24
F54
sbs(g8
S'contains(like)'
p1348
tp1349
g1
(g14
g3
NtRp1350
(dp1351
g17
F0.5
sg18
I51
sg19
g20
((dp1352
NI51
stRp1353
sg23
I2
sg24
F52
sbs(g1251
S'contains(that)'
tp1354
g1
(g14
g3
NtRp1355
(dp1356
g17
F0.5
sg18
I53
sg19
g20
((dp1357
I01
I3
sNI50
stRp1358
sg23
I2
sg24
F54
sbs(S'LookAndShape'
g501
tp1359
g1
(g14
g3
NtRp1360
(dp1361
g17
F0.5
sg18
I53
sg19
g20
((dp1362
I01
I1
sNI52
stRp1363
sg23
I2
sg24
F54
sbs(g25
g191
tp1364
g1
(g14
g3
NtRp1365
(dp1366
g17
F0.5
sg18
I51
sg19
g20
((dp1367
I01
I1
sNI50
stRp1368
sg23
I2
sg24
F52
sbs(g8
g1064
tp1369
g1
(g14
g3
NtRp1370
(dp1371
g17
F0.5
sg18
I51
sg19
g20
((dp1372
NI51
stRp1373
sg23
I2
sg24
F52
sbs(g9
S'contains(woman)'
p1374
tp1375
g1
(g14
g3
NtRp1376
(dp1377
g17
F0.5
sg18
I53
sg19
g20
((dp1378
NI53
stRp1379
sg23
I2
sg24
F54
sbs(g8
g1053
tp1380
g1
(g14
g3
NtRp1381
(dp1382
g17
F0.5
sg18
I51
sg19
g20
((dp1383
NI51
stRp1384
sg23
I2
sg24
F52
sbs(g9
S'contains(high)'
p1385
tp1386
g1
(g14
g3
NtRp1387
(dp1388
g17
F0.5
sg18
I53
sg19
g20
((dp1389
NI53
stRp1390
sg23
I2
sg24
F54
sbs(g9
g639
tp1391
g1
(g14
g3
NtRp1392
(dp1393
g17
F0.5
sg18
I53
sg19
g20
((dp1394
NI53
stRp1395
sg23
I2
sg24
F54
sbs(g9
g90
tp1396
g1
(g14
g3
NtRp1397
(dp1398
g17
F0.5
sg18
I53
sg19
g20
((dp1399
NI53
stRp1400
sg23
I2
sg24
F54
sbs(g8
g1252
tp1401
g1
(g14
g3
NtRp1402
(dp1403
g17
F0.5
sg18
I51
sg19
g20
((dp1404
NI51
stRp1405
sg23
I2
sg24
F52
sbs(g9
g1300
tp1406
g1
(g14
g3
NtRp1407
(dp1408
g17
F0.5
sg18
I53
sg19
g20
((dp1409
NI53
stRp1410
sg23
I2
sg24
F54
sbs(g9
g601
tp1411
g1
(g14
g3
NtRp1412
(dp1413
g17
F0.5
sg18
I53
sg19
g20
((dp1414
NI53
stRp1415
sg23
I2
sg24
F54
sbs(S'LookAndShape'
p1416
S'contains(how)'
tp1417
g1
(g14
g3
NtRp1418
(dp1419
g17
F0.5
sg18
I53
sg19
g20
((dp1420
I01
I23
sNI30
stRp1421
sg23
I2
sg24
F54
sbs(g178
g1316
tp1422
g1
(g14
g3
NtRp1423
(dp1424
g17
F0.5
sg18
I51
sg19
g20
((dp1425
I01
I3
sNI48
stRp1426
sg23
I2
sg24
F52
sbs(g103
g159
tp1427
g1
(g14
g3
NtRp1428
(dp1429
g17
F0.5
sg18
I51
sg19
g20
((dp1430
I01
I1
sNI50
stRp1431
sg23
I2
sg24
F52
sbs(S'Dimension'
p1432
g995
tp1433
g1
(g14
g3
NtRp1434
(dp1435
g17
F0.5
sg18
I51
sg19
g20
((dp1436
I01
I1
sNI50
stRp1437
sg23
I2
sg24
F52
sbs(g9
g1214
tp1438
g1
(g14
g3
NtRp1439
(dp1440
g17
F0.5
sg18
I53
sg19
g20
((dp1441
NI53
stRp1442
sg23
I2
sg24
F54
sbs(g9
g1287
tp1443
g1
(g14
g3
NtRp1444
(dp1445
g17
F0.5
sg18
I53
sg19
g20
((dp1446
NI53
stRp1447
sg23
I2
sg24
F54
sbs(g912
S"contains(hitler's)"
p1448
tp1449
g1
(g14
g3
NtRp1450
(dp1451
g17
F0.5
sg18
I51
sg19
g20
((dp1452
I01
I1
sNI50
stRp1453
sg23
I2
sg24
F52
sbs(g9
g1046
tp1454
g1
(g14
g3
NtRp1455
(dp1456
g17
F0.5
sg18
I53
sg19
g20
((dp1457
NI53
stRp1458
sg23
I2
sg24
F54
sbs(g8
g117
tp1459
g1
(g14
g3
NtRp1460
(dp1461
g17
F0.5
sg18
I51
sg19
g20
((dp1462
NI51
stRp1463
sg23
I2
sg24
F52
sbs(g9
g955
tp1464
g1
(g14
g3
NtRp1465
(dp1466
g17
F0.5
sg18
I53
sg19
g20
((dp1467
NI53
stRp1468
sg23
I2
sg24
F54
sbs(g8
g1280
tp1469
g1
(g14
g3
NtRp1470
(dp1471
g17
F0.5
sg18
I51
sg19
g20
((dp1472
NI51
stRp1473
sg23
I2
sg24
F52
sbs(g9
g1190
tp1474
g1
(g14
g3
NtRp1475
(dp1476
g17
F0.5
sg18
I53
sg19
g20
((dp1477
NI53
stRp1478
sg23
I2
sg24
F54
sbs(g8
S'contains(?)'
tp1479
g1
(g14
g3
NtRp1480
(dp1481
g17
F0.5
sg18
I51
sg19
g20
((dp1482
I01
I51
stRp1483
sg23
I1
sg24
F51.5
sbs(g8
S'contains(prom)'
p1484
tp1485
g1
(g14
g3
NtRp1486
(dp1487
g17
F0.5
sg18
I51
sg19
g20
((dp1488
NI51
stRp1489
sg23
I2
sg24
F52
sbs(S'Dimension'
g942
tp1490
g1
(g14
g3
NtRp1491
(dp1492
g17
F0.5
sg18
I51
sg19
g20
((dp1493
I01
I1
sNI50
stRp1494
sg23
I2
sg24
F52
sbs(S'LookAndShape'
g83
tp1495
g1
(g14
g3
NtRp1496
(dp1497
g17
F0.5
sg18
I53
sg19
g20
((dp1498
I01
I1
sNI52
stRp1499
sg23
I2
sg24
F54
sbs(g9
S'contains(in)'
p1500
tp1501
g1
(g14
g3
NtRp1502
(dp1503
g17
F0.5
sg18
I53
sg19
g20
((dp1504
NI53
stRp1505
sg23
I2
sg24
F54
sbs(g8
S'contains(tree)'
p1506
tp1507
g1
(g14
g3
NtRp1508
(dp1509
g17
F0.5
sg18
I51
sg19
g20
((dp1510
I01
I2
sNI49
stRp1511
sg23
I2
sg24
F52
sbs(g9
g1207
tp1512
g1
(g14
g3
NtRp1513
(dp1514
g17
F0.5
sg18
I53
sg19
g20
((dp1515
NI53
stRp1516
sg23
I2
sg24
F54
sbs(g8
S'contains(people)'
p1517
tp1518
g1
(g14
g3
NtRp1519
(dp1520
g17
F0.5
sg18
I51
sg19
g20
((dp1521
NI51
stRp1522
sg23
I2
sg24
F52
sbs(g9
g878
tp1523
g1
(g14
g3
NtRp1524
(dp1525
g17
F0.5
sg18
I53
sg19
g20
((dp1526
NI53
stRp1527
sg23
I2
sg24
F54
sbs(g8
S'contains(is)'
tp1528
g1
(g14
g3
NtRp1529
(dp1530
g17
F0.5
sg18
I51
sg19
g20
((dp1531
I01
I35
sNI16
stRp1532
sg23
I2
sg24
F52
sbs(g8
g329
tp1533
g1
(g14
g3
NtRp1534
(dp1535
g17
F0.5
sg18
I51
sg19
g20
((dp1536
NI51
stRp1537
sg23
I2
sg24
F52
sbs(g9
S'contains(ocean)'
p1538
tp1539
g1
(g14
g3
NtRp1540
(dp1541
g17
F0.5
sg18
I53
sg19
g20
((dp1542
NI53
stRp1543
sg23
I2
sg24
F54
sbs(g976
g312
tp1544
g1
(g14
g3
NtRp1545
(dp1546
g17
F0.5
sg18
I51
sg19
g20
((dp1547
I01
I2
sNI49
stRp1548
sg23
I2
sg24
F52
sbs(g9
g1448
tp1549
g1
(g14
g3
NtRp1550
(dp1551
g17
F0.5
sg18
I53
sg19
g20
((dp1552
NI53
stRp1553
sg23
I2
sg24
F54
sbs(S'Dimension'
p1554
g257
tp1555
g1
(g14
g3
NtRp1556
(dp1557
g17
F0.5
sg18
I51
sg19
g20
((dp1558
I01
I1
sNI50
stRp1559
sg23
I2
sg24
F52
sbs(S'LookAndShape'
g827
tp1560
g1
(g14
g3
NtRp1561
(dp1562
g17
F0.5
sg18
I53
sg19
g20
((dp1563
I01
I2
sNI51
stRp1564
sg23
I2
sg24
F54
sbs(g8
S'contains(pretty)'
p1565
tp1566
g1
(g14
g3
NtRp1567
(dp1568
g17
F0.5
sg18
I51
sg19
g20
((dp1569
NI51
stRp1570
sg23
I2
sg24
F52
sbs(g9
S'contains(korea)'
p1571
tp1572
g1
(g14
g3
NtRp1573
(dp1574
g17
F0.5
sg18
I53
sg19
g20
((dp1575
NI53
stRp1576
sg23
I2
sg24
F54
sbs(g785
g1001
tp1577
g1
(g14
g3
NtRp1578
(dp1579
g17
F0.5
sg18
I53
sg19
g20
((dp1580
I01
I1
sNI52
stRp1581
sg23
I2
sg24
F54
sbs(g877
g804
tp1582
g1
(g14
g3
NtRp1583
(dp1584
g17
F0.5
sg18
I51
sg19
g20
((dp1585
I01
I3
sNI48
stRp1586
sg23
I2
sg24
F52
sbs(g1299
g1385
tp1587
g1
(g14
g3
NtRp1588
(dp1589
g17
F0.5
sg18
I51
sg19
g20
((dp1590
I01
I3
sNI48
stRp1591
sg23
I2
sg24
F52
sbs(g89
g1538
tp1592
g1
(g14
g3
NtRp1593
(dp1594
g17
F0.5
sg18
I51
sg19
g20
((dp1595
I01
I1
sNI50
stRp1596
sg23
I2
sg24
F52
sbs(g9
S'contains(size)'
p1597
tp1598
g1
(g14
g3
NtRp1599
(dp1600
g17
F0.5
sg18
I53
sg19
g20
((dp1601
NI53
stRp1602
sg23
I2
sg24
F54
sbs(S'LookAndShape'
g756
tp1603
g1
(g14
g3
NtRp1604
(dp1605
g17
F0.5
sg18
I53
sg19
g20
((dp1606
I01
I1
sNI52
stRp1607
sg23
I2
sg24
F54
sbs(g25
S'contains(plane)'
tp1608
g1
(g14
g3
NtRp1609
(dp1610
g17
F0.5
sg18
I51
sg19
g20
((dp1611
I01
I1
sNI50
stRp1612
sg23
I2
sg24
F52
sbs(S'Dimension'
p1613
S'contains(are)'
tp1614
g1
(g14
g3
NtRp1615
(dp1616
g17
F0.5
sg18
I51
sg19
g20
((dp1617
I01
I2
sNI49
stRp1618
sg23
I2
sg24
F52
sbs(g1052
S'contains(an)'
tp1619
g1
(g14
g3
NtRp1620
(dp1621
g17
F0.5
sg18
I53
sg19
g20
((dp1622
I01
I7
sNI46
stRp1623
sg23
I2
sg24
F54
sbs(g9
g1104
tp1624
g1
(g14
g3
NtRp1625
(dp1626
g17
F0.5
sg18
I53
sg19
g20
((dp1627
NI53
stRp1628
sg23
I2
sg24
F54
sbs(S'Dimension'
p1629
S'contains(your)'
p1630
tp1631
g1
(g14
g3
NtRp1632
(dp1633
g17
F0.5
sg18
I51
sg19
g20
((dp1634
I01
I1
sNI50
stRp1635
sg23
I2
sg24
F52
sbs(g513
S'contains(last)'
p1636
tp1637
g1
(g14
g3
NtRp1638
(dp1639
g17
F0.5
sg18
I53
sg19
g20
((dp1640
I01
I1
sNI52
stRp1641
sg23
I2
sg24
F54
sbs(S'LookAndShape'
S'contains(table)'
tp1642
g1
(g14
g3
NtRp1643
(dp1644
g17
F0.5
sg18
I53
sg19
g20
((dp1645
I01
I1
sNI52
stRp1646
sg23
I2
sg24
F54
sbs(g89
g983
tp1647
g1
(g14
g3
NtRp1648
(dp1649
g17
F0.5
sg18
I51
sg19
g20
((dp1650
I01
I1
sNI50
stRp1651
sg23
I2
sg24
F52
sbs(g9
g977
tp1652
g1
(g14
g3
NtRp1653
(dp1654
g17
F0.5
sg18
I53
sg19
g20
((dp1655
NI53
stRp1656
sg23
I2
sg24
F54
sbs(g1098
g680
tp1657
g1
(g14
g3
NtRp1658
(dp1659
g17
F0.5
sg18
I51
sg19
g20
((dp1660
I01
I1
sNI50
stRp1661
sg23
I2
sg24
F52
sbs(g1126
g1081
tp1662
g1
(g14
g3
NtRp1663
(dp1664
g17
F0.5
sg18
I53
sg19
g20
((dp1665
I01
I2
sNI51
stRp1666
sg23
I2
sg24
F54
sbs(g9
g97
tp1667
g1
(g14
g3
NtRp1668
(dp1669
g17
F0.5
sg18
I53
sg19
g20
((dp1670
NI53
stRp1671
sg23
I2
sg24
F54
sbs(S'Dimension'
g1269
tp1672
g1
(g14
g3
NtRp1673
(dp1674
g17
F0.5
sg18
I51
sg19
g20
((dp1675
I01
I1
sNI50
stRp1676
sg23
I2
sg24
F52
sbs(g1286
S'contains(bottle)'
p1677
tp1678
g1
(g14
g3
NtRp1679
(dp1680
g17
F0.5
sg18
I51
sg19
g20
((dp1681
I01
I1
sNI50
stRp1682
sg23
I2
sg24
F52
sbs(g9
S'contains(shoe)'
p1683
tp1684
g1
(g14
g3
NtRp1685
(dp1686
g17
F0.5
sg18
I53
sg19
g20
((dp1687
NI53
stRp1688
sg23
I2
sg24
F54
sbs(g717
g925
tp1689
g1
(g14
g3
NtRp1690
(dp1691
g17
F0.5
sg18
I51
sg19
g20
((dp1692
I01
I9
sNI42
stRp1693
sg23
I2
sg24
F52
sbs(g1432
g1025
tp1694
g1
(g14
g3
NtRp1695
(dp1696
g17
F0.5
sg18
I51
sg19
g20
((dp1697
I01
I1
sNI50
stRp1698
sg23
I2
sg24
F52
sbs(g1012
g645
tp1699
g1
(g14
g3
NtRp1700
(dp1701
g17
F0.5
sg18
I51
sg19
g20
((dp1702
I01
I1
sNI50
stRp1703
sg23
I2
sg24
F52
sbs(g9
g1013
tp1704
g1
(g14
g3
NtRp1705
(dp1706
g17
F0.5
sg18
I53
sg19
g20
((dp1707
NI53
stRp1708
sg23
I2
sg24
F54
sbs(g9
g77
tp1709
g1
(g14
g3
NtRp1710
(dp1711
g17
F0.5
sg18
I53
sg19
g20
((dp1712
NI53
stRp1713
sg23
I2
sg24
F54
sbs(g8
S'contains(sense)'
p1714
tp1715
g1
(g14
g3
NtRp1716
(dp1717
g17
F0.5
sg18
I51
sg19
g20
((dp1718
NI51
stRp1719
sg23
I2
sg24
F52
sbs(g8
g989
tp1720
g1
(g14
g3
NtRp1721
(dp1722
g17
F0.5
sg18
I51
sg19
g20
((dp1723
NI51
stRp1724
sg23
I2
sg24
F52
sbs(g1629
g1683
tp1725
g1
(g14
g3
NtRp1726
(dp1727
g17
F0.5
sg18
I51
sg19
g20
((dp1728
I01
I1
sNI50
stRp1729
sg23
I2
sg24
F52
sbs(g1432
g63
tp1730
g1
(g14
g3
NtRp1731
(dp1732
g17
F0.5
sg18
I51
sg19
g20
((dp1733
I01
I1
sNI50
stRp1734
sg23
I2
sg24
F52
sbs(g1554
g1374
tp1735
g1
(g14
g3
NtRp1736
(dp1737
g17
F0.5
sg18
I51
sg19
g20
((dp1738
I01
I1
sNI50
stRp1739
sg23
I2
sg24
F52
sbs(S'LookAndShape'
g948
tp1740
g1
(g14
g3
NtRp1741
(dp1742
g17
F0.5
sg18
I53
sg19
g20
((dp1743
I01
I1
sNI52
stRp1744
sg23
I2
sg24
F54
sbs(g1613
g1174
tp1745
g1
(g14
g3
NtRp1746
(dp1747
g17
F0.5
sg18
I51
sg19
g20
((dp1748
I01
I1
sNI50
stRp1749
sg23
I2
sg24
F52
sbs(g954
S'contains(earthquake)'
p1750
tp1751
g1
(g14
g3
NtRp1752
(dp1753
g17
F0.5
sg18
I51
sg19
g20
((dp1754
I01
I1
sNI50
stRp1755
sg23
I2
sg24
F52
sbs(g9
g1168
tp1756
g1
(g14
g3
NtRp1757
(dp1758
g17
F0.5
sg18
I53
sg19
g20
((dp1759
NI53
stRp1760
sg23
I2
sg24
F54
sbs(g9
S'contains(denmark)'
p1761
tp1762
g1
(g14
g3
NtRp1763
(dp1764
g17
F0.5
sg18
I53
sg19
g20
((dp1765
NI53
stRp1766
sg23
I2
sg24
F54
sbs(g9
g1157
tp1767
g1
(g14
g3
NtRp1768
(dp1769
g17
F0.5
sg18
I53
sg19
g20
((dp1770
NI53
stRp1771
sg23
I2
sg24
F54
sbs(g9
g919
tp1772
g1
(g14
g3
NtRp1773
(dp1774
g17
F0.5
sg18
I53
sg19
g20
((dp1775
NI53
stRp1776
sg23
I2
sg24
F54
sbs(g9
g1630
tp1777
g1
(g14
g3
NtRp1778
(dp1779
g17
F0.5
sg18
I53
sg19
g20
((dp1780
NI53
stRp1781
sg23
I2
sg24
F54
sbs(S'Dimension'
S'contains(bowl)'
p1782
tp1783
g1
(g14
g3
NtRp1784
(dp1785
g17
F0.5
sg18
I51
sg19
g20
((dp1786
I01
I1
sNI50
stRp1787
sg23
I2
sg24
F52
sbs(g717
g810
tp1788
g1
(g14
g3
NtRp1789
(dp1790
g17
F0.5
sg18
I51
sg19
g20
((dp1791
I01
I1
sNI50
stRp1792
sg23
I2
sg24
F52
sbs(S'LookAndShape'
g798
tp1793
g1
(g14
g3
NtRp1794
(dp1795
g17
F0.5
sg18
I53
sg19
g20
((dp1796
I01
I1
sNI52
stRp1797
sg23
I2
sg24
F54
sbs(g9
g379
tp1798
g1
(g14
g3
NtRp1799
(dp1800
g17
F0.5
sg18
I53
sg19
g20
((dp1801
NI53
stRp1802
sg23
I2
sg24
F54
sbs(g12
S'contains(an)'
tp1803
g1
(g14
g3
NtRp1804
(dp1805
g17
F0.5
sg18
I51
sg19
g20
((dp1806
I01
I3
sNI48
stRp1807
sg23
I2
sg24
F52
sbs(S'LookAndShape'
S'contains(man)'
p1808
tp1809
g1
(g14
g3
NtRp1810
(dp1811
g17
F0.5
sg18
I53
sg19
g20
((dp1812
I01
I1
sNI52
stRp1813
sg23
I2
sg24
F54
sbs(g9
g483
tp1814
g1
(g14
g3
NtRp1815
(dp1816
g17
F0.5
sg18
I53
sg19
g20
((dp1817
NI53
stRp1818
sg23
I2
sg24
F54
sbs(g8
g866
tp1819
g1
(g14
g3
NtRp1820
(dp1821
g17
F0.5
sg18
I51
sg19
g20
((dp1822
NI51
stRp1823
sg23
I2
sg24
F52
sbs(S'LookAndShape'
S'contains(plane)'
tp1824
g1
(g14
g3
NtRp1825
(dp1826
g17
F0.5
sg18
I53
sg19
g20
((dp1827
I01
I1
sNI52
stRp1828
sg23
I2
sg24
F54
sbs(g69
g507
tp1829
g1
(g14
g3
NtRp1830
(dp1831
g17
F0.5
sg18
I51
sg19
g20
((dp1832
I01
I1
sNI50
stRp1833
sg23
I2
sg24
F52
sbs(g8
g197
tp1834
g1
(g14
g3
NtRp1835
(dp1836
g17
F0.5
sg18
I51
sg19
g20
((dp1837
NI51
stRp1838
sg23
I2
sg24
F52
sbs(g936
g744
tp1839
g1
(g14
g3
NtRp1840
(dp1841
g17
F0.5
sg18
I51
sg19
g20
((dp1842
I01
I2
sNI49
stRp1843
sg23
I2
sg24
F52
sbs(g25
S'contains(does)'
tp1844
g1
(g14
g3
NtRp1845
(dp1846
g17
F0.5
sg18
I51
sg19
g20
((dp1847
I01
I1
sNI50
stRp1848
sg23
I2
sg24
F52
sbs(g9
g347
tp1849
g1
(g14
g3
NtRp1850
(dp1851
g17
F0.5
sg18
I53
sg19
g20
((dp1852
NI53
stRp1853
sg23
I2
sg24
F54
sbs(g8
g1808
tp1854
g1
(g14
g3
NtRp1855
(dp1856
g17
F0.5
sg18
I51
sg19
g20
((dp1857
NI51
stRp1858
sg23
I2
sg24
F52
sbs(S'LookAndShape'
S'contains(girl)'
p1859
tp1860
g1
(g14
g3
NtRp1861
(dp1862
g17
F0.5
sg18
I53
sg19
g20
((dp1863
I01
I1
sNI52
stRp1864
sg23
I2
sg24
F54
sbs(g9
g489
tp1865
g1
(g14
g3
NtRp1866
(dp1867
g17
F0.5
sg18
I53
sg19
g20
((dp1868
NI53
stRp1869
sg23
I2
sg24
F54
sbs(g513
g839
tp1870
g1
(g14
g3
NtRp1871
(dp1872
g17
F0.5
sg18
I53
sg19
g20
((dp1873
I01
I4
sNI49
stRp1874
sg23
I2
sg24
F54
sbs(g37
g699
tp1875
g1
(g14
g3
NtRp1876
(dp1877
g17
F0.5
sg18
I51
sg19
g20
((dp1878
I01
I1
sNI50
stRp1879
sg23
I2
sg24
F52
sbs(S'Dimension'
p1880
g1571
tp1881
g1
(g14
g3
NtRp1882
(dp1883
g17
F0.5
sg18
I51
sg19
g20
((dp1884
I01
I1
sNI50
stRp1885
sg23
I2
sg24
F52
sbs(g9
S'contains(trees)'
p1886
tp1887
g1
(g14
g3
NtRp1888
(dp1889
g17
F0.5
sg18
I53
sg19
g20
((dp1890
NI53
stRp1891
sg23
I2
sg24
F54
sbs(g8
g687
tp1892
g1
(g14
g3
NtRp1893
(dp1894
g17
F0.5
sg18
I51
sg19
g20
((dp1895
NI51
stRp1896
sg23
I2
sg24
F52
sbs(g1880
g1761
tp1897
g1
(g14
g3
NtRp1898
(dp1899
g17
F0.5
sg18
I51
sg19
g20
((dp1900
I01
I1
sNI50
stRp1901
sg23
I2
sg24
F52
sbs(g8
g1859
tp1902
g1
(g14
g3
NtRp1903
(dp1904
g17
F0.5
sg18
I51
sg19
g20
((dp1905
NI51
stRp1906
sg23
I2
sg24
F52
sbs(g9
g1750
tp1907
g1
(g14
g3
NtRp1908
(dp1909
g17
F0.5
sg18
I53
sg19
g20
((dp1910
NI53
stRp1911
sg23
I2
sg24
F54
sbs(g385
S'contains(london)'
p1912
tp1913
g1
(g14
g3
NtRp1914
(dp1915
g17
F0.5
sg18
I51
sg19
g20
((dp1916
I01
I1
sNI50
stRp1917
sg23
I2
sg24
F52
sbs(S'Dimension'
p1918
g454
tp1919
g1
(g14
g3
NtRp1920
(dp1921
g17
F0.5
sg18
I51
sg19
g20
((dp1922
I01
I3
sNI48
stRp1923
sg23
I2
sg24
F52
sbs(g8
g786
tp1924
g1
(g14
g3
NtRp1925
(dp1926
g17
F0.5
sg18
I51
sg19
g20
((dp1927
NI51
stRp1928
sg23
I2
sg24
F52
sbs(g9
g1506
tp1929
g1
(g14
g3
NtRp1930
(dp1931
g17
F0.5
sg18
I53
sg19
g20
((dp1932
NI53
stRp1933
sg23
I2
sg24
F54
sbs(g9
g1070
tp1934
g1
(g14
g3
NtRp1935
(dp1936
g17
F0.5
sg18
I53
sg19
g20
((dp1937
NI53
stRp1938
sg23
I2
sg24
F54
sbs(g245
S'contains(strike)'
p1939
tp1940
g1
(g14
g3
NtRp1941
(dp1942
g17
F0.5
sg18
I51
sg19
g20
((dp1943
I01
I1
sNI50
stRp1944
sg23
I2
sg24
F52
sbs(g9
g750
tp1945
g1
(g14
g3
NtRp1946
(dp1947
g17
F0.5
sg18
I53
sg19
g20
((dp1948
NI53
stRp1949
sg23
I2
sg24
F54
sbs(g9
g663
tp1950
g1
(g14
g3
NtRp1951
(dp1952
g17
F0.5
sg18
I53
sg19
g20
((dp1953
NI53
stRp1954
sg23
I2
sg24
F54
sbs(g1213
g738
tp1955
g1
(g14
g3
NtRp1956
(dp1957
g17
F0.5
sg18
I51
sg19
g20
((dp1958
I01
I3
sNI48
stRp1959
sg23
I2
sg24
F52
sbs(g8
g711
tp1960
g1
(g14
g3
NtRp1961
(dp1962
g17
F0.5
sg18
I51
sg19
g20
((dp1963
NI51
stRp1964
sg23
I2
sg24
F52
sbs(g9
g1019
tp1965
g1
(g14
g3
NtRp1966
(dp1967
g17
F0.5
sg18
I53
sg19
g20
((dp1968
NI53
stRp1969
sg23
I2
sg24
F54
sbs(g8
S'contains(afternoon)'
p1970
tp1971
g1
(g14
g3
NtRp1972
(dp1973
g17
F0.5
sg18
I51
sg19
g20
((dp1974
NI51
stRp1975
sg23
I2
sg24
F52
sbs(g8
g1500
tp1976
g1
(g14
g3
NtRp1977
(dp1978
g17
F0.5
sg18
I51
sg19
g20
((dp1979
I01
I5
sNI46
stRp1980
sg23
I2
sg24
F52
sbs(g1201
g595
tp1981
g1
(g14
g3
NtRp1982
(dp1983
g17
F0.5
sg18
I53
sg19
g20
((dp1984
I01
I7
sNI46
stRp1985
sg23
I2
sg24
F54
sbs(g569
g281
tp1986
g1
(g14
g3
NtRp1987
(dp1988
g17
F0.5
sg18
I53
sg19
g20
((dp1989
I01
I1
sNI52
stRp1990
sg23
I2
sg24
F54
sbs(g328
g465
tp1991
g1
(g14
g3
NtRp1992
(dp1993
g17
F0.5
sg18
I53
sg19
g20
((dp1994
I01
I5
sNI48
stRp1995
sg23
I2
sg24
F54
sbs(g172
S'contains(table)'
tp1996
g1
(g14
g3
NtRp1997
(dp1998
g17
F0.5
sg18
I51
sg19
g20
((dp1999
I01
I1
sNI50
stRp2000
sg23
I2
sg24
F52
sbs(g9
g906
tp2001
g1
(g14
g3
NtRp2002
(dp2003
g17
F0.5
sg18
I53
sg19
g20
((dp2004
NI53
stRp2005
sg23
I2
sg24
F54
sbs(g9
g557
tp2006
g1
(g14
g3
NtRp2007
(dp2008
g17
F0.5
sg18
I53
sg19
g20
((dp2009
NI53
stRp2010
sg23
I2
sg24
F54
sbs(g544
g632
tp2011
g1
(g14
g3
NtRp2012
(dp2013
g17
F0.5
sg18
I51
sg19
g20
((dp2014
I01
I1
sNI50
stRp2015
sg23
I2
sg24
F52
sbs(g717
g495
tp2016
g1
(g14
g3
NtRp2017
(dp2018
g17
F0.5
sg18
I51
sg19
g20
((dp2019
I01
I1
sNI50
stRp2020
sg23
I2
sg24
F52
sbs(g9
g1677
tp2021
g1
(g14
g3
NtRp2022
(dp2023
g17
F0.5
sg18
I53
sg19
g20
((dp2024
NI53
stRp2025
sg23
I2
sg24
F54
sbs(g8
S'contains(the)'
tp2026
g1
(g14
g3
NtRp2027
(dp2028
g17
F0.5
sg18
I51
sg19
g20
((dp2029
I01
I34
sNI17
stRp2030
sg23
I2
sg24
F52
sbs(g576
g526
tp2031
g1
(g14
g3
NtRp2032
(dp2033
g17
F0.5
sg18
I53
sg19
g20
((dp2034
I01
I1
sNI52
stRp2035
sg23
I2
sg24
F54
sbs(g9
g520
tp2036
g1
(g14
g3
NtRp2037
(dp2038
g17
F0.5
sg18
I53
sg19
g20
((dp2039
NI53
stRp2040
sg23
I2
sg24
F54
sbs(g8
g614
tp2041
g1
(g14
g3
NtRp2042
(dp2043
g17
F0.5
sg18
I51
sg19
g20
((dp2044
NI51
stRp2045
sg23
I2
sg24
F52
sbs(g8
S'contains(scissors)'
p2046
tp2047
g1
(g14
g3
NtRp2048
(dp2049
g17
F0.5
sg18
I51
sg19
g20
((dp2050
NI51
stRp2051
sg23
I2
sg24
F52
sbs(g9
g1939
tp2052
g1
(g14
g3
NtRp2053
(dp2054
g17
F0.5
sg18
I53
sg19
g20
((dp2055
NI53
stRp2056
sg23
I2
sg24
F54
sbs(g9
g221
tp2057
g1
(g14
g3
NtRp2058
(dp2059
g17
F0.5
sg18
I53
sg19
g20
((dp2060
NI53
stRp2061
sg23
I2
sg24
F54
sbs(g110
g471
tp2062
g1
(g14
g3
NtRp2063
(dp2064
g17
F0.5
sg18
I53
sg19
g20
((dp2065
I01
I1
sNI52
stRp2066
sg23
I2
sg24
F54
sbs(g954
g1263
tp2067
g1
(g14
g3
NtRp2068
(dp2069
g17
F0.5
sg18
I51
sg19
g20
((dp2070
I01
I2
sNI49
stRp2071
sg23
I2
sg24
F52
sbs(g9
g1348
tp2072
g1
(g14
g3
NtRp2073
(dp2074
g17
F0.5
sg18
I53
sg19
g20
((dp2075
I01
I33
sNI20
stRp2076
sg23
I2
sg24
F54
sbs(g8
g582
tp2077
g1
(g14
g3
NtRp2078
(dp2079
g17
F0.5
sg18
I51
sg19
g20
((dp2080
NI51
stRp2081
sg23
I2
sg24
F52
sbs(g184
g1332
tp2082
g1
(g14
g3
NtRp2083
(dp2084
g17
F0.5
sg18
I51
sg19
g20
((dp2085
I01
I1
sNI50
stRp2086
sg23
I2
sg24
F52
sbs(g1918
g1886
tp2087
g1
(g14
g3
NtRp2088
(dp2089
g17
F0.5
sg18
I51
sg19
g20
((dp2090
I01
I1
sNI50
stRp2091
sg23
I2
sg24
F52
sbs(g686
g1484
tp2092
g1
(g14
g3
NtRp2093
(dp2094
g17
F0.5
sg18
I53
sg19
g20
((dp2095
I01
I1
sNI52
stRp2096
sg23
I2
sg24
F54
sbs(S'LookAndShape'
g2046
tp2097
g1
(g14
g3
NtRp2098
(dp2099
g17
F0.5
sg18
I53
sg19
g20
((dp2100
I01
I2
sNI51
stRp2101
sg23
I2
sg24
F54
sbs(g8
g1636
tp2102
g1
(g14
g3
NtRp2103
(dp2104
g17
F0.5
sg18
I51
sg19
g20
((dp2105
NI51
stRp2106
sg23
I2
sg24
F52
sbs(g889
g1597
tp2107
g1
(g14
g3
NtRp2108
(dp2109
g17
F0.5
sg18
I51
sg19
g20
((dp2110
I01
I11
sNI40
stRp2111
sg23
I2
sg24
F52
sbs(g245
g1293
tp2112
g1
(g14
g3
NtRp2113
(dp2114
g17
F0.5
sg18
I51
sg19
g20
((dp2115
I01
I2
sNI49
stRp2116
sg23
I2
sg24
F52
sbs(S'LookAndShape'
g538
tp2117
g1
(g14
g3
NtRp2118
(dp2119
g17
F0.5
sg18
I53
sg19
g20
((dp2120
I01
I1
sNI52
stRp2121
sg23
I2
sg24
F54
sbs(g1251
g135
tp2122
g1
(g14
g3
NtRp2123
(dp2124
g17
F0.5
sg18
I53
sg19
g20
((dp2125
I01
I1
sNI52
stRp2126
sg23
I2
sg24
F54
sbs(g110
g1714
tp2127
g1
(g14
g3
NtRp2128
(dp2129
g17
F0.5
sg18
I53
sg19
g20
((dp2130
I01
I1
sNI52
stRp2131
sg23
I2
sg24
F54
sbs(S'Dimension'
g414
tp2132
g1
(g14
g3
NtRp2133
(dp2134
g17
F0.5
sg18
I51
sg19
g20
((dp2135
I01
I1
sNI50
stRp2136
sg23
I2
sg24
F52
sbs(g1126
g1970
tp2137
g1
(g14
g3
NtRp2138
(dp2139
g17
F0.5
sg18
I53
sg19
g20
((dp2140
I01
I1
sNI52
stRp2141
sg23
I2
sg24
F54
sbs(g1416
g1517
tp2142
g1
(g14
g3
NtRp2143
(dp2144
g17
F0.5
sg18
I53
sg19
g20
((dp2145
I01
I1
sNI52
stRp2146
sg23
I2
sg24
F54
sbs(g9
g1912
tp2147
g1
(g14
g3
NtRp2148
(dp2149
g17
F0.5
sg18
I53
sg19
g20
((dp2150
NI53
stRp2151
sg23
I2
sg24
F54
sbs(S'LookAndShape'
g1245
tp2152
g1
(g14
g3
NtRp2153
(dp2154
g17
F0.5
sg18
I53
sg19
g20
((dp2155
I01
I1
sNI52
stRp2156
sg23
I2
sg24
F54
sbs(g9
g1782
tp2157
g1
(g14
g3
NtRp2158
(dp2159
g17
F0.5
sg18
I53
sg19
g20
((dp2160
NI53
stRp2161
sg23
I2
sg24
F54
sbs(g8
g372
tp2162
g1
(g14
g3
NtRp2163
(dp2164
g17
F0.5
sg18
I51
sg19
g20
((dp2165
NI51
stRp2166
sg23
I2
sg24
F52
sbs(g576
g1565
tp2167
g1
(g14
g3
NtRp2168
(dp2169
g17
F0.5
sg18
I53
sg19
g20
((dp2170
I01
I1
sNI52
stRp2171
sg23
I2
sg24
F54
sbs(g1299
g693
tp2172
g1
(g14
g3
NtRp2173
(dp2174
g17
F0.5
sg18
I51
sg19
g20
((dp2175
I01
I1
sNI50
stRp2176
sg23
I2
sg24
F52
sbssS'_label_probdist'
p2177
g1
(g14
g3
NtRp2178
(dp2179
g17
F0.5
sg18
I104
sg19
g20
((dp2180
g8
I51
sg9
I53
stRp2181
sg23
I2
sg24
F105
sbsb.