ccopy_reg
_reconstructor
p1
(cnltk.classify.naivebayes
NaiveBayesClassifier
p2
c__builtin__
object
p3
NtRp4
(dp5
S'_labels'
p6
(lp7
S'Meaning'
p8
aS'Composition'
p9
aS'Abbreviation'
p10
asS'_feature_probdist'
p11
(dp12
(S'Composition'
S'contains(batteries)'
p13
tp14
g1
(cnltk.probability
ELEProbDist
p15
g3
NtRp16
(dp17
S'_gamma'
p18
F0.5
sS'_N'
p19
I28
sS'_freqdist'
p20
g1
(cnltk.probability
FreqDist
p21
c__builtin__
dict
p22
(dp23
NI27
sI01
I1
stRp24
(dp25
g19
I28
sS'_max_cache'
p26
NsS'_item_cache'
p27
NsS'_Nr_cache'
p28
NsbsS'_bins'
p29
I2
sS'_divisor'
p30
F29
sbs(S'Composition'
S'contains(snake)'
p31
tp32
g1
(g15
g3
NtRp33
(dp34
g18
F0.5
sg19
I28
sg20
g1
(g21
g22
(dp35
NI27
sI01
I1
stRp36
(dp37
g19
I28
sg26
Nsg27
Nsg28
Nsbsg29
I2
sg30
F29
sbs(g9
S'contains(s)'
p38
tp39
g1
(g15
g3
NtRp40
(dp41
g18
F0.5
sg19
I28
sg20
g1
(g21
g22
(dp42
NI28
stRp43
(dp44
g19
I28
sg26
Nsg27
Nsg28
Nsbsg29
I2
sg30
F29
sbs(S'Meaning'
p45
S'contains(are)'
tp46
g1
(g15
g3
NtRp47
(dp48
g18
F0.5
sg19
I62
sg20
g1
(g21
g22
(dp49
NI53
sI01
I9
stRp50
(dp51
g19
I62
sg26
Nsg27
Nsg28
Nsbsg29
I2
sg30
F63
sbs(S'Meaning'
S'contains(ground)'
p52
tp53
g1
(g15
g3
NtRp54
(dp55
g18
F0.5
sg19
I62
sg20
g1
(g21
g22
(dp56
NI61
sI01
I1
stRp57
(dp58
g19
I62
sg26
Nsg27
Nsg28
Nsbsg29
I2
sg30
F63
sbs(g9
S'contains(dogs)'
p59
tp60
g1
(g15
g3
NtRp61
(dp62
g18
F0.5
sg19
I28
sg20
g1
(g21
g22
(dp63
NI28
stRp64
(dp65
g19
I28
sg26
Nsg27
Nsg28
Nsbsg29
I2
sg30
F29
sbs(S'Composition'
S'contains(buses)'
p66
tp67
g1
(g15
g3
NtRp68
(dp69
g18
F0.5
sg19
I28
sg20
g1
(g21
g22
(dp70
NI26
sI01
I2
stRp71
(dp72
g19
I28
sg26
Nsg27
Nsg28
Nsbsg29
I2
sg30
F29
sbs(g10
S'contains(lockers)'
p73
tp74
g1
(g15
g3
NtRp75
(dp76
g18
F0.5
sg19
I18
sg20
g1
(g21
g22
(dp77
NI18
stRp78
(dp79
g19
I18
sg26
Nsg27
Nsg28
Nsbsg29
I2
sg30
F19
sbs(g8
S'contains(aids)'
p80
tp81
g1
(g15
g3
NtRp82
(dp83
g18
F0.5
sg19
I62
sg20
g1
(g21
g22
(dp84
NI62
stRp85
(dp86
g19
I62
sg26
Nsg27
Nsg28
Nsbsg29
I2
sg30
F63
sbs(S'Abbreviation'
p87
S'contains(motors)'
p88
tp89
g1
(g15
g3
NtRp90
(dp91
g18
F0.5
sg19
I18
sg20
g1
(g21
g22
(dp92
NI17
sI01
I1
stRp93
(dp94
g19
I18
sg26
Nsg27
Nsg28
Nsbsg29
I2
sg30
F19
sbs(g9
S'contains(stand)'
p95
tp96
g1
(g15
g3
NtRp97
(dp98
g18
F0.5
sg19
I28
sg20
g1
(g21
g22
(dp99
NI28
stRp100
(dp101
g19
I28
sg26
Nsg27
Nsg28
Nsbsg29
I2
sg30
F29
sbs(g8
S'contains(paper)'
p102
tp103
g1
(g15
g3
NtRp104
(dp105
g18
F0.5
sg19
I62
sg20
g1
(g21
g22
(dp106
NI62
stRp107
(dp108
g19
I62
sg26
Nsg27
Nsg28
Nsbsg29
I2
sg30
F63
sbs(g10
S'contains(bad)'
p109
tp110
g1
(g15
g3
NtRp111
(dp112
g18
F0.5
sg19
I18
sg20
g1
(g21
g22
(dp113
NI18
stRp114
(dp115
g19
I18
sg26
Nsg27
Nsg28
Nsbsg29
I2
sg30
F19
sbs(S'Abbreviation'
S'contains(bph)'
p116
tp117
g1
(g15
g3
NtRp118
(dp119
g18
F0.5
sg19
I18
sg20
g1
(g21
g22
(dp120
NI17
sI01
I1
stRp121
(dp122
g19
I18
sg26
Nsg27
Nsg28
Nsbsg29
I2
sg30
F19
sbs(g9
S'contains(war)'
p123
tp124
g1
(g15
g3
NtRp125
(dp126
g18
F0.5
sg19
I28
sg20
g1
(g21
g22
(dp127
NI28
stRp128
(dp129
g19
I28
sg26
Nsg27
Nsg28
Nsbsg29
I2
sg30
F29
sbs(g10
S'contains(ass)'
p130
tp131
g1
(g15
g3
NtRp132
(dp133
g18
F0.5
sg19
I18
sg20
g1
(g21
g22
(dp134
NI18
stRp135
(dp136
g19
I18
sg26
Nsg27
Nsg28
Nsbsg29
I2
sg30
F19
sbs(g8
S'contains(widow)'
p137
tp138
g1
(g15
g3
NtRp139
(dp140
g18
F0.5
sg19
I62
sg20
g1
(g21
g22
(dp141
NI62
stRp142
(dp143
g19
I62
sg26
Nsg27
Nsg28
Nsbsg29
I2
sg30
F63
sbs(g8
g66
tp144
g1
(g15
g3
NtRp145
(dp146
g18
F0.5
sg19
I62
sg20
g1
(g21
g22
(dp147
NI62
stRp148
(dp149
g19
I62
sg26
Nsg27
Nsg28
Nsbsg29
I2
sg30
F63
sbs(g9
g52
tp150
g1
(g15
g3
NtRp151
(dp152
g18
F0.5
sg19
I28
sg20
g1
(g21
g22
(dp153
NI28
stRp154
(dp155
g19
I28
sg26
Nsg27
Nsg28
Nsbsg29
I2
sg30
F29
sbs(g9
S'contains(an)'
p156
tp157
g1
(g15
g3
NtRp158
(dp159
g18
F0.5
sg19
I28
sg20
g1
(g21
g22
(dp160
NI28
stRp161
(dp162
g19
I28
sg26
Nsg27
Nsg28
Nsbsg29
I2
sg30
F29
sbs(g10
S'contains(dunkin)'
p163
tp164
g1
(g15
g3
NtRp165
(dp166
g18
F0.5
sg19
I18
sg20
g1
(g21
g22
(dp167
NI18
stRp168
(dp169
g19
I18
sg26
Nsg27
Nsg28
Nsbsg29
I2
sg30
F19
sbs(S'Composition'
S'contains(plastic)'
p170
tp171
g1
(g15
g3
NtRp172
(dp173
g18
F0.5
sg19
I28
sg20
g1
(g21
g22
(dp174
NI27
sI01
I1
stRp175
(dp176
g19
I28
sg26
Nsg27
Nsg28
Nsbsg29
I2
sg30
F29
sbs(S'Meaning'
S'contains(cars)'
p177
tp178
g1
(g15
g3
NtRp179
(dp180
g18
F0.5
sg19
I62
sg20
g1
(g21
g22
(dp181
NI61
sI01
I1
stRp182
(dp183
g19
I62
sg26
Nsg27
Nsg28
Nsbsg29
I2
sg30
F63
sbs(g9
S'contains(general)'
p184
tp185
g1
(g15
g3
NtRp186
(dp187
g18
F0.5
sg19
I28
sg20
g1
(g21
g22
(dp188
NI28
stRp189
(dp190
g19
I28
sg26
Nsg27
Nsg28
Nsbsg29
I2
sg30
F29
sbs(g10
S'contains(donuts)'
p191
tp192
g1
(g15
g3
NtRp193
(dp194
g18
F0.5
sg19
I18
sg20
g1
(g21
g22
(dp195
NI18
stRp196
(dp197
g19
I18
sg26
Nsg27
Nsg28
Nsbsg29
I2
sg30
F19
sbs(S'Meaning'
S'contains(wtf)'
p198
tp199
g1
(g15
g3
NtRp200
(dp201
g18
F0.5
sg19
I62
sg20
g1
(g21
g22
(dp202
NI61
sI01
I1
stRp203
(dp204
g19
I62
sg26
Nsg27
Nsg28
Nsbsg29
I2
sg30
F63
sbs(g8
S'contains(eenty)'
p205
tp206
g1
(g15
g3
NtRp207
(dp208
g18
F0.5
sg19
I62
sg20
g1
(g21
g22
(dp209
NI62
stRp210
(dp211
g19
I62
sg26
Nsg27
Nsg28
Nsbsg29
I2
sg30
F63
sbs(S'Composition'
p212
S'contains(my)'
p213
tp214
g1
(g15
g3
NtRp215
(dp216
g18
F0.5
sg19
I28
sg20
g1
(g21
g22
(dp217
NI27
sI01
I1
stRp218
(dp219
g19
I28
sg26
Nsg27
Nsg28
Nsbsg29
I2
sg30
F29
sbs(g9
S'contains(micro)'
p220
tp221
g1
(g15
g3
NtRp222
(dp223
g18
F0.5
sg19
I28
sg20
g1
(g21
g22
(dp224
NI28
stRp225
(dp226
g19
I28
sg26
Nsg27
Nsg28
Nsbsg29
I2
sg30
F29
sbs(S'Abbreviation'
p227
S'contains(m)'
p228
tp229
g1
(g15
g3
NtRp230
(dp231
g18
F0.5
sg19
I18
sg20
g1
(g21
g22
(dp232
NI17
sI01
I1
stRp233
(dp234
g19
I18
sg26
Nsg27
Nsg28
Nsbsg29
I2
sg30
F19
sbs(g9
S'contains(meaning)'
p235
tp236
g1
(g15
g3
NtRp237
(dp238
g18
F0.5
sg19
I28
sg20
g1
(g21
g22
(dp239
NI28
stRp240
(dp241
g19
I28
sg26
Nsg27
Nsg28
Nsbsg29
I2
sg30
F29
sbs(S'Composition'
S'contains(b)'
p242
tp243
g1
(g15
g3
NtRp244
(dp245
g18
F0.5
sg19
I28
sg20
g1
(g21
g22
(dp246
NI27
sI01
I1
stRp247
(dp248
g19
I28
sg26
Nsg27
Nsg28
Nsbsg29
I2
sg30
F29
sbs(S'Composition'
S'contains(bicycles)'
p249
tp250
g1
(g15
g3
NtRp251
(dp252
g18
F0.5
sg19
I28
sg20
g1
(g21
g22
(dp253
NI27
sI01
I1
stRp254
(dp255
g19
I28
sg26
Nsg27
Nsg28
Nsbsg29
I2
sg30
F29
sbs(g9
S'contains(o)'
p256
tp257
g1
(g15
g3
NtRp258
(dp259
g18
F0.5
sg19
I28
sg20
g1
(g21
g22
(dp260
NI28
stRp261
(dp262
g19
I28
sg26
Nsg27
Nsg28
Nsbsg29
I2
sg30
F29
sbs(S'Meaning'
S'contains(rock)'
p263
tp264
g1
(g15
g3
NtRp265
(dp266
g18
F0.5
sg19
I62
sg20
g1
(g21
g22
(dp267
NI61
sI01
I1
stRp268
(dp269
g19
I62
sg26
Nsg27
Nsg28
Nsbsg29
I2
sg30
F63
sbs(g9
g177
tp270
g1
(g15
g3
NtRp271
(dp272
g18
F0.5
sg19
I28
sg20
g1
(g21
g22
(dp273
NI28
stRp274
(dp275
g19
I28
sg26
Nsg27
Nsg28
Nsbsg29
I2
sg30
F29
sbs(g9
S'contains(for)'
p276
tp277
g1
(g15
g3
NtRp278
(dp279
g18
F0.5
sg19
I28
sg20
g1
(g21
g22
(dp280
NI28
stRp281
(dp282
g19
I28
sg26
Nsg27
Nsg28
Nsbsg29
I2
sg30
F29
sbs(g10
S'contains(purse)'
p283
tp284
g1
(g15
g3
NtRp285
(dp286
g18
F0.5
sg19
I18
sg20
g1
(g21
g22
(dp287
NI18
stRp288
(dp289
g19
I18
sg26
Nsg27
Nsg28
Nsbsg29
I2
sg30
F19
sbs(S'Abbreviation'
p290
S'contains(word)'
tp291
g1
(g15
g3
NtRp292
(dp293
g18
F0.5
sg19
I18
sg20
g1
(g21
g22
(dp294
NI17
sI01
I1
stRp295
(dp296
g19
I18
sg26
Nsg27
Nsg28
Nsbsg29
I2
sg30
F19
sbs(S'Abbreviation'
p297
S'contains(cross)'
p298
tp299
g1
(g15
g3
NtRp300
(dp301
g18
F0.5
sg19
I18
sg20
g1
(g21
g22
(dp302
NI17
sI01
I1
stRp303
(dp304
g19
I18
sg26
Nsg27
Nsg28
Nsbsg29
I2
sg30
F19
sbs(g9
S'contains(girl)'
p305
tp306
g1
(g15
g3
NtRp307
(dp308
g18
F0.5
sg19
I28
sg20
g1
(g21
g22
(dp309
NI28
stRp310
(dp311
g19
I28
sg26
Nsg27
Nsg28
Nsbsg29
I2
sg30
F29
sbs(S'Abbreviation'
p312
S'contains(surnames)'
p313
tp314
g1
(g15
g3
NtRp315
(dp316
g18
F0.5
sg19
I18
sg20
g1
(g21
g22
(dp317
NI17
sI01
I1
stRp318
(dp319
g19
I18
sg26
Nsg27
Nsg28
Nsbsg29
I2
sg30
F19
sbs(g9
S'contains(name)'
p320
tp321
g1
(g15
g3
NtRp322
(dp323
g18
F0.5
sg19
I28
sg20
g1
(g21
g22
(dp324
NI28
stRp325
(dp326
g19
I28
sg26
Nsg27
Nsg28
Nsbsg29
I2
sg30
F29
sbs(g10
S'contains(hog)'
p327
tp328
g1
(g15
g3
NtRp329
(dp330
g18
F0.5
sg19
I18
sg20
g1
(g21
g22
(dp331
NI18
stRp332
(dp333
g19
I18
sg26
Nsg27
Nsg28
Nsbsg29
I2
sg30
F19
sbs(S'Abbreviation'
S'contains(sids)'
p334
tp335
g1
(g15
g3
NtRp336
(dp337
g18
F0.5
sg19
I18
sg20
g1
(g21
g22
(dp338
NI17
sI01
I1
stRp339
(dp340
g19
I18
sg26
Nsg27
Nsg28
Nsbsg29
I2
sg30
F19
sbs(g10
S'contains(is)'
tp341
g1
(g15
g3
NtRp342
(dp343
g18
F0.5
sg19
I18
sg20
g1
(g21
g22
(dp344
NI11
sI01
I7
stRp345
(dp346
g19
I18
sg26
Nsg27
Nsg28
Nsbsg29
I2
sg30
F19
sbs(g8
g276
tp347
g1
(g15
g3
NtRp348
(dp349
g18
F0.5
sg19
I62
sg20
g1
(g21
g22
(dp350
NI62
stRp351
(dp352
g19
I62
sg26
Nsg27
Nsg28
Nsbsg29
I2
sg30
F63
sbs(g10
S'contains(planets)'
p353
tp354
g1
(g15
g3
NtRp355
(dp356
g18
F0.5
sg19
I18
sg20
g1
(g21
g22
(dp357
NI18
stRp358
(dp359
g19
I18
sg26
Nsg27
Nsg28
Nsbsg29
I2
sg30
F19
sbs(g10
g177
tp360
g1
(g15
g3
NtRp361
(dp362
g18
F0.5
sg19
I18
sg20
g1
(g21
g22
(dp363
NI18
stRp364
(dp365
g19
I18
sg26
Nsg27
Nsg28
Nsbsg29
I2
sg30
F19
sbs(g9
S'contains(stupid)'
p366
tp367
g1
(g15
g3
NtRp368
(dp369
g18
F0.5
sg19
I28
sg20
g1
(g21
g22
(dp370
NI28
stRp371
(dp372
g19
I28
sg26
Nsg27
Nsg28
Nsbsg29
I2
sg30
F29
sbs(S'Meaning'
S'contains(player)'
p373
tp374
g1
(g15
g3
NtRp375
(dp376
g18
F0.5
sg19
I62
sg20
g1
(g21
g22
(dp377
NI61
sI01
I1
stRp378
(dp379
g19
I62
sg26
Nsg27
Nsg28
Nsbsg29
I2
sg30
F63
sbs(g9
S'contains(in)'
p380
tp381
g1
(g15
g3
NtRp382
(dp383
g18
F0.5
sg19
I28
sg20
g1
(g21
g22
(dp384
NI28
stRp385
(dp386
g19
I28
sg26
Nsg27
Nsg28
Nsbsg29
I2
sg30
F29
sbs(g9
S'contains(signs)'
p387
tp388
g1
(g15
g3
NtRp389
(dp390
g18
F0.5
sg19
I28
sg20
g1
(g21
g22
(dp391
NI28
stRp392
(dp393
g19
I28
sg26
Nsg27
Nsg28
Nsbsg29
I2
sg30
F29
sbs(g9
S'contains(full)'
p394
tp395
g1
(g15
g3
NtRp396
(dp397
g18
F0.5
sg19
I28
sg20
g1
(g21
g22
(dp398
NI28
stRp399
(dp400
g19
I28
sg26
Nsg27
Nsg28
Nsbsg29
I2
sg30
F29
sbs(g9
g313
tp401
g1
(g15
g3
NtRp402
(dp403
g18
F0.5
sg19
I28
sg20
g1
(g21
g22
(dp404
NI28
stRp405
(dp406
g19
I28
sg26
Nsg27
Nsg28
Nsbsg29
I2
sg30
F29
sbs(S'Meaning'
S'contains(eye)'
p407
tp408
g1
(g15
g3
NtRp409
(dp410
g18
F0.5
sg19
I62
sg20
g1
(g21
g22
(dp411
NI61
sI01
I1
stRp412
(dp413
g19
I62
sg26
Nsg27
Nsg28
Nsbsg29
I2
sg30
F63
sbs(g8
g394
tp414
g1
(g15
g3
NtRp415
(dp416
g18
F0.5
sg19
I62
sg20
g1
(g21
g22
(dp417
NI62
stRp418
(dp419
g19
I62
sg26
Nsg27
Nsg28
Nsbsg29
I2
sg30
F63
sbs(g8
S'contains(cloud)'
p420
tp421
g1
(g15
g3
NtRp422
(dp423
g18
F0.5
sg19
I62
sg20
g1
(g21
g22
(dp424
NI62
stRp425
(dp426
g19
I62
sg26
Nsg27
Nsg28
Nsbsg29
I2
sg30
F63
sbs(g8
S'contains(locks)'
p427
tp428
g1
(g15
g3
NtRp429
(dp430
g18
F0.5
sg19
I62
sg20
g1
(g21
g22
(dp431
NI62
stRp432
(dp433
g19
I62
sg26
Nsg27
Nsg28
Nsbsg29
I2
sg30
F63
sbs(g10
S'contains(window)'
p434
tp435
g1
(g15
g3
NtRp436
(dp437
g18
F0.5
sg19
I18
sg20
g1
(g21
g22
(dp438
NI18
stRp439
(dp440
g19
I18
sg26
Nsg27
Nsg28
Nsbsg29
I2
sg30
F19
sbs(g8
S'contains(investigation)'
p441
tp442
g1
(g15
g3
NtRp443
(dp444
g18
F0.5
sg19
I62
sg20
g1
(g21
g22
(dp445
NI62
stRp446
(dp447
g19
I62
sg26
Nsg27
Nsg28
Nsbsg29
I2
sg30
F63
sbs(g10
S'contains(chairs)'
p448
tp449
g1
(g15
g3
NtRp450
(dp451
g18
F0.5
sg19
I18
sg20
g1
(g21
g22
(dp452
NI18
stRp453
(dp454
g19
I18
sg26
Nsg27
Nsg28
Nsbsg29
I2
sg30
F19
sbs(g9
S'contains(animal)'
p455
tp456
g1
(g15
g3
NtRp457
(dp458
g18
F0.5
sg19
I28
sg20
g1
(g21
g22
(dp459
NI28
stRp460
(dp461
g19
I28
sg26
Nsg27
Nsg28
Nsbsg29
I2
sg30
F29
sbs(g8
g380
tp462
g1
(g15
g3
NtRp463
(dp464
g18
F0.5
sg19
I62
sg20
g1
(g21
g22
(dp465
NI62
stRp466
(dp467
g19
I62
sg26
Nsg27
Nsg28
Nsbsg29
I2
sg30
F63
sbs(g8
S'contains(nasdaq)'
p468
tp469
g1
(g15
g3
NtRp470
(dp471
g18
F0.5
sg19
I62
sg20
g1
(g21
g22
(dp472
NI62
stRp473
(dp474
g19
I62
sg26
Nsg27
Nsg28
Nsbsg29
I2
sg30
F63
sbs(g10
g52
tp475
g1
(g15
g3
NtRp476
(dp477
g18
F0.5
sg19
I18
sg20
g1
(g21
g22
(dp478
NI18
stRp479
(dp480
g19
I18
sg26
Nsg27
Nsg28
Nsbsg29
I2
sg30
F19
sbs(g9
g407
tp481
g1
(g15
g3
NtRp482
(dp483
g18
F0.5
sg19
I28
sg20
g1
(g21
g22
(dp484
NI28
stRp485
(dp486
g19
I28
sg26
Nsg27
Nsg28
Nsbsg29
I2
sg30
F29
sbs(g10
S'contains(ant)'
p487
tp488
g1
(g15
g3
NtRp489
(dp490
g18
F0.5
sg19
I18
sg20
g1
(g21
g22
(dp491
NI18
stRp492
(dp493
g19
I18
sg26
Nsg27
Nsg28
Nsbsg29
I2
sg30
F19
sbs(g9
S'contains(mean)'
p494
tp495
g1
(g15
g3
NtRp496
(dp497
g18
F0.5
sg19
I28
sg20
g1
(g21
g22
(dp498
NI28
stRp499
(dp500
g19
I28
sg26
Nsg27
Nsg28
Nsbsg29
I2
sg30
F29
sbs(S'Abbreviation'
p501
S'contains(national)'
p502
tp503
g1
(g15
g3
NtRp504
(dp505
g18
F0.5
sg19
I18
sg20
g1
(g21
g22
(dp506
NI17
sI01
I1
stRp507
(dp508
g19
I18
sg26
Nsg27
Nsg28
Nsbsg29
I2
sg30
F19
sbs(S'Composition'
g73
tp509
g1
(g15
g3
NtRp510
(dp511
g18
F0.5
sg19
I28
sg20
g1
(g21
g22
(dp512
NI27
sI01
I1
stRp513
(dp514
g19
I28
sg26
Nsg27
Nsg28
Nsbsg29
I2
sg30
F29
sbs(g9
S'contains(selfish)'
p515
tp516
g1
(g15
g3
NtRp517
(dp518
g18
F0.5
sg19
I28
sg20
g1
(g21
g22
(dp519
NI28
stRp520
(dp521
g19
I28
sg26
Nsg27
Nsg28
Nsbsg29
I2
sg30
F29
sbs(S'Composition'
p522
S'contains(the)'
tp523
g1
(g15
g3
NtRp524
(dp525
g18
F0.5
sg19
I28
sg20
g1
(g21
g22
(dp526
NI22
sI01
I6
stRp527
(dp528
g19
I28
sg26
Nsg27
Nsg28
Nsbsg29
I2
sg30
F29
sbs(S'Composition'
S'contains(metal)'
p529
tp530
g1
(g15
g3
NtRp531
(dp532
g18
F0.5
sg19
I28
sg20
g1
(g21
g22
(dp533
NI27
sI01
I1
stRp534
(dp535
g19
I28
sg26
Nsg27
Nsg28
Nsbsg29
I2
sg30
F29
sbs(g10
g13
tp536
g1
(g15
g3
NtRp537
(dp538
g18
F0.5
sg19
I18
sg20
g1
(g21
g22
(dp539
NI18
stRp540
(dp541
g19
I18
sg26
Nsg27
Nsg28
Nsbsg29
I2
sg30
F19
sbs(g10
g198
tp542
g1
(g15
g3
NtRp543
(dp544
g18
F0.5
sg19
I18
sg20
g1
(g21
g22
(dp545
NI18
stRp546
(dp547
g19
I18
sg26
Nsg27
Nsg28
Nsbsg29
I2
sg30
F19
sbs(g8
S'contains(g)'
p548
tp549
g1
(g15
g3
NtRp550
(dp551
g18
F0.5
sg19
I62
sg20
g1
(g21
g22
(dp552
NI62
stRp553
(dp554
g19
I62
sg26
Nsg27
Nsg28
Nsbsg29
I2
sg30
F63
sbs(g10
S'contains(juice)'
p555
tp556
g1
(g15
g3
NtRp557
(dp558
g18
F0.5
sg19
I18
sg20
g1
(g21
g22
(dp559
NI18
stRp560
(dp561
g19
I18
sg26
Nsg27
Nsg28
Nsbsg29
I2
sg30
F19
sbs(S'Abbreviation'
p562
g95
tp563
g1
(g15
g3
NtRp564
(dp565
g18
F0.5
sg19
I18
sg20
g1
(g21
g22
(dp566
NI9
sI01
I9
stRp567
(dp568
g19
I18
sg26
Nsg27
Nsg28
Nsbsg29
I2
sg30
F19
sbs(g9
S'contains(happy)'
p569
tp570
g1
(g15
g3
NtRp571
(dp572
g18
F0.5
sg19
I28
sg20
g1
(g21
g22
(dp573
NI28
stRp574
(dp575
g19
I28
sg26
Nsg27
Nsg28
Nsbsg29
I2
sg30
F29
sbs(S'Composition'
p576
S'contains(a)'
tp577
g1
(g15
g3
NtRp578
(dp579
g18
F0.5
sg19
I28
sg20
g1
(g21
g22
(dp580
NI21
sI01
I7
stRp581
(dp582
g19
I28
sg26
Nsg27
Nsg28
Nsbsg29
I2
sg30
F29
sbs(g10
S'contains(trees)'
p583
tp584
g1
(g15
g3
NtRp585
(dp586
g18
F0.5
sg19
I18
sg20
g1
(g21
g22
(dp587
NI18
stRp588
(dp589
g19
I18
sg26
Nsg27
Nsg28
Nsbsg29
I2
sg30
F19
sbs(g10
S'contains(plug)'
p590
tp591
g1
(g15
g3
NtRp592
(dp593
g18
F0.5
sg19
I18
sg20
g1
(g21
g22
(dp594
NI18
stRp595
(dp596
g19
I18
sg26
Nsg27
Nsg28
Nsbsg29
I2
sg30
F19
sbs(g10
S'contains(milk)'
p597
tp598
g1
(g15
g3
NtRp599
(dp600
g18
F0.5
sg19
I18
sg20
g1
(g21
g22
(dp601
NI18
stRp602
(dp603
g19
I18
sg26
Nsg27
Nsg28
Nsbsg29
I2
sg30
F19
sbs(g8
S'contains(?)'
tp604
g1
(g15
g3
NtRp605
(dp606
g18
F0.5
sg19
I62
sg20
g1
(g21
g22
(dp607
I01
I62
stRp608
(dp609
g19
I62
sg26
Nsg27
Nsg28
Nsbsg29
I2
sg30
F63
sbs(S'Abbreviation'
g468
tp610
g1
(g15
g3
NtRp611
(dp612
g18
F0.5
sg19
I18
sg20
g1
(g21
g22
(dp613
NI17
sI01
I1
stRp614
(dp615
g19
I18
sg26
Nsg27
Nsg28
Nsbsg29
I2
sg30
F19
sbs(g9
g205
tp616
g1
(g15
g3
NtRp617
(dp618
g18
F0.5
sg19
I28
sg20
g1
(g21
g22
(dp619
NI28
stRp620
(dp621
g19
I28
sg26
Nsg27
Nsg28
Nsbsg29
I2
sg30
F29
sbs(S'Composition'
g427
tp622
g1
(g15
g3
NtRp623
(dp624
g18
F0.5
sg19
I28
sg20
g1
(g21
g22
(dp625
NI27
sI01
I1
stRp626
(dp627
g19
I28
sg26
Nsg27
Nsg28
Nsbsg29
I2
sg30
F29
sbs(S'Meaning'
p628
S'contains(of)'
tp629
g1
(g15
g3
NtRp630
(dp631
g18
F0.5
sg19
I62
sg20
g1
(g21
g22
(dp632
NI47
sI01
I15
stRp633
(dp634
g19
I62
sg26
Nsg27
Nsg28
Nsbsg29
I2
sg30
F63
sbs(g8
g88
tp635
g1
(g15
g3
NtRp636
(dp637
g18
F0.5
sg19
I62
sg20
g1
(g21
g22
(dp638
NI62
stRp639
(dp640
g19
I62
sg26
Nsg27
Nsg28
Nsbsg29
I2
sg30
F63
sbs(S'Meaning'
g455
tp641
g1
(g15
g3
NtRp642
(dp643
g18
F0.5
sg19
I62
sg20
g1
(g21
g22
(dp644
NI61
sI01
I1
stRp645
(dp646
g19
I62
sg26
Nsg27
Nsg28
Nsbsg29
I2
sg30
F63
sbs(g9
S'contains(abbreviation)'
p647
tp648
g1
(g15
g3
NtRp649
(dp650
g18
F0.5
sg19
I28
sg20
g1
(g21
g22
(dp651
NI28
stRp652
(dp653
g19
I28
sg26
Nsg27
Nsg28
Nsbsg29
I2
sg30
F29
sbs(g9
S'contains(mad)'
p654
tp655
g1
(g15
g3
NtRp656
(dp657
g18
F0.5
sg19
I28
sg20
g1
(g21
g22
(dp658
NI28
stRp659
(dp660
g19
I28
sg26
Nsg27
Nsg28
Nsbsg29
I2
sg30
F29
sbs(S'Meaning'
S'contains(thief)'
p661
tp662
g1
(g15
g3
NtRp663
(dp664
g18
F0.5
sg19
I62
sg20
g1
(g21
g22
(dp665
NI61
sI01
I1
stRp666
(dp667
g19
I62
sg26
Nsg27
Nsg28
Nsbsg29
I2
sg30
F63
sbs(g9
S'contains(duck)'
p668
tp669
g1
(g15
g3
NtRp670
(dp671
g18
F0.5
sg19
I28
sg20
g1
(g21
g22
(dp672
NI28
stRp673
(dp674
g19
I28
sg26
Nsg27
Nsg28
Nsbsg29
I2
sg30
F29
sbs(g9
S'contains(slut)'
p675
tp676
g1
(g15
g3
NtRp677
(dp678
g18
F0.5
sg19
I28
sg20
g1
(g21
g22
(dp679
NI28
stRp680
(dp681
g19
I28
sg26
Nsg27
Nsg28
Nsbsg29
I2
sg30
F29
sbs(g8
S'contains(cnn)'
p682
tp683
g1
(g15
g3
NtRp684
(dp685
g18
F0.5
sg19
I62
sg20
g1
(g21
g22
(dp686
NI62
stRp687
(dp688
g19
I62
sg26
Nsg27
Nsg28
Nsbsg29
I2
sg30
F63
sbs(S'Abbreviation'
p689
S'contains(classified)'
p690
tp691
g1
(g15
g3
NtRp692
(dp693
g18
F0.5
sg19
I18
sg20
g1
(g21
g22
(dp694
NI17
sI01
I1
stRp695
(dp696
g19
I18
sg26
Nsg27
Nsg28
Nsbsg29
I2
sg30
F19
sbs(S'Meaning'
S'contains(miscellaneous)'
p697
tp698
g1
(g15
g3
NtRp699
(dp700
g18
F0.5
sg19
I62
sg20
g1
(g21
g22
(dp701
NI61
sI01
I1
stRp702
(dp703
g19
I62
sg26
Nsg27
Nsg28
Nsbsg29
I2
sg30
F63
sbs(g8
S'contains(sun)'
p704
tp705
g1
(g15
g3
NtRp706
(dp707
g18
F0.5
sg19
I62
sg20
g1
(g21
g22
(dp708
NI62
stRp709
(dp710
g19
I62
sg26
Nsg27
Nsg28
Nsbsg29
I2
sg30
F63
sbs(g9
S'contains(starbucks)'
p711
tp712
g1
(g15
g3
NtRp713
(dp714
g18
F0.5
sg19
I28
sg20
g1
(g21
g22
(dp715
NI28
stRp716
(dp717
g19
I28
sg26
Nsg27
Nsg28
Nsbsg29
I2
sg30
F29
sbs(g501
S'contains(expression)'
p718
tp719
g1
(g15
g3
NtRp720
(dp721
g18
F0.5
sg19
I18
sg20
g1
(g21
g22
(dp722
NI17
sI01
I1
stRp723
(dp724
g19
I18
sg26
Nsg27
Nsg28
Nsbsg29
I2
sg30
F19
sbs(g9
S"contains(what's)"
p725
tp726
g1
(g15
g3
NtRp727
(dp728
g18
F0.5
sg19
I28
sg20
g1
(g21
g22
(dp729
NI28
stRp730
(dp731
g19
I28
sg26
Nsg27
Nsg28
Nsbsg29
I2
sg30
F29
sbs(g10
g668
tp732
g1
(g15
g3
NtRp733
(dp734
g18
F0.5
sg19
I18
sg20
g1
(g21
g22
(dp735
NI18
stRp736
(dp737
g19
I18
sg26
Nsg27
Nsg28
Nsbsg29
I2
sg30
F19
sbs(g9
S'contains(car)'
p738
tp739
g1
(g15
g3
NtRp740
(dp741
g18
F0.5
sg19
I28
sg20
g1
(g21
g22
(dp742
NI28
stRp743
(dp744
g19
I28
sg26
Nsg27
Nsg28
Nsbsg29
I2
sg30
F29
sbs(S'Composition'
g448
tp745
g1
(g15
g3
NtRp746
(dp747
g18
F0.5
sg19
I28
sg20
g1
(g21
g22
(dp748
NI27
sI01
I1
stRp749
(dp750
g19
I28
sg26
Nsg27
Nsg28
Nsbsg29
I2
sg30
F29
sbs(S'Meaning'
p751
S'contains(clever)'
p752
tp753
g1
(g15
g3
NtRp754
(dp755
g18
F0.5
sg19
I62
sg20
g1
(g21
g22
(dp756
NI61
sI01
I1
stRp757
(dp758
g19
I62
sg26
Nsg27
Nsg28
Nsbsg29
I2
sg30
F63
sbs(S'Meaning'
S'contains(booger)'
p759
tp760
g1
(g15
g3
NtRp761
(dp762
g18
F0.5
sg19
I62
sg20
g1
(g21
g22
(dp763
NI61
sI01
I1
stRp764
(dp765
g19
I62
sg26
Nsg27
Nsg28
Nsbsg29
I2
sg30
F63
sbs(g312
S'contains(prefix)'
p766
tp767
g1
(g15
g3
NtRp768
(dp769
g18
F0.5
sg19
I18
sg20
g1
(g21
g22
(dp770
NI17
sI01
I1
stRp771
(dp772
g19
I18
sg26
Nsg27
Nsg28
Nsbsg29
I2
sg30
F19
sbs(g10
g725
tp773
g1
(g15
g3
NtRp774
(dp775
g18
F0.5
sg19
I18
sg20
g1
(g21
g22
(dp776
NI18
stRp777
(dp778
g19
I18
sg26
Nsg27
Nsg28
Nsbsg29
I2
sg30
F19
sbs(g10
S'contains(cloak)'
p779
tp780
g1
(g15
g3
NtRp781
(dp782
g18
F0.5
sg19
I18
sg20
g1
(g21
g22
(dp783
NI18
stRp784
(dp785
g19
I18
sg26
Nsg27
Nsg28
Nsbsg29
I2
sg30
F19
sbs(g8
S'contains(inri)'
p786
tp787
g1
(g15
g3
NtRp788
(dp789
g18
F0.5
sg19
I62
sg20
g1
(g21
g22
(dp790
NI62
stRp791
(dp792
g19
I62
sg26
Nsg27
Nsg28
Nsbsg29
I2
sg30
F63
sbs(g501
g441
tp793
g1
(g15
g3
NtRp794
(dp795
g18
F0.5
sg19
I18
sg20
g1
(g21
g22
(dp796
NI17
sI01
I1
stRp797
(dp798
g19
I18
sg26
Nsg27
Nsg28
Nsbsg29
I2
sg30
F19
sbs(S'Meaning'
p799
S'contains(a)'
tp800
g1
(g15
g3
NtRp801
(dp802
g18
F0.5
sg19
I62
sg20
g1
(g21
g22
(dp803
NI49
sI01
I13
stRp804
(dp805
g19
I62
sg26
Nsg27
Nsg28
Nsbsg29
I2
sg30
F63
sbs(g10
g427
tp806
g1
(g15
g3
NtRp807
(dp808
g18
F0.5
sg19
I18
sg20
g1
(g21
g22
(dp809
NI18
stRp810
(dp811
g19
I18
sg26
Nsg27
Nsg28
Nsbsg29
I2
sg30
F19
sbs(g297
S'contains(used)'
p812
tp813
g1
(g15
g3
NtRp814
(dp815
g18
F0.5
sg19
I18
sg20
g1
(g21
g22
(dp816
NI16
sI01
I2
stRp817
(dp818
g19
I18
sg26
Nsg27
Nsg28
Nsbsg29
I2
sg30
F19
sbs(g10
g394
tp819
g1
(g15
g3
NtRp820
(dp821
g18
F0.5
sg19
I18
sg20
g1
(g21
g22
(dp822
NI16
sI01
I2
stRp823
(dp824
g19
I18
sg26
Nsg27
Nsg28
Nsbsg29
I2
sg30
F19
sbs(g10
S'contains(bag)'
p825
tp826
g1
(g15
g3
NtRp827
(dp828
g18
F0.5
sg19
I18
sg20
g1
(g21
g22
(dp829
NI18
stRp830
(dp831
g19
I18
sg26
Nsg27
Nsg28
Nsbsg29
I2
sg30
F19
sbs(g10
S'contains(zapping)'
p832
tp833
g1
(g15
g3
NtRp834
(dp835
g18
F0.5
sg19
I18
sg20
g1
(g21
g22
(dp836
NI18
stRp837
(dp838
g19
I18
sg26
Nsg27
Nsg28
Nsbsg29
I2
sg30
F19
sbs(g9
S'contains(t)'
p839
tp840
g1
(g15
g3
NtRp841
(dp842
g18
F0.5
sg19
I28
sg20
g1
(g21
g22
(dp843
NI28
stRp844
(dp845
g19
I28
sg26
Nsg27
Nsg28
Nsbsg29
I2
sg30
F29
sbs(g8
g690
tp846
g1
(g15
g3
NtRp847
(dp848
g18
F0.5
sg19
I62
sg20
g1
(g21
g22
(dp849
NI62
stRp850
(dp851
g19
I62
sg26
Nsg27
Nsg28
Nsbsg29
I2
sg30
F63
sbs(g9
S'contains(brain)'
p852
tp853
g1
(g15
g3
NtRp854
(dp855
g18
F0.5
sg19
I28
sg20
g1
(g21
g22
(dp856
NI28
stRp857
(dp858
g19
I28
sg26
Nsg27
Nsg28
Nsbsg29
I2
sg30
F29
sbs(g9
g786
tp859
g1
(g15
g3
NtRp860
(dp861
g18
F0.5
sg19
I28
sg20
g1
(g21
g22
(dp862
NI28
stRp863
(dp864
g19
I28
sg26
Nsg27
Nsg28
Nsbsg29
I2
sg30
F29
sbs(g10
S'contains(children)'
p865
tp866
g1
(g15
g3
NtRp867
(dp868
g18
F0.5
sg19
I18
sg20
g1
(g21
g22
(dp869
NI18
stRp870
(dp871
g19
I18
sg26
Nsg27
Nsg28
Nsbsg29
I2
sg30
F19
sbs(S'Composition'
S'contains(beverage)'
p872
tp873
g1
(g15
g3
NtRp874
(dp875
g18
F0.5
sg19
I28
sg20
g1
(g21
g22
(dp876
NI27
sI01
I1
stRp877
(dp878
g19
I28
sg26
Nsg27
Nsg28
Nsbsg29
I2
sg30
F29
sbs(g10
S'contains(your)'
p879
tp880
g1
(g15
g3
NtRp881
(dp882
g18
F0.5
sg19
I18
sg20
g1
(g21
g22
(dp883
NI18
stRp884
(dp885
g19
I18
sg26
Nsg27
Nsg28
Nsbsg29
I2
sg30
F19
sbs(S'Abbreviation'
S'contains(nafta)'
p886
tp887
g1
(g15
g3
NtRp888
(dp889
g18
F0.5
sg19
I18
sg20
g1
(g21
g22
(dp890
NI17
sI01
I1
stRp891
(dp892
g19
I18
sg26
Nsg27
Nsg28
Nsbsg29
I2
sg30
F19
sbs(g799
S'contains(king)'
p893
tp894
g1
(g15
g3
NtRp895
(dp896
g18
F0.5
sg19
I62
sg20
g1
(g21
g22
(dp897
NI61
sI01
I1
stRp898
(dp899
g19
I62
sg26
Nsg27
Nsg28
Nsbsg29
I2
sg30
F63
sbs(g8
g647
tp900
g1
(g15
g3
NtRp901
(dp902
g18
F0.5
sg19
I62
sg20
g1
(g21
g22
(dp903
NI62
stRp904
(dp905
g19
I62
sg26
Nsg27
Nsg28
Nsbsg29
I2
sg30
F63
sbs(S'Meaning'
S'contains(asshole)'
p906
tp907
g1
(g15
g3
NtRp908
(dp909
g18
F0.5
sg19
I62
sg20
g1
(g21
g22
(dp910
NI61
sI01
I1
stRp911
(dp912
g19
I62
sg26
Nsg27
Nsg28
Nsbsg29
I2
sg30
F63
sbs(g9
g198
tp913
g1
(g15
g3
NtRp914
(dp915
g18
F0.5
sg19
I28
sg20
g1
(g21
g22
(dp916
NI28
stRp917
(dp918
g19
I28
sg26
Nsg27
Nsg28
Nsbsg29
I2
sg30
F29
sbs(g9
g487
tp919
g1
(g15
g3
NtRp920
(dp921
g18
F0.5
sg19
I28
sg20
g1
(g21
g22
(dp922
NI28
stRp923
(dp924
g19
I28
sg26
Nsg27
Nsg28
Nsbsg29
I2
sg30
F29
sbs(g8
g334
tp925
g1
(g15
g3
NtRp926
(dp927
g18
F0.5
sg19
I62
sg20
g1
(g21
g22
(dp928
NI62
stRp929
(dp930
g19
I62
sg26
Nsg27
Nsg28
Nsbsg29
I2
sg30
F63
sbs(g10
S'contains(com)'
p931
tp932
g1
(g15
g3
NtRp933
(dp934
g18
F0.5
sg19
I18
sg20
g1
(g21
g22
(dp935
NI17
sI01
I1
stRp936
(dp937
g19
I18
sg26
Nsg27
Nsg28
Nsbsg29
I2
sg30
F19
sbs(g8
g95
tp938
g1
(g15
g3
NtRp939
(dp940
g18
F0.5
sg19
I62
sg20
g1
(g21
g22
(dp941
NI62
stRp942
(dp943
g19
I62
sg26
Nsg27
Nsg28
Nsbsg29
I2
sg30
F63
sbs(g10
S'contains(pencil)'
p944
tp945
g1
(g15
g3
NtRp946
(dp947
g18
F0.5
sg19
I18
sg20
g1
(g21
g22
(dp948
NI18
stRp949
(dp950
g19
I18
sg26
Nsg27
Nsg28
Nsbsg29
I2
sg30
F19
sbs(g576
g434
tp951
g1
(g15
g3
NtRp952
(dp953
g18
F0.5
sg19
I28
sg20
g1
(g21
g22
(dp954
NI27
sI01
I1
stRp955
(dp956
g19
I28
sg26
Nsg27
Nsg28
Nsbsg29
I2
sg30
F29
sbs(g10
S'contains(bang)'
p957
tp958
g1
(g15
g3
NtRp959
(dp960
g18
F0.5
sg19
I18
sg20
g1
(g21
g22
(dp961
NI18
stRp962
(dp963
g19
I18
sg26
Nsg27
Nsg28
Nsbsg29
I2
sg30
F19
sbs(g8
S'contains(:)'
p964
tp965
g1
(g15
g3
NtRp966
(dp967
g18
F0.5
sg19
I62
sg20
g1
(g21
g22
(dp968
NI62
stRp969
(dp970
g19
I62
sg26
Nsg27
Nsg28
Nsbsg29
I2
sg30
F63
sbs(S'Meaning'
g353
tp971
g1
(g15
g3
NtRp972
(dp973
g18
F0.5
sg19
I62
sg20
g1
(g21
g22
(dp974
NI61
sI01
I1
stRp975
(dp976
g19
I62
sg26
Nsg27
Nsg28
Nsbsg29
I2
sg30
F63
sbs(g9
S'contains(badass)'
p977
tp978
g1
(g15
g3
NtRp979
(dp980
g18
F0.5
sg19
I28
sg20
g1
(g21
g22
(dp981
NI28
stRp982
(dp983
g19
I28
sg26
Nsg27
Nsg28
Nsbsg29
I2
sg30
F29
sbs(g8
S'contains(what)'
tp984
g1
(g15
g3
NtRp985
(dp986
g18
F0.5
sg19
I62
sg20
g1
(g21
g22
(dp987
NI12
sI01
I50
stRp988
(dp989
g19
I62
sg26
Nsg27
Nsg28
Nsbsg29
I2
sg30
F63
sbs(g10
g387
tp990
g1
(g15
g3
NtRp991
(dp992
g18
F0.5
sg19
I18
sg20
g1
(g21
g22
(dp993
NI18
stRp994
(dp995
g19
I18
sg26
Nsg27
Nsg28
Nsbsg29
I2
sg30
F19
sbs(S'Meaning'
S'contains(homogeneous)'
p996
tp997
g1
(g15
g3
NtRp998
(dp999
g18
F0.5
sg19
I62
sg20
g1
(g21
g22
(dp1000
NI61
sI01
I1
stRp1001
(dp1002
g19
I62
sg26
Nsg27
Nsg28
Nsbsg29
I2
sg30
F63
sbs(S'Abbreviation'
p1003
g256
tp1004
g1
(g15
g3
NtRp1005
(dp1006
g18
F0.5
sg19
I18
sg20
g1
(g21
g22
(dp1007
NI16
sI01
I2
stRp1008
(dp1009
g19
I18
sg26
Nsg27
Nsg28
Nsbsg29
I2
sg30
F19
sbs(g10
g407
tp1010
g1
(g15
g3
NtRp1011
(dp1012
g18
F0.5
sg19
I18
sg20
g1
(g21
g22
(dp1013
NI18
stRp1014
(dp1015
g19
I18
sg26
Nsg27
Nsg28
Nsbsg29
I2
sg30
F19
sbs(S'Meaning'
S'contains(tidy)'
p1016
tp1017
g1
(g15
g3
NtRp1018
(dp1019
g18
F0.5
sg19
I62
sg20
g1
(g21
g22
(dp1020
NI61
sI01
I1
stRp1021
(dp1022
g19
I62
sg26
Nsg27
Nsg28
Nsbsg29
I2
sg30
F63
sbs(g9
g964
tp1023
g1
(g15
g3
NtRp1024
(dp1025
g18
F0.5
sg19
I28
sg20
g1
(g21
g22
(dp1026
NI28
stRp1027
(dp1028
g19
I28
sg26
Nsg27
Nsg28
Nsbsg29
I2
sg30
F29
sbs(S'Abbreviation'
g682
tp1029
g1
(g15
g3
NtRp1030
(dp1031
g18
F0.5
sg19
I18
sg20
g1
(g21
g22
(dp1032
NI17
sI01
I1
stRp1033
(dp1034
g19
I18
sg26
Nsg27
Nsg28
Nsbsg29
I2
sg30
F19
sbs(g10
g893
tp1035
g1
(g15
g3
NtRp1036
(dp1037
g18
F0.5
sg19
I18
sg20
g1
(g21
g22
(dp1038
NI18
stRp1039
(dp1040
g19
I18
sg26
Nsg27
Nsg28
Nsbsg29
I2
sg30
F19
sbs(g9
S'contains(on)'
p1041
tp1042
g1
(g15
g3
NtRp1043
(dp1044
g18
F0.5
sg19
I28
sg20
g1
(g21
g22
(dp1045
NI28
stRp1046
(dp1047
g19
I28
sg26
Nsg27
Nsg28
Nsbsg29
I2
sg30
F29
sbs(S'Meaning'
g865
tp1048
g1
(g15
g3
NtRp1049
(dp1050
g18
F0.5
sg19
I62
sg20
g1
(g21
g22
(dp1051
NI61
sI01
I1
stRp1052
(dp1053
g19
I62
sg26
Nsg27
Nsg28
Nsbsg29
I2
sg30
F63
sbs(g10
S'contains(pen)'
p1054
tp1055
g1
(g15
g3
NtRp1056
(dp1057
g18
F0.5
sg19
I18
sg20
g1
(g21
g22
(dp1058
NI18
stRp1059
(dp1060
g19
I18
sg26
Nsg27
Nsg28
Nsbsg29
I2
sg30
F19
sbs(S'Meaning'
g711
tp1061
g1
(g15
g3
NtRp1062
(dp1063
g18
F0.5
sg19
I62
sg20
g1
(g21
g22
(dp1064
NI61
sI01
I1
stRp1065
(dp1066
g19
I62
sg26
Nsg27
Nsg28
Nsbsg29
I2
sg30
F63
sbs(g9
g548
tp1067
g1
(g15
g3
NtRp1068
(dp1069
g18
F0.5
sg19
I28
sg20
g1
(g21
g22
(dp1070
NI28
stRp1071
(dp1072
g19
I28
sg26
Nsg27
Nsg28
Nsbsg29
I2
sg30
F29
sbs(g8
S'contains(nn)'
p1073
tp1074
g1
(g15
g3
NtRp1075
(dp1076
g18
F0.5
sg19
I62
sg20
g1
(g21
g22
(dp1077
NI62
stRp1078
(dp1079
g19
I62
sg26
Nsg27
Nsg28
Nsbsg29
I2
sg30
F63
sbs(g562
g276
tp1080
g1
(g15
g3
NtRp1081
(dp1082
g18
F0.5
sg19
I18
sg20
g1
(g21
g22
(dp1083
NI6
sI01
I12
stRp1084
(dp1085
g19
I18
sg26
Nsg27
Nsg28
Nsbsg29
I2
sg30
F19
sbs(g9
S'contains(doors)'
p1086
tp1087
g1
(g15
g3
NtRp1088
(dp1089
g18
F0.5
sg19
I28
sg20
g1
(g21
g22
(dp1090
NI27
sI01
I1
stRp1091
(dp1092
g19
I28
sg26
Nsg27
Nsg28
Nsbsg29
I2
sg30
F29
sbs(g9
g334
tp1093
g1
(g15
g3
NtRp1094
(dp1095
g18
F0.5
sg19
I28
sg20
g1
(g21
g22
(dp1096
NI28
stRp1097
(dp1098
g19
I28
sg26
Nsg27
Nsg28
Nsbsg29
I2
sg30
F29
sbs(g8
S'contains(,)'
p1099
tp1100
g1
(g15
g3
NtRp1101
(dp1102
g18
F0.5
sg19
I62
sg20
g1
(g21
g22
(dp1103
NI62
stRp1104
(dp1105
g19
I62
sg26
Nsg27
Nsg28
Nsbsg29
I2
sg30
F63
sbs(S'Meaning'
S'contains(chicken)'
p1106
tp1107
g1
(g15
g3
NtRp1108
(dp1109
g18
F0.5
sg19
I62
sg20
g1
(g21
g22
(dp1110
NI61
sI01
I1
stRp1111
(dp1112
g19
I62
sg26
Nsg27
Nsg28
Nsbsg29
I2
sg30
F63
sbs(g10
g242
tp1113
g1
(g15
g3
NtRp1114
(dp1115
g18
F0.5
sg19
I18
sg20
g1
(g21
g22
(dp1116
NI18
stRp1117
(dp1118
g19
I18
sg26
Nsg27
Nsg28
Nsbsg29
I2
sg30
F19
sbs(g10
S'contains(?)'
tp1119
g1
(g15
g3
NtRp1120
(dp1121
g18
F0.5
sg19
I18
sg20
g1
(g21
g22
(dp1122
I01
I18
stRp1123
(dp1124
g19
I18
sg26
Nsg27
Nsg28
Nsbsg29
I2
sg30
F19
sbs(g10
g373
tp1125
g1
(g15
g3
NtRp1126
(dp1127
g18
F0.5
sg19
I18
sg20
g1
(g21
g22
(dp1128
NI18
stRp1129
(dp1130
g19
I18
sg26
Nsg27
Nsg28
Nsbsg29
I2
sg30
F19
sbs(g8
S'contains(jacket)'
p1131
tp1132
g1
(g15
g3
NtRp1133
(dp1134
g18
F0.5
sg19
I62
sg20
g1
(g21
g22
(dp1135
NI62
stRp1136
(dp1137
g19
I62
sg26
Nsg27
Nsg28
Nsbsg29
I2
sg30
F63
sbs(S'Meaning'
g583
tp1138
g1
(g15
g3
NtRp1139
(dp1140
g18
F0.5
sg19
I62
sg20
g1
(g21
g22
(dp1141
NI61
sI01
I1
stRp1142
(dp1143
g19
I62
sg26
Nsg27
Nsg28
Nsbsg29
I2
sg30
F63
sbs(g10
S'contains(what)'
tp1144
g1
(g15
g3
NtRp1145
(dp1146
g18
F0.5
sg19
I18
sg20
g1
(g21
g22
(dp1147
I01
I18
stRp1148
(dp1149
g19
I18
sg26
Nsg27
Nsg28
Nsbsg29
I2
sg30
F19
sbs(S'Abbreviation'
g220
tp1150
g1
(g15
g3
NtRp1151
(dp1152
g18
F0.5
sg19
I18
sg20
g1
(g21
g22
(dp1153
NI17
sI01
I1
stRp1154
(dp1155
g19
I18
sg26
Nsg27
Nsg28
Nsbsg29
I2
sg30
F19
sbs(g10
g137
tp1156
g1
(g15
g3
NtRp1157
(dp1158
g18
F0.5
sg19
I18
sg20
g1
(g21
g22
(dp1159
NI18
stRp1160
(dp1161
g19
I18
sg26
Nsg27
Nsg28
Nsbsg29
I2
sg30
F19
sbs(g751
S'contains(the)'
tp1162
g1
(g15
g3
NtRp1163
(dp1164
g18
F0.5
sg19
I62
sg20
g1
(g21
g22
(dp1165
NI42
sI01
I20
stRp1166
(dp1167
g19
I62
sg26
Nsg27
Nsg28
Nsbsg29
I2
sg30
F63
sbs(S'Meaning'
S'contains(elephant)'
p1168
tp1169
g1
(g15
g3
NtRp1170
(dp1171
g18
F0.5
sg19
I62
sg20
g1
(g21
g22
(dp1172
NI61
sI01
I1
stRp1173
(dp1174
g19
I62
sg26
Nsg27
Nsg28
Nsbsg29
I2
sg30
F63
sbs(g10
S'contains(windows)'
p1175
tp1176
g1
(g15
g3
NtRp1177
(dp1178
g18
F0.5
sg19
I18
sg20
g1
(g21
g22
(dp1179
NI18
stRp1180
(dp1181
g19
I18
sg26
Nsg27
Nsg28
Nsbsg29
I2
sg30
F19
sbs(g9
g109
tp1182
g1
(g15
g3
NtRp1183
(dp1184
g18
F0.5
sg19
I28
sg20
g1
(g21
g22
(dp1185
NI28
stRp1186
(dp1187
g19
I28
sg26
Nsg27
Nsg28
Nsbsg29
I2
sg30
F29
sbs(g10
g977
tp1188
g1
(g15
g3
NtRp1189
(dp1190
g18
F0.5
sg19
I18
sg20
g1
(g21
g22
(dp1191
NI18
stRp1192
(dp1193
g19
I18
sg26
Nsg27
Nsg28
Nsbsg29
I2
sg30
F19
sbs(S'Composition'
g420
tp1194
g1
(g15
g3
NtRp1195
(dp1196
g18
F0.5
sg19
I28
sg20
g1
(g21
g22
(dp1197
NI27
sI01
I1
stRp1198
(dp1199
g19
I28
sg26
Nsg27
Nsg28
Nsbsg29
I2
sg30
F29
sbs(g9
g957
tp1200
g1
(g15
g3
NtRp1201
(dp1202
g18
F0.5
sg19
I28
sg20
g1
(g21
g22
(dp1203
NI28
stRp1204
(dp1205
g19
I28
sg26
Nsg27
Nsg28
Nsbsg29
I2
sg30
F29
sbs(g8
g872
tp1206
g1
(g15
g3
NtRp1207
(dp1208
g18
F0.5
sg19
I62
sg20
g1
(g21
g22
(dp1209
NI62
stRp1210
(dp1211
g19
I62
sg26
Nsg27
Nsg28
Nsbsg29
I2
sg30
F63
sbs(S'Meaning'
S'contains(street)'
p1212
tp1213
g1
(g15
g3
NtRp1214
(dp1215
g18
F0.5
sg19
I62
sg20
g1
(g21
g22
(dp1216
NI61
sI01
I1
stRp1217
(dp1218
g19
I62
sg26
Nsg27
Nsg28
Nsbsg29
I2
sg30
F63
sbs(g10
g156
tp1219
g1
(g15
g3
NtRp1220
(dp1221
g18
F0.5
sg19
I18
sg20
g1
(g21
g22
(dp1222
NI18
stRp1223
(dp1224
g19
I18
sg26
Nsg27
Nsg28
Nsbsg29
I2
sg30
F19
sbs(g8
S'contains(irish)'
p1225
tp1226
g1
(g15
g3
NtRp1227
(dp1228
g18
F0.5
sg19
I62
sg20
g1
(g21
g22
(dp1229
NI62
stRp1230
(dp1231
g19
I62
sg26
Nsg27
Nsg28
Nsbsg29
I2
sg30
F63
sbs(g9
g865
tp1232
g1
(g15
g3
NtRp1233
(dp1234
g18
F0.5
sg19
I28
sg20
g1
(g21
g22
(dp1235
NI28
stRp1236
(dp1237
g19
I28
sg26
Nsg27
Nsg28
Nsbsg29
I2
sg30
F29
sbs(g8
S'contains(psi)'
p1238
tp1239
g1
(g15
g3
NtRp1240
(dp1241
g18
F0.5
sg19
I62
sg20
g1
(g21
g22
(dp1242
NI62
stRp1243
(dp1244
g19
I62
sg26
Nsg27
Nsg28
Nsbsg29
I2
sg30
F63
sbs(g10
g1106
tp1245
g1
(g15
g3
NtRp1246
(dp1247
g18
F0.5
sg19
I18
sg20
g1
(g21
g22
(dp1248
NI18
stRp1249
(dp1250
g19
I18
sg26
Nsg27
Nsg28
Nsbsg29
I2
sg30
F19
sbs(g297
S'contains(jesus)'
p1251
tp1252
g1
(g15
g3
NtRp1253
(dp1254
g18
F0.5
sg19
I18
sg20
g1
(g21
g22
(dp1255
NI17
sI01
I1
stRp1256
(dp1257
g19
I18
sg26
Nsg27
Nsg28
Nsbsg29
I2
sg30
F19
sbs(g10
g31
tp1258
g1
(g15
g3
NtRp1259
(dp1260
g18
F0.5
sg19
I18
sg20
g1
(g21
g22
(dp1261
NI18
stRp1262
(dp1263
g19
I18
sg26
Nsg27
Nsg28
Nsbsg29
I2
sg30
F19
sbs(g8
g1251
tp1264
g1
(g15
g3
NtRp1265
(dp1266
g18
F0.5
sg19
I62
sg20
g1
(g21
g22
(dp1267
NI62
stRp1268
(dp1269
g19
I62
sg26
Nsg27
Nsg28
Nsbsg29
I2
sg30
F63
sbs(g9
S'contains(plo)'
p1270
tp1271
g1
(g15
g3
NtRp1272
(dp1273
g18
F0.5
sg19
I28
sg20
g1
(g21
g22
(dp1274
NI28
stRp1275
(dp1276
g19
I28
sg26
Nsg27
Nsg28
Nsbsg29
I2
sg30
F29
sbs(g9
g812
tp1277
g1
(g15
g3
NtRp1278
(dp1279
g18
F0.5
sg19
I28
sg20
g1
(g21
g22
(dp1280
NI28
stRp1281
(dp1282
g19
I28
sg26
Nsg27
Nsg28
Nsbsg29
I2
sg30
F29
sbs(g9
g1212
tp1283
g1
(g15
g3
NtRp1284
(dp1285
g18
F0.5
sg19
I28
sg20
g1
(g21
g22
(dp1286
NI28
stRp1287
(dp1288
g19
I28
sg26
Nsg27
Nsg28
Nsbsg29
I2
sg30
F29
sbs(g87
g320
tp1289
g1
(g15
g3
NtRp1290
(dp1291
g18
F0.5
sg19
I18
sg20
g1
(g21
g22
(dp1292
NI16
sI01
I2
stRp1293
(dp1294
g19
I18
sg26
Nsg27
Nsg28
Nsbsg29
I2
sg30
F19
sbs(g8
g184
tp1295
g1
(g15
g3
NtRp1296
(dp1297
g18
F0.5
sg19
I62
sg20
g1
(g21
g22
(dp1298
NI62
stRp1299
(dp1300
g19
I62
sg26
Nsg27
Nsg28
Nsbsg29
I2
sg30
F63
sbs(g628
g555
tp1301
g1
(g15
g3
NtRp1302
(dp1303
g18
F0.5
sg19
I62
sg20
g1
(g21
g22
(dp1304
NI61
sI01
I1
stRp1305
(dp1306
g19
I62
sg26
Nsg27
Nsg28
Nsbsg29
I2
sg30
F63
sbs(g9
g353
tp1307
g1
(g15
g3
NtRp1308
(dp1309
g18
F0.5
sg19
I28
sg20
g1
(g21
g22
(dp1310
NI28
stRp1311
(dp1312
g19
I28
sg26
Nsg27
Nsg28
Nsbsg29
I2
sg30
F29
sbs(g297
g786
tp1313
g1
(g15
g3
NtRp1314
(dp1315
g18
F0.5
sg19
I18
sg20
g1
(g21
g22
(dp1316
NI17
sI01
I1
stRp1317
(dp1318
g19
I18
sg26
Nsg27
Nsg28
Nsbsg29
I2
sg30
F19
sbs(g8
S'contains(.)'
p1319
tp1320
g1
(g15
g3
NtRp1321
(dp1322
g18
F0.5
sg19
I62
sg20
g1
(g21
g22
(dp1323
NI62
stRp1324
(dp1325
g19
I62
sg26
Nsg27
Nsg28
Nsbsg29
I2
sg30
F63
sbs(g8
g766
tp1326
g1
(g15
g3
NtRp1327
(dp1328
g18
F0.5
sg19
I62
sg20
g1
(g21
g22
(dp1329
NI62
stRp1330
(dp1331
g19
I62
sg26
Nsg27
Nsg28
Nsbsg29
I2
sg30
F63
sbs(S'Meaning'
S'contains(doors)'
tp1332
g1
(g15
g3
NtRp1333
(dp1334
g18
F0.5
sg19
I62
sg20
g1
(g21
g22
(dp1335
NI61
sI01
I1
stRp1336
(dp1337
g19
I62
sg26
Nsg27
Nsg28
Nsbsg29
I2
sg30
F63
sbs(S'Meaning'
g852
tp1338
g1
(g15
g3
NtRp1339
(dp1340
g18
F0.5
sg19
I62
sg20
g1
(g21
g22
(dp1341
NI61
sI01
I1
stRp1342
(dp1343
g19
I62
sg26
Nsg27
Nsg28
Nsbsg29
I2
sg30
F63
sbs(g8
g812
tp1344
g1
(g15
g3
NtRp1345
(dp1346
g18
F0.5
sg19
I62
sg20
g1
(g21
g22
(dp1347
NI62
stRp1348
(dp1349
g19
I62
sg26
Nsg27
Nsg28
Nsbsg29
I2
sg30
F63
sbs(g8
g1270
tp1350
g1
(g15
g3
NtRp1351
(dp1352
g18
F0.5
sg19
I62
sg20
g1
(g21
g22
(dp1353
NI62
stRp1354
(dp1355
g19
I62
sg26
Nsg27
Nsg28
Nsbsg29
I2
sg30
F63
sbs(g10
g1016
tp1356
g1
(g15
g3
NtRp1357
(dp1358
g18
F0.5
sg19
I18
sg20
g1
(g21
g22
(dp1359
NI18
stRp1360
(dp1361
g19
I18
sg26
Nsg27
Nsg28
Nsbsg29
I2
sg30
F19
sbs(g290
S'contains(laser)'
p1362
tp1363
g1
(g15
g3
NtRp1364
(dp1365
g18
F0.5
sg19
I18
sg20
g1
(g21
g22
(dp1366
NI17
sI01
I1
stRp1367
(dp1368
g19
I18
sg26
Nsg27
Nsg28
Nsbsg29
I2
sg30
F19
sbs(g10
S'contains(ear)'
p1369
tp1370
g1
(g15
g3
NtRp1371
(dp1372
g18
F0.5
sg19
I18
sg20
g1
(g21
g22
(dp1373
NI18
stRp1374
(dp1375
g19
I18
sg26
Nsg27
Nsg28
Nsbsg29
I2
sg30
F19
sbs(g562
g80
tp1376
g1
(g15
g3
NtRp1377
(dp1378
g18
F0.5
sg19
I18
sg20
g1
(g21
g22
(dp1379
NI17
sI01
I1
stRp1380
(dp1381
g19
I18
sg26
Nsg27
Nsg28
Nsbsg29
I2
sg30
F19
sbs(g501
S'contains(abbreviated)'
p1382
tp1383
g1
(g15
g3
NtRp1384
(dp1385
g18
F0.5
sg19
I18
sg20
g1
(g21
g22
(dp1386
NI17
sI01
I1
stRp1387
(dp1388
g19
I18
sg26
Nsg27
Nsg28
Nsbsg29
I2
sg30
F19
sbs(g9
g766
tp1389
g1
(g15
g3
NtRp1390
(dp1391
g18
F0.5
sg19
I28
sg20
g1
(g21
g22
(dp1392
NI28
stRp1393
(dp1394
g19
I28
sg26
Nsg27
Nsg28
Nsbsg29
I2
sg30
F29
sbs(g8
g718
tp1395
g1
(g15
g3
NtRp1396
(dp1397
g18
F0.5
sg19
I62
sg20
g1
(g21
g22
(dp1398
NI62
stRp1399
(dp1400
g19
I62
sg26
Nsg27
Nsg28
Nsbsg29
I2
sg30
F63
sbs(g10
S'contains(person)'
p1401
tp1402
g1
(g15
g3
NtRp1403
(dp1404
g18
F0.5
sg19
I18
sg20
g1
(g21
g22
(dp1405
NI18
stRp1406
(dp1407
g19
I18
sg26
Nsg27
Nsg28
Nsbsg29
I2
sg30
F19
sbs(g10
S'contains(earth)'
p1408
tp1409
g1
(g15
g3
NtRp1410
(dp1411
g18
F0.5
sg19
I18
sg20
g1
(g21
g22
(dp1412
NI18
stRp1413
(dp1414
g19
I18
sg26
Nsg27
Nsg28
Nsbsg29
I2
sg30
F19
sbs(g10
g675
tp1415
g1
(g15
g3
NtRp1416
(dp1417
g18
F0.5
sg19
I18
sg20
g1
(g21
g22
(dp1418
NI18
stRp1419
(dp1420
g19
I18
sg26
Nsg27
Nsg28
Nsbsg29
I2
sg30
F19
sbs(g9
g1382
tp1421
g1
(g15
g3
NtRp1422
(dp1423
g18
F0.5
sg19
I28
sg20
g1
(g21
g22
(dp1424
NI28
stRp1425
(dp1426
g19
I28
sg26
Nsg27
Nsg28
Nsbsg29
I2
sg30
F29
sbs(g689
g1099
tp1427
g1
(g15
g3
NtRp1428
(dp1429
g18
F0.5
sg19
I18
sg20
g1
(g21
g22
(dp1430
NI17
sI01
I1
stRp1431
(dp1432
g19
I18
sg26
Nsg27
Nsg28
Nsbsg29
I2
sg30
F19
sbs(g9
g1362
tp1433
g1
(g15
g3
NtRp1434
(dp1435
g18
F0.5
sg19
I28
sg20
g1
(g21
g22
(dp1436
NI28
stRp1437
(dp1438
g19
I28
sg26
Nsg27
Nsg28
Nsbsg29
I2
sg30
F29
sbs(g8
g839
tp1439
g1
(g15
g3
NtRp1440
(dp1441
g18
F0.5
sg19
I62
sg20
g1
(g21
g22
(dp1442
NI62
stRp1443
(dp1444
g19
I62
sg26
Nsg27
Nsg28
Nsbsg29
I2
sg30
F63
sbs(g8
g1382
tp1445
g1
(g15
g3
NtRp1446
(dp1447
g18
F0.5
sg19
I62
sg20
g1
(g21
g22
(dp1448
NI62
stRp1449
(dp1450
g19
I62
sg26
Nsg27
Nsg28
Nsbsg29
I2
sg30
F63
sbs(g689
g205
tp1451
g1
(g15
g3
NtRp1452
(dp1453
g18
F0.5
sg19
I18
sg20
g1
(g21
g22
(dp1454
NI17
sI01
I1
stRp1455
(dp1456
g19
I18
sg26
Nsg27
Nsg28
Nsbsg29
I2
sg30
F19
sbs(S'Meaning'
g590
tp1457
g1
(g15
g3
NtRp1458
(dp1459
g18
F0.5
sg19
I62
sg20
g1
(g21
g22
(dp1460
NI61
sI01
I1
stRp1461
(dp1462
g19
I62
sg26
Nsg27
Nsg28
Nsbsg29
I2
sg30
F63
sbs(g8
g320
tp1463
g1
(g15
g3
NtRp1464
(dp1465
g18
F0.5
sg19
I62
sg20
g1
(g21
g22
(dp1466
NI62
stRp1467
(dp1468
g19
I62
sg26
Nsg27
Nsg28
Nsbsg29
I2
sg30
F63
sbs(g9
g80
tp1469
g1
(g15
g3
NtRp1470
(dp1471
g18
F0.5
sg19
I28
sg20
g1
(g21
g22
(dp1472
NI28
stRp1473
(dp1474
g19
I28
sg26
Nsg27
Nsg28
Nsbsg29
I2
sg30
F29
sbs(g9
g1016
tp1475
g1
(g15
g3
NtRp1476
(dp1477
g18
F0.5
sg19
I28
sg20
g1
(g21
g22
(dp1478
NI28
stRp1479
(dp1480
g19
I28
sg26
Nsg27
Nsg28
Nsbsg29
I2
sg30
F29
sbs(g9
g555
tp1481
g1
(g15
g3
NtRp1482
(dp1483
g18
F0.5
sg19
I28
sg20
g1
(g21
g22
(dp1484
NI28
stRp1485
(dp1486
g19
I28
sg26
Nsg27
Nsg28
Nsbsg29
I2
sg30
F29
sbs(g8
g1175
tp1487
g1
(g15
g3
NtRp1488
(dp1489
g18
F0.5
sg19
I62
sg20
g1
(g21
g22
(dp1490
NI62
stRp1491
(dp1492
g19
I62
sg26
Nsg27
Nsg28
Nsbsg29
I2
sg30
F63
sbs(g9
g88
tp1493
g1
(g15
g3
NtRp1494
(dp1495
g18
F0.5
sg19
I28
sg20
g1
(g21
g22
(dp1496
NI28
stRp1497
(dp1498
g19
I28
sg26
Nsg27
Nsg28
Nsbsg29
I2
sg30
F29
sbs(g9
S'contains(tree)'
p1499
tp1500
g1
(g15
g3
NtRp1501
(dp1502
g18
F0.5
sg19
I28
sg20
g1
(g21
g22
(dp1503
NI28
stRp1504
(dp1505
g19
I28
sg26
Nsg27
Nsg28
Nsbsg29
I2
sg30
F29
sbs(g10
S'contains(the)'
tp1506
g1
(g15
g3
NtRp1507
(dp1508
g18
F0.5
sg19
I18
sg20
g1
(g21
g22
(dp1509
NI10
sI01
I8
stRp1510
(dp1511
g19
I18
sg26
Nsg27
Nsg28
Nsbsg29
I2
sg30
F19
sbs(g9
g590
tp1512
g1
(g15
g3
NtRp1513
(dp1514
g18
F0.5
sg19
I28
sg20
g1
(g21
g22
(dp1515
NI28
stRp1516
(dp1517
g19
I28
sg26
Nsg27
Nsg28
Nsbsg29
I2
sg30
F29
sbs(g10
g1212
tp1518
g1
(g15
g3
NtRp1519
(dp1520
g18
F0.5
sg19
I18
sg20
g1
(g21
g22
(dp1521
NI18
stRp1522
(dp1523
g19
I18
sg26
Nsg27
Nsg28
Nsbsg29
I2
sg30
F19
sbs(g8
g502
tp1524
g1
(g15
g3
NtRp1525
(dp1526
g18
F0.5
sg19
I62
sg20
g1
(g21
g22
(dp1527
NI62
stRp1528
(dp1529
g19
I62
sg26
Nsg27
Nsg28
Nsbsg29
I2
sg30
F63
sbs(g8
g298
tp1530
g1
(g15
g3
NtRp1531
(dp1532
g18
F0.5
sg19
I62
sg20
g1
(g21
g22
(dp1533
NI62
stRp1534
(dp1535
g19
I62
sg26
Nsg27
Nsg28
Nsbsg29
I2
sg30
F63
sbs(g9
S'contains(claus)'
p1536
tp1537
g1
(g15
g3
NtRp1538
(dp1539
g18
F0.5
sg19
I28
sg20
g1
(g21
g22
(dp1540
NI28
stRp1541
(dp1542
g19
I28
sg26
Nsg27
Nsg28
Nsbsg29
I2
sg30
F29
sbs(g9
S'contains(company)'
p1543
tp1544
g1
(g15
g3
NtRp1545
(dp1546
g18
F0.5
sg19
I28
sg20
g1
(g21
g22
(dp1547
NI28
stRp1548
(dp1549
g19
I28
sg26
Nsg27
Nsg28
Nsbsg29
I2
sg30
F29
sbs(S'Meaning'
g675
tp1550
g1
(g15
g3
NtRp1551
(dp1552
g18
F0.5
sg19
I62
sg20
g1
(g21
g22
(dp1553
NI61
sI01
I1
stRp1554
(dp1555
g19
I62
sg26
Nsg27
Nsg28
Nsbsg29
I2
sg30
F63
sbs(g10
S'contains(pretty)'
p1556
tp1557
g1
(g15
g3
NtRp1558
(dp1559
g18
F0.5
sg19
I18
sg20
g1
(g21
g22
(dp1560
NI18
stRp1561
(dp1562
g19
I18
sg26
Nsg27
Nsg28
Nsbsg29
I2
sg30
F19
sbs(S'Composition'
g1175
tp1563
g1
(g15
g3
NtRp1564
(dp1565
g18
F0.5
sg19
I28
sg20
g1
(g21
g22
(dp1566
NI27
sI01
I1
stRp1567
(dp1568
g19
I28
sg26
Nsg27
Nsg28
Nsbsg29
I2
sg30
F29
sbs(S'Meaning'
g366
tp1569
g1
(g15
g3
NtRp1570
(dp1571
g18
F0.5
sg19
I62
sg20
g1
(g21
g22
(dp1572
NI61
sI01
I1
stRp1573
(dp1574
g19
I62
sg26
Nsg27
Nsg28
Nsbsg29
I2
sg30
F63
sbs(g8
g38
tp1575
g1
(g15
g3
NtRp1576
(dp1577
g18
F0.5
sg19
I62
sg20
g1
(g21
g22
(dp1578
NI62
stRp1579
(dp1580
g19
I62
sg26
Nsg27
Nsg28
Nsbsg29
I2
sg30
F63
sbs(g9
g1106
tp1581
g1
(g15
g3
NtRp1582
(dp1583
g18
F0.5
sg19
I28
sg20
g1
(g21
g22
(dp1584
NI28
stRp1585
(dp1586
g19
I28
sg26
Nsg27
Nsg28
Nsbsg29
I2
sg30
F29
sbs(g10
S'contains(rubber)'
p1587
tp1588
g1
(g15
g3
NtRp1589
(dp1590
g18
F0.5
sg19
I18
sg20
g1
(g21
g22
(dp1591
NI18
stRp1592
(dp1593
g19
I18
sg26
Nsg27
Nsg28
Nsbsg29
I2
sg30
F19
sbs(g9
g1225
tp1594
g1
(g15
g3
NtRp1595
(dp1596
g18
F0.5
sg19
I28
sg20
g1
(g21
g22
(dp1597
NI28
stRp1598
(dp1599
g19
I28
sg26
Nsg27
Nsg28
Nsbsg29
I2
sg30
F29
sbs(g9
S'contains(avenue)'
p1600
tp1601
g1
(g15
g3
NtRp1602
(dp1603
g18
F0.5
sg19
I28
sg20
g1
(g21
g22
(dp1604
NI28
stRp1605
(dp1606
g19
I28
sg26
Nsg27
Nsg28
Nsbsg29
I2
sg30
F29
sbs(g9
g996
tp1607
g1
(g15
g3
NtRp1608
(dp1609
g18
F0.5
sg19
I28
sg20
g1
(g21
g22
(dp1610
NI28
stRp1611
(dp1612
g19
I28
sg26
Nsg27
Nsg28
Nsbsg29
I2
sg30
F29
sbs(g10
S'contains(mellon)'
p1613
tp1614
g1
(g15
g3
NtRp1615
(dp1616
g18
F0.5
sg19
I18
sg20
g1
(g21
g22
(dp1617
NI18
stRp1618
(dp1619
g19
I18
sg26
Nsg27
Nsg28
Nsbsg29
I2
sg30
F19
sbs(S'Meaning'
S'contains(haircut)'
p1620
tp1621
g1
(g15
g3
NtRp1622
(dp1623
g18
F0.5
sg19
I62
sg20
g1
(g21
g22
(dp1624
NI61
sI01
I1
stRp1625
(dp1626
g19
I62
sg26
Nsg27
Nsg28
Nsbsg29
I2
sg30
F63
sbs(g212
g102
tp1627
g1
(g15
g3
NtRp1628
(dp1629
g18
F0.5
sg19
I28
sg20
g1
(g21
g22
(dp1630
NI27
sI01
I1
stRp1631
(dp1632
g19
I28
sg26
Nsg27
Nsg28
Nsbsg29
I2
sg30
F29
sbs(g689
S'contains(reading)'
p1633
tp1634
g1
(g15
g3
NtRp1635
(dp1636
g18
F0.5
sg19
I18
sg20
g1
(g21
g22
(dp1637
NI17
sI01
I1
stRp1638
(dp1639
g19
I18
sg26
Nsg27
Nsg28
Nsbsg29
I2
sg30
F19
sbs(g10
g420
tp1640
g1
(g15
g3
NtRp1641
(dp1642
g18
F0.5
sg19
I18
sg20
g1
(g21
g22
(dp1643
NI18
stRp1644
(dp1645
g19
I18
sg26
Nsg27
Nsg28
Nsbsg29
I2
sg30
F19
sbs(g10
g102
tp1646
g1
(g15
g3
NtRp1647
(dp1648
g18
F0.5
sg19
I18
sg20
g1
(g21
g22
(dp1649
NI18
stRp1650
(dp1651
g19
I18
sg26
Nsg27
Nsg28
Nsbsg29
I2
sg30
F19
sbs(g8
S'contains(as)'
p1652
tp1653
g1
(g15
g3
NtRp1654
(dp1655
g18
F0.5
sg19
I62
sg20
g1
(g21
g22
(dp1656
NI62
stRp1657
(dp1658
g19
I62
sg26
Nsg27
Nsg28
Nsbsg29
I2
sg30
F63
sbs(g9
S'contains(?)'
tp1659
g1
(g15
g3
NtRp1660
(dp1661
g18
F0.5
sg19
I28
sg20
g1
(g21
g22
(dp1662
I01
I28
stRp1663
(dp1664
g19
I28
sg26
Nsg27
Nsg28
Nsbsg29
I2
sg30
F29
sbs(g312
g380
tp1665
g1
(g15
g3
NtRp1666
(dp1667
g18
F0.5
sg19
I18
sg20
g1
(g21
g22
(dp1668
NI17
sI01
I1
stRp1669
(dp1670
g19
I18
sg26
Nsg27
Nsg28
Nsbsg29
I2
sg30
F19
sbs(g10
g455
tp1671
g1
(g15
g3
NtRp1672
(dp1673
g18
F0.5
sg19
I18
sg20
g1
(g21
g22
(dp1674
NI18
stRp1675
(dp1676
g19
I18
sg26
Nsg27
Nsg28
Nsbsg29
I2
sg30
F19
sbs(g10
S'contains(eucalyptus)'
p1677
tp1678
g1
(g15
g3
NtRp1679
(dp1680
g18
F0.5
sg19
I18
sg20
g1
(g21
g22
(dp1681
NI18
stRp1682
(dp1683
g19
I18
sg26
Nsg27
Nsg28
Nsbsg29
I2
sg30
F19
sbs(g9
S'contains(ads)'
p1684
tp1685
g1
(g15
g3
NtRp1686
(dp1687
g18
F0.5
sg19
I28
sg20
g1
(g21
g22
(dp1688
NI28
stRp1689
(dp1690
g19
I28
sg26
Nsg27
Nsg28
Nsbsg29
I2
sg30
F29
sbs(g8
g256
tp1691
g1
(g15
g3
NtRp1692
(dp1693
g18
F0.5
sg19
I62
sg20
g1
(g21
g22
(dp1694
NI62
stRp1695
(dp1696
g19
I62
sg26
Nsg27
Nsg28
Nsbsg29
I2
sg30
F63
sbs(g8
g213
tp1697
g1
(g15
g3
NtRp1698
(dp1699
g18
F0.5
sg19
I62
sg20
g1
(g21
g22
(dp1700
NI62
stRp1701
(dp1702
g19
I62
sg26
Nsg27
Nsg28
Nsbsg29
I2
sg30
F63
sbs(g9
g327
tp1703
g1
(g15
g3
NtRp1704
(dp1705
g18
F0.5
sg19
I28
sg20
g1
(g21
g22
(dp1706
NI28
stRp1707
(dp1708
g19
I28
sg26
Nsg27
Nsg28
Nsbsg29
I2
sg30
F29
sbs(g9
S'contains(what)'
tp1709
g1
(g15
g3
NtRp1710
(dp1711
g18
F0.5
sg19
I28
sg20
g1
(g21
g22
(dp1712
I01
I28
stRp1713
(dp1714
g19
I28
sg26
Nsg27
Nsg28
Nsbsg29
I2
sg30
F29
sbs(g9
g1620
tp1715
g1
(g15
g3
NtRp1716
(dp1717
g18
F0.5
sg19
I28
sg20
g1
(g21
g22
(dp1718
NI28
stRp1719
(dp1720
g19
I28
sg26
Nsg27
Nsg28
Nsbsg29
I2
sg30
F29
sbs(g8
S'contains(form)'
p1721
tp1722
g1
(g15
g3
NtRp1723
(dp1724
g18
F0.5
sg19
I62
sg20
g1
(g21
g22
(dp1725
NI62
stRp1726
(dp1727
g19
I62
sg26
Nsg27
Nsg28
Nsbsg29
I2
sg30
F63
sbs(g8
g1408
tp1728
g1
(g15
g3
NtRp1729
(dp1730
g18
F0.5
sg19
I62
sg20
g1
(g21
g22
(dp1731
NI62
stRp1732
(dp1733
g19
I62
sg26
Nsg27
Nsg28
Nsbsg29
I2
sg30
F63
sbs(g10
g569
tp1734
g1
(g15
g3
NtRp1735
(dp1736
g18
F0.5
sg19
I18
sg20
g1
(g21
g22
(dp1737
NI18
stRp1738
(dp1739
g19
I18
sg26
Nsg27
Nsg28
Nsbsg29
I2
sg30
F19
sbs(g8
g313
tp1740
g1
(g15
g3
NtRp1741
(dp1742
g18
F0.5
sg19
I62
sg20
g1
(g21
g22
(dp1743
NI62
stRp1744
(dp1745
g19
I62
sg26
Nsg27
Nsg28
Nsbsg29
I2
sg30
F63
sbs(g8
g1401
tp1746
g1
(g15
g3
NtRp1747
(dp1748
g18
F0.5
sg19
I62
sg20
g1
(g21
g22
(dp1749
NI62
stRp1750
(dp1751
g19
I62
sg26
Nsg27
Nsg28
Nsbsg29
I2
sg30
F63
sbs(g10
g305
tp1752
g1
(g15
g3
NtRp1753
(dp1754
g18
F0.5
sg19
I18
sg20
g1
(g21
g22
(dp1755
NI18
stRp1756
(dp1757
g19
I18
sg26
Nsg27
Nsg28
Nsbsg29
I2
sg30
F19
sbs(g9
g298
tp1758
g1
(g15
g3
NtRp1759
(dp1760
g18
F0.5
sg19
I28
sg20
g1
(g21
g22
(dp1761
NI28
stRp1762
(dp1763
g19
I28
sg26
Nsg27
Nsg28
Nsbsg29
I2
sg30
F29
sbs(g9
g752
tp1764
g1
(g15
g3
NtRp1765
(dp1766
g18
F0.5
sg19
I28
sg20
g1
(g21
g22
(dp1767
NI28
stRp1768
(dp1769
g19
I28
sg26
Nsg27
Nsg28
Nsbsg29
I2
sg30
F29
sbs(g227
g548
tp1770
g1
(g15
g3
NtRp1771
(dp1772
g18
F0.5
sg19
I18
sg20
g1
(g21
g22
(dp1773
NI17
sI01
I1
stRp1774
(dp1775
g19
I18
sg26
Nsg27
Nsg28
Nsbsg29
I2
sg30
F19
sbs(g9
g283
tp1776
g1
(g15
g3
NtRp1777
(dp1778
g18
F0.5
sg19
I28
sg20
g1
(g21
g22
(dp1779
NI28
stRp1780
(dp1781
g19
I28
sg26
Nsg27
Nsg28
Nsbsg29
I2
sg30
F29
sbs(S'Meaning'
p1782
S'contains(santa)'
p1783
tp1784
g1
(g15
g3
NtRp1785
(dp1786
g18
F0.5
sg19
I62
sg20
g1
(g21
g22
(dp1787
NI61
sI01
I1
stRp1788
(dp1789
g19
I62
sg26
Nsg27
Nsg28
Nsbsg29
I2
sg30
F63
sbs(g10
g752
tp1790
g1
(g15
g3
NtRp1791
(dp1792
g18
F0.5
sg19
I18
sg20
g1
(g21
g22
(dp1793
NI18
stRp1794
(dp1795
g19
I18
sg26
Nsg27
Nsg28
Nsbsg29
I2
sg30
F19
sbs(S'Meaning'
g1613
tp1796
g1
(g15
g3
NtRp1797
(dp1798
g18
F0.5
sg19
I62
sg20
g1
(g21
g22
(dp1799
NI61
sI01
I1
stRp1800
(dp1801
g19
I62
sg26
Nsg27
Nsg28
Nsbsg29
I2
sg30
F63
sbs(g9
S'contains(when)'
p1802
tp1803
g1
(g15
g3
NtRp1804
(dp1805
g18
F0.5
sg19
I28
sg20
g1
(g21
g22
(dp1806
NI28
stRp1807
(dp1808
g19
I28
sg26
Nsg27
Nsg28
Nsbsg29
I2
sg30
F29
sbs(g8
g1041
tp1809
g1
(g15
g3
NtRp1810
(dp1811
g18
F0.5
sg19
I62
sg20
g1
(g21
g22
(dp1812
NI62
stRp1813
(dp1814
g19
I62
sg26
Nsg27
Nsg28
Nsbsg29
I2
sg30
F63
sbs(g9
g1054
tp1815
g1
(g15
g3
NtRp1816
(dp1817
g18
F0.5
sg19
I28
sg20
g1
(g21
g22
(dp1818
NI28
stRp1819
(dp1820
g19
I28
sg26
Nsg27
Nsg28
Nsbsg29
I2
sg30
F29
sbs(g8
g931
tp1821
g1
(g15
g3
NtRp1822
(dp1823
g18
F0.5
sg19
I62
sg20
g1
(g21
g22
(dp1824
NI62
stRp1825
(dp1826
g19
I62
sg26
Nsg27
Nsg28
Nsbsg29
I2
sg30
F63
sbs(g10
g249
tp1827
g1
(g15
g3
NtRp1828
(dp1829
g18
F0.5
sg19
I18
sg20
g1
(g21
g22
(dp1830
NI18
stRp1831
(dp1832
g19
I18
sg26
Nsg27
Nsg28
Nsbsg29
I2
sg30
F19
sbs(g10
g515
tp1833
g1
(g15
g3
NtRp1834
(dp1835
g18
F0.5
sg19
I18
sg20
g1
(g21
g22
(dp1836
NI18
stRp1837
(dp1838
g19
I18
sg26
Nsg27
Nsg28
Nsbsg29
I2
sg30
F19
sbs(g9
g1238
tp1839
g1
(g15
g3
NtRp1840
(dp1841
g18
F0.5
sg19
I28
sg20
g1
(g21
g22
(dp1842
NI28
stRp1843
(dp1844
g19
I28
sg26
Nsg27
Nsg28
Nsbsg29
I2
sg30
F29
sbs(g8
g228
tp1845
g1
(g15
g3
NtRp1846
(dp1847
g18
F0.5
sg19
I62
sg20
g1
(g21
g22
(dp1848
NI62
stRp1849
(dp1850
g19
I62
sg26
Nsg27
Nsg28
Nsbsg29
I2
sg30
F63
sbs(S'Meaning'
p1851
g1677
tp1852
g1
(g15
g3
NtRp1853
(dp1854
g18
F0.5
sg19
I62
sg20
g1
(g21
g22
(dp1855
NI61
sI01
I1
stRp1856
(dp1857
g19
I62
sg26
Nsg27
Nsg28
Nsbsg29
I2
sg30
F63
sbs(g689
g964
tp1858
g1
(g15
g3
NtRp1859
(dp1860
g18
F0.5
sg19
I18
sg20
g1
(g21
g22
(dp1861
NI17
sI01
I1
stRp1862
(dp1863
g19
I18
sg26
Nsg27
Nsg28
Nsbsg29
I2
sg30
F19
sbs(g87
g184
tp1864
g1
(g15
g3
NtRp1865
(dp1866
g18
F0.5
sg19
I18
sg20
g1
(g21
g22
(dp1867
NI17
sI01
I1
stRp1868
(dp1869
g19
I18
sg26
Nsg27
Nsg28
Nsbsg29
I2
sg30
F19
sbs(g9
g906
tp1870
g1
(g15
g3
NtRp1871
(dp1872
g18
F0.5
sg19
I28
sg20
g1
(g21
g22
(dp1873
NI28
stRp1874
(dp1875
g19
I28
sg26
Nsg27
Nsg28
Nsbsg29
I2
sg30
F29
sbs(g689
g1684
tp1876
g1
(g15
g3
NtRp1877
(dp1878
g18
F0.5
sg19
I18
sg20
g1
(g21
g22
(dp1879
NI17
sI01
I1
stRp1880
(dp1881
g19
I18
sg26
Nsg27
Nsg28
Nsbsg29
I2
sg30
F19
sbs(g9
g931
tp1882
g1
(g15
g3
NtRp1883
(dp1884
g18
F0.5
sg19
I28
sg20
g1
(g21
g22
(dp1885
NI28
stRp1886
(dp1887
g19
I28
sg26
Nsg27
Nsg28
Nsbsg29
I2
sg30
F29
sbs(g8
S'contains(other)'
p1888
tp1889
g1
(g15
g3
NtRp1890
(dp1891
g18
F0.5
sg19
I62
sg20
g1
(g21
g22
(dp1892
NI62
stRp1893
(dp1894
g19
I62
sg26
Nsg27
Nsg28
Nsbsg29
I2
sg30
F63
sbs(S'Composition'
g944
tp1895
g1
(g15
g3
NtRp1896
(dp1897
g18
F0.5
sg19
I28
sg20
g1
(g21
g22
(dp1898
NI27
sI01
I1
stRp1899
(dp1900
g19
I28
sg26
Nsg27
Nsg28
Nsbsg29
I2
sg30
F29
sbs(g9
g1888
tp1901
g1
(g15
g3
NtRp1902
(dp1903
g18
F0.5
sg19
I28
sg20
g1
(g21
g22
(dp1904
NI28
stRp1905
(dp1906
g19
I28
sg26
Nsg27
Nsg28
Nsbsg29
I2
sg30
F29
sbs(g10
S'contains(mellons)'
p1907
tp1908
g1
(g15
g3
NtRp1909
(dp1910
g18
F0.5
sg19
I18
sg20
g1
(g21
g22
(dp1911
NI18
stRp1912
(dp1913
g19
I18
sg26
Nsg27
Nsg28
Nsbsg29
I2
sg30
F19
sbs(g9
g191
tp1914
g1
(g15
g3
NtRp1915
(dp1916
g18
F0.5
sg19
I28
sg20
g1
(g21
g22
(dp1917
NI28
stRp1918
(dp1919
g19
I28
sg26
Nsg27
Nsg28
Nsbsg29
I2
sg30
F29
sbs(g9
g832
tp1920
g1
(g15
g3
NtRp1921
(dp1922
g18
F0.5
sg19
I28
sg20
g1
(g21
g22
(dp1923
NI28
stRp1924
(dp1925
g19
I28
sg26
Nsg27
Nsg28
Nsbsg29
I2
sg30
F29
sbs(g10
g1536
tp1926
g1
(g15
g3
NtRp1927
(dp1928
g18
F0.5
sg19
I18
sg20
g1
(g21
g22
(dp1929
NI18
stRp1930
(dp1931
g19
I18
sg26
Nsg27
Nsg28
Nsbsg29
I2
sg30
F19
sbs(g8
g886
tp1932
g1
(g15
g3
NtRp1933
(dp1934
g18
F0.5
sg19
I62
sg20
g1
(g21
g22
(dp1935
NI62
stRp1936
(dp1937
g19
I62
sg26
Nsg27
Nsg28
Nsbsg29
I2
sg30
F63
sbs(g10
S'contains(backpacks)'
p1938
tp1939
g1
(g15
g3
NtRp1940
(dp1941
g18
F0.5
sg19
I18
sg20
g1
(g21
g22
(dp1942
NI18
stRp1943
(dp1944
g19
I18
sg26
Nsg27
Nsg28
Nsbsg29
I2
sg30
F19
sbs(g8
S'contains(made)'
p1945
tp1946
g1
(g15
g3
NtRp1947
(dp1948
g18
F0.5
sg19
I62
sg20
g1
(g21
g22
(dp1949
NI62
stRp1950
(dp1951
g19
I62
sg26
Nsg27
Nsg28
Nsbsg29
I2
sg30
F63
sbs(g9
g163
tp1952
g1
(g15
g3
NtRp1953
(dp1954
g18
F0.5
sg19
I28
sg20
g1
(g21
g22
(dp1955
NI28
stRp1956
(dp1957
g19
I28
sg26
Nsg27
Nsg28
Nsbsg29
I2
sg30
F29
sbs(g10
g1600
tp1958
g1
(g15
g3
NtRp1959
(dp1960
g18
F0.5
sg19
I18
sg20
g1
(g21
g22
(dp1961
NI18
stRp1962
(dp1963
g19
I18
sg26
Nsg27
Nsg28
Nsbsg29
I2
sg30
F19
sbs(g10
g872
tp1964
g1
(g15
g3
NtRp1965
(dp1966
g18
F0.5
sg19
I18
sg20
g1
(g21
g22
(dp1967
NI18
stRp1968
(dp1969
g19
I18
sg26
Nsg27
Nsg28
Nsbsg29
I2
sg30
F19
sbs(g10
g66
tp1970
g1
(g15
g3
NtRp1971
(dp1972
g18
F0.5
sg19
I18
sg20
g1
(g21
g22
(dp1973
NI18
stRp1974
(dp1975
g19
I18
sg26
Nsg27
Nsg28
Nsbsg29
I2
sg30
F19
sbs(S'Meaning'
g1600
tp1976
g1
(g15
g3
NtRp1977
(dp1978
g18
F0.5
sg19
I62
sg20
g1
(g21
g22
(dp1979
NI61
sI01
I1
stRp1980
(dp1981
g19
I62
sg26
Nsg27
Nsg28
Nsbsg29
I2
sg30
F63
sbs(S'Composition'
g1587
tp1982
g1
(g15
g3
NtRp1983
(dp1984
g18
F0.5
sg19
I28
sg20
g1
(g21
g22
(dp1985
NI27
sI01
I1
stRp1986
(dp1987
g19
I28
sg26
Nsg27
Nsg28
Nsbsg29
I2
sg30
F29
sbs(g9
g1168
tp1988
g1
(g15
g3
NtRp1989
(dp1990
g18
F0.5
sg19
I28
sg20
g1
(g21
g22
(dp1991
NI28
stRp1992
(dp1993
g19
I28
sg26
Nsg27
Nsg28
Nsbsg29
I2
sg30
F29
sbs(g227
g839
tp1994
g1
(g15
g3
NtRp1995
(dp1996
g18
F0.5
sg19
I18
sg20
g1
(g21
g22
(dp1997
NI17
sI01
I1
stRp1998
(dp1999
g19
I18
sg26
Nsg27
Nsg28
Nsbsg29
I2
sg30
F19
sbs(g8
g116
tp2000
g1
(g15
g3
NtRp2001
(dp2002
g18
F0.5
sg19
I62
sg20
g1
(g21
g22
(dp2003
NI62
stRp2004
(dp2005
g19
I62
sg26
Nsg27
Nsg28
Nsbsg29
I2
sg30
F63
sbs(S'Composition'
p2006
g825
tp2007
g1
(g15
g3
NtRp2008
(dp2009
g18
F0.5
sg19
I28
sg20
g1
(g21
g22
(dp2010
NI26
sI01
I2
stRp2011
(dp2012
g19
I28
sg26
Nsg27
Nsg28
Nsbsg29
I2
sg30
F29
sbs(g8
g494
tp2013
g1
(g15
g3
NtRp2014
(dp2015
g18
F0.5
sg19
I62
sg20
g1
(g21
g22
(dp2016
NI50
sI01
I12
stRp2017
(dp2018
g19
I62
sg26
Nsg27
Nsg28
Nsbsg29
I2
sg30
F63
sbs(S'Meaning'
g832
tp2019
g1
(g15
g3
NtRp2020
(dp2021
g18
F0.5
sg19
I62
sg20
g1
(g21
g22
(dp2022
NI61
sI01
I1
stRp2023
(dp2024
g19
I62
sg26
Nsg27
Nsg28
Nsbsg29
I2
sg30
F63
sbs(g501
S'contains(bureau)'
p2025
tp2026
g1
(g15
g3
NtRp2027
(dp2028
g18
F0.5
sg19
I18
sg20
g1
(g21
g22
(dp2029
NI17
sI01
I1
stRp2030
(dp2031
g19
I18
sg26
Nsg27
Nsg28
Nsbsg29
I2
sg30
F19
sbs(g10
g1319
tp2032
g1
(g15
g3
NtRp2033
(dp2034
g18
F0.5
sg19
I18
sg20
g1
(g21
g22
(dp2035
NI15
sI01
I3
stRp2036
(dp2037
g19
I18
sg26
Nsg27
Nsg28
Nsbsg29
I2
sg30
F19
sbs(S'Meaning'
S'contains(atm)'
p2038
tp2039
g1
(g15
g3
NtRp2040
(dp2041
g18
F0.5
sg19
I62
sg20
g1
(g21
g22
(dp2042
NI61
sI01
I1
stRp2043
(dp2044
g19
I62
sg26
Nsg27
Nsg28
Nsbsg29
I2
sg30
F63
sbs(g10
g704
tp2045
g1
(g15
g3
NtRp2046
(dp2047
g18
F0.5
sg19
I18
sg20
g1
(g21
g22
(dp2048
NI18
stRp2049
(dp2050
g19
I18
sg26
Nsg27
Nsg28
Nsbsg29
I2
sg30
F19
sbs(g10
S'contains(mouse)'
p2051
tp2052
g1
(g15
g3
NtRp2053
(dp2054
g18
F0.5
sg19
I18
sg20
g1
(g21
g22
(dp2055
NI18
stRp2056
(dp2057
g19
I18
sg26
Nsg27
Nsg28
Nsbsg29
I2
sg30
F19
sbs(g9
S'contains(word)'
p2058
tp2059
g1
(g15
g3
NtRp2060
(dp2061
g18
F0.5
sg19
I28
sg20
g1
(g21
g22
(dp2062
NI28
stRp2063
(dp2064
g19
I28
sg26
Nsg27
Nsg28
Nsbsg29
I2
sg30
F29
sbs(g10
g59
tp2065
g1
(g15
g3
NtRp2066
(dp2067
g18
F0.5
sg19
I18
sg20
g1
(g21
g22
(dp2068
NI18
stRp2069
(dp2070
g19
I18
sg26
Nsg27
Nsg28
Nsbsg29
I2
sg30
F19
sbs(g8
g220
tp2071
g1
(g15
g3
NtRp2072
(dp2073
g18
F0.5
sg19
I62
sg20
g1
(g21
g22
(dp2074
NI62
stRp2075
(dp2076
g19
I62
sg26
Nsg27
Nsg28
Nsbsg29
I2
sg30
F63
sbs(g8
g529
tp2077
g1
(g15
g3
NtRp2078
(dp2079
g18
F0.5
sg19
I62
sg20
g1
(g21
g22
(dp2080
NI62
stRp2081
(dp2082
g19
I62
sg26
Nsg27
Nsg28
Nsbsg29
I2
sg30
F63
sbs(g2006
g879
tp2083
g1
(g15
g3
NtRp2084
(dp2085
g18
F0.5
sg19
I28
sg20
g1
(g21
g22
(dp2086
NI23
sI01
I5
stRp2087
(dp2088
g19
I28
sg26
Nsg27
Nsg28
Nsbsg29
I2
sg30
F29
sbs(S'Meaning'
g59
tp2089
g1
(g15
g3
NtRp2090
(dp2091
g18
F0.5
sg19
I62
sg20
g1
(g21
g22
(dp2092
NI61
sI01
I1
stRp2093
(dp2094
g19
I62
sg26
Nsg27
Nsg28
Nsbsg29
I2
sg30
F63
sbs(g751
g2058
tp2095
g1
(g15
g3
NtRp2096
(dp2097
g18
F0.5
sg19
I62
sg20
g1
(g21
g22
(dp2098
NI57
sI01
I5
stRp2099
(dp2100
g19
I62
sg26
Nsg27
Nsg28
Nsbsg29
I2
sg30
F63
sbs(g9
g441
tp2101
g1
(g15
g3
NtRp2102
(dp2103
g18
F0.5
sg19
I28
sg20
g1
(g21
g22
(dp2104
NI28
stRp2105
(dp2106
g19
I28
sg26
Nsg27
Nsg28
Nsbsg29
I2
sg30
F29
sbs(S'Meaning'
g1369
tp2107
g1
(g15
g3
NtRp2108
(dp2109
g18
F0.5
sg19
I62
sg20
g1
(g21
g22
(dp2110
NI61
sI01
I1
stRp2111
(dp2112
g19
I62
sg26
Nsg27
Nsg28
Nsbsg29
I2
sg30
F63
sbs(g10
g738
tp2113
g1
(g15
g3
NtRp2114
(dp2115
g18
F0.5
sg19
I18
sg20
g1
(g21
g22
(dp2116
NI18
stRp2117
(dp2118
g19
I18
sg26
Nsg27
Nsg28
Nsbsg29
I2
sg30
F19
sbs(g10
S'contains(protective)'
p2119
tp2120
g1
(g15
g3
NtRp2121
(dp2122
g18
F0.5
sg19
I18
sg20
g1
(g21
g22
(dp2123
NI18
stRp2124
(dp2125
g19
I18
sg26
Nsg27
Nsg28
Nsbsg29
I2
sg30
F19
sbs(g10
S'contains(broke)'
p2126
tp2127
g1
(g15
g3
NtRp2128
(dp2129
g18
F0.5
sg19
I18
sg20
g1
(g21
g22
(dp2130
NI18
stRp2131
(dp2132
g19
I18
sg26
Nsg27
Nsg28
Nsbsg29
I2
sg30
F19
sbs(g10
g711
tp2133
g1
(g15
g3
NtRp2134
(dp2135
g18
F0.5
sg19
I18
sg20
g1
(g21
g22
(dp2136
NI18
stRp2137
(dp2138
g19
I18
sg26
Nsg27
Nsg28
Nsbsg29
I2
sg30
F19
sbs(S'Meaning'
g515
tp2139
g1
(g15
g3
NtRp2140
(dp2141
g18
F0.5
sg19
I62
sg20
g1
(g21
g22
(dp2142
NI61
sI01
I1
stRp2143
(dp2144
g19
I62
sg26
Nsg27
Nsg28
Nsbsg29
I2
sg30
F63
sbs(g10
g697
tp2145
g1
(g15
g3
NtRp2146
(dp2147
g18
F0.5
sg19
I18
sg20
g1
(g21
g22
(dp2148
NI18
stRp2149
(dp2150
g19
I18
sg26
Nsg27
Nsg28
Nsbsg29
I2
sg30
F19
sbs(g10
g1783
tp2151
g1
(g15
g3
NtRp2152
(dp2153
g18
F0.5
sg19
I18
sg20
g1
(g21
g22
(dp2154
NI18
stRp2155
(dp2156
g19
I18
sg26
Nsg27
Nsg28
Nsbsg29
I2
sg30
F19
sbs(g8
g249
tp2157
g1
(g15
g3
NtRp2158
(dp2159
g18
F0.5
sg19
I62
sg20
g1
(g21
g22
(dp2160
NI62
stRp2161
(dp2162
g19
I62
sg26
Nsg27
Nsg28
Nsbsg29
I2
sg30
F63
sbs(S'Composition'
S'contains(battery)'
p2163
tp2164
g1
(g15
g3
NtRp2165
(dp2166
g18
F0.5
sg19
I28
sg20
g1
(g21
g22
(dp2167
NI27
sI01
I1
stRp2168
(dp2169
g19
I28
sg26
Nsg27
Nsg28
Nsbsg29
I2
sg30
F29
sbs(g562
g647
tp2170
g1
(g15
g3
NtRp2171
(dp2172
g18
F0.5
sg19
I18
sg20
g1
(g21
g22
(dp2173
NI14
sI01
I4
stRp2174
(dp2175
g19
I18
sg26
Nsg27
Nsg28
Nsbsg29
I2
sg30
F19
sbs(g10
g1945
tp2176
g1
(g15
g3
NtRp2177
(dp2178
g18
F0.5
sg19
I18
sg20
g1
(g21
g22
(dp2179
NI18
stRp2180
(dp2181
g19
I18
sg26
Nsg27
Nsg28
Nsbsg29
I2
sg30
F19
sbs(g9
g1369
tp2182
g1
(g15
g3
NtRp2183
(dp2184
g18
F0.5
sg19
I28
sg20
g1
(g21
g22
(dp2185
NI28
stRp2186
(dp2187
g19
I28
sg26
Nsg27
Nsg28
Nsbsg29
I2
sg30
F29
sbs(g9
g661
tp2188
g1
(g15
g3
NtRp2189
(dp2190
g18
F0.5
sg19
I28
sg20
g1
(g21
g22
(dp2191
NI28
stRp2192
(dp2193
g19
I28
sg26
Nsg27
Nsg28
Nsbsg29
I2
sg30
F29
sbs(g9
g682
tp2194
g1
(g15
g3
NtRp2195
(dp2196
g18
F0.5
sg19
I28
sg20
g1
(g21
g22
(dp2197
NI28
stRp2198
(dp2199
g19
I28
sg26
Nsg27
Nsg28
Nsbsg29
I2
sg30
F29
sbs(g9
g1783
tp2200
g1
(g15
g3
NtRp2201
(dp2202
g18
F0.5
sg19
I28
sg20
g1
(g21
g22
(dp2203
NI28
stRp2204
(dp2205
g19
I28
sg26
Nsg27
Nsg28
Nsbsg29
I2
sg30
F29
sbs(g10
g996
tp2206
g1
(g15
g3
NtRp2207
(dp2208
g18
F0.5
sg19
I18
sg20
g1
(g21
g22
(dp2209
NI18
stRp2210
(dp2211
g19
I18
sg26
Nsg27
Nsg28
Nsbsg29
I2
sg30
F19
sbs(g9
g697
tp2212
g1
(g15
g3
NtRp2213
(dp2214
g18
F0.5
sg19
I28
sg20
g1
(g21
g22
(dp2215
NI28
stRp2216
(dp2217
g19
I28
sg26
Nsg27
Nsg28
Nsbsg29
I2
sg30
F29
sbs(g8
g31
tp2218
g1
(g15
g3
NtRp2219
(dp2220
g18
F0.5
sg19
I62
sg20
g1
(g21
g22
(dp2221
NI62
stRp2222
(dp2223
g19
I62
sg26
Nsg27
Nsg28
Nsbsg29
I2
sg30
F63
sbs(g8
g13
tp2224
g1
(g15
g3
NtRp2225
(dp2226
g18
F0.5
sg19
I62
sg20
g1
(g21
g22
(dp2227
NI62
stRp2228
(dp2229
g19
I62
sg26
Nsg27
Nsg28
Nsbsg29
I2
sg30
F63
sbs(g9
g1677
tp2230
g1
(g15
g3
NtRp2231
(dp2232
g18
F0.5
sg19
I28
sg20
g1
(g21
g22
(dp2233
NI28
stRp2234
(dp2235
g19
I28
sg26
Nsg27
Nsg28
Nsbsg29
I2
sg30
F29
sbs(g9
g2126
tp2236
g1
(g15
g3
NtRp2237
(dp2238
g18
F0.5
sg19
I28
sg20
g1
(g21
g22
(dp2239
NI28
stRp2240
(dp2241
g19
I28
sg26
Nsg27
Nsg28
Nsbsg29
I2
sg30
F29
sbs(g1851
g1499
tp2242
g1
(g15
g3
NtRp2243
(dp2244
g18
F0.5
sg19
I62
sg20
g1
(g21
g22
(dp2245
NI61
sI01
I1
stRp2246
(dp2247
g19
I62
sg26
Nsg27
Nsg28
Nsbsg29
I2
sg30
F63
sbs(S'Meaning'
g597
tp2248
g1
(g15
g3
NtRp2249
(dp2250
g18
F0.5
sg19
I62
sg20
g1
(g21
g22
(dp2251
NI61
sI01
I1
stRp2252
(dp2253
g19
I62
sg26
Nsg27
Nsg28
Nsbsg29
I2
sg30
F63
sbs(S'Meaning'
g387
tp2254
g1
(g15
g3
NtRp2255
(dp2256
g18
F0.5
sg19
I62
sg20
g1
(g21
g22
(dp2257
NI61
sI01
I1
stRp2258
(dp2259
g19
I62
sg26
Nsg27
Nsg28
Nsbsg29
I2
sg30
F63
sbs(g522
g704
tp2260
g1
(g15
g3
NtRp2261
(dp2262
g18
F0.5
sg19
I28
sg20
g1
(g21
g22
(dp2263
NI27
sI01
I1
stRp2264
(dp2265
g19
I28
sg26
Nsg27
Nsg28
Nsbsg29
I2
sg30
F29
sbs(g312
S'contains(a)'
tp2266
g1
(g15
g3
NtRp2267
(dp2268
g18
F0.5
sg19
I18
sg20
g1
(g21
g22
(dp2269
NI17
sI01
I1
stRp2270
(dp2271
g19
I18
sg26
Nsg27
Nsg28
Nsbsg29
I2
sg30
F19
sbs(g8
g1684
tp2272
g1
(g15
g3
NtRp2273
(dp2274
g18
F0.5
sg19
I62
sg20
g1
(g21
g22
(dp2275
NI62
stRp2276
(dp2277
g19
I62
sg26
Nsg27
Nsg28
Nsbsg29
I2
sg30
F63
sbs(g9
g2038
tp2278
g1
(g15
g3
NtRp2279
(dp2280
g18
F0.5
sg19
I28
sg20
g1
(g21
g22
(dp2281
NI28
stRp2282
(dp2283
g19
I28
sg26
Nsg27
Nsg28
Nsbsg29
I2
sg30
F29
sbs(g312
g1652
tp2284
g1
(g15
g3
NtRp2285
(dp2286
g18
F0.5
sg19
I18
sg20
g1
(g21
g22
(dp2287
NI17
sI01
I1
stRp2288
(dp2289
g19
I18
sg26
Nsg27
Nsg28
Nsbsg29
I2
sg30
F19
sbs(g10
g263
tp2290
g1
(g15
g3
NtRp2291
(dp2292
g18
F0.5
sg19
I18
sg20
g1
(g21
g22
(dp2293
NI18
stRp2294
(dp2295
g19
I18
sg26
Nsg27
Nsg28
Nsbsg29
I2
sg30
F19
sbs(S'Meaning'
g487
tp2296
g1
(g15
g3
NtRp2297
(dp2298
g18
F0.5
sg19
I62
sg20
g1
(g21
g22
(dp2299
NI61
sI01
I1
stRp2300
(dp2301
g19
I62
sg26
Nsg27
Nsg28
Nsbsg29
I2
sg30
F63
sbs(g10
g529
tp2302
g1
(g15
g3
NtRp2303
(dp2304
g18
F0.5
sg19
I18
sg20
g1
(g21
g22
(dp2305
NI18
stRp2306
(dp2307
g19
I18
sg26
Nsg27
Nsg28
Nsbsg29
I2
sg30
F19
sbs(g10
g1168
tp2308
g1
(g15
g3
NtRp2309
(dp2310
g18
F0.5
sg19
I18
sg20
g1
(g21
g22
(dp2311
NI18
stRp2312
(dp2313
g19
I18
sg26
Nsg27
Nsg28
Nsbsg29
I2
sg30
F19
sbs(g9
g468
tp2314
g1
(g15
g3
NtRp2315
(dp2316
g18
F0.5
sg19
I28
sg20
g1
(g21
g22
(dp2317
NI28
stRp2318
(dp2319
g19
I28
sg26
Nsg27
Nsg28
Nsbsg29
I2
sg30
F29
sbs(S'Meaning'
p2320
g725
tp2321
g1
(g15
g3
NtRp2322
(dp2323
g18
F0.5
sg19
I62
sg20
g1
(g21
g22
(dp2324
NI50
sI01
I12
stRp2325
(dp2326
g19
I62
sg26
Nsg27
Nsg28
Nsbsg29
I2
sg30
F63
sbs(g9
g597
tp2327
g1
(g15
g3
NtRp2328
(dp2329
g18
F0.5
sg19
I28
sg20
g1
(g21
g22
(dp2330
NI28
stRp2331
(dp2332
g19
I28
sg26
Nsg27
Nsg28
Nsbsg29
I2
sg30
F29
sbs(g9
g1938
tp2333
g1
(g15
g3
NtRp2334
(dp2335
g18
F0.5
sg19
I28
sg20
g1
(g21
g22
(dp2336
NI28
stRp2337
(dp2338
g19
I28
sg26
Nsg27
Nsg28
Nsbsg29
I2
sg30
F29
sbs(g9
g228
tp2339
g1
(g15
g3
NtRp2340
(dp2341
g18
F0.5
sg19
I28
sg20
g1
(g21
g22
(dp2342
NI28
stRp2343
(dp2344
g19
I28
sg26
Nsg27
Nsg28
Nsbsg29
I2
sg30
F29
sbs(g8
g1587
tp2345
g1
(g15
g3
NtRp2346
(dp2347
g18
F0.5
sg19
I62
sg20
g1
(g21
g22
(dp2348
NI62
stRp2349
(dp2350
g19
I62
sg26
Nsg27
Nsg28
Nsbsg29
I2
sg30
F63
sbs(g9
g1251
tp2351
g1
(g15
g3
NtRp2352
(dp2353
g18
F0.5
sg19
I28
sg20
g1
(g21
g22
(dp2354
NI28
stRp2355
(dp2356
g19
I28
sg26
Nsg27
Nsg28
Nsbsg29
I2
sg30
F29
sbs(S'Meaning'
p2357
g163
tp2358
g1
(g15
g3
NtRp2359
(dp2360
g18
F0.5
sg19
I62
sg20
g1
(g21
g22
(dp2361
NI61
sI01
I1
stRp2362
(dp2363
g19
I62
sg26
Nsg27
Nsg28
Nsbsg29
I2
sg30
F63
sbs(S'Meaning'
g1556
tp2364
g1
(g15
g3
NtRp2365
(dp2366
g18
F0.5
sg19
I62
sg20
g1
(g21
g22
(dp2367
NI61
sI01
I1
stRp2368
(dp2369
g19
I62
sg26
Nsg27
Nsg28
Nsbsg29
I2
sg30
F63
sbs(g8
g242
tp2370
g1
(g15
g3
NtRp2371
(dp2372
g18
F0.5
sg19
I62
sg20
g1
(g21
g22
(dp2373
NI62
stRp2374
(dp2375
g19
I62
sg26
Nsg27
Nsg28
Nsbsg29
I2
sg30
F63
sbs(g9
S'contains(of)'
tp2376
g1
(g15
g3
NtRp2377
(dp2378
g18
F0.5
sg19
I28
sg20
g1
(g21
g22
(dp2379
I01
I28
stRp2380
(dp2381
g19
I28
sg26
Nsg27
Nsg28
Nsbsg29
I2
sg30
F29
sbs(g9
g502
tp2382
g1
(g15
g3
NtRp2383
(dp2384
g18
F0.5
sg19
I28
sg20
g1
(g21
g22
(dp2385
NI28
stRp2386
(dp2387
g19
I28
sg26
Nsg27
Nsg28
Nsbsg29
I2
sg30
F29
sbs(g8
S'contains(does)'
p2388
tp2389
g1
(g15
g3
NtRp2390
(dp2391
g18
F0.5
sg19
I62
sg20
g1
(g21
g22
(dp2392
NI50
sI01
I12
stRp2393
(dp2394
g19
I62
sg26
Nsg27
Nsg28
Nsbsg29
I2
sg30
F63
sbs(S'Composition'
g137
tp2395
g1
(g15
g3
NtRp2396
(dp2397
g18
F0.5
sg19
I28
sg20
g1
(g21
g22
(dp2398
NI27
sI01
I1
stRp2399
(dp2400
g19
I28
sg26
Nsg27
Nsg28
Nsbsg29
I2
sg30
F29
sbs(g290
S'contains(mean)'
tp2401
g1
(g15
g3
NtRp2402
(dp2403
g18
F0.5
sg19
I18
sg20
g1
(g21
g22
(dp2404
NI16
sI01
I2
stRp2405
(dp2406
g19
I18
sg26
Nsg27
Nsg28
Nsbsg29
I2
sg30
F19
sbs(g9
g1907
tp2407
g1
(g15
g3
NtRp2408
(dp2409
g18
F0.5
sg19
I28
sg20
g1
(g21
g22
(dp2410
NI28
stRp2411
(dp2412
g19
I28
sg26
Nsg27
Nsg28
Nsbsg29
I2
sg30
F29
sbs(g10
g213
tp2413
g1
(g15
g3
NtRp2414
(dp2415
g18
F0.5
sg19
I18
sg20
g1
(g21
g22
(dp2416
NI18
stRp2417
(dp2418
g19
I18
sg26
Nsg27
Nsg28
Nsbsg29
I2
sg30
F19
sbs(g9
g1319
tp2419
g1
(g15
g3
NtRp2420
(dp2421
g18
F0.5
sg19
I28
sg20
g1
(g21
g22
(dp2422
NI28
stRp2423
(dp2424
g19
I28
sg26
Nsg27
Nsg28
Nsbsg29
I2
sg30
F29
sbs(g562
S'contains(does)'
tp2425
g1
(g15
g3
NtRp2426
(dp2427
g18
F0.5
sg19
I18
sg20
g1
(g21
g22
(dp2428
NI7
sI01
I11
stRp2429
(dp2430
g19
I18
sg26
Nsg27
Nsg28
Nsbsg29
I2
sg30
F19
sbs(g9
g1099
tp2431
g1
(g15
g3
NtRp2432
(dp2433
g18
F0.5
sg19
I28
sg20
g1
(g21
g22
(dp2434
NI28
stRp2435
(dp2436
g19
I28
sg26
Nsg27
Nsg28
Nsbsg29
I2
sg30
F29
sbs(S'Meaning'
g779
tp2437
g1
(g15
g3
NtRp2438
(dp2439
g18
F0.5
sg19
I62
sg20
g1
(g21
g22
(dp2440
NI61
sI01
I1
stRp2441
(dp2442
g19
I62
sg26
Nsg27
Nsg28
Nsbsg29
I2
sg30
F63
sbs(g10
S'contains(are)'
p2443
tp2444
g1
(g15
g3
NtRp2445
(dp2446
g18
F0.5
sg19
I18
sg20
g1
(g21
g22
(dp2447
NI18
stRp2448
(dp2449
g19
I18
sg26
Nsg27
Nsg28
Nsbsg29
I2
sg30
F19
sbs(g8
g170
tp2450
g1
(g15
g3
NtRp2451
(dp2452
g18
F0.5
sg19
I62
sg20
g1
(g21
g22
(dp2453
NI62
stRp2454
(dp2455
g19
I62
sg26
Nsg27
Nsg28
Nsbsg29
I2
sg30
F63
sbs(g45
g1907
tp2456
g1
(g15
g3
NtRp2457
(dp2458
g18
F0.5
sg19
I62
sg20
g1
(g21
g22
(dp2459
NI61
sI01
I1
stRp2460
(dp2461
g19
I62
sg26
Nsg27
Nsg28
Nsbsg29
I2
sg30
F63
sbs(g8
g1543
tp2462
g1
(g15
g3
NtRp2463
(dp2464
g18
F0.5
sg19
I62
sg20
g1
(g21
g22
(dp2465
NI62
stRp2466
(dp2467
g19
I62
sg26
Nsg27
Nsg28
Nsbsg29
I2
sg30
F63
sbs(S'Meaning'
g283
tp2468
g1
(g15
g3
NtRp2469
(dp2470
g18
F0.5
sg19
I62
sg20
g1
(g21
g22
(dp2471
NI61
sI01
I1
stRp2472
(dp2473
g19
I62
sg26
Nsg27
Nsg28
Nsbsg29
I2
sg30
F63
sbs(S'Meaning'
g977
tp2474
g1
(g15
g3
NtRp2475
(dp2476
g18
F0.5
sg19
I62
sg20
g1
(g21
g22
(dp2477
NI61
sI01
I1
stRp2478
(dp2479
g19
I62
sg26
Nsg27
Nsg28
Nsbsg29
I2
sg30
F63
sbs(g576
S'contains(is)'
tp2480
g1
(g15
g3
NtRp2481
(dp2482
g18
F0.5
sg19
I28
sg20
g1
(g21
g22
(dp2483
NI10
sI01
I18
stRp2484
(dp2485
g19
I28
sg26
Nsg27
Nsg28
Nsbsg29
I2
sg30
F29
sbs(g689
g1888
tp2486
g1
(g15
g3
NtRp2487
(dp2488
g18
F0.5
sg19
I18
sg20
g1
(g21
g22
(dp2489
NI17
sI01
I1
stRp2490
(dp2491
g19
I18
sg26
Nsg27
Nsg28
Nsbsg29
I2
sg30
F19
sbs(g8
g1802
tp2492
g1
(g15
g3
NtRp2493
(dp2494
g18
F0.5
sg19
I62
sg20
g1
(g21
g22
(dp2495
NI62
stRp2496
(dp2497
g19
I62
sg26
Nsg27
Nsg28
Nsbsg29
I2
sg30
F63
sbs(S'Meaning'
g668
tp2498
g1
(g15
g3
NtRp2499
(dp2500
g18
F0.5
sg19
I62
sg20
g1
(g21
g22
(dp2501
NI61
sI01
I1
stRp2502
(dp2503
g19
I62
sg26
Nsg27
Nsg28
Nsbsg29
I2
sg30
F63
sbs(g9
g373
tp2504
g1
(g15
g3
NtRp2505
(dp2506
g18
F0.5
sg19
I28
sg20
g1
(g21
g22
(dp2507
NI28
stRp2508
(dp2509
g19
I28
sg26
Nsg27
Nsg28
Nsbsg29
I2
sg30
F29
sbs(S'Abbreviation'
g1238
tp2510
g1
(g15
g3
NtRp2511
(dp2512
g18
F0.5
sg19
I18
sg20
g1
(g21
g22
(dp2513
NI17
sI01
I1
stRp2514
(dp2515
g19
I18
sg26
Nsg27
Nsg28
Nsbsg29
I2
sg30
F19
sbs(S'Composition'
g1131
tp2516
g1
(g15
g3
NtRp2517
(dp2518
g18
F0.5
sg19
I28
sg20
g1
(g21
g22
(dp2519
NI27
sI01
I1
stRp2520
(dp2521
g19
I28
sg26
Nsg27
Nsg28
Nsbsg29
I2
sg30
F29
sbs(g297
g1802
tp2522
g1
(g15
g3
NtRp2523
(dp2524
g18
F0.5
sg19
I18
sg20
g1
(g21
g22
(dp2525
NI15
sI01
I3
stRp2526
(dp2527
g19
I18
sg26
Nsg27
Nsg28
Nsbsg29
I2
sg30
F19
sbs(g10
g366
tp2528
g1
(g15
g3
NtRp2529
(dp2530
g18
F0.5
sg19
I18
sg20
g1
(g21
g22
(dp2531
NI18
stRp2532
(dp2533
g19
I18
sg26
Nsg27
Nsg28
Nsbsg29
I2
sg30
F19
sbs(g9
g893
tp2534
g1
(g15
g3
NtRp2535
(dp2536
g18
F0.5
sg19
I28
sg20
g1
(g21
g22
(dp2537
NI28
stRp2538
(dp2539
g19
I28
sg26
Nsg27
Nsg28
Nsbsg29
I2
sg30
F29
sbs(S'Meaning'
g305
tp2540
g1
(g15
g3
NtRp2541
(dp2542
g18
F0.5
sg19
I62
sg20
g1
(g21
g22
(dp2543
NI61
sI01
I1
stRp2544
(dp2545
g19
I62
sg26
Nsg27
Nsg28
Nsbsg29
I2
sg30
F63
sbs(S'Meaning'
g569
tp2546
g1
(g15
g3
NtRp2547
(dp2548
g18
F0.5
sg19
I62
sg20
g1
(g21
g22
(dp2549
NI60
sI01
I2
stRp2550
(dp2551
g19
I62
sg26
Nsg27
Nsg28
Nsbsg29
I2
sg30
F63
sbs(g10
g1131
tp2552
g1
(g15
g3
NtRp2553
(dp2554
g18
F0.5
sg19
I18
sg20
g1
(g21
g22
(dp2555
NI18
stRp2556
(dp2557
g19
I18
sg26
Nsg27
Nsg28
Nsbsg29
I2
sg30
F19
sbs(g8
g2051
tp2558
g1
(g15
g3
NtRp2559
(dp2560
g18
F0.5
sg19
I62
sg20
g1
(g21
g22
(dp2561
NI62
stRp2562
(dp2563
g19
I62
sg26
Nsg27
Nsg28
Nsbsg29
I2
sg30
F63
sbs(g297
g1041
tp2564
g1
(g15
g3
NtRp2565
(dp2566
g18
F0.5
sg19
I18
sg20
g1
(g21
g22
(dp2567
NI17
sI01
I1
stRp2568
(dp2569
g19
I18
sg26
Nsg27
Nsg28
Nsbsg29
I2
sg30
F19
sbs(S'Meaning'
S'contains(pencil)'
tp2570
g1
(g15
g3
NtRp2571
(dp2572
g18
F0.5
sg19
I62
sg20
g1
(g21
g22
(dp2573
NI61
sI01
I1
stRp2574
(dp2575
g19
I62
sg26
Nsg27
Nsg28
Nsbsg29
I2
sg30
F63
sbs(g8
g2025
tp2576
g1
(g15
g3
NtRp2577
(dp2578
g18
F0.5
sg19
I62
sg20
g1
(g21
g22
(dp2579
NI62
stRp2580
(dp2581
g19
I62
sg26
Nsg27
Nsg28
Nsbsg29
I2
sg30
F63
sbs(g9
g2388
tp2582
g1
(g15
g3
NtRp2583
(dp2584
g18
F0.5
sg19
I28
sg20
g1
(g21
g22
(dp2585
NI28
stRp2586
(dp2587
g19
I28
sg26
Nsg27
Nsg28
Nsbsg29
I2
sg30
F29
sbs(g8
g434
tp2588
g1
(g15
g3
NtRp2589
(dp2590
g18
F0.5
sg19
I62
sg20
g1
(g21
g22
(dp2591
NI62
stRp2592
(dp2593
g19
I62
sg26
Nsg27
Nsg28
Nsbsg29
I2
sg30
F63
sbs(g2357
g191
tp2594
g1
(g15
g3
NtRp2595
(dp2596
g18
F0.5
sg19
I62
sg20
g1
(g21
g22
(dp2597
NI61
sI01
I1
stRp2598
(dp2599
g19
I62
sg26
Nsg27
Nsg28
Nsbsg29
I2
sg30
F63
sbs(g8
g448
tp2600
g1
(g15
g3
NtRp2601
(dp2602
g18
F0.5
sg19
I62
sg20
g1
(g21
g22
(dp2603
NI62
stRp2604
(dp2605
g19
I62
sg26
Nsg27
Nsg28
Nsbsg29
I2
sg30
F63
sbs(g9
g1613
tp2606
g1
(g15
g3
NtRp2607
(dp2608
g18
F0.5
sg19
I28
sg20
g1
(g21
g22
(dp2609
NI28
stRp2610
(dp2611
g19
I28
sg26
Nsg27
Nsg28
Nsbsg29
I2
sg30
F29
sbs(g10
g170
tp2612
g1
(g15
g3
NtRp2613
(dp2614
g18
F0.5
sg19
I18
sg20
g1
(g21
g22
(dp2615
NI18
stRp2616
(dp2617
g19
I18
sg26
Nsg27
Nsg28
Nsbsg29
I2
sg30
F19
sbs(g9
g2443
tp2618
g1
(g15
g3
NtRp2619
(dp2620
g18
F0.5
sg19
I28
sg20
g1
(g21
g22
(dp2621
NI18
sI01
I10
stRp2622
(dp2623
g19
I28
sg26
Nsg27
Nsg28
Nsbsg29
I2
sg30
F29
sbs(g628
g235
tp2624
g1
(g15
g3
NtRp2625
(dp2626
g18
F0.5
sg19
I62
sg20
g1
(g21
g22
(dp2627
NI47
sI01
I15
stRp2628
(dp2629
g19
I62
sg26
Nsg27
Nsg28
Nsbsg29
I2
sg30
F63
sbs(g8
g73
tp2630
g1
(g15
g3
NtRp2631
(dp2632
g18
F0.5
sg19
I62
sg20
g1
(g21
g22
(dp2633
NI62
stRp2634
(dp2635
g19
I62
sg26
Nsg27
Nsg28
Nsbsg29
I2
sg30
F63
sbs(g10
g235
tp2636
g1
(g15
g3
NtRp2637
(dp2638
g18
F0.5
sg19
I18
sg20
g1
(g21
g22
(dp2639
NI18
stRp2640
(dp2641
g19
I18
sg26
Nsg27
Nsg28
Nsbsg29
I2
sg30
F19
sbs(g10
g1086
tp2642
g1
(g15
g3
NtRp2643
(dp2644
g18
F0.5
sg19
I18
sg20
g1
(g21
g22
(dp2645
NI18
stRp2646
(dp2647
g19
I18
sg26
Nsg27
Nsg28
Nsbsg29
I2
sg30
F19
sbs(g9
g130
tp2648
g1
(g15
g3
NtRp2649
(dp2650
g18
F0.5
sg19
I28
sg20
g1
(g21
g22
(dp2651
NI28
stRp2652
(dp2653
g19
I28
sg26
Nsg27
Nsg28
Nsbsg29
I2
sg30
F29
sbs(g8
g825
tp2654
g1
(g15
g3
NtRp2655
(dp2656
g18
F0.5
sg19
I62
sg20
g1
(g21
g22
(dp2657
NI62
stRp2658
(dp2659
g19
I62
sg26
Nsg27
Nsg28
Nsbsg29
I2
sg30
F63
sbs(S'Meaning'
g1938
tp2660
g1
(g15
g3
NtRp2661
(dp2662
g18
F0.5
sg19
I62
sg20
g1
(g21
g22
(dp2663
NI61
sI01
I1
stRp2664
(dp2665
g19
I62
sg26
Nsg27
Nsg28
Nsbsg29
I2
sg30
F63
sbs(g9
g116
tp2666
g1
(g15
g3
NtRp2667
(dp2668
g18
F0.5
sg19
I28
sg20
g1
(g21
g22
(dp2669
NI28
stRp2670
(dp2671
g19
I28
sg26
Nsg27
Nsg28
Nsbsg29
I2
sg30
F29
sbs(g9
g1633
tp2672
g1
(g15
g3
NtRp2673
(dp2674
g18
F0.5
sg19
I28
sg20
g1
(g21
g22
(dp2675
NI28
stRp2676
(dp2677
g19
I28
sg26
Nsg27
Nsg28
Nsbsg29
I2
sg30
F29
sbs(S'Meaning'
g2119
tp2678
g1
(g15
g3
NtRp2679
(dp2680
g18
F0.5
sg19
I62
sg20
g1
(g21
g22
(dp2681
NI61
sI01
I1
stRp2682
(dp2683
g19
I62
sg26
Nsg27
Nsg28
Nsbsg29
I2
sg30
F63
sbs(g87
g1543
tp2684
g1
(g15
g3
NtRp2685
(dp2686
g18
F0.5
sg19
I18
sg20
g1
(g21
g22
(dp2687
NI17
sI01
I1
stRp2688
(dp2689
g19
I18
sg26
Nsg27
Nsg28
Nsbsg29
I2
sg30
F19
sbs(S'Meaning'
g738
tp2690
g1
(g15
g3
NtRp2691
(dp2692
g18
F0.5
sg19
I62
sg20
g1
(g21
g22
(dp2693
NI61
sI01
I1
stRp2694
(dp2695
g19
I62
sg26
Nsg27
Nsg28
Nsbsg29
I2
sg30
F63
sbs(g628
S'contains(is)'
tp2696
g1
(g15
g3
NtRp2697
(dp2698
g18
F0.5
sg19
I62
sg20
g1
(g21
g22
(dp2699
NI33
sI01
I29
stRp2700
(dp2701
g19
I62
sg26
Nsg27
Nsg28
Nsbsg29
I2
sg30
F63
sbs(g312
g1225
tp2702
g1
(g15
g3
NtRp2703
(dp2704
g18
F0.5
sg19
I18
sg20
g1
(g21
g22
(dp2705
NI17
sI01
I1
stRp2706
(dp2707
g19
I18
sg26
Nsg27
Nsg28
Nsbsg29
I2
sg30
F19
sbs(g8
g123
tp2708
g1
(g15
g3
NtRp2709
(dp2710
g18
F0.5
sg19
I62
sg20
g1
(g21
g22
(dp2711
NI61
sI01
I1
stRp2712
(dp2713
g19
I62
sg26
Nsg27
Nsg28
Nsbsg29
I2
sg30
F63
sbs(g1003
g38
tp2714
g1
(g15
g3
NtRp2715
(dp2716
g18
F0.5
sg19
I18
sg20
g1
(g21
g22
(dp2717
NI17
sI01
I1
stRp2718
(dp2719
g19
I18
sg26
Nsg27
Nsg28
Nsbsg29
I2
sg30
F19
sbs(g10
g123
tp2720
g1
(g15
g3
NtRp2721
(dp2722
g18
F0.5
sg19
I18
sg20
g1
(g21
g22
(dp2723
NI18
stRp2724
(dp2725
g19
I18
sg26
Nsg27
Nsg28
Nsbsg29
I2
sg30
F19
sbs(g8
g1633
tp2726
g1
(g15
g3
NtRp2727
(dp2728
g18
F0.5
sg19
I62
sg20
g1
(g21
g22
(dp2729
NI62
stRp2730
(dp2731
g19
I62
sg26
Nsg27
Nsg28
Nsbsg29
I2
sg30
F63
sbs(g9
g1556
tp2732
g1
(g15
g3
NtRp2733
(dp2734
g18
F0.5
sg19
I28
sg20
g1
(g21
g22
(dp2735
NI28
stRp2736
(dp2737
g19
I28
sg26
Nsg27
Nsg28
Nsbsg29
I2
sg30
F29
sbs(S'Meaning'
g957
tp2738
g1
(g15
g3
NtRp2739
(dp2740
g18
F0.5
sg19
I62
sg20
g1
(g21
g22
(dp2741
NI61
sI01
I1
stRp2742
(dp2743
g19
I62
sg26
Nsg27
Nsg28
Nsbsg29
I2
sg30
F63
sbs(g10
g2038
tp2744
g1
(g15
g3
NtRp2745
(dp2746
g18
F0.5
sg19
I18
sg20
g1
(g21
g22
(dp2747
NI18
stRp2748
(dp2749
g19
I18
sg26
Nsg27
Nsg28
Nsbsg29
I2
sg30
F19
sbs(S'Meaning'
g654
tp2750
g1
(g15
g3
NtRp2751
(dp2752
g18
F0.5
sg19
I62
sg20
g1
(g21
g22
(dp2753
NI61
sI01
I1
stRp2754
(dp2755
g19
I62
sg26
Nsg27
Nsg28
Nsbsg29
I2
sg30
F63
sbs(g9
g779
tp2756
g1
(g15
g3
NtRp2757
(dp2758
g18
F0.5
sg19
I28
sg20
g1
(g21
g22
(dp2759
NI28
stRp2760
(dp2761
g19
I28
sg26
Nsg27
Nsg28
Nsbsg29
I2
sg30
F29
sbs(g10
g852
tp2762
g1
(g15
g3
NtRp2763
(dp2764
g18
F0.5
sg19
I18
sg20
g1
(g21
g22
(dp2765
NI18
stRp2766
(dp2767
g19
I18
sg26
Nsg27
Nsg28
Nsbsg29
I2
sg30
F19
sbs(g10
g1499
tp2768
g1
(g15
g3
NtRp2769
(dp2770
g18
F0.5
sg19
I18
sg20
g1
(g21
g22
(dp2771
NI18
stRp2772
(dp2773
g19
I18
sg26
Nsg27
Nsg28
Nsbsg29
I2
sg30
F19
sbs(g9
g263
tp2774
g1
(g15
g3
NtRp2775
(dp2776
g18
F0.5
sg19
I28
sg20
g1
(g21
g22
(dp2777
NI28
stRp2778
(dp2779
g19
I28
sg26
Nsg27
Nsg28
Nsbsg29
I2
sg30
F29
sbs(g9
g1652
tp2780
g1
(g15
g3
NtRp2781
(dp2782
g18
F0.5
sg19
I28
sg20
g1
(g21
g22
(dp2783
NI28
stRp2784
(dp2785
g19
I28
sg26
Nsg27
Nsg28
Nsbsg29
I2
sg30
F29
sbs(g10
g661
tp2786
g1
(g15
g3
NtRp2787
(dp2788
g18
F0.5
sg19
I18
sg20
g1
(g21
g22
(dp2789
NI18
stRp2790
(dp2791
g19
I18
sg26
Nsg27
Nsg28
Nsbsg29
I2
sg30
F19
sbs(g8
g2163
tp2792
g1
(g15
g3
NtRp2793
(dp2794
g18
F0.5
sg19
I62
sg20
g1
(g21
g22
(dp2795
NI62
stRp2796
(dp2797
g19
I62
sg26
Nsg27
Nsg28
Nsbsg29
I2
sg30
F63
sbs(g10
S'contains(of)'
tp2798
g1
(g15
g3
NtRp2799
(dp2800
g18
F0.5
sg19
I18
sg20
g1
(g21
g22
(dp2801
NI14
sI01
I4
stRp2802
(dp2803
g19
I18
sg26
Nsg27
Nsg28
Nsbsg29
I2
sg30
F19
sbs(g1782
g1536
tp2804
g1
(g15
g3
NtRp2805
(dp2806
g18
F0.5
sg19
I62
sg20
g1
(g21
g22
(dp2807
NI61
sI01
I1
stRp2808
(dp2809
g19
I62
sg26
Nsg27
Nsg28
Nsbsg29
I2
sg30
F63
sbs(g10
g1721
tp2810
g1
(g15
g3
NtRp2811
(dp2812
g18
F0.5
sg19
I18
sg20
g1
(g21
g22
(dp2813
NI17
sI01
I1
stRp2814
(dp2815
g19
I18
sg26
Nsg27
Nsg28
Nsbsg29
I2
sg30
F19
sbs(g10
g2163
tp2816
g1
(g15
g3
NtRp2817
(dp2818
g18
F0.5
sg19
I18
sg20
g1
(g21
g22
(dp2819
NI18
stRp2820
(dp2821
g19
I18
sg26
Nsg27
Nsg28
Nsbsg29
I2
sg30
F19
sbs(S'Composition'
g1408
tp2822
g1
(g15
g3
NtRp2823
(dp2824
g18
F0.5
sg19
I28
sg20
g1
(g21
g22
(dp2825
NI27
sI01
I1
stRp2826
(dp2827
g19
I28
sg26
Nsg27
Nsg28
Nsbsg29
I2
sg30
F29
sbs(S'Meaning'
p2828
g130
tp2829
g1
(g15
g3
NtRp2830
(dp2831
g18
F0.5
sg19
I62
sg20
g1
(g21
g22
(dp2832
NI61
sI01
I1
stRp2833
(dp2834
g19
I62
sg26
Nsg27
Nsg28
Nsbsg29
I2
sg30
F63
sbs(g9
g759
tp2835
g1
(g15
g3
NtRp2836
(dp2837
g18
F0.5
sg19
I28
sg20
g1
(g21
g22
(dp2838
NI28
stRp2839
(dp2840
g19
I28
sg26
Nsg27
Nsg28
Nsbsg29
I2
sg30
F29
sbs(S'Composition'
g1401
tp2841
g1
(g15
g3
NtRp2842
(dp2843
g18
F0.5
sg19
I28
sg20
g1
(g21
g22
(dp2844
NI27
sI01
I1
stRp2845
(dp2846
g19
I28
sg26
Nsg27
Nsg28
Nsbsg29
I2
sg30
F29
sbs(S'Meaning'
g327
tp2847
g1
(g15
g3
NtRp2848
(dp2849
g18
F0.5
sg19
I62
sg20
g1
(g21
g22
(dp2850
NI61
sI01
I1
stRp2851
(dp2852
g19
I62
sg26
Nsg27
Nsg28
Nsbsg29
I2
sg30
F63
sbs(g2828
g109
tp2853
g1
(g15
g3
NtRp2854
(dp2855
g18
F0.5
sg19
I62
sg20
g1
(g21
g22
(dp2856
NI61
sI01
I1
stRp2857
(dp2858
g19
I62
sg26
Nsg27
Nsg28
Nsbsg29
I2
sg30
F63
sbs(g312
g1073
tp2859
g1
(g15
g3
NtRp2860
(dp2861
g18
F0.5
sg19
I18
sg20
g1
(g21
g22
(dp2862
NI17
sI01
I1
stRp2863
(dp2864
g19
I18
sg26
Nsg27
Nsg28
Nsbsg29
I2
sg30
F19
sbs(g2320
g2126
tp2865
g1
(g15
g3
NtRp2866
(dp2867
g18
F0.5
sg19
I62
sg20
g1
(g21
g22
(dp2868
NI61
sI01
I1
stRp2869
(dp2870
g19
I62
sg26
Nsg27
Nsg28
Nsbsg29
I2
sg30
F63
sbs(g9
g2119
tp2871
g1
(g15
g3
NtRp2872
(dp2873
g18
F0.5
sg19
I28
sg20
g1
(g21
g22
(dp2874
NI28
stRp2875
(dp2876
g19
I28
sg26
Nsg27
Nsg28
Nsbsg29
I2
sg30
F29
sbs(g9
g1721
tp2877
g1
(g15
g3
NtRp2878
(dp2879
g18
F0.5
sg19
I28
sg20
g1
(g21
g22
(dp2880
NI28
stRp2881
(dp2882
g19
I28
sg26
Nsg27
Nsg28
Nsbsg29
I2
sg30
F29
sbs(g1851
g156
tp2883
g1
(g15
g3
NtRp2884
(dp2885
g18
F0.5
sg19
I62
sg20
g1
(g21
g22
(dp2886
NI56
sI01
I6
stRp2887
(dp2888
g19
I62
sg26
Nsg27
Nsg28
Nsbsg29
I2
sg30
F63
sbs(g10
g906
tp2889
g1
(g15
g3
NtRp2890
(dp2891
g18
F0.5
sg19
I18
sg20
g1
(g21
g22
(dp2892
NI18
stRp2893
(dp2894
g19
I18
sg26
Nsg27
Nsg28
Nsbsg29
I2
sg30
F19
sbs(g9
g1945
tp2895
g1
(g15
g3
NtRp2896
(dp2897
g18
F0.5
sg19
I28
sg20
g1
(g21
g22
(dp2898
I01
I28
stRp2899
(dp2900
g19
I28
sg26
Nsg27
Nsg28
Nsbsg29
I2
sg30
F29
sbs(S'Meaning'
g1054
tp2901
g1
(g15
g3
NtRp2902
(dp2903
g18
F0.5
sg19
I62
sg20
g1
(g21
g22
(dp2904
NI61
sI01
I1
stRp2905
(dp2906
g19
I62
sg26
Nsg27
Nsg28
Nsbsg29
I2
sg30
F63
sbs(g8
g879
tp2907
g1
(g15
g3
NtRp2908
(dp2909
g18
F0.5
sg19
I62
sg20
g1
(g21
g22
(dp2910
NI62
stRp2911
(dp2912
g19
I62
sg26
Nsg27
Nsg28
Nsbsg29
I2
sg30
F63
sbs(g10
g1620
tp2913
g1
(g15
g3
NtRp2914
(dp2915
g18
F0.5
sg19
I18
sg20
g1
(g21
g22
(dp2916
NI18
stRp2917
(dp2918
g19
I18
sg26
Nsg27
Nsg28
Nsbsg29
I2
sg30
F19
sbs(g9
g718
tp2919
g1
(g15
g3
NtRp2920
(dp2921
g18
F0.5
sg19
I28
sg20
g1
(g21
g22
(dp2922
NI28
stRp2923
(dp2924
g19
I28
sg26
Nsg27
Nsg28
Nsbsg29
I2
sg30
F29
sbs(g9
g1073
tp2925
g1
(g15
g3
NtRp2926
(dp2927
g18
F0.5
sg19
I28
sg20
g1
(g21
g22
(dp2928
NI28
stRp2929
(dp2930
g19
I28
sg26
Nsg27
Nsg28
Nsbsg29
I2
sg30
F29
sbs(g10
g759
tp2931
g1
(g15
g3
NtRp2932
(dp2933
g18
F0.5
sg19
I18
sg20
g1
(g21
g22
(dp2934
NI18
stRp2935
(dp2936
g19
I18
sg26
Nsg27
Nsg28
Nsbsg29
I2
sg30
F19
sbs(g9
g690
tp2937
g1
(g15
g3
NtRp2938
(dp2939
g18
F0.5
sg19
I28
sg20
g1
(g21
g22
(dp2940
NI28
stRp2941
(dp2942
g19
I28
sg26
Nsg27
Nsg28
Nsbsg29
I2
sg30
F29
sbs(S'Composition'
g2051
tp2943
g1
(g15
g3
NtRp2944
(dp2945
g18
F0.5
sg19
I28
sg20
g1
(g21
g22
(dp2946
NI27
sI01
I1
stRp2947
(dp2948
g19
I28
sg26
Nsg27
Nsg28
Nsbsg29
I2
sg30
F29
sbs(g10
g654
tp2949
g1
(g15
g3
NtRp2950
(dp2951
g18
F0.5
sg19
I18
sg20
g1
(g21
g22
(dp2952
NI18
stRp2953
(dp2954
g19
I18
sg26
Nsg27
Nsg28
Nsbsg29
I2
sg30
F19
sbs(g9
g583
tp2955
g1
(g15
g3
NtRp2956
(dp2957
g18
F0.5
sg19
I28
sg20
g1
(g21
g22
(dp2958
NI28
stRp2959
(dp2960
g19
I28
sg26
Nsg27
Nsg28
Nsbsg29
I2
sg30
F29
sbs(g9
g2025
tp2961
g1
(g15
g3
NtRp2962
(dp2963
g18
F0.5
sg19
I28
sg20
g1
(g21
g22
(dp2964
NI28
stRp2965
(dp2966
g19
I28
sg26
Nsg27
Nsg28
Nsbsg29
I2
sg30
F29
sbs(g8
g1362
tp2967
g1
(g15
g3
NtRp2968
(dp2969
g18
F0.5
sg19
I62
sg20
g1
(g21
g22
(dp2970
NI62
stRp2971
(dp2972
g19
I62
sg26
Nsg27
Nsg28
Nsbsg29
I2
sg30
F63
sbs(S'Abbreviation'
g1270
tp2973
g1
(g15
g3
NtRp2974
(dp2975
g18
F0.5
sg19
I18
sg20
g1
(g21
g22
(dp2976
NI17
sI01
I1
stRp2977
(dp2978
g19
I18
sg26
Nsg27
Nsg28
Nsbsg29
I2
sg30
F19
sbs(g9
g886
tp2979
g1
(g15
g3
NtRp2980
(dp2981
g18
F0.5
sg19
I28
sg20
g1
(g21
g22
(dp2982
NI28
stRp2983
(dp2984
g19
I28
sg26
Nsg27
Nsg28
Nsbsg29
I2
sg30
F29
sbssS'_label_probdist'
p2985
g1
(g15
g3
NtRp2986
(dp2987
g18
F0.5
sg19
I108
sg20
g1
(g21
g22
(dp2988
g10
I18
sg8
I62
sg9
I28
stRp2989
(dp2990
g19
I108
sg26
Nsg27
(lp2991
(g8
I62
tp2992
a(g9
I28
tp2993
a(g10
I18
tp2994
asg28
Nsbsg29
I3
sg30
F109.5
sbsb.