ccopy_reg
_reconstructor
p1
(cnltk.classify.naivebayes
NaiveBayesClassifier
p2
c__builtin__
object
p3
NtRp4
(dp5
S'_labels'
p6
(lp7
S'Abbreviation'
p8
aS'Meaning'
p9
aS'Composition'
p10
asS'_feature_probdist'
p11
(dp12
(S'Composition'
S'contains(batteries)'
p13
tp14
g1
(cnltk.probability
ELEProbDist
p15
g3
NtRp16
(dp17
S'_gamma'
p18
F0.5
sS'_N'
p19
I17
sS'_freqdist'
p20
cnltk.probability
FreqDist
p21
((dp22
I01
I1
sNI16
stRp23
sS'_bins'
p24
I2
sS'_divisor'
p25
F18
sbs(g10
S'contains(s)'
p26
tp27
g1
(g15
g3
NtRp28
(dp29
g18
F0.5
sg19
I17
sg20
g21
((dp30
NI17
stRp31
sg24
I2
sg25
F18
sbs(S'Meaning'
p32
S'contains(are)'
tp33
g1
(g15
g3
NtRp34
(dp35
g18
F0.5
sg19
I62
sg20
g21
((dp36
I01
I9
sNI53
stRp37
sg24
I2
sg25
F63
sbs(S'Meaning'
S'contains(ground)'
p38
tp39
g1
(g15
g3
NtRp40
(dp41
g18
F0.5
sg19
I62
sg20
g21
((dp42
I01
I1
sNI61
stRp43
sg24
I2
sg25
F63
sbs(g10
S'contains(dogs)'
p44
tp45
g1
(g15
g3
NtRp46
(dp47
g18
F0.5
sg19
I17
sg20
g21
((dp48
NI17
stRp49
sg24
I2
sg25
F18
sbs(g10
S'contains(buses)'
p50
tp51
g1
(g15
g3
NtRp52
(dp53
g18
F0.5
sg19
I17
sg20
g21
((dp54
I01
I2
sNI15
stRp55
sg24
I2
sg25
F18
sbs(g8
S'contains(lockers)'
p56
tp57
g1
(g15
g3
NtRp58
(dp59
g18
F0.5
sg19
I22
sg20
g21
((dp60
NI22
stRp61
sg24
I2
sg25
F23
sbs(g9
S'contains(aids)'
p62
tp63
g1
(g15
g3
NtRp64
(dp65
g18
F0.5
sg19
I62
sg20
g21
((dp66
NI62
stRp67
sg24
I2
sg25
F63
sbs(S'Abbreviation'
p68
S'contains(motors)'
p69
tp70
g1
(g15
g3
NtRp71
(dp72
g18
F0.5
sg19
I22
sg20
g21
((dp73
I01
I1
sNI21
stRp74
sg24
I2
sg25
F23
sbs(g10
S'contains(stand)'
p75
tp76
g1
(g15
g3
NtRp77
(dp78
g18
F0.5
sg19
I17
sg20
g21
((dp79
NI17
stRp80
sg24
I2
sg25
F18
sbs(g9
S'contains(paper)'
p81
tp82
g1
(g15
g3
NtRp83
(dp84
g18
F0.5
sg19
I62
sg20
g21
((dp85
NI62
stRp86
sg24
I2
sg25
F63
sbs(g8
S'contains(bad)'
p87
tp88
g1
(g15
g3
NtRp89
(dp90
g18
F0.5
sg19
I22
sg20
g21
((dp91
NI22
stRp92
sg24
I2
sg25
F23
sbs(S'Abbreviation'
S'contains(bph)'
p93
tp94
g1
(g15
g3
NtRp95
(dp96
g18
F0.5
sg19
I22
sg20
g21
((dp97
I01
I1
sNI21
stRp98
sg24
I2
sg25
F23
sbs(g10
S'contains(war)'
p99
tp100
g1
(g15
g3
NtRp101
(dp102
g18
F0.5
sg19
I17
sg20
g21
((dp103
NI17
stRp104
sg24
I2
sg25
F18
sbs(g8
S'contains(ass)'
p105
tp106
g1
(g15
g3
NtRp107
(dp108
g18
F0.5
sg19
I22
sg20
g21
((dp109
NI22
stRp110
sg24
I2
sg25
F23
sbs(g9
g50
tp111
g1
(g15
g3
NtRp112
(dp113
g18
F0.5
sg19
I62
sg20
g21
((dp114
NI62
stRp115
sg24
I2
sg25
F63
sbs(g10
g38
tp116
g1
(g15
g3
NtRp117
(dp118
g18
F0.5
sg19
I17
sg20
g21
((dp119
NI17
stRp120
sg24
I2
sg25
F18
sbs(g10
S'contains(an)'
p121
tp122
g1
(g15
g3
NtRp123
(dp124
g18
F0.5
sg19
I17
sg20
g21
((dp125
NI17
stRp126
sg24
I2
sg25
F18
sbs(g8
S'contains(dunkin)'
p127
tp128
g1
(g15
g3
NtRp129
(dp130
g18
F0.5
sg19
I22
sg20
g21
((dp131
NI22
stRp132
sg24
I2
sg25
F23
sbs(S'Composition'
S'contains(plastic)'
p133
tp134
g1
(g15
g3
NtRp135
(dp136
g18
F0.5
sg19
I17
sg20
g21
((dp137
I01
I1
sNI16
stRp138
sg24
I2
sg25
F18
sbs(S'Meaning'
S'contains(cars)'
p139
tp140
g1
(g15
g3
NtRp141
(dp142
g18
F0.5
sg19
I62
sg20
g21
((dp143
I01
I1
sNI61
stRp144
sg24
I2
sg25
F63
sbs(g10
S'contains(general)'
p145
tp146
g1
(g15
g3
NtRp147
(dp148
g18
F0.5
sg19
I17
sg20
g21
((dp149
NI17
stRp150
sg24
I2
sg25
F18
sbs(g8
S'contains(donuts)'
p151
tp152
g1
(g15
g3
NtRp153
(dp154
g18
F0.5
sg19
I22
sg20
g21
((dp155
NI22
stRp156
sg24
I2
sg25
F23
sbs(S'Meaning'
S'contains(wtf)'
p157
tp158
g1
(g15
g3
NtRp159
(dp160
g18
F0.5
sg19
I62
sg20
g21
((dp161
I01
I1
sNI61
stRp162
sg24
I2
sg25
F63
sbs(g9
S'contains(eenty)'
p163
tp164
g1
(g15
g3
NtRp165
(dp166
g18
F0.5
sg19
I62
sg20
g21
((dp167
NI62
stRp168
sg24
I2
sg25
F63
sbs(S'Composition'
p169
S'contains(my)'
p170
tp171
g1
(g15
g3
NtRp172
(dp173
g18
F0.5
sg19
I17
sg20
g21
((dp174
I01
I1
sNI16
stRp175
sg24
I2
sg25
F18
sbs(g10
S'contains(micro)'
p176
tp177
g1
(g15
g3
NtRp178
(dp179
g18
F0.5
sg19
I17
sg20
g21
((dp180
NI17
stRp181
sg24
I2
sg25
F18
sbs(S'Abbreviation'
p182
S'contains(m)'
p183
tp184
g1
(g15
g3
NtRp185
(dp186
g18
F0.5
sg19
I22
sg20
g21
((dp187
I01
I1
sNI21
stRp188
sg24
I2
sg25
F23
sbs(g10
S'contains(meaning)'
p189
tp190
g1
(g15
g3
NtRp191
(dp192
g18
F0.5
sg19
I17
sg20
g21
((dp193
NI17
stRp194
sg24
I2
sg25
F18
sbs(S'Composition'
S'contains(b)'
p195
tp196
g1
(g15
g3
NtRp197
(dp198
g18
F0.5
sg19
I17
sg20
g21
((dp199
I01
I1
sNI16
stRp200
sg24
I2
sg25
F18
sbs(S'Composition'
S'contains(bicycles)'
p201
tp202
g1
(g15
g3
NtRp203
(dp204
g18
F0.5
sg19
I17
sg20
g21
((dp205
I01
I1
sNI16
stRp206
sg24
I2
sg25
F18
sbs(g10
S'contains(doors)'
p207
tp208
g1
(g15
g3
NtRp209
(dp210
g18
F0.5
sg19
I17
sg20
g21
((dp211
NI17
stRp212
sg24
I2
sg25
F18
sbs(S'Meaning'
S'contains(rock)'
p213
tp214
g1
(g15
g3
NtRp215
(dp216
g18
F0.5
sg19
I62
sg20
g21
((dp217
I01
I1
sNI61
stRp218
sg24
I2
sg25
F63
sbs(g10
g139
tp219
g1
(g15
g3
NtRp220
(dp221
g18
F0.5
sg19
I17
sg20
g21
((dp222
NI17
stRp223
sg24
I2
sg25
F18
sbs(g10
S'contains(for)'
p224
tp225
g1
(g15
g3
NtRp226
(dp227
g18
F0.5
sg19
I17
sg20
g21
((dp228
NI17
stRp229
sg24
I2
sg25
F18
sbs(g8
S'contains(purse)'
p230
tp231
g1
(g15
g3
NtRp232
(dp233
g18
F0.5
sg19
I22
sg20
g21
((dp234
NI22
stRp235
sg24
I2
sg25
F23
sbs(S'Abbreviation'
p236
S'contains(word)'
tp237
g1
(g15
g3
NtRp238
(dp239
g18
F0.5
sg19
I22
sg20
g21
((dp240
I01
I2
sNI20
stRp241
sg24
I2
sg25
F23
sbs(S'Abbreviation'
p242
S'contains(cross)'
p243
tp244
g1
(g15
g3
NtRp245
(dp246
g18
F0.5
sg19
I22
sg20
g21
((dp247
I01
I1
sNI21
stRp248
sg24
I2
sg25
F23
sbs(g10
S'contains(girl)'
p249
tp250
g1
(g15
g3
NtRp251
(dp252
g18
F0.5
sg19
I17
sg20
g21
((dp253
NI17
stRp254
sg24
I2
sg25
F18
sbs(S'Abbreviation'
p255
S'contains(surnames)'
p256
tp257
g1
(g15
g3
NtRp258
(dp259
g18
F0.5
sg19
I22
sg20
g21
((dp260
I01
I1
sNI21
stRp261
sg24
I2
sg25
F23
sbs(g9
S'contains(abbreviated)'
p262
tp263
g1
(g15
g3
NtRp264
(dp265
g18
F0.5
sg19
I62
sg20
g21
((dp266
NI62
stRp267
sg24
I2
sg25
F63
sbs(g8
S'contains(hog)'
p268
tp269
g1
(g15
g3
NtRp270
(dp271
g18
F0.5
sg19
I22
sg20
g21
((dp272
NI22
stRp273
sg24
I2
sg25
F23
sbs(S'Abbreviation'
S'contains(sids)'
p274
tp275
g1
(g15
g3
NtRp276
(dp277
g18
F0.5
sg19
I22
sg20
g21
((dp278
I01
I1
sNI21
stRp279
sg24
I2
sg25
F23
sbs(g8
S'contains(is)'
tp280
g1
(g15
g3
NtRp281
(dp282
g18
F0.5
sg19
I22
sg20
g21
((dp283
I01
I12
sNI10
stRp284
sg24
I2
sg25
F23
sbs(g9
g224
tp285
g1
(g15
g3
NtRp286
(dp287
g18
F0.5
sg19
I62
sg20
g21
((dp288
NI62
stRp289
sg24
I2
sg25
F63
sbs(g8
S'contains(planets)'
p290
tp291
g1
(g15
g3
NtRp292
(dp293
g18
F0.5
sg19
I22
sg20
g21
((dp294
NI22
stRp295
sg24
I2
sg25
F23
sbs(g8
g139
tp296
g1
(g15
g3
NtRp297
(dp298
g18
F0.5
sg19
I22
sg20
g21
((dp299
NI22
stRp300
sg24
I2
sg25
F23
sbs(g10
S'contains(stupid)'
p301
tp302
g1
(g15
g3
NtRp303
(dp304
g18
F0.5
sg19
I17
sg20
g21
((dp305
NI17
stRp306
sg24
I2
sg25
F18
sbs(S'Meaning'
S'contains(player)'
p307
tp308
g1
(g15
g3
NtRp309
(dp310
g18
F0.5
sg19
I62
sg20
g21
((dp311
I01
I1
sNI61
stRp312
sg24
I2
sg25
F63
sbs(g10
S'contains(in)'
p313
tp314
g1
(g15
g3
NtRp315
(dp316
g18
F0.5
sg19
I17
sg20
g21
((dp317
NI17
stRp318
sg24
I2
sg25
F18
sbs(g10
S'contains(signs)'
p319
tp320
g1
(g15
g3
NtRp321
(dp322
g18
F0.5
sg19
I17
sg20
g21
((dp323
NI17
stRp324
sg24
I2
sg25
F18
sbs(S'Meaning'
p325
S'contains(word)'
p326
tp327
g1
(g15
g3
NtRp328
(dp329
g18
F0.5
sg19
I62
sg20
g21
((dp330
I01
I5
sNI57
stRp331
sg24
I2
sg25
F63
sbs(g10
g256
tp332
g1
(g15
g3
NtRp333
(dp334
g18
F0.5
sg19
I17
sg20
g21
((dp335
NI17
stRp336
sg24
I2
sg25
F18
sbs(S'Meaning'
S'contains(eye)'
p337
tp338
g1
(g15
g3
NtRp339
(dp340
g18
F0.5
sg19
I62
sg20
g21
((dp341
I01
I1
sNI61
stRp342
sg24
I2
sg25
F63
sbs(g9
S'contains(full)'
p343
tp344
g1
(g15
g3
NtRp345
(dp346
g18
F0.5
sg19
I62
sg20
g21
((dp347
NI62
stRp348
sg24
I2
sg25
F63
sbs(g9
S'contains(locks)'
p349
tp350
g1
(g15
g3
NtRp351
(dp352
g18
F0.5
sg19
I62
sg20
g21
((dp353
NI62
stRp354
sg24
I2
sg25
F63
sbs(g9
S'contains(investigation)'
p355
tp356
g1
(g15
g3
NtRp357
(dp358
g18
F0.5
sg19
I62
sg20
g21
((dp359
NI62
stRp360
sg24
I2
sg25
F63
sbs(g8
S'contains(homogeneous)'
p361
tp362
g1
(g15
g3
NtRp363
(dp364
g18
F0.5
sg19
I22
sg20
g21
((dp365
NI22
stRp366
sg24
I2
sg25
F23
sbs(g10
S'contains(animal)'
p367
tp368
g1
(g15
g3
NtRp369
(dp370
g18
F0.5
sg19
I17
sg20
g21
((dp371
NI17
stRp372
sg24
I2
sg25
F18
sbs(g9
g313
tp373
g1
(g15
g3
NtRp374
(dp375
g18
F0.5
sg19
I62
sg20
g21
((dp376
NI62
stRp377
sg24
I2
sg25
F63
sbs(g9
S'contains(nasdaq)'
p378
tp379
g1
(g15
g3
NtRp380
(dp381
g18
F0.5
sg19
I62
sg20
g21
((dp382
NI62
stRp383
sg24
I2
sg25
F63
sbs(g8
g38
tp384
g1
(g15
g3
NtRp385
(dp386
g18
F0.5
sg19
I22
sg20
g21
((dp387
NI22
stRp388
sg24
I2
sg25
F23
sbs(g10
g337
tp389
g1
(g15
g3
NtRp390
(dp391
g18
F0.5
sg19
I17
sg20
g21
((dp392
NI17
stRp393
sg24
I2
sg25
F18
sbs(g8
S'contains(ant)'
p394
tp395
g1
(g15
g3
NtRp396
(dp397
g18
F0.5
sg19
I22
sg20
g21
((dp398
NI22
stRp399
sg24
I2
sg25
F23
sbs(g10
S'contains(esa)'
p400
tp401
g1
(g15
g3
NtRp402
(dp403
g18
F0.5
sg19
I17
sg20
g21
((dp404
NI17
stRp405
sg24
I2
sg25
F18
sbs(g10
S'contains(mean)'
p406
tp407
g1
(g15
g3
NtRp408
(dp409
g18
F0.5
sg19
I17
sg20
g21
((dp410
NI17
stRp411
sg24
I2
sg25
F18
sbs(S'Abbreviation'
p412
S'contains(national)'
p413
tp414
g1
(g15
g3
NtRp415
(dp416
g18
F0.5
sg19
I22
sg20
g21
((dp417
I01
I1
sNI21
stRp418
sg24
I2
sg25
F23
sbs(S'Composition'
g56
tp419
g1
(g15
g3
NtRp420
(dp421
g18
F0.5
sg19
I17
sg20
g21
((dp422
I01
I1
sNI16
stRp423
sg24
I2
sg25
F18
sbs(g10
S'contains(selfish)'
p424
tp425
g1
(g15
g3
NtRp426
(dp427
g18
F0.5
sg19
I17
sg20
g21
((dp428
NI17
stRp429
sg24
I2
sg25
F18
sbs(g10
S'contains(the)'
tp430
g1
(g15
g3
NtRp431
(dp432
g18
F0.5
sg19
I17
sg20
g21
((dp433
I01
I4
sNI13
stRp434
sg24
I2
sg25
F18
sbs(S'Composition'
S'contains(metal)'
p435
tp436
g1
(g15
g3
NtRp437
(dp438
g18
F0.5
sg19
I17
sg20
g21
((dp439
I01
I1
sNI16
stRp440
sg24
I2
sg25
F18
sbs(g8
g13
tp441
g1
(g15
g3
NtRp442
(dp443
g18
F0.5
sg19
I22
sg20
g21
((dp444
NI22
stRp445
sg24
I2
sg25
F23
sbs(g8
S'contains(asshole)'
p446
tp447
g1
(g15
g3
NtRp448
(dp449
g18
F0.5
sg19
I22
sg20
g21
((dp450
NI22
stRp451
sg24
I2
sg25
F23
sbs(g9
S'contains(g)'
p452
tp453
g1
(g15
g3
NtRp454
(dp455
g18
F0.5
sg19
I62
sg20
g21
((dp456
NI62
stRp457
sg24
I2
sg25
F63
sbs(g8
S'contains(juice)'
p458
tp459
g1
(g15
g3
NtRp460
(dp461
g18
F0.5
sg19
I22
sg20
g21
((dp462
NI22
stRp463
sg24
I2
sg25
F23
sbs(S'Abbreviation'
p464
g75
tp465
g1
(g15
g3
NtRp466
(dp467
g18
F0.5
sg19
I22
sg20
g21
((dp468
I01
I9
sNI13
stRp469
sg24
I2
sg25
F23
sbs(g10
S'contains(happy)'
p470
tp471
g1
(g15
g3
NtRp472
(dp473
g18
F0.5
sg19
I17
sg20
g21
((dp474
NI17
stRp475
sg24
I2
sg25
F18
sbs(S'Composition'
p476
S'contains(a)'
tp477
g1
(g15
g3
NtRp478
(dp479
g18
F0.5
sg19
I17
sg20
g21
((dp480
I01
I1
sNI16
stRp481
sg24
I2
sg25
F18
sbs(g8
S'contains(trees)'
p482
tp483
g1
(g15
g3
NtRp484
(dp485
g18
F0.5
sg19
I22
sg20
g21
((dp486
NI22
stRp487
sg24
I2
sg25
F23
sbs(g8
S'contains(plug)'
p488
tp489
g1
(g15
g3
NtRp490
(dp491
g18
F0.5
sg19
I22
sg20
g21
((dp492
NI22
stRp493
sg24
I2
sg25
F23
sbs(g8
S'contains(milk)'
p494
tp495
g1
(g15
g3
NtRp496
(dp497
g18
F0.5
sg19
I22
sg20
g21
((dp498
NI22
stRp499
sg24
I2
sg25
F23
sbs(g9
S'contains(?)'
tp500
g1
(g15
g3
NtRp501
(dp502
g18
F0.5
sg19
I62
sg20
g21
((dp503
I01
I62
stRp504
sg24
I1
sg25
F62.5
sbs(S'Abbreviation'
g378
tp505
g1
(g15
g3
NtRp506
(dp507
g18
F0.5
sg19
I22
sg20
g21
((dp508
I01
I1
sNI21
stRp509
sg24
I2
sg25
F23
sbs(g10
g163
tp510
g1
(g15
g3
NtRp511
(dp512
g18
F0.5
sg19
I17
sg20
g21
((dp513
NI17
stRp514
sg24
I2
sg25
F18
sbs(S'Composition'
g349
tp515
g1
(g15
g3
NtRp516
(dp517
g18
F0.5
sg19
I17
sg20
g21
((dp518
I01
I1
sNI16
stRp519
sg24
I2
sg25
F18
sbs(S'Meaning'
p520
S'contains(of)'
tp521
g1
(g15
g3
NtRp522
(dp523
g18
F0.5
sg19
I62
sg20
g21
((dp524
I01
I15
sNI47
stRp525
sg24
I2
sg25
F63
sbs(g9
g69
tp526
g1
(g15
g3
NtRp527
(dp528
g18
F0.5
sg19
I62
sg20
g21
((dp529
NI62
stRp530
sg24
I2
sg25
F63
sbs(S'Meaning'
g367
tp531
g1
(g15
g3
NtRp532
(dp533
g18
F0.5
sg19
I62
sg20
g21
((dp534
I01
I1
sNI61
stRp535
sg24
I2
sg25
F63
sbs(g10
S'contains(abbreviation)'
p536
tp537
g1
(g15
g3
NtRp538
(dp539
g18
F0.5
sg19
I17
sg20
g21
((dp540
NI17
stRp541
sg24
I2
sg25
F18
sbs(g10
S'contains(mad)'
p542
tp543
g1
(g15
g3
NtRp544
(dp545
g18
F0.5
sg19
I17
sg20
g21
((dp546
NI17
stRp547
sg24
I2
sg25
F18
sbs(S'Meaning'
S'contains(thief)'
p548
tp549
g1
(g15
g3
NtRp550
(dp551
g18
F0.5
sg19
I62
sg20
g21
((dp552
I01
I1
sNI61
stRp553
sg24
I2
sg25
F63
sbs(g10
S'contains(duck)'
p554
tp555
g1
(g15
g3
NtRp556
(dp557
g18
F0.5
sg19
I17
sg20
g21
((dp558
NI17
stRp559
sg24
I2
sg25
F18
sbs(g10
S'contains(slut)'
p560
tp561
g1
(g15
g3
NtRp562
(dp563
g18
F0.5
sg19
I17
sg20
g21
((dp564
NI17
stRp565
sg24
I2
sg25
F18
sbs(g9
S'contains(cnn)'
p566
tp567
g1
(g15
g3
NtRp568
(dp569
g18
F0.5
sg19
I62
sg20
g21
((dp570
NI62
stRp571
sg24
I2
sg25
F63
sbs(S'Abbreviation'
p572
S'contains(classified)'
p573
tp574
g1
(g15
g3
NtRp575
(dp576
g18
F0.5
sg19
I22
sg20
g21
((dp577
I01
I1
sNI21
stRp578
sg24
I2
sg25
F23
sbs(S'Meaning'
S'contains(miscellaneous)'
p579
tp580
g1
(g15
g3
NtRp581
(dp582
g18
F0.5
sg19
I62
sg20
g21
((dp583
I01
I1
sNI61
stRp584
sg24
I2
sg25
F63
sbs(g10
S'contains(starbucks)'
p585
tp586
g1
(g15
g3
NtRp587
(dp588
g18
F0.5
sg19
I17
sg20
g21
((dp589
NI17
stRp590
sg24
I2
sg25
F18
sbs(g9
g400
tp591
g1
(g15
g3
NtRp592
(dp593
g18
F0.5
sg19
I62
sg20
g21
((dp594
NI62
stRp595
sg24
I2
sg25
F63
sbs(g412
S'contains(expression)'
p596
tp597
g1
(g15
g3
NtRp598
(dp599
g18
F0.5
sg19
I22
sg20
g21
((dp600
I01
I1
sNI21
stRp601
sg24
I2
sg25
F23
sbs(g8
g554
tp602
g1
(g15
g3
NtRp603
(dp604
g18
F0.5
sg19
I22
sg20
g21
((dp605
NI22
stRp606
sg24
I2
sg25
F23
sbs(g10
S'contains(car)'
p607
tp608
g1
(g15
g3
NtRp609
(dp610
g18
F0.5
sg19
I17
sg20
g21
((dp611
NI17
stRp612
sg24
I2
sg25
F18
sbs(g325
S'contains(clever)'
p613
tp614
g1
(g15
g3
NtRp615
(dp616
g18
F0.5
sg19
I62
sg20
g21
((dp617
I01
I1
sNI61
stRp618
sg24
I2
sg25
F63
sbs(S'Meaning'
S'contains(booger)'
p619
tp620
g1
(g15
g3
NtRp621
(dp622
g18
F0.5
sg19
I62
sg20
g21
((dp623
I01
I1
sNI61
stRp624
sg24
I2
sg25
F63
sbs(g255
S'contains(prefix)'
p625
tp626
g1
(g15
g3
NtRp627
(dp628
g18
F0.5
sg19
I22
sg20
g21
((dp629
I01
I1
sNI21
stRp630
sg24
I2
sg25
F23
sbs(g8
S"contains(what's)"
p631
tp632
g1
(g15
g3
NtRp633
(dp634
g18
F0.5
sg19
I22
sg20
g21
((dp635
NI22
stRp636
sg24
I2
sg25
F23
sbs(g8
S'contains(cloak)'
p637
tp638
g1
(g15
g3
NtRp639
(dp640
g18
F0.5
sg19
I22
sg20
g21
((dp641
NI22
stRp642
sg24
I2
sg25
F23
sbs(g9
S'contains(inri)'
p643
tp644
g1
(g15
g3
NtRp645
(dp646
g18
F0.5
sg19
I62
sg20
g21
((dp647
NI62
stRp648
sg24
I2
sg25
F63
sbs(g412
g355
tp649
g1
(g15
g3
NtRp650
(dp651
g18
F0.5
sg19
I22
sg20
g21
((dp652
I01
I1
sNI21
stRp653
sg24
I2
sg25
F23
sbs(S'Meaning'
p654
S'contains(a)'
tp655
g1
(g15
g3
NtRp656
(dp657
g18
F0.5
sg19
I62
sg20
g21
((dp658
I01
I13
sNI49
stRp659
sg24
I2
sg25
F63
sbs(g8
g349
tp660
g1
(g15
g3
NtRp661
(dp662
g18
F0.5
sg19
I22
sg20
g21
((dp663
NI22
stRp664
sg24
I2
sg25
F23
sbs(g242
S'contains(used)'
p665
tp666
g1
(g15
g3
NtRp667
(dp668
g18
F0.5
sg19
I22
sg20
g21
((dp669
I01
I2
sNI20
stRp670
sg24
I2
sg25
F23
sbs(g8
g343
tp671
g1
(g15
g3
NtRp672
(dp673
g18
F0.5
sg19
I22
sg20
g21
((dp674
I01
I7
sNI15
stRp675
sg24
I2
sg25
F23
sbs(g8
S'contains(bag)'
p676
tp677
g1
(g15
g3
NtRp678
(dp679
g18
F0.5
sg19
I22
sg20
g21
((dp680
NI22
stRp681
sg24
I2
sg25
F23
sbs(g8
S'contains(zapping)'
p682
tp683
g1
(g15
g3
NtRp684
(dp685
g18
F0.5
sg19
I22
sg20
g21
((dp686
NI22
stRp687
sg24
I2
sg25
F23
sbs(g10
S'contains(t)'
p688
tp689
g1
(g15
g3
NtRp690
(dp691
g18
F0.5
sg19
I17
sg20
g21
((dp692
NI17
stRp693
sg24
I2
sg25
F18
sbs(g9
g573
tp694
g1
(g15
g3
NtRp695
(dp696
g18
F0.5
sg19
I62
sg20
g21
((dp697
NI62
stRp698
sg24
I2
sg25
F63
sbs(g10
S'contains(brain)'
p699
tp700
g1
(g15
g3
NtRp701
(dp702
g18
F0.5
sg19
I17
sg20
g21
((dp703
NI17
stRp704
sg24
I2
sg25
F18
sbs(g10
g643
tp705
g1
(g15
g3
NtRp706
(dp707
g18
F0.5
sg19
I17
sg20
g21
((dp708
NI17
stRp709
sg24
I2
sg25
F18
sbs(g8
S'contains(children)'
p710
tp711
g1
(g15
g3
NtRp712
(dp713
g18
F0.5
sg19
I22
sg20
g21
((dp714
NI22
stRp715
sg24
I2
sg25
F23
sbs(g8
g157
tp716
g1
(g15
g3
NtRp717
(dp718
g18
F0.5
sg19
I22
sg20
g21
((dp719
NI22
stRp720
sg24
I2
sg25
F23
sbs(S'Composition'
S'contains(beverage)'
p721
tp722
g1
(g15
g3
NtRp723
(dp724
g18
F0.5
sg19
I17
sg20
g21
((dp725
I01
I1
sNI16
stRp726
sg24
I2
sg25
F18
sbs(g476
S'contains(battery)'
p727
tp728
g1
(g15
g3
NtRp729
(dp730
g18
F0.5
sg19
I17
sg20
g21
((dp731
I01
I1
sNI16
stRp732
sg24
I2
sg25
F18
sbs(S'Abbreviation'
S'contains(nafta)'
p733
tp734
g1
(g15
g3
NtRp735
(dp736
g18
F0.5
sg19
I22
sg20
g21
((dp737
I01
I1
sNI21
stRp738
sg24
I2
sg25
F23
sbs(g654
S'contains(king)'
p739
tp740
g1
(g15
g3
NtRp741
(dp742
g18
F0.5
sg19
I62
sg20
g21
((dp743
I01
I1
sNI61
stRp744
sg24
I2
sg25
F63
sbs(g9
g536
tp745
g1
(g15
g3
NtRp746
(dp747
g18
F0.5
sg19
I62
sg20
g21
((dp748
NI62
stRp749
sg24
I2
sg25
F63
sbs(S'Meaning'
g446
tp750
g1
(g15
g3
NtRp751
(dp752
g18
F0.5
sg19
I62
sg20
g21
((dp753
I01
I1
sNI61
stRp754
sg24
I2
sg25
F63
sbs(g10
g446
tp755
g1
(g15
g3
NtRp756
(dp757
g18
F0.5
sg19
I17
sg20
g21
((dp758
NI17
stRp759
sg24
I2
sg25
F18
sbs(g10
g394
tp760
g1
(g15
g3
NtRp761
(dp762
g18
F0.5
sg19
I17
sg20
g21
((dp763
NI17
stRp764
sg24
I2
sg25
F18
sbs(g9
g274
tp765
g1
(g15
g3
NtRp766
(dp767
g18
F0.5
sg19
I62
sg20
g21
((dp768
NI62
stRp769
sg24
I2
sg25
F63
sbs(g8
S'contains(com)'
p770
tp771
g1
(g15
g3
NtRp772
(dp773
g18
F0.5
sg19
I22
sg20
g21
((dp774
I01
I1
sNI21
stRp775
sg24
I2
sg25
F23
sbs(g9
g75
tp776
g1
(g15
g3
NtRp777
(dp778
g18
F0.5
sg19
I62
sg20
g21
((dp779
NI62
stRp780
sg24
I2
sg25
F63
sbs(g8
S'contains(pencil)'
p781
tp782
g1
(g15
g3
NtRp783
(dp784
g18
F0.5
sg19
I22
sg20
g21
((dp785
NI22
stRp786
sg24
I2
sg25
F23
sbs(S'Abbreviation'
S'contains(nsa)'
p787
tp788
g1
(g15
g3
NtRp789
(dp790
g18
F0.5
sg19
I22
sg20
g21
((dp791
I01
I1
sNI21
stRp792
sg24
I2
sg25
F23
sbs(g8
S'contains(bang)'
p793
tp794
g1
(g15
g3
NtRp795
(dp796
g18
F0.5
sg19
I22
sg20
g21
((dp797
NI22
stRp798
sg24
I2
sg25
F23
sbs(g9
S'contains(:)'
p799
tp800
g1
(g15
g3
NtRp801
(dp802
g18
F0.5
sg19
I62
sg20
g21
((dp803
NI62
stRp804
sg24
I2
sg25
F63
sbs(S'Meaning'
g290
tp805
g1
(g15
g3
NtRp806
(dp807
g18
F0.5
sg19
I62
sg20
g21
((dp808
I01
I1
sNI61
stRp809
sg24
I2
sg25
F63
sbs(g10
S'contains(badass)'
p810
tp811
g1
(g15
g3
NtRp812
(dp813
g18
F0.5
sg19
I17
sg20
g21
((dp814
NI17
stRp815
sg24
I2
sg25
F18
sbs(g9
S'contains(what)'
tp816
g1
(g15
g3
NtRp817
(dp818
g18
F0.5
sg19
I62
sg20
g21
((dp819
I01
I50
sNI12
stRp820
sg24
I2
sg25
F63
sbs(g8
g319
tp821
g1
(g15
g3
NtRp822
(dp823
g18
F0.5
sg19
I22
sg20
g21
((dp824
NI22
stRp825
sg24
I2
sg25
F23
sbs(S'Meaning'
g361
tp826
g1
(g15
g3
NtRp827
(dp828
g18
F0.5
sg19
I62
sg20
g21
((dp829
I01
I1
sNI61
stRp830
sg24
I2
sg25
F63
sbs(g8
g207
tp831
g1
(g15
g3
NtRp832
(dp833
g18
F0.5
sg19
I22
sg20
g21
((dp834
NI22
stRp835
sg24
I2
sg25
F23
sbs(g8
g337
tp836
g1
(g15
g3
NtRp837
(dp838
g18
F0.5
sg19
I22
sg20
g21
((dp839
NI22
stRp840
sg24
I2
sg25
F23
sbs(S'Meaning'
S'contains(tidy)'
p841
tp842
g1
(g15
g3
NtRp843
(dp844
g18
F0.5
sg19
I62
sg20
g21
((dp845
I01
I1
sNI61
stRp846
sg24
I2
sg25
F63
sbs(g10
g799
tp847
g1
(g15
g3
NtRp848
(dp849
g18
F0.5
sg19
I17
sg20
g21
((dp850
NI17
stRp851
sg24
I2
sg25
F18
sbs(S'Abbreviation'
g566
tp852
g1
(g15
g3
NtRp853
(dp854
g18
F0.5
sg19
I22
sg20
g21
((dp855
I01
I1
sNI21
stRp856
sg24
I2
sg25
F23
sbs(g8
g739
tp857
g1
(g15
g3
NtRp858
(dp859
g18
F0.5
sg19
I22
sg20
g21
((dp860
NI22
stRp861
sg24
I2
sg25
F23
sbs(S'Meaning'
S'contains(pen)'
p862
tp863
g1
(g15
g3
NtRp864
(dp865
g18
F0.5
sg19
I62
sg20
g21
((dp866
I01
I1
sNI61
stRp867
sg24
I2
sg25
F63
sbs(S'Meaning'
g710
tp868
g1
(g15
g3
NtRp869
(dp870
g18
F0.5
sg19
I62
sg20
g21
((dp871
I01
I1
sNI61
stRp872
sg24
I2
sg25
F63
sbs(g8
g862
tp873
g1
(g15
g3
NtRp874
(dp875
g18
F0.5
sg19
I22
sg20
g21
((dp876
NI22
stRp877
sg24
I2
sg25
F23
sbs(S'Meaning'
g585
tp878
g1
(g15
g3
NtRp879
(dp880
g18
F0.5
sg19
I62
sg20
g21
((dp881
I01
I1
sNI61
stRp882
sg24
I2
sg25
F63
sbs(g10
g452
tp883
g1
(g15
g3
NtRp884
(dp885
g18
F0.5
sg19
I17
sg20
g21
((dp886
NI17
stRp887
sg24
I2
sg25
F18
sbs(g9
S'contains(nn)'
p888
tp889
g1
(g15
g3
NtRp890
(dp891
g18
F0.5
sg19
I62
sg20
g21
((dp892
NI62
stRp893
sg24
I2
sg25
F63
sbs(g464
g224
tp894
g1
(g15
g3
NtRp895
(dp896
g18
F0.5
sg19
I22
sg20
g21
((dp897
I01
I12
sNI10
stRp898
sg24
I2
sg25
F23
sbs(g10
S'contains(o)'
p899
tp900
g1
(g15
g3
NtRp901
(dp902
g18
F0.5
sg19
I17
sg20
g21
((dp903
NI17
stRp904
sg24
I2
sg25
F18
sbs(g10
g274
tp905
g1
(g15
g3
NtRp906
(dp907
g18
F0.5
sg19
I17
sg20
g21
((dp908
NI17
stRp909
sg24
I2
sg25
F18
sbs(g9
S'contains(,)'
p910
tp911
g1
(g15
g3
NtRp912
(dp913
g18
F0.5
sg19
I62
sg20
g21
((dp914
NI62
stRp915
sg24
I2
sg25
F63
sbs(S'Meaning'
S'contains(chicken)'
p916
tp917
g1
(g15
g3
NtRp918
(dp919
g18
F0.5
sg19
I62
sg20
g21
((dp920
I01
I1
sNI61
stRp921
sg24
I2
sg25
F63
sbs(g8
g195
tp922
g1
(g15
g3
NtRp923
(dp924
g18
F0.5
sg19
I22
sg20
g21
((dp925
NI22
stRp926
sg24
I2
sg25
F23
sbs(g8
S'contains(?)'
tp927
g1
(g15
g3
NtRp928
(dp929
g18
F0.5
sg19
I22
sg20
g21
((dp930
I01
I22
stRp931
sg24
I1
sg25
F22.5
sbs(g8
g307
tp932
g1
(g15
g3
NtRp933
(dp934
g18
F0.5
sg19
I22
sg20
g21
((dp935
NI22
stRp936
sg24
I2
sg25
F23
sbs(S'Meaning'
g482
tp937
g1
(g15
g3
NtRp938
(dp939
g18
F0.5
sg19
I62
sg20
g21
((dp940
I01
I1
sNI61
stRp941
sg24
I2
sg25
F63
sbs(g8
S'contains(what)'
tp942
g1
(g15
g3
NtRp943
(dp944
g18
F0.5
sg19
I22
sg20
g21
((dp945
I01
I22
stRp946
sg24
I2
sg25
F23
sbs(S'Abbreviation'
g176
tp947
g1
(g15
g3
NtRp948
(dp949
g18
F0.5
sg19
I22
sg20
g21
((dp950
I01
I1
sNI21
stRp951
sg24
I2
sg25
F23
sbs(S'Abbreviation'
S'contains(lol)'
p952
tp953
g1
(g15
g3
NtRp954
(dp955
g18
F0.5
sg19
I22
sg20
g21
((dp956
I01
I1
sNI21
stRp957
sg24
I2
sg25
F23
sbs(g325
S'contains(the)'
tp958
g1
(g15
g3
NtRp959
(dp960
g18
F0.5
sg19
I62
sg20
g21
((dp961
I01
I20
sNI42
stRp962
sg24
I2
sg25
F63
sbs(S'Meaning'
S'contains(elephant)'
p963
tp964
g1
(g15
g3
NtRp965
(dp966
g18
F0.5
sg19
I62
sg20
g21
((dp967
I01
I1
sNI61
stRp968
sg24
I2
sg25
F63
sbs(g10
g87
tp969
g1
(g15
g3
NtRp970
(dp971
g18
F0.5
sg19
I17
sg20
g21
((dp972
NI17
stRp973
sg24
I2
sg25
F18
sbs(g8
g810
tp974
g1
(g15
g3
NtRp975
(dp976
g18
F0.5
sg19
I22
sg20
g21
((dp977
NI22
stRp978
sg24
I2
sg25
F23
sbs(g10
g793
tp979
g1
(g15
g3
NtRp980
(dp981
g18
F0.5
sg19
I17
sg20
g21
((dp982
NI17
stRp983
sg24
I2
sg25
F18
sbs(g9
g721
tp984
g1
(g15
g3
NtRp985
(dp986
g18
F0.5
sg19
I62
sg20
g21
((dp987
NI62
stRp988
sg24
I2
sg25
F63
sbs(S'Meaning'
S'contains(street)'
p989
tp990
g1
(g15
g3
NtRp991
(dp992
g18
F0.5
sg19
I62
sg20
g21
((dp993
I01
I1
sNI61
stRp994
sg24
I2
sg25
F63
sbs(g8
g121
tp995
g1
(g15
g3
NtRp996
(dp997
g18
F0.5
sg19
I22
sg20
g21
((dp998
NI22
stRp999
sg24
I2
sg25
F23
sbs(g9
S'contains(irish)'
p1000
tp1001
g1
(g15
g3
NtRp1002
(dp1003
g18
F0.5
sg19
I62
sg20
g21
((dp1004
NI62
stRp1005
sg24
I2
sg25
F63
sbs(g10
S'contains(nasa)'
p1006
tp1007
g1
(g15
g3
NtRp1008
(dp1009
g18
F0.5
sg19
I17
sg20
g21
((dp1010
NI17
stRp1011
sg24
I2
sg25
F18
sbs(g10
g710
tp1012
g1
(g15
g3
NtRp1013
(dp1014
g18
F0.5
sg19
I17
sg20
g21
((dp1015
NI17
stRp1016
sg24
I2
sg25
F18
sbs(g9
S'contains(psi)'
p1017
tp1018
g1
(g15
g3
NtRp1019
(dp1020
g18
F0.5
sg19
I62
sg20
g21
((dp1021
NI62
stRp1022
sg24
I2
sg25
F63
sbs(g8
g916
tp1023
g1
(g15
g3
NtRp1024
(dp1025
g18
F0.5
sg19
I22
sg20
g21
((dp1026
NI22
stRp1027
sg24
I2
sg25
F23
sbs(g242
S'contains(jesus)'
p1028
tp1029
g1
(g15
g3
NtRp1030
(dp1031
g18
F0.5
sg19
I22
sg20
g21
((dp1032
I01
I1
sNI21
stRp1033
sg24
I2
sg25
F23
sbs(g9
g1028
tp1034
g1
(g15
g3
NtRp1035
(dp1036
g18
F0.5
sg19
I62
sg20
g21
((dp1037
NI62
stRp1038
sg24
I2
sg25
F63
sbs(g10
S'contains(plo)'
p1039
tp1040
g1
(g15
g3
NtRp1041
(dp1042
g18
F0.5
sg19
I17
sg20
g21
((dp1043
NI17
stRp1044
sg24
I2
sg25
F18
sbs(g10
g665
tp1045
g1
(g15
g3
NtRp1046
(dp1047
g18
F0.5
sg19
I17
sg20
g21
((dp1048
NI17
stRp1049
sg24
I2
sg25
F18
sbs(g10
g989
tp1050
g1
(g15
g3
NtRp1051
(dp1052
g18
F0.5
sg19
I17
sg20
g21
((dp1053
NI17
stRp1054
sg24
I2
sg25
F18
sbs(g68
S'contains(name)'
p1055
tp1056
g1
(g15
g3
NtRp1057
(dp1058
g18
F0.5
sg19
I22
sg20
g21
((dp1059
I01
I2
sNI20
stRp1060
sg24
I2
sg25
F23
sbs(g9
g145
tp1061
g1
(g15
g3
NtRp1062
(dp1063
g18
F0.5
sg19
I62
sg20
g21
((dp1064
NI62
stRp1065
sg24
I2
sg25
F63
sbs(g520
g458
tp1066
g1
(g15
g3
NtRp1067
(dp1068
g18
F0.5
sg19
I62
sg20
g21
((dp1069
I01
I1
sNI61
stRp1070
sg24
I2
sg25
F63
sbs(g10
g631
tp1071
g1
(g15
g3
NtRp1072
(dp1073
g18
F0.5
sg19
I17
sg20
g21
((dp1074
NI17
stRp1075
sg24
I2
sg25
F18
sbs(g242
g643
tp1076
g1
(g15
g3
NtRp1077
(dp1078
g18
F0.5
sg19
I22
sg20
g21
((dp1079
I01
I1
sNI21
stRp1080
sg24
I2
sg25
F23
sbs(g9
S'contains(.)'
p1081
tp1082
g1
(g15
g3
NtRp1083
(dp1084
g18
F0.5
sg19
I62
sg20
g21
((dp1085
NI62
stRp1086
sg24
I2
sg25
F63
sbs(g9
g625
tp1087
g1
(g15
g3
NtRp1088
(dp1089
g18
F0.5
sg19
I62
sg20
g21
((dp1090
NI62
stRp1091
sg24
I2
sg25
F63
sbs(S'Meaning'
g207
tp1092
g1
(g15
g3
NtRp1093
(dp1094
g18
F0.5
sg19
I62
sg20
g21
((dp1095
I01
I1
sNI61
stRp1096
sg24
I2
sg25
F63
sbs(S'Meaning'
g699
tp1097
g1
(g15
g3
NtRp1098
(dp1099
g18
F0.5
sg19
I62
sg20
g21
((dp1100
I01
I1
sNI61
stRp1101
sg24
I2
sg25
F63
sbs(g9
g665
tp1102
g1
(g15
g3
NtRp1103
(dp1104
g18
F0.5
sg19
I62
sg20
g21
((dp1105
NI62
stRp1106
sg24
I2
sg25
F63
sbs(g9
g1039
tp1107
g1
(g15
g3
NtRp1108
(dp1109
g18
F0.5
sg19
I62
sg20
g21
((dp1110
NI62
stRp1111
sg24
I2
sg25
F63
sbs(g8
g841
tp1112
g1
(g15
g3
NtRp1113
(dp1114
g18
F0.5
sg19
I22
sg20
g21
((dp1115
NI22
stRp1116
sg24
I2
sg25
F23
sbs(g236
S'contains(laser)'
p1117
tp1118
g1
(g15
g3
NtRp1119
(dp1120
g18
F0.5
sg19
I22
sg20
g21
((dp1121
I01
I1
sNI21
stRp1122
sg24
I2
sg25
F23
sbs(g8
S'contains(ear)'
p1123
tp1124
g1
(g15
g3
NtRp1125
(dp1126
g18
F0.5
sg19
I22
sg20
g21
((dp1127
NI22
stRp1128
sg24
I2
sg25
F23
sbs(g464
g62
tp1129
g1
(g15
g3
NtRp1130
(dp1131
g18
F0.5
sg19
I22
sg20
g21
((dp1132
I01
I1
sNI21
stRp1133
sg24
I2
sg25
F23
sbs(g412
g262
tp1134
g1
(g15
g3
NtRp1135
(dp1136
g18
F0.5
sg19
I22
sg20
g21
((dp1137
I01
I1
sNI21
stRp1138
sg24
I2
sg25
F23
sbs(g10
g625
tp1139
g1
(g15
g3
NtRp1140
(dp1141
g18
F0.5
sg19
I17
sg20
g21
((dp1142
NI17
stRp1143
sg24
I2
sg25
F18
sbs(g9
g596
tp1144
g1
(g15
g3
NtRp1145
(dp1146
g18
F0.5
sg19
I62
sg20
g21
((dp1147
NI62
stRp1148
sg24
I2
sg25
F63
sbs(g10
S'contains(other)'
p1149
tp1150
g1
(g15
g3
NtRp1151
(dp1152
g18
F0.5
sg19
I17
sg20
g21
((dp1153
NI17
stRp1154
sg24
I2
sg25
F18
sbs(g8
g560
tp1155
g1
(g15
g3
NtRp1156
(dp1157
g18
F0.5
sg19
I22
sg20
g21
((dp1158
NI22
stRp1159
sg24
I2
sg25
F23
sbs(g10
g262
tp1160
g1
(g15
g3
NtRp1161
(dp1162
g18
F0.5
sg19
I17
sg20
g21
((dp1163
NI17
stRp1164
sg24
I2
sg25
F18
sbs(g572
g910
tp1165
g1
(g15
g3
NtRp1166
(dp1167
g18
F0.5
sg19
I22
sg20
g21
((dp1168
I01
I1
sNI21
stRp1169
sg24
I2
sg25
F23
sbs(g10
g1117
tp1170
g1
(g15
g3
NtRp1171
(dp1172
g18
F0.5
sg19
I17
sg20
g21
((dp1173
NI17
stRp1174
sg24
I2
sg25
F18
sbs(g9
g688
tp1175
g1
(g15
g3
NtRp1176
(dp1177
g18
F0.5
sg19
I62
sg20
g21
((dp1178
NI62
stRp1179
sg24
I2
sg25
F63
sbs(g572
g163
tp1180
g1
(g15
g3
NtRp1181
(dp1182
g18
F0.5
sg19
I22
sg20
g21
((dp1183
I01
I1
sNI21
stRp1184
sg24
I2
sg25
F23
sbs(S'Meaning'
g488
tp1185
g1
(g15
g3
NtRp1186
(dp1187
g18
F0.5
sg19
I62
sg20
g21
((dp1188
I01
I1
sNI61
stRp1189
sg24
I2
sg25
F63
sbs(g9
g1055
tp1190
g1
(g15
g3
NtRp1191
(dp1192
g18
F0.5
sg19
I62
sg20
g21
((dp1193
NI62
stRp1194
sg24
I2
sg25
F63
sbs(g10
g62
tp1195
g1
(g15
g3
NtRp1196
(dp1197
g18
F0.5
sg19
I17
sg20
g21
((dp1198
NI17
stRp1199
sg24
I2
sg25
F18
sbs(g10
g841
tp1200
g1
(g15
g3
NtRp1201
(dp1202
g18
F0.5
sg19
I17
sg20
g21
((dp1203
NI17
stRp1204
sg24
I2
sg25
F18
sbs(g10
g458
tp1205
g1
(g15
g3
NtRp1206
(dp1207
g18
F0.5
sg19
I17
sg20
g21
((dp1208
NI17
stRp1209
sg24
I2
sg25
F18
sbs(S'Abbreviation'
p1210
g899
tp1211
g1
(g15
g3
NtRp1212
(dp1213
g18
F0.5
sg19
I22
sg20
g21
((dp1214
I01
I2
sNI20
stRp1215
sg24
I2
sg25
F23
sbs(g10
g69
tp1216
g1
(g15
g3
NtRp1217
(dp1218
g18
F0.5
sg19
I17
sg20
g21
((dp1219
NI17
stRp1220
sg24
I2
sg25
F18
sbs(g10
S'contains(tree)'
p1221
tp1222
g1
(g15
g3
NtRp1223
(dp1224
g18
F0.5
sg19
I17
sg20
g21
((dp1225
NI17
stRp1226
sg24
I2
sg25
F18
sbs(g8
S'contains(the)'
tp1227
g1
(g15
g3
NtRp1228
(dp1229
g18
F0.5
sg19
I22
sg20
g21
((dp1230
I01
I12
sNI10
stRp1231
sg24
I2
sg25
F23
sbs(S'Abbreviation'
g1006
tp1232
g1
(g15
g3
NtRp1233
(dp1234
g18
F0.5
sg19
I22
sg20
g21
((dp1235
I01
I1
sNI21
stRp1236
sg24
I2
sg25
F23
sbs(g10
g488
tp1237
g1
(g15
g3
NtRp1238
(dp1239
g18
F0.5
sg19
I17
sg20
g21
((dp1240
NI17
stRp1241
sg24
I2
sg25
F18
sbs(g8
g989
tp1242
g1
(g15
g3
NtRp1243
(dp1244
g18
F0.5
sg19
I22
sg20
g21
((dp1245
NI22
stRp1246
sg24
I2
sg25
F23
sbs(g9
g413
tp1247
g1
(g15
g3
NtRp1248
(dp1249
g18
F0.5
sg19
I62
sg20
g21
((dp1250
NI62
stRp1251
sg24
I2
sg25
F63
sbs(g9
g243
tp1252
g1
(g15
g3
NtRp1253
(dp1254
g18
F0.5
sg19
I62
sg20
g21
((dp1255
NI62
stRp1256
sg24
I2
sg25
F63
sbs(g10
S'contains(claus)'
p1257
tp1258
g1
(g15
g3
NtRp1259
(dp1260
g18
F0.5
sg19
I17
sg20
g21
((dp1261
NI17
stRp1262
sg24
I2
sg25
F18
sbs(g10
S'contains(company)'
p1263
tp1264
g1
(g15
g3
NtRp1265
(dp1266
g18
F0.5
sg19
I17
sg20
g21
((dp1267
NI17
stRp1268
sg24
I2
sg25
F18
sbs(S'Meaning'
g560
tp1269
g1
(g15
g3
NtRp1270
(dp1271
g18
F0.5
sg19
I62
sg20
g21
((dp1272
I01
I1
sNI61
stRp1273
sg24
I2
sg25
F63
sbs(g8
S'contains(pretty)'
p1274
tp1275
g1
(g15
g3
NtRp1276
(dp1277
g18
F0.5
sg19
I22
sg20
g21
((dp1278
NI22
stRp1279
sg24
I2
sg25
F23
sbs(S'Meaning'
g301
tp1280
g1
(g15
g3
NtRp1281
(dp1282
g18
F0.5
sg19
I62
sg20
g21
((dp1283
I01
I1
sNI61
stRp1284
sg24
I2
sg25
F63
sbs(g9
g26
tp1285
g1
(g15
g3
NtRp1286
(dp1287
g18
F0.5
sg19
I62
sg20
g21
((dp1288
NI62
stRp1289
sg24
I2
sg25
F63
sbs(g10
g916
tp1290
g1
(g15
g3
NtRp1291
(dp1292
g18
F0.5
sg19
I17
sg20
g21
((dp1293
NI17
stRp1294
sg24
I2
sg25
F18
sbs(g8
S'contains(rubber)'
p1295
tp1296
g1
(g15
g3
NtRp1297
(dp1298
g18
F0.5
sg19
I22
sg20
g21
((dp1299
NI22
stRp1300
sg24
I2
sg25
F23
sbs(g10
g1000
tp1301
g1
(g15
g3
NtRp1302
(dp1303
g18
F0.5
sg19
I17
sg20
g21
((dp1304
NI17
stRp1305
sg24
I2
sg25
F18
sbs(g10
S'contains(avenue)'
p1306
tp1307
g1
(g15
g3
NtRp1308
(dp1309
g18
F0.5
sg19
I17
sg20
g21
((dp1310
NI17
stRp1311
sg24
I2
sg25
F18
sbs(g10
g361
tp1312
g1
(g15
g3
NtRp1313
(dp1314
g18
F0.5
sg19
I17
sg20
g21
((dp1315
NI17
stRp1316
sg24
I2
sg25
F18
sbs(g8
S'contains(mellon)'
p1317
tp1318
g1
(g15
g3
NtRp1319
(dp1320
g18
F0.5
sg19
I22
sg20
g21
((dp1321
NI22
stRp1322
sg24
I2
sg25
F23
sbs(S'Meaning'
S'contains(haircut)'
p1323
tp1324
g1
(g15
g3
NtRp1325
(dp1326
g18
F0.5
sg19
I62
sg20
g21
((dp1327
I01
I1
sNI61
stRp1328
sg24
I2
sg25
F63
sbs(g169
g81
tp1329
g1
(g15
g3
NtRp1330
(dp1331
g18
F0.5
sg19
I17
sg20
g21
((dp1332
I01
I1
sNI16
stRp1333
sg24
I2
sg25
F18
sbs(g572
S'contains(reading)'
p1334
tp1335
g1
(g15
g3
NtRp1336
(dp1337
g18
F0.5
sg19
I22
sg20
g21
((dp1338
I01
I1
sNI21
stRp1339
sg24
I2
sg25
F23
sbs(g10
g290
tp1340
g1
(g15
g3
NtRp1341
(dp1342
g18
F0.5
sg19
I17
sg20
g21
((dp1343
NI17
stRp1344
sg24
I2
sg25
F18
sbs(g8
g699
tp1345
g1
(g15
g3
NtRp1346
(dp1347
g18
F0.5
sg19
I22
sg20
g21
((dp1348
NI22
stRp1349
sg24
I2
sg25
F23
sbs(g8
g81
tp1350
g1
(g15
g3
NtRp1351
(dp1352
g18
F0.5
sg19
I22
sg20
g21
((dp1353
NI22
stRp1354
sg24
I2
sg25
F23
sbs(g9
S'contains(as)'
p1355
tp1356
g1
(g15
g3
NtRp1357
(dp1358
g18
F0.5
sg19
I62
sg20
g21
((dp1359
NI62
stRp1360
sg24
I2
sg25
F63
sbs(g10
S'contains(?)'
tp1361
g1
(g15
g3
NtRp1362
(dp1363
g18
F0.5
sg19
I17
sg20
g21
((dp1364
I01
I17
stRp1365
sg24
I1
sg25
F17.5
sbs(g255
g313
tp1366
g1
(g15
g3
NtRp1367
(dp1368
g18
F0.5
sg19
I22
sg20
g21
((dp1369
I01
I1
sNI21
stRp1370
sg24
I2
sg25
F23
sbs(g8
g367
tp1371
g1
(g15
g3
NtRp1372
(dp1373
g18
F0.5
sg19
I22
sg20
g21
((dp1374
NI22
stRp1375
sg24
I2
sg25
F23
sbs(g8
S'contains(eucalyptus)'
p1376
tp1377
g1
(g15
g3
NtRp1378
(dp1379
g18
F0.5
sg19
I22
sg20
g21
((dp1380
NI22
stRp1381
sg24
I2
sg25
F23
sbs(g10
S'contains(ads)'
p1382
tp1383
g1
(g15
g3
NtRp1384
(dp1385
g18
F0.5
sg19
I17
sg20
g21
((dp1386
NI17
stRp1387
sg24
I2
sg25
F18
sbs(g9
g899
tp1388
g1
(g15
g3
NtRp1389
(dp1390
g18
F0.5
sg19
I62
sg20
g21
((dp1391
NI62
stRp1392
sg24
I2
sg25
F63
sbs(g9
g170
tp1393
g1
(g15
g3
NtRp1394
(dp1395
g18
F0.5
sg19
I62
sg20
g21
((dp1396
NI62
stRp1397
sg24
I2
sg25
F63
sbs(g10
g268
tp1398
g1
(g15
g3
NtRp1399
(dp1400
g18
F0.5
sg19
I17
sg20
g21
((dp1401
NI17
stRp1402
sg24
I2
sg25
F18
sbs(g10
S'contains(what)'
tp1403
g1
(g15
g3
NtRp1404
(dp1405
g18
F0.5
sg19
I17
sg20
g21
((dp1406
I01
I17
stRp1407
sg24
I2
sg25
F18
sbs(g10
g1323
tp1408
g1
(g15
g3
NtRp1409
(dp1410
g18
F0.5
sg19
I17
sg20
g21
((dp1411
NI17
stRp1412
sg24
I2
sg25
F18
sbs(g9
S'contains(form)'
p1413
tp1414
g1
(g15
g3
NtRp1415
(dp1416
g18
F0.5
sg19
I62
sg20
g21
((dp1417
NI62
stRp1418
sg24
I2
sg25
F63
sbs(g8
g470
tp1419
g1
(g15
g3
NtRp1420
(dp1421
g18
F0.5
sg19
I22
sg20
g21
((dp1422
NI22
stRp1423
sg24
I2
sg25
F23
sbs(g9
g256
tp1424
g1
(g15
g3
NtRp1425
(dp1426
g18
F0.5
sg19
I62
sg20
g21
((dp1427
NI62
stRp1428
sg24
I2
sg25
F63
sbs(g8
g249
tp1429
g1
(g15
g3
NtRp1430
(dp1431
g18
F0.5
sg19
I22
sg20
g21
((dp1432
NI22
stRp1433
sg24
I2
sg25
F23
sbs(g10
g243
tp1434
g1
(g15
g3
NtRp1435
(dp1436
g18
F0.5
sg19
I17
sg20
g21
((dp1437
NI17
stRp1438
sg24
I2
sg25
F18
sbs(g10
g613
tp1439
g1
(g15
g3
NtRp1440
(dp1441
g18
F0.5
sg19
I17
sg20
g21
((dp1442
NI17
stRp1443
sg24
I2
sg25
F18
sbs(g182
g452
tp1444
g1
(g15
g3
NtRp1445
(dp1446
g18
F0.5
sg19
I22
sg20
g21
((dp1447
I01
I1
sNI21
stRp1448
sg24
I2
sg25
F23
sbs(g10
g230
tp1449
g1
(g15
g3
NtRp1450
(dp1451
g18
F0.5
sg19
I17
sg20
g21
((dp1452
NI17
stRp1453
sg24
I2
sg25
F18
sbs(S'Meaning'
p1454
S'contains(santa)'
p1455
tp1456
g1
(g15
g3
NtRp1457
(dp1458
g18
F0.5
sg19
I62
sg20
g21
((dp1459
I01
I1
sNI61
stRp1460
sg24
I2
sg25
F63
sbs(g8
g613
tp1461
g1
(g15
g3
NtRp1462
(dp1463
g18
F0.5
sg19
I22
sg20
g21
((dp1464
NI22
stRp1465
sg24
I2
sg25
F23
sbs(S'Meaning'
g1317
tp1466
g1
(g15
g3
NtRp1467
(dp1468
g18
F0.5
sg19
I62
sg20
g21
((dp1469
I01
I1
sNI61
stRp1470
sg24
I2
sg25
F63
sbs(g10
S'contains(when)'
p1471
tp1472
g1
(g15
g3
NtRp1473
(dp1474
g18
F0.5
sg19
I17
sg20
g21
((dp1475
NI17
stRp1476
sg24
I2
sg25
F18
sbs(g9
S'contains(on)'
p1477
tp1478
g1
(g15
g3
NtRp1479
(dp1480
g18
F0.5
sg19
I62
sg20
g21
((dp1481
NI62
stRp1482
sg24
I2
sg25
F63
sbs(g10
g862
tp1483
g1
(g15
g3
NtRp1484
(dp1485
g18
F0.5
sg19
I17
sg20
g21
((dp1486
NI17
stRp1487
sg24
I2
sg25
F18
sbs(g8
g201
tp1488
g1
(g15
g3
NtRp1489
(dp1490
g18
F0.5
sg19
I22
sg20
g21
((dp1491
NI22
stRp1492
sg24
I2
sg25
F23
sbs(g9
g770
tp1493
g1
(g15
g3
NtRp1494
(dp1495
g18
F0.5
sg19
I62
sg20
g21
((dp1496
NI62
stRp1497
sg24
I2
sg25
F63
sbs(g10
g1017
tp1498
g1
(g15
g3
NtRp1499
(dp1500
g18
F0.5
sg19
I17
sg20
g21
((dp1501
NI17
stRp1502
sg24
I2
sg25
F18
sbs(g9
g183
tp1503
g1
(g15
g3
NtRp1504
(dp1505
g18
F0.5
sg19
I62
sg20
g21
((dp1506
NI62
stRp1507
sg24
I2
sg25
F63
sbs(S'Meaning'
p1508
g1376
tp1509
g1
(g15
g3
NtRp1510
(dp1511
g18
F0.5
sg19
I62
sg20
g21
((dp1512
I01
I1
sNI61
stRp1513
sg24
I2
sg25
F63
sbs(g572
g799
tp1514
g1
(g15
g3
NtRp1515
(dp1516
g18
F0.5
sg19
I22
sg20
g21
((dp1517
I01
I1
sNI21
stRp1518
sg24
I2
sg25
F23
sbs(g68
g145
tp1519
g1
(g15
g3
NtRp1520
(dp1521
g18
F0.5
sg19
I22
sg20
g21
((dp1522
I01
I1
sNI21
stRp1523
sg24
I2
sg25
F23
sbs(g10
g157
tp1524
g1
(g15
g3
NtRp1525
(dp1526
g18
F0.5
sg19
I17
sg20
g21
((dp1527
NI17
stRp1528
sg24
I2
sg25
F18
sbs(g572
g1382
tp1529
g1
(g15
g3
NtRp1530
(dp1531
g18
F0.5
sg19
I22
sg20
g21
((dp1532
I01
I1
sNI21
stRp1533
sg24
I2
sg25
F23
sbs(g10
g770
tp1534
g1
(g15
g3
NtRp1535
(dp1536
g18
F0.5
sg19
I17
sg20
g21
((dp1537
NI17
stRp1538
sg24
I2
sg25
F18
sbs(g9
g1006
tp1539
g1
(g15
g3
NtRp1540
(dp1541
g18
F0.5
sg19
I62
sg20
g21
((dp1542
NI62
stRp1543
sg24
I2
sg25
F63
sbs(g9
g1149
tp1544
g1
(g15
g3
NtRp1545
(dp1546
g18
F0.5
sg19
I62
sg20
g21
((dp1547
NI62
stRp1548
sg24
I2
sg25
F63
sbs(g8
g170
tp1549
g1
(g15
g3
NtRp1550
(dp1551
g18
F0.5
sg19
I22
sg20
g21
((dp1552
NI22
stRp1553
sg24
I2
sg25
F23
sbs(g9
g1263
tp1554
g1
(g15
g3
NtRp1555
(dp1556
g18
F0.5
sg19
I62
sg20
g21
((dp1557
NI62
stRp1558
sg24
I2
sg25
F63
sbs(g8
S'contains(mellons)'
p1559
tp1560
g1
(g15
g3
NtRp1561
(dp1562
g18
F0.5
sg19
I22
sg20
g21
((dp1563
NI22
stRp1564
sg24
I2
sg25
F23
sbs(g10
g151
tp1565
g1
(g15
g3
NtRp1566
(dp1567
g18
F0.5
sg19
I17
sg20
g21
((dp1568
NI17
stRp1569
sg24
I2
sg25
F18
sbs(g10
g682
tp1570
g1
(g15
g3
NtRp1571
(dp1572
g18
F0.5
sg19
I17
sg20
g21
((dp1573
NI17
stRp1574
sg24
I2
sg25
F18
sbs(g8
g1257
tp1575
g1
(g15
g3
NtRp1576
(dp1577
g18
F0.5
sg19
I22
sg20
g21
((dp1578
NI22
stRp1579
sg24
I2
sg25
F23
sbs(g9
g733
tp1580
g1
(g15
g3
NtRp1581
(dp1582
g18
F0.5
sg19
I62
sg20
g21
((dp1583
NI62
stRp1584
sg24
I2
sg25
F63
sbs(g8
S'contains(backpacks)'
p1585
tp1586
g1
(g15
g3
NtRp1587
(dp1588
g18
F0.5
sg19
I22
sg20
g21
((dp1589
NI22
stRp1590
sg24
I2
sg25
F23
sbs(g9
S'contains(made)'
p1591
tp1592
g1
(g15
g3
NtRp1593
(dp1594
g18
F0.5
sg19
I62
sg20
g21
((dp1595
NI62
stRp1596
sg24
I2
sg25
F63
sbs(g10
g127
tp1597
g1
(g15
g3
NtRp1598
(dp1599
g18
F0.5
sg19
I17
sg20
g21
((dp1600
NI17
stRp1601
sg24
I2
sg25
F18
sbs(g8
g1306
tp1602
g1
(g15
g3
NtRp1603
(dp1604
g18
F0.5
sg19
I22
sg20
g21
((dp1605
NI22
stRp1606
sg24
I2
sg25
F23
sbs(g8
g721
tp1607
g1
(g15
g3
NtRp1608
(dp1609
g18
F0.5
sg19
I22
sg20
g21
((dp1610
NI22
stRp1611
sg24
I2
sg25
F23
sbs(g9
g787
tp1612
g1
(g15
g3
NtRp1613
(dp1614
g18
F0.5
sg19
I62
sg20
g21
((dp1615
NI62
stRp1616
sg24
I2
sg25
F63
sbs(S'Meaning'
g1306
tp1617
g1
(g15
g3
NtRp1618
(dp1619
g18
F0.5
sg19
I62
sg20
g21
((dp1620
I01
I1
sNI61
stRp1621
sg24
I2
sg25
F63
sbs(S'Composition'
g1295
tp1622
g1
(g15
g3
NtRp1623
(dp1624
g18
F0.5
sg19
I17
sg20
g21
((dp1625
I01
I1
sNI16
stRp1626
sg24
I2
sg25
F18
sbs(g10
g963
tp1627
g1
(g15
g3
NtRp1628
(dp1629
g18
F0.5
sg19
I17
sg20
g21
((dp1630
NI17
stRp1631
sg24
I2
sg25
F18
sbs(g182
g688
tp1632
g1
(g15
g3
NtRp1633
(dp1634
g18
F0.5
sg19
I22
sg20
g21
((dp1635
I01
I1
sNI21
stRp1636
sg24
I2
sg25
F23
sbs(g9
g93
tp1637
g1
(g15
g3
NtRp1638
(dp1639
g18
F0.5
sg19
I62
sg20
g21
((dp1640
NI62
stRp1641
sg24
I2
sg25
F63
sbs(S'Composition'
p1642
g676
tp1643
g1
(g15
g3
NtRp1644
(dp1645
g18
F0.5
sg19
I17
sg20
g21
((dp1646
I01
I2
sNI15
stRp1647
sg24
I2
sg25
F18
sbs(g9
g406
tp1648
g1
(g15
g3
NtRp1649
(dp1650
g18
F0.5
sg19
I62
sg20
g21
((dp1651
I01
I12
sNI50
stRp1652
sg24
I2
sg25
F63
sbs(S'Meaning'
g682
tp1653
g1
(g15
g3
NtRp1654
(dp1655
g18
F0.5
sg19
I62
sg20
g21
((dp1656
I01
I1
sNI61
stRp1657
sg24
I2
sg25
F63
sbs(g412
S'contains(bureau)'
p1658
tp1659
g1
(g15
g3
NtRp1660
(dp1661
g18
F0.5
sg19
I22
sg20
g21
((dp1662
I01
I1
sNI21
stRp1663
sg24
I2
sg25
F23
sbs(g8
g1081
tp1664
g1
(g15
g3
NtRp1665
(dp1666
g18
F0.5
sg19
I22
sg20
g21
((dp1667
I01
I3
sNI19
stRp1668
sg24
I2
sg25
F23
sbs(S'Meaning'
S'contains(atm)'
p1669
tp1670
g1
(g15
g3
NtRp1671
(dp1672
g18
F0.5
sg19
I62
sg20
g21
((dp1673
I01
I1
sNI61
stRp1674
sg24
I2
sg25
F63
sbs(g8
S'contains(mouse)'
p1675
tp1676
g1
(g15
g3
NtRp1677
(dp1678
g18
F0.5
sg19
I22
sg20
g21
((dp1679
NI22
stRp1680
sg24
I2
sg25
F23
sbs(g10
g326
tp1681
g1
(g15
g3
NtRp1682
(dp1683
g18
F0.5
sg19
I17
sg20
g21
((dp1684
NI17
stRp1685
sg24
I2
sg25
F18
sbs(g8
g44
tp1686
g1
(g15
g3
NtRp1687
(dp1688
g18
F0.5
sg19
I22
sg20
g21
((dp1689
NI22
stRp1690
sg24
I2
sg25
F23
sbs(g9
g176
tp1691
g1
(g15
g3
NtRp1692
(dp1693
g18
F0.5
sg19
I62
sg20
g21
((dp1694
NI62
stRp1695
sg24
I2
sg25
F63
sbs(g9
g435
tp1696
g1
(g15
g3
NtRp1697
(dp1698
g18
F0.5
sg19
I62
sg20
g21
((dp1699
NI62
stRp1700
sg24
I2
sg25
F63
sbs(g8
g727
tp1701
g1
(g15
g3
NtRp1702
(dp1703
g18
F0.5
sg19
I22
sg20
g21
((dp1704
NI22
stRp1705
sg24
I2
sg25
F23
sbs(S'Meaning'
g44
tp1706
g1
(g15
g3
NtRp1707
(dp1708
g18
F0.5
sg19
I62
sg20
g21
((dp1709
I01
I1
sNI61
stRp1710
sg24
I2
sg25
F63
sbs(g10
g343
tp1711
g1
(g15
g3
NtRp1712
(dp1713
g18
F0.5
sg19
I17
sg20
g21
((dp1714
NI17
stRp1715
sg24
I2
sg25
F18
sbs(g10
g355
tp1716
g1
(g15
g3
NtRp1717
(dp1718
g18
F0.5
sg19
I17
sg20
g21
((dp1719
NI17
stRp1720
sg24
I2
sg25
F18
sbs(S'Meaning'
g1123
tp1721
g1
(g15
g3
NtRp1722
(dp1723
g18
F0.5
sg19
I62
sg20
g21
((dp1724
I01
I1
sNI61
stRp1725
sg24
I2
sg25
F63
sbs(g8
g607
tp1726
g1
(g15
g3
NtRp1727
(dp1728
g18
F0.5
sg19
I22
sg20
g21
((dp1729
NI22
stRp1730
sg24
I2
sg25
F23
sbs(g8
S'contains(protective)'
p1731
tp1732
g1
(g15
g3
NtRp1733
(dp1734
g18
F0.5
sg19
I22
sg20
g21
((dp1735
NI22
stRp1736
sg24
I2
sg25
F23
sbs(g8
S'contains(broke)'
p1737
tp1738
g1
(g15
g3
NtRp1739
(dp1740
g18
F0.5
sg19
I22
sg20
g21
((dp1741
NI22
stRp1742
sg24
I2
sg25
F23
sbs(g8
g585
tp1743
g1
(g15
g3
NtRp1744
(dp1745
g18
F0.5
sg19
I22
sg20
g21
((dp1746
NI22
stRp1747
sg24
I2
sg25
F23
sbs(S'Meaning'
g424
tp1748
g1
(g15
g3
NtRp1749
(dp1750
g18
F0.5
sg19
I62
sg20
g21
((dp1751
I01
I1
sNI61
stRp1752
sg24
I2
sg25
F63
sbs(g8
g579
tp1753
g1
(g15
g3
NtRp1754
(dp1755
g18
F0.5
sg19
I22
sg20
g21
((dp1756
NI22
stRp1757
sg24
I2
sg25
F23
sbs(g8
g1455
tp1758
g1
(g15
g3
NtRp1759
(dp1760
g18
F0.5
sg19
I22
sg20
g21
((dp1761
NI22
stRp1762
sg24
I2
sg25
F23
sbs(g9
g201
tp1763
g1
(g15
g3
NtRp1764
(dp1765
g18
F0.5
sg19
I62
sg20
g21
((dp1766
NI62
stRp1767
sg24
I2
sg25
F63
sbs(g8
S'contains(your)'
p1768
tp1769
g1
(g15
g3
NtRp1770
(dp1771
g18
F0.5
sg19
I22
sg20
g21
((dp1772
NI22
stRp1773
sg24
I2
sg25
F23
sbs(g464
g536
tp1774
g1
(g15
g3
NtRp1775
(dp1776
g18
F0.5
sg19
I22
sg20
g21
((dp1777
I01
I4
sNI18
stRp1778
sg24
I2
sg25
F23
sbs(g8
g1591
tp1779
g1
(g15
g3
NtRp1780
(dp1781
g18
F0.5
sg19
I22
sg20
g21
((dp1782
NI22
stRp1783
sg24
I2
sg25
F23
sbs(g10
g1123
tp1784
g1
(g15
g3
NtRp1785
(dp1786
g18
F0.5
sg19
I17
sg20
g21
((dp1787
NI17
stRp1788
sg24
I2
sg25
F18
sbs(g10
g548
tp1789
g1
(g15
g3
NtRp1790
(dp1791
g18
F0.5
sg19
I17
sg20
g21
((dp1792
NI17
stRp1793
sg24
I2
sg25
F18
sbs(g10
g566
tp1794
g1
(g15
g3
NtRp1795
(dp1796
g18
F0.5
sg19
I17
sg20
g21
((dp1797
NI17
stRp1798
sg24
I2
sg25
F18
sbs(g10
g1455
tp1799
g1
(g15
g3
NtRp1800
(dp1801
g18
F0.5
sg19
I17
sg20
g21
((dp1802
NI17
stRp1803
sg24
I2
sg25
F18
sbs(g10
g579
tp1804
g1
(g15
g3
NtRp1805
(dp1806
g18
F0.5
sg19
I17
sg20
g21
((dp1807
NI17
stRp1808
sg24
I2
sg25
F18
sbs(g9
g13
tp1809
g1
(g15
g3
NtRp1810
(dp1811
g18
F0.5
sg19
I62
sg20
g21
((dp1812
NI62
stRp1813
sg24
I2
sg25
F63
sbs(g10
g1376
tp1814
g1
(g15
g3
NtRp1815
(dp1816
g18
F0.5
sg19
I17
sg20
g21
((dp1817
NI17
stRp1818
sg24
I2
sg25
F18
sbs(g10
g1737
tp1819
g1
(g15
g3
NtRp1820
(dp1821
g18
F0.5
sg19
I17
sg20
g21
((dp1822
NI17
stRp1823
sg24
I2
sg25
F18
sbs(g1508
g1221
tp1824
g1
(g15
g3
NtRp1825
(dp1826
g18
F0.5
sg19
I62
sg20
g21
((dp1827
I01
I1
sNI61
stRp1828
sg24
I2
sg25
F63
sbs(S'Meaning'
g494
tp1829
g1
(g15
g3
NtRp1830
(dp1831
g18
F0.5
sg19
I62
sg20
g21
((dp1832
I01
I1
sNI61
stRp1833
sg24
I2
sg25
F63
sbs(S'Meaning'
g319
tp1834
g1
(g15
g3
NtRp1835
(dp1836
g18
F0.5
sg19
I62
sg20
g21
((dp1837
I01
I1
sNI61
stRp1838
sg24
I2
sg25
F63
sbs(g255
S'contains(a)'
tp1839
g1
(g15
g3
NtRp1840
(dp1841
g18
F0.5
sg19
I22
sg20
g21
((dp1842
I01
I1
sNI21
stRp1843
sg24
I2
sg25
F23
sbs(g9
g1382
tp1844
g1
(g15
g3
NtRp1845
(dp1846
g18
F0.5
sg19
I62
sg20
g21
((dp1847
NI62
stRp1848
sg24
I2
sg25
F63
sbs(g10
g1669
tp1849
g1
(g15
g3
NtRp1850
(dp1851
g18
F0.5
sg19
I17
sg20
g21
((dp1852
NI17
stRp1853
sg24
I2
sg25
F18
sbs(g255
g1355
tp1854
g1
(g15
g3
NtRp1855
(dp1856
g18
F0.5
sg19
I22
sg20
g21
((dp1857
I01
I1
sNI21
stRp1858
sg24
I2
sg25
F23
sbs(g8
g213
tp1859
g1
(g15
g3
NtRp1860
(dp1861
g18
F0.5
sg19
I22
sg20
g21
((dp1862
NI22
stRp1863
sg24
I2
sg25
F23
sbs(S'Meaning'
g394
tp1864
g1
(g15
g3
NtRp1865
(dp1866
g18
F0.5
sg19
I62
sg20
g21
((dp1867
I01
I1
sNI61
stRp1868
sg24
I2
sg25
F63
sbs(g8
g435
tp1869
g1
(g15
g3
NtRp1870
(dp1871
g18
F0.5
sg19
I22
sg20
g21
((dp1872
NI22
stRp1873
sg24
I2
sg25
F23
sbs(g8
g963
tp1874
g1
(g15
g3
NtRp1875
(dp1876
g18
F0.5
sg19
I22
sg20
g21
((dp1877
NI22
stRp1878
sg24
I2
sg25
F23
sbs(g10
g378
tp1879
g1
(g15
g3
NtRp1880
(dp1881
g18
F0.5
sg19
I17
sg20
g21
((dp1882
NI17
stRp1883
sg24
I2
sg25
F18
sbs(S'Meaning'
p1884
g631
tp1885
g1
(g15
g3
NtRp1886
(dp1887
g18
F0.5
sg19
I62
sg20
g21
((dp1888
I01
I12
sNI50
stRp1889
sg24
I2
sg25
F63
sbs(g10
g494
tp1890
g1
(g15
g3
NtRp1891
(dp1892
g18
F0.5
sg19
I17
sg20
g21
((dp1893
NI17
stRp1894
sg24
I2
sg25
F18
sbs(g10
g1585
tp1895
g1
(g15
g3
NtRp1896
(dp1897
g18
F0.5
sg19
I17
sg20
g21
((dp1898
NI17
stRp1899
sg24
I2
sg25
F18
sbs(g10
g183
tp1900
g1
(g15
g3
NtRp1901
(dp1902
g18
F0.5
sg19
I17
sg20
g21
((dp1903
NI17
stRp1904
sg24
I2
sg25
F18
sbs(g9
g1295
tp1905
g1
(g15
g3
NtRp1906
(dp1907
g18
F0.5
sg19
I62
sg20
g21
((dp1908
NI62
stRp1909
sg24
I2
sg25
F63
sbs(S'Abbreviation'
g400
tp1910
g1
(g15
g3
NtRp1911
(dp1912
g18
F0.5
sg19
I22
sg20
g21
((dp1913
I01
I1
sNI21
stRp1914
sg24
I2
sg25
F23
sbs(g10
g1028
tp1915
g1
(g15
g3
NtRp1916
(dp1917
g18
F0.5
sg19
I17
sg20
g21
((dp1918
NI17
stRp1919
sg24
I2
sg25
F18
sbs(S'Meaning'
p1920
g127
tp1921
g1
(g15
g3
NtRp1922
(dp1923
g18
F0.5
sg19
I62
sg20
g21
((dp1924
I01
I1
sNI61
stRp1925
sg24
I2
sg25
F63
sbs(S'Meaning'
g1274
tp1926
g1
(g15
g3
NtRp1927
(dp1928
g18
F0.5
sg19
I62
sg20
g21
((dp1929
I01
I1
sNI61
stRp1930
sg24
I2
sg25
F63
sbs(g10
g1477
tp1931
g1
(g15
g3
NtRp1932
(dp1933
g18
F0.5
sg19
I17
sg20
g21
((dp1934
NI17
stRp1935
sg24
I2
sg25
F18
sbs(g9
g195
tp1936
g1
(g15
g3
NtRp1937
(dp1938
g18
F0.5
sg19
I62
sg20
g21
((dp1939
NI62
stRp1940
sg24
I2
sg25
F63
sbs(g10
g413
tp1941
g1
(g15
g3
NtRp1942
(dp1943
g18
F0.5
sg19
I17
sg20
g21
((dp1944
NI17
stRp1945
sg24
I2
sg25
F18
sbs(g9
S'contains(does)'
p1946
tp1947
g1
(g15
g3
NtRp1948
(dp1949
g18
F0.5
sg19
I62
sg20
g21
((dp1950
I01
I12
sNI50
stRp1951
sg24
I2
sg25
F63
sbs(g255
S'contains(mean)'
tp1952
g1
(g15
g3
NtRp1953
(dp1954
g18
F0.5
sg19
I22
sg20
g21
((dp1955
I01
I1
sNI21
stRp1956
sg24
I2
sg25
F23
sbs(g10
g1559
tp1957
g1
(g15
g3
NtRp1958
(dp1959
g18
F0.5
sg19
I17
sg20
g21
((dp1960
NI17
stRp1961
sg24
I2
sg25
F18
sbs(S'Composition'
g781
tp1962
g1
(g15
g3
NtRp1963
(dp1964
g18
F0.5
sg19
I17
sg20
g21
((dp1965
I01
I1
sNI16
stRp1966
sg24
I2
sg25
F18
sbs(g10
g1081
tp1967
g1
(g15
g3
NtRp1968
(dp1969
g18
F0.5
sg19
I17
sg20
g21
((dp1970
NI17
stRp1971
sg24
I2
sg25
F18
sbs(g464
S'contains(does)'
tp1972
g1
(g15
g3
NtRp1973
(dp1974
g18
F0.5
sg19
I22
sg20
g21
((dp1975
I01
I10
sNI12
stRp1976
sg24
I2
sg25
F23
sbs(S'Meaning'
g637
tp1977
g1
(g15
g3
NtRp1978
(dp1979
g18
F0.5
sg19
I62
sg20
g21
((dp1980
I01
I1
sNI61
stRp1981
sg24
I2
sg25
F63
sbs(g8
S'contains(are)'
p1982
tp1983
g1
(g15
g3
NtRp1984
(dp1985
g18
F0.5
sg19
I22
sg20
g21
((dp1986
NI22
stRp1987
sg24
I2
sg25
F23
sbs(g9
g133
tp1988
g1
(g15
g3
NtRp1989
(dp1990
g18
F0.5
sg19
I62
sg20
g21
((dp1991
NI62
stRp1992
sg24
I2
sg25
F63
sbs(g32
g1559
tp1993
g1
(g15
g3
NtRp1994
(dp1995
g18
F0.5
sg19
I62
sg20
g21
((dp1996
I01
I1
sNI61
stRp1997
sg24
I2
sg25
F63
sbs(S'Meaning'
g230
tp1998
g1
(g15
g3
NtRp1999
(dp2000
g18
F0.5
sg19
I62
sg20
g21
((dp2001
I01
I1
sNI61
stRp2002
sg24
I2
sg25
F63
sbs(S'Meaning'
g810
tp2003
g1
(g15
g3
NtRp2004
(dp2005
g18
F0.5
sg19
I62
sg20
g21
((dp2006
I01
I1
sNI61
stRp2007
sg24
I2
sg25
F63
sbs(g169
S'contains(is)'
tp2008
g1
(g15
g3
NtRp2009
(dp2010
g18
F0.5
sg19
I17
sg20
g21
((dp2011
I01
I10
sNI7
stRp2012
sg24
I2
sg25
F18
sbs(g572
g1149
tp2013
g1
(g15
g3
NtRp2014
(dp2015
g18
F0.5
sg19
I22
sg20
g21
((dp2016
I01
I1
sNI21
stRp2017
sg24
I2
sg25
F23
sbs(g9
g1471
tp2018
g1
(g15
g3
NtRp2019
(dp2020
g18
F0.5
sg19
I62
sg20
g21
((dp2021
NI62
stRp2022
sg24
I2
sg25
F63
sbs(S'Meaning'
g554
tp2023
g1
(g15
g3
NtRp2024
(dp2025
g18
F0.5
sg19
I62
sg20
g21
((dp2026
I01
I1
sNI61
stRp2027
sg24
I2
sg25
F63
sbs(g10
g307
tp2028
g1
(g15
g3
NtRp2029
(dp2030
g18
F0.5
sg19
I17
sg20
g21
((dp2031
NI17
stRp2032
sg24
I2
sg25
F18
sbs(S'Abbreviation'
g1017
tp2033
g1
(g15
g3
NtRp2034
(dp2035
g18
F0.5
sg19
I22
sg20
g21
((dp2036
I01
I1
sNI21
stRp2037
sg24
I2
sg25
F23
sbs(g242
g1471
tp2038
g1
(g15
g3
NtRp2039
(dp2040
g18
F0.5
sg19
I22
sg20
g21
((dp2041
I01
I3
sNI19
stRp2042
sg24
I2
sg25
F23
sbs(g8
g301
tp2043
g1
(g15
g3
NtRp2044
(dp2045
g18
F0.5
sg19
I22
sg20
g21
((dp2046
NI22
stRp2047
sg24
I2
sg25
F23
sbs(g10
g739
tp2048
g1
(g15
g3
NtRp2049
(dp2050
g18
F0.5
sg19
I17
sg20
g21
((dp2051
NI17
stRp2052
sg24
I2
sg25
F18
sbs(S'Meaning'
g249
tp2053
g1
(g15
g3
NtRp2054
(dp2055
g18
F0.5
sg19
I62
sg20
g21
((dp2056
I01
I1
sNI61
stRp2057
sg24
I2
sg25
F63
sbs(S'Meaning'
g470
tp2058
g1
(g15
g3
NtRp2059
(dp2060
g18
F0.5
sg19
I62
sg20
g21
((dp2061
I01
I2
sNI60
stRp2062
sg24
I2
sg25
F63
sbs(g9
g1675
tp2063
g1
(g15
g3
NtRp2064
(dp2065
g18
F0.5
sg19
I62
sg20
g21
((dp2066
NI62
stRp2067
sg24
I2
sg25
F63
sbs(g242
g1477
tp2068
g1
(g15
g3
NtRp2069
(dp2070
g18
F0.5
sg19
I22
sg20
g21
((dp2071
I01
I1
sNI21
stRp2072
sg24
I2
sg25
F23
sbs(g9
g952
tp2073
g1
(g15
g3
NtRp2074
(dp2075
g18
F0.5
sg19
I62
sg20
g21
((dp2076
NI62
stRp2077
sg24
I2
sg25
F63
sbs(S'Meaning'
S'contains(pencil)'
tp2078
g1
(g15
g3
NtRp2079
(dp2080
g18
F0.5
sg19
I62
sg20
g21
((dp2081
I01
I1
sNI61
stRp2082
sg24
I2
sg25
F63
sbs(g9
g1658
tp2083
g1
(g15
g3
NtRp2084
(dp2085
g18
F0.5
sg19
I62
sg20
g21
((dp2086
NI62
stRp2087
sg24
I2
sg25
F63
sbs(g10
g1946
tp2088
g1
(g15
g3
NtRp2089
(dp2090
g18
F0.5
sg19
I17
sg20
g21
((dp2091
NI17
stRp2092
sg24
I2
sg25
F18
sbs(g1920
g151
tp2093
g1
(g15
g3
NtRp2094
(dp2095
g18
F0.5
sg19
I62
sg20
g21
((dp2096
I01
I1
sNI61
stRp2097
sg24
I2
sg25
F63
sbs(g10
g1055
tp2098
g1
(g15
g3
NtRp2099
(dp2100
g18
F0.5
sg19
I17
sg20
g21
((dp2101
NI17
stRp2102
sg24
I2
sg25
F18
sbs(g10
g1317
tp2103
g1
(g15
g3
NtRp2104
(dp2105
g18
F0.5
sg19
I17
sg20
g21
((dp2106
NI17
stRp2107
sg24
I2
sg25
F18
sbs(g8
g133
tp2108
g1
(g15
g3
NtRp2109
(dp2110
g18
F0.5
sg19
I22
sg20
g21
((dp2111
NI22
stRp2112
sg24
I2
sg25
F23
sbs(g10
g1982
tp2113
g1
(g15
g3
NtRp2114
(dp2115
g18
F0.5
sg19
I17
sg20
g21
((dp2116
I01
I7
sNI10
stRp2117
sg24
I2
sg25
F18
sbs(g520
g189
tp2118
g1
(g15
g3
NtRp2119
(dp2120
g18
F0.5
sg19
I62
sg20
g21
((dp2121
I01
I15
sNI47
stRp2122
sg24
I2
sg25
F63
sbs(g9
g56
tp2123
g1
(g15
g3
NtRp2124
(dp2125
g18
F0.5
sg19
I62
sg20
g21
((dp2126
NI62
stRp2127
sg24
I2
sg25
F63
sbs(g8
g189
tp2128
g1
(g15
g3
NtRp2129
(dp2130
g18
F0.5
sg19
I22
sg20
g21
((dp2131
NI22
stRp2132
sg24
I2
sg25
F23
sbs(g10
g787
tp2133
g1
(g15
g3
NtRp2134
(dp2135
g18
F0.5
sg19
I17
sg20
g21
((dp2136
NI17
stRp2137
sg24
I2
sg25
F18
sbs(g10
g105
tp2138
g1
(g15
g3
NtRp2139
(dp2140
g18
F0.5
sg19
I17
sg20
g21
((dp2141
NI17
stRp2142
sg24
I2
sg25
F18
sbs(g9
g676
tp2143
g1
(g15
g3
NtRp2144
(dp2145
g18
F0.5
sg19
I62
sg20
g21
((dp2146
NI62
stRp2147
sg24
I2
sg25
F63
sbs(S'Meaning'
g1585
tp2148
g1
(g15
g3
NtRp2149
(dp2150
g18
F0.5
sg19
I62
sg20
g21
((dp2151
I01
I1
sNI61
stRp2152
sg24
I2
sg25
F63
sbs(g10
g93
tp2153
g1
(g15
g3
NtRp2154
(dp2155
g18
F0.5
sg19
I17
sg20
g21
((dp2156
NI17
stRp2157
sg24
I2
sg25
F18
sbs(g10
g1334
tp2158
g1
(g15
g3
NtRp2159
(dp2160
g18
F0.5
sg19
I17
sg20
g21
((dp2161
NI17
stRp2162
sg24
I2
sg25
F18
sbs(S'Meaning'
g1731
tp2163
g1
(g15
g3
NtRp2164
(dp2165
g18
F0.5
sg19
I62
sg20
g21
((dp2166
I01
I1
sNI61
stRp2167
sg24
I2
sg25
F63
sbs(g68
g1263
tp2168
g1
(g15
g3
NtRp2169
(dp2170
g18
F0.5
sg19
I22
sg20
g21
((dp2171
I01
I1
sNI21
stRp2172
sg24
I2
sg25
F23
sbs(S'Meaning'
g607
tp2173
g1
(g15
g3
NtRp2174
(dp2175
g18
F0.5
sg19
I62
sg20
g21
((dp2176
I01
I1
sNI61
stRp2177
sg24
I2
sg25
F63
sbs(g520
S'contains(is)'
tp2178
g1
(g15
g3
NtRp2179
(dp2180
g18
F0.5
sg19
I62
sg20
g21
((dp2181
I01
I29
sNI33
stRp2182
sg24
I2
sg25
F63
sbs(g255
g1000
tp2183
g1
(g15
g3
NtRp2184
(dp2185
g18
F0.5
sg19
I22
sg20
g21
((dp2186
I01
I1
sNI21
stRp2187
sg24
I2
sg25
F23
sbs(g8
g50
tp2188
g1
(g15
g3
NtRp2189
(dp2190
g18
F0.5
sg19
I22
sg20
g21
((dp2191
NI22
stRp2192
sg24
I2
sg25
F23
sbs(g9
g99
tp2193
g1
(g15
g3
NtRp2194
(dp2195
g18
F0.5
sg19
I62
sg20
g21
((dp2196
I01
I1
sNI61
stRp2197
sg24
I2
sg25
F63
sbs(g1210
g26
tp2198
g1
(g15
g3
NtRp2199
(dp2200
g18
F0.5
sg19
I22
sg20
g21
((dp2201
I01
I1
sNI21
stRp2202
sg24
I2
sg25
F23
sbs(g8
g99
tp2203
g1
(g15
g3
NtRp2204
(dp2205
g18
F0.5
sg19
I22
sg20
g21
((dp2206
NI22
stRp2207
sg24
I2
sg25
F23
sbs(g9
g1334
tp2208
g1
(g15
g3
NtRp2209
(dp2210
g18
F0.5
sg19
I62
sg20
g21
((dp2211
NI62
stRp2212
sg24
I2
sg25
F63
sbs(g10
g1274
tp2213
g1
(g15
g3
NtRp2214
(dp2215
g18
F0.5
sg19
I17
sg20
g21
((dp2216
NI17
stRp2217
sg24
I2
sg25
F18
sbs(S'Meaning'
g793
tp2218
g1
(g15
g3
NtRp2219
(dp2220
g18
F0.5
sg19
I62
sg20
g21
((dp2221
I01
I1
sNI61
stRp2222
sg24
I2
sg25
F63
sbs(g8
g1669
tp2223
g1
(g15
g3
NtRp2224
(dp2225
g18
F0.5
sg19
I22
sg20
g21
((dp2226
NI22
stRp2227
sg24
I2
sg25
F23
sbs(S'Meaning'
g542
tp2228
g1
(g15
g3
NtRp2229
(dp2230
g18
F0.5
sg19
I62
sg20
g21
((dp2231
I01
I1
sNI61
stRp2232
sg24
I2
sg25
F63
sbs(g10
g637
tp2233
g1
(g15
g3
NtRp2234
(dp2235
g18
F0.5
sg19
I17
sg20
g21
((dp2236
NI17
stRp2237
sg24
I2
sg25
F18
sbs(g8
g424
tp2238
g1
(g15
g3
NtRp2239
(dp2240
g18
F0.5
sg19
I22
sg20
g21
((dp2241
NI22
stRp2242
sg24
I2
sg25
F23
sbs(g8
g1221
tp2243
g1
(g15
g3
NtRp2244
(dp2245
g18
F0.5
sg19
I22
sg20
g21
((dp2246
NI22
stRp2247
sg24
I2
sg25
F23
sbs(g10
g213
tp2248
g1
(g15
g3
NtRp2249
(dp2250
g18
F0.5
sg19
I17
sg20
g21
((dp2251
NI17
stRp2252
sg24
I2
sg25
F18
sbs(g10
g1355
tp2253
g1
(g15
g3
NtRp2254
(dp2255
g18
F0.5
sg19
I17
sg20
g21
((dp2256
NI17
stRp2257
sg24
I2
sg25
F18
sbs(g8
g548
tp2258
g1
(g15
g3
NtRp2259
(dp2260
g18
F0.5
sg19
I22
sg20
g21
((dp2261
NI22
stRp2262
sg24
I2
sg25
F23
sbs(g9
g727
tp2263
g1
(g15
g3
NtRp2264
(dp2265
g18
F0.5
sg19
I62
sg20
g21
((dp2266
NI62
stRp2267
sg24
I2
sg25
F63
sbs(g8
S'contains(of)'
tp2268
g1
(g15
g3
NtRp2269
(dp2270
g18
F0.5
sg19
I22
sg20
g21
((dp2271
I01
I9
sNI13
stRp2272
sg24
I2
sg25
F23
sbs(g1454
g1257
tp2273
g1
(g15
g3
NtRp2274
(dp2275
g18
F0.5
sg19
I62
sg20
g21
((dp2276
I01
I1
sNI61
stRp2277
sg24
I2
sg25
F63
sbs(g8
g1413
tp2278
g1
(g15
g3
NtRp2279
(dp2280
g18
F0.5
sg19
I22
sg20
g21
((dp2281
I01
I6
sNI16
stRp2282
sg24
I2
sg25
F23
sbs(g1642
g1768
tp2283
g1
(g15
g3
NtRp2284
(dp2285
g18
F0.5
sg19
I17
sg20
g21
((dp2286
I01
I5
sNI12
stRp2287
sg24
I2
sg25
F18
sbs(g10
g952
tp2288
g1
(g15
g3
NtRp2289
(dp2290
g18
F0.5
sg19
I17
sg20
g21
((dp2291
NI17
stRp2292
sg24
I2
sg25
F18
sbs(S'Meaning'
p2293
g105
tp2294
g1
(g15
g3
NtRp2295
(dp2296
g18
F0.5
sg19
I62
sg20
g21
((dp2297
I01
I1
sNI61
stRp2298
sg24
I2
sg25
F63
sbs(g10
g619
tp2299
g1
(g15
g3
NtRp2300
(dp2301
g18
F0.5
sg19
I17
sg20
g21
((dp2302
NI17
stRp2303
sg24
I2
sg25
F18
sbs(S'Meaning'
g268
tp2304
g1
(g15
g3
NtRp2305
(dp2306
g18
F0.5
sg19
I62
sg20
g21
((dp2307
I01
I1
sNI61
stRp2308
sg24
I2
sg25
F63
sbs(g2293
g87
tp2309
g1
(g15
g3
NtRp2310
(dp2311
g18
F0.5
sg19
I62
sg20
g21
((dp2312
I01
I1
sNI61
stRp2313
sg24
I2
sg25
F63
sbs(g255
g888
tp2314
g1
(g15
g3
NtRp2315
(dp2316
g18
F0.5
sg19
I22
sg20
g21
((dp2317
I01
I1
sNI21
stRp2318
sg24
I2
sg25
F23
sbs(g1884
g1737
tp2319
g1
(g15
g3
NtRp2320
(dp2321
g18
F0.5
sg19
I62
sg20
g21
((dp2322
I01
I1
sNI61
stRp2323
sg24
I2
sg25
F63
sbs(g10
g1731
tp2324
g1
(g15
g3
NtRp2325
(dp2326
g18
F0.5
sg19
I17
sg20
g21
((dp2327
NI17
stRp2328
sg24
I2
sg25
F18
sbs(g10
g1413
tp2329
g1
(g15
g3
NtRp2330
(dp2331
g18
F0.5
sg19
I17
sg20
g21
((dp2332
NI17
stRp2333
sg24
I2
sg25
F18
sbs(g1508
g121
tp2334
g1
(g15
g3
NtRp2335
(dp2336
g18
F0.5
sg19
I62
sg20
g21
((dp2337
I01
I6
sNI56
stRp2338
sg24
I2
sg25
F63
sbs(g10
S'contains(of)'
tp2339
g1
(g15
g3
NtRp2340
(dp2341
g18
F0.5
sg19
I17
sg20
g21
((dp2342
I01
I17
stRp2343
sg24
I2
sg25
F18
sbs(g10
g1591
tp2344
g1
(g15
g3
NtRp2345
(dp2346
g18
F0.5
sg19
I17
sg20
g21
((dp2347
I01
I17
stRp2348
sg24
I2
sg25
F18
sbs(g10
g910
tp2349
g1
(g15
g3
NtRp2350
(dp2351
g18
F0.5
sg19
I17
sg20
g21
((dp2352
NI17
stRp2353
sg24
I2
sg25
F18
sbs(g9
g1768
tp2354
g1
(g15
g3
NtRp2355
(dp2356
g18
F0.5
sg19
I62
sg20
g21
((dp2357
NI62
stRp2358
sg24
I2
sg25
F63
sbs(g8
g1323
tp2359
g1
(g15
g3
NtRp2360
(dp2361
g18
F0.5
sg19
I22
sg20
g21
((dp2362
NI22
stRp2363
sg24
I2
sg25
F23
sbs(g10
g596
tp2364
g1
(g15
g3
NtRp2365
(dp2366
g18
F0.5
sg19
I17
sg20
g21
((dp2367
NI17
stRp2368
sg24
I2
sg25
F18
sbs(g10
g888
tp2369
g1
(g15
g3
NtRp2370
(dp2371
g18
F0.5
sg19
I17
sg20
g21
((dp2372
NI17
stRp2373
sg24
I2
sg25
F18
sbs(g8
g619
tp2374
g1
(g15
g3
NtRp2375
(dp2376
g18
F0.5
sg19
I22
sg20
g21
((dp2377
NI22
stRp2378
sg24
I2
sg25
F23
sbs(g10
g573
tp2379
g1
(g15
g3
NtRp2380
(dp2381
g18
F0.5
sg19
I17
sg20
g21
((dp2382
NI17
stRp2383
sg24
I2
sg25
F18
sbs(S'Composition'
g1675
tp2384
g1
(g15
g3
NtRp2385
(dp2386
g18
F0.5
sg19
I17
sg20
g21
((dp2387
I01
I1
sNI16
stRp2388
sg24
I2
sg25
F18
sbs(g8
g542
tp2389
g1
(g15
g3
NtRp2390
(dp2391
g18
F0.5
sg19
I22
sg20
g21
((dp2392
NI22
stRp2393
sg24
I2
sg25
F23
sbs(g10
g482
tp2394
g1
(g15
g3
NtRp2395
(dp2396
g18
F0.5
sg19
I17
sg20
g21
((dp2397
NI17
stRp2398
sg24
I2
sg25
F18
sbs(g10
g1658
tp2399
g1
(g15
g3
NtRp2400
(dp2401
g18
F0.5
sg19
I17
sg20
g21
((dp2402
NI17
stRp2403
sg24
I2
sg25
F18
sbs(g9
g1117
tp2404
g1
(g15
g3
NtRp2405
(dp2406
g18
F0.5
sg19
I62
sg20
g21
((dp2407
NI62
stRp2408
sg24
I2
sg25
F63
sbs(S'Abbreviation'
g1039
tp2409
g1
(g15
g3
NtRp2410
(dp2411
g18
F0.5
sg19
I22
sg20
g21
((dp2412
I01
I1
sNI21
stRp2413
sg24
I2
sg25
F23
sbs(g10
g733
tp2414
g1
(g15
g3
NtRp2415
(dp2416
g18
F0.5
sg19
I17
sg20
g21
((dp2417
NI17
stRp2418
sg24
I2
sg25
F18
sbssS'_label_probdist'
p2419
g1
(g15
g3
NtRp2420
(dp2421
g18
F0.5
sg19
I101
sg20
g21
((dp2422
g8
I22
sg9
I62
sg10
I17
stRp2423
sg24
I3
sg25
F102.5
sbsb.