ccopy_reg
_reconstructor
p1
(cnltk.classify.naivebayes
NaiveBayesClassifier
p2
c__builtin__
object
p3
NtRp4
(dp5
S'_labels'
p6
(lp7
S'Meaning'
p8
aS'Composition'
p9
aS'Abbreviation'
p10
asS'_feature_probdist'
p11
(dp12
(S'Composition'
S'contains(batteries)'
p13
tp14
g1
(cnltk.probability
ELEProbDist
p15
g3
NtRp16
(dp17
S'_gamma'
p18
F0.5
sS'_N'
p19
I23
sS'_freqdist'
p20
g1
(cnltk.probability
FreqDist
p21
c__builtin__
dict
p22
(dp23
I01
I1
sNI22
stRp24
(dp25
g19
I23
sS'_max_cache'
p26
NsS'_item_cache'
p27
NsS'_Nr_cache'
p28
NsbsS'_bins'
p29
I2
sS'_divisor'
p30
F24
sbs(S'Composition'
S'contains(snake)'
p31
tp32
g1
(g15
g3
NtRp33
(dp34
g18
F0.5
sg19
I23
sg20
g1
(g21
g22
(dp35
I01
I1
sNI22
stRp36
(dp37
g19
I23
sg26
Nsg27
Nsg28
Nsbsg29
I2
sg30
F24
sbs(g9
S'contains(s)'
p38
tp39
g1
(g15
g3
NtRp40
(dp41
g18
F0.5
sg19
I23
sg20
g1
(g21
g22
(dp42
NI23
stRp43
(dp44
g19
I23
sg26
Nsg27
Nsg28
Nsbsg29
I2
sg30
F24
sbs(S'Meaning'
p45
S'contains(are)'
tp46
g1
(g15
g3
NtRp47
(dp48
g18
F0.5
sg19
I62
sg20
g1
(g21
g22
(dp49
I01
I9
sNI53
stRp50
(dp51
g19
I62
sg26
Nsg27
Nsg28
Nsbsg29
I2
sg30
F63
sbs(S'Meaning'
S'contains(ground)'
p52
tp53
g1
(g15
g3
NtRp54
(dp55
g18
F0.5
sg19
I62
sg20
g1
(g21
g22
(dp56
I01
I1
sNI61
stRp57
(dp58
g19
I62
sg26
Nsg27
Nsg28
Nsbsg29
I2
sg30
F63
sbs(g9
S'contains(dogs)'
p59
tp60
g1
(g15
g3
NtRp61
(dp62
g18
F0.5
sg19
I23
sg20
g1
(g21
g22
(dp63
NI23
stRp64
(dp65
g19
I23
sg26
Nsg27
Nsg28
Nsbsg29
I2
sg30
F24
sbs(S'Composition'
p66
S'contains(buses)'
p67
tp68
g1
(g15
g3
NtRp69
(dp70
g18
F0.5
sg19
I23
sg20
g1
(g21
g22
(dp71
I01
I2
sNI21
stRp72
(dp73
g19
I23
sg26
Nsg27
Nsg28
Nsbsg29
I2
sg30
F24
sbs(g10
S'contains(lockers)'
p74
tp75
g1
(g15
g3
NtRp76
(dp77
g18
F0.5
sg19
I18
sg20
g1
(g21
g22
(dp78
NI18
stRp79
(dp80
g19
I18
sg26
Nsg27
Nsg28
Nsbsg29
I2
sg30
F19
sbs(g8
S'contains(aids)'
p81
tp82
g1
(g15
g3
NtRp83
(dp84
g18
F0.5
sg19
I62
sg20
g1
(g21
g22
(dp85
NI62
stRp86
(dp87
g19
I62
sg26
Nsg27
Nsg28
Nsbsg29
I2
sg30
F63
sbs(S'Abbreviation'
p88
S'contains(motors)'
p89
tp90
g1
(g15
g3
NtRp91
(dp92
g18
F0.5
sg19
I18
sg20
g1
(g21
g22
(dp93
I01
I1
sNI17
stRp94
(dp95
g19
I18
sg26
Nsg27
Nsg28
Nsbsg29
I2
sg30
F19
sbs(g9
S'contains(stand)'
p96
tp97
g1
(g15
g3
NtRp98
(dp99
g18
F0.5
sg19
I23
sg20
g1
(g21
g22
(dp100
NI23
stRp101
(dp102
g19
I23
sg26
Nsg27
Nsg28
Nsbsg29
I2
sg30
F24
sbs(g8
S'contains(paper)'
p103
tp104
g1
(g15
g3
NtRp105
(dp106
g18
F0.5
sg19
I62
sg20
g1
(g21
g22
(dp107
NI62
stRp108
(dp109
g19
I62
sg26
Nsg27
Nsg28
Nsbsg29
I2
sg30
F63
sbs(g10
S'contains(bad)'
p110
tp111
g1
(g15
g3
NtRp112
(dp113
g18
F0.5
sg19
I18
sg20
g1
(g21
g22
(dp114
NI18
stRp115
(dp116
g19
I18
sg26
Nsg27
Nsg28
Nsbsg29
I2
sg30
F19
sbs(S'Abbreviation'
S'contains(bph)'
p117
tp118
g1
(g15
g3
NtRp119
(dp120
g18
F0.5
sg19
I18
sg20
g1
(g21
g22
(dp121
I01
I1
sNI17
stRp122
(dp123
g19
I18
sg26
Nsg27
Nsg28
Nsbsg29
I2
sg30
F19
sbs(g9
S'contains(war)'
p124
tp125
g1
(g15
g3
NtRp126
(dp127
g18
F0.5
sg19
I23
sg20
g1
(g21
g22
(dp128
NI23
stRp129
(dp130
g19
I23
sg26
Nsg27
Nsg28
Nsbsg29
I2
sg30
F24
sbs(g10
S'contains(ass)'
p131
tp132
g1
(g15
g3
NtRp133
(dp134
g18
F0.5
sg19
I18
sg20
g1
(g21
g22
(dp135
NI18
stRp136
(dp137
g19
I18
sg26
Nsg27
Nsg28
Nsbsg29
I2
sg30
F19
sbs(g8
S'contains(widow)'
p138
tp139
g1
(g15
g3
NtRp140
(dp141
g18
F0.5
sg19
I62
sg20
g1
(g21
g22
(dp142
NI62
stRp143
(dp144
g19
I62
sg26
Nsg27
Nsg28
Nsbsg29
I2
sg30
F63
sbs(g8
g67
tp145
g1
(g15
g3
NtRp146
(dp147
g18
F0.5
sg19
I62
sg20
g1
(g21
g22
(dp148
NI62
stRp149
(dp150
g19
I62
sg26
Nsg27
Nsg28
Nsbsg29
I2
sg30
F63
sbs(g9
g52
tp151
g1
(g15
g3
NtRp152
(dp153
g18
F0.5
sg19
I23
sg20
g1
(g21
g22
(dp154
NI23
stRp155
(dp156
g19
I23
sg26
Nsg27
Nsg28
Nsbsg29
I2
sg30
F24
sbs(g9
S'contains(an)'
p157
tp158
g1
(g15
g3
NtRp159
(dp160
g18
F0.5
sg19
I23
sg20
g1
(g21
g22
(dp161
NI23
stRp162
(dp163
g19
I23
sg26
Nsg27
Nsg28
Nsbsg29
I2
sg30
F24
sbs(g10
S'contains(dunkin)'
p164
tp165
g1
(g15
g3
NtRp166
(dp167
g18
F0.5
sg19
I18
sg20
g1
(g21
g22
(dp168
NI18
stRp169
(dp170
g19
I18
sg26
Nsg27
Nsg28
Nsbsg29
I2
sg30
F19
sbs(S'Composition'
S'contains(plastic)'
p171
tp172
g1
(g15
g3
NtRp173
(dp174
g18
F0.5
sg19
I23
sg20
g1
(g21
g22
(dp175
I01
I1
sNI22
stRp176
(dp177
g19
I23
sg26
Nsg27
Nsg28
Nsbsg29
I2
sg30
F24
sbs(S'Meaning'
S'contains(cars)'
p178
tp179
g1
(g15
g3
NtRp180
(dp181
g18
F0.5
sg19
I62
sg20
g1
(g21
g22
(dp182
I01
I1
sNI61
stRp183
(dp184
g19
I62
sg26
Nsg27
Nsg28
Nsbsg29
I2
sg30
F63
sbs(g9
S'contains(general)'
p185
tp186
g1
(g15
g3
NtRp187
(dp188
g18
F0.5
sg19
I23
sg20
g1
(g21
g22
(dp189
NI23
stRp190
(dp191
g19
I23
sg26
Nsg27
Nsg28
Nsbsg29
I2
sg30
F24
sbs(g10
S'contains(donuts)'
p192
tp193
g1
(g15
g3
NtRp194
(dp195
g18
F0.5
sg19
I18
sg20
g1
(g21
g22
(dp196
NI18
stRp197
(dp198
g19
I18
sg26
Nsg27
Nsg28
Nsbsg29
I2
sg30
F19
sbs(S'Meaning'
S'contains(wtf)'
p199
tp200
g1
(g15
g3
NtRp201
(dp202
g18
F0.5
sg19
I62
sg20
g1
(g21
g22
(dp203
I01
I1
sNI61
stRp204
(dp205
g19
I62
sg26
Nsg27
Nsg28
Nsbsg29
I2
sg30
F63
sbs(g8
S'contains(eenty)'
p206
tp207
g1
(g15
g3
NtRp208
(dp209
g18
F0.5
sg19
I62
sg20
g1
(g21
g22
(dp210
NI62
stRp211
(dp212
g19
I62
sg26
Nsg27
Nsg28
Nsbsg29
I2
sg30
F63
sbs(S'Composition'
p213
S'contains(my)'
p214
tp215
g1
(g15
g3
NtRp216
(dp217
g18
F0.5
sg19
I23
sg20
g1
(g21
g22
(dp218
I01
I1
sNI22
stRp219
(dp220
g19
I23
sg26
Nsg27
Nsg28
Nsbsg29
I2
sg30
F24
sbs(g9
S'contains(micro)'
p221
tp222
g1
(g15
g3
NtRp223
(dp224
g18
F0.5
sg19
I23
sg20
g1
(g21
g22
(dp225
NI23
stRp226
(dp227
g19
I23
sg26
Nsg27
Nsg28
Nsbsg29
I2
sg30
F24
sbs(S'Abbreviation'
p228
S'contains(m)'
p229
tp230
g1
(g15
g3
NtRp231
(dp232
g18
F0.5
sg19
I18
sg20
g1
(g21
g22
(dp233
I01
I1
sNI17
stRp234
(dp235
g19
I18
sg26
Nsg27
Nsg28
Nsbsg29
I2
sg30
F19
sbs(g9
S'contains(meaning)'
p236
tp237
g1
(g15
g3
NtRp238
(dp239
g18
F0.5
sg19
I23
sg20
g1
(g21
g22
(dp240
NI23
stRp241
(dp242
g19
I23
sg26
Nsg27
Nsg28
Nsbsg29
I2
sg30
F24
sbs(S'Composition'
S'contains(b)'
p243
tp244
g1
(g15
g3
NtRp245
(dp246
g18
F0.5
sg19
I23
sg20
g1
(g21
g22
(dp247
I01
I1
sNI22
stRp248
(dp249
g19
I23
sg26
Nsg27
Nsg28
Nsbsg29
I2
sg30
F24
sbs(S'Composition'
S'contains(bicycles)'
p250
tp251
g1
(g15
g3
NtRp252
(dp253
g18
F0.5
sg19
I23
sg20
g1
(g21
g22
(dp254
I01
I1
sNI22
stRp255
(dp256
g19
I23
sg26
Nsg27
Nsg28
Nsbsg29
I2
sg30
F24
sbs(g9
S'contains(doors)'
p257
tp258
g1
(g15
g3
NtRp259
(dp260
g18
F0.5
sg19
I23
sg20
g1
(g21
g22
(dp261
NI23
stRp262
(dp263
g19
I23
sg26
Nsg27
Nsg28
Nsbsg29
I2
sg30
F24
sbs(S'Meaning'
S'contains(rock)'
p264
tp265
g1
(g15
g3
NtRp266
(dp267
g18
F0.5
sg19
I62
sg20
g1
(g21
g22
(dp268
I01
I1
sNI61
stRp269
(dp270
g19
I62
sg26
Nsg27
Nsg28
Nsbsg29
I2
sg30
F63
sbs(g9
g178
tp271
g1
(g15
g3
NtRp272
(dp273
g18
F0.5
sg19
I23
sg20
g1
(g21
g22
(dp274
NI23
stRp275
(dp276
g19
I23
sg26
Nsg27
Nsg28
Nsbsg29
I2
sg30
F24
sbs(g9
S'contains(for)'
p277
tp278
g1
(g15
g3
NtRp279
(dp280
g18
F0.5
sg19
I23
sg20
g1
(g21
g22
(dp281
NI23
stRp282
(dp283
g19
I23
sg26
Nsg27
Nsg28
Nsbsg29
I2
sg30
F24
sbs(g10
S'contains(purse)'
p284
tp285
g1
(g15
g3
NtRp286
(dp287
g18
F0.5
sg19
I18
sg20
g1
(g21
g22
(dp288
NI18
stRp289
(dp290
g19
I18
sg26
Nsg27
Nsg28
Nsbsg29
I2
sg30
F19
sbs(S'Abbreviation'
p291
S'contains(word)'
tp292
g1
(g15
g3
NtRp293
(dp294
g18
F0.5
sg19
I18
sg20
g1
(g21
g22
(dp295
I01
I1
sNI17
stRp296
(dp297
g19
I18
sg26
Nsg27
Nsg28
Nsbsg29
I2
sg30
F19
sbs(S'Abbreviation'
p298
S'contains(cross)'
p299
tp300
g1
(g15
g3
NtRp301
(dp302
g18
F0.5
sg19
I18
sg20
g1
(g21
g22
(dp303
I01
I1
sNI17
stRp304
(dp305
g19
I18
sg26
Nsg27
Nsg28
Nsbsg29
I2
sg30
F19
sbs(g9
S'contains(girl)'
p306
tp307
g1
(g15
g3
NtRp308
(dp309
g18
F0.5
sg19
I23
sg20
g1
(g21
g22
(dp310
NI23
stRp311
(dp312
g19
I23
sg26
Nsg27
Nsg28
Nsbsg29
I2
sg30
F24
sbs(S'Abbreviation'
p313
S'contains(surnames)'
p314
tp315
g1
(g15
g3
NtRp316
(dp317
g18
F0.5
sg19
I18
sg20
g1
(g21
g22
(dp318
I01
I1
sNI17
stRp319
(dp320
g19
I18
sg26
Nsg27
Nsg28
Nsbsg29
I2
sg30
F19
sbs(g9
S'contains(name)'
p321
tp322
g1
(g15
g3
NtRp323
(dp324
g18
F0.5
sg19
I23
sg20
g1
(g21
g22
(dp325
NI23
stRp326
(dp327
g19
I23
sg26
Nsg27
Nsg28
Nsbsg29
I2
sg30
F24
sbs(g10
S'contains(hog)'
p328
tp329
g1
(g15
g3
NtRp330
(dp331
g18
F0.5
sg19
I18
sg20
g1
(g21
g22
(dp332
NI18
stRp333
(dp334
g19
I18
sg26
Nsg27
Nsg28
Nsbsg29
I2
sg30
F19
sbs(S'Abbreviation'
S'contains(sids)'
p335
tp336
g1
(g15
g3
NtRp337
(dp338
g18
F0.5
sg19
I18
sg20
g1
(g21
g22
(dp339
I01
I1
sNI17
stRp340
(dp341
g19
I18
sg26
Nsg27
Nsg28
Nsbsg29
I2
sg30
F19
sbs(g10
S'contains(is)'
tp342
g1
(g15
g3
NtRp343
(dp344
g18
F0.5
sg19
I18
sg20
g1
(g21
g22
(dp345
I01
I7
sNI11
stRp346
(dp347
g19
I18
sg26
Nsg27
Nsg28
Nsbsg29
I2
sg30
F19
sbs(g8
g277
tp348
g1
(g15
g3
NtRp349
(dp350
g18
F0.5
sg19
I62
sg20
g1
(g21
g22
(dp351
NI62
stRp352
(dp353
g19
I62
sg26
Nsg27
Nsg28
Nsbsg29
I2
sg30
F63
sbs(g10
S'contains(planets)'
p354
tp355
g1
(g15
g3
NtRp356
(dp357
g18
F0.5
sg19
I18
sg20
g1
(g21
g22
(dp358
NI18
stRp359
(dp360
g19
I18
sg26
Nsg27
Nsg28
Nsbsg29
I2
sg30
F19
sbs(g10
g178
tp361
g1
(g15
g3
NtRp362
(dp363
g18
F0.5
sg19
I18
sg20
g1
(g21
g22
(dp364
NI18
stRp365
(dp366
g19
I18
sg26
Nsg27
Nsg28
Nsbsg29
I2
sg30
F19
sbs(g9
S'contains(stupid)'
p367
tp368
g1
(g15
g3
NtRp369
(dp370
g18
F0.5
sg19
I23
sg20
g1
(g21
g22
(dp371
NI23
stRp372
(dp373
g19
I23
sg26
Nsg27
Nsg28
Nsbsg29
I2
sg30
F24
sbs(S'Meaning'
S'contains(player)'
p374
tp375
g1
(g15
g3
NtRp376
(dp377
g18
F0.5
sg19
I62
sg20
g1
(g21
g22
(dp378
I01
I1
sNI61
stRp379
(dp380
g19
I62
sg26
Nsg27
Nsg28
Nsbsg29
I2
sg30
F63
sbs(g9
S'contains(in)'
p381
tp382
g1
(g15
g3
NtRp383
(dp384
g18
F0.5
sg19
I23
sg20
g1
(g21
g22
(dp385
NI23
stRp386
(dp387
g19
I23
sg26
Nsg27
Nsg28
Nsbsg29
I2
sg30
F24
sbs(g9
S'contains(signs)'
p388
tp389
g1
(g15
g3
NtRp390
(dp391
g18
F0.5
sg19
I23
sg20
g1
(g21
g22
(dp392
NI23
stRp393
(dp394
g19
I23
sg26
Nsg27
Nsg28
Nsbsg29
I2
sg30
F24
sbs(g9
S'contains(full)'
p395
tp396
g1
(g15
g3
NtRp397
(dp398
g18
F0.5
sg19
I23
sg20
g1
(g21
g22
(dp399
NI23
stRp400
(dp401
g19
I23
sg26
Nsg27
Nsg28
Nsbsg29
I2
sg30
F24
sbs(g9
g314
tp402
g1
(g15
g3
NtRp403
(dp404
g18
F0.5
sg19
I23
sg20
g1
(g21
g22
(dp405
NI23
stRp406
(dp407
g19
I23
sg26
Nsg27
Nsg28
Nsbsg29
I2
sg30
F24
sbs(S'Meaning'
S'contains(eye)'
p408
tp409
g1
(g15
g3
NtRp410
(dp411
g18
F0.5
sg19
I62
sg20
g1
(g21
g22
(dp412
I01
I1
sNI61
stRp413
(dp414
g19
I62
sg26
Nsg27
Nsg28
Nsbsg29
I2
sg30
F63
sbs(g8
g395
tp415
g1
(g15
g3
NtRp416
(dp417
g18
F0.5
sg19
I62
sg20
g1
(g21
g22
(dp418
NI62
stRp419
(dp420
g19
I62
sg26
Nsg27
Nsg28
Nsbsg29
I2
sg30
F63
sbs(g8
S'contains(cloud)'
p421
tp422
g1
(g15
g3
NtRp423
(dp424
g18
F0.5
sg19
I62
sg20
g1
(g21
g22
(dp425
NI62
stRp426
(dp427
g19
I62
sg26
Nsg27
Nsg28
Nsbsg29
I2
sg30
F63
sbs(g8
S'contains(locks)'
p428
tp429
g1
(g15
g3
NtRp430
(dp431
g18
F0.5
sg19
I62
sg20
g1
(g21
g22
(dp432
NI62
stRp433
(dp434
g19
I62
sg26
Nsg27
Nsg28
Nsbsg29
I2
sg30
F63
sbs(g8
S'contains(investigation)'
p435
tp436
g1
(g15
g3
NtRp437
(dp438
g18
F0.5
sg19
I62
sg20
g1
(g21
g22
(dp439
NI62
stRp440
(dp441
g19
I62
sg26
Nsg27
Nsg28
Nsbsg29
I2
sg30
F63
sbs(g10
S'contains(homogeneous)'
p442
tp443
g1
(g15
g3
NtRp444
(dp445
g18
F0.5
sg19
I18
sg20
g1
(g21
g22
(dp446
NI18
stRp447
(dp448
g19
I18
sg26
Nsg27
Nsg28
Nsbsg29
I2
sg30
F19
sbs(g9
S'contains(animal)'
p449
tp450
g1
(g15
g3
NtRp451
(dp452
g18
F0.5
sg19
I23
sg20
g1
(g21
g22
(dp453
NI23
stRp454
(dp455
g19
I23
sg26
Nsg27
Nsg28
Nsbsg29
I2
sg30
F24
sbs(g8
g381
tp456
g1
(g15
g3
NtRp457
(dp458
g18
F0.5
sg19
I62
sg20
g1
(g21
g22
(dp459
NI62
stRp460
(dp461
g19
I62
sg26
Nsg27
Nsg28
Nsbsg29
I2
sg30
F63
sbs(g8
S'contains(nasdaq)'
p462
tp463
g1
(g15
g3
NtRp464
(dp465
g18
F0.5
sg19
I62
sg20
g1
(g21
g22
(dp466
NI62
stRp467
(dp468
g19
I62
sg26
Nsg27
Nsg28
Nsbsg29
I2
sg30
F63
sbs(g10
g52
tp469
g1
(g15
g3
NtRp470
(dp471
g18
F0.5
sg19
I18
sg20
g1
(g21
g22
(dp472
NI18
stRp473
(dp474
g19
I18
sg26
Nsg27
Nsg28
Nsbsg29
I2
sg30
F19
sbs(g9
g408
tp475
g1
(g15
g3
NtRp476
(dp477
g18
F0.5
sg19
I23
sg20
g1
(g21
g22
(dp478
NI23
stRp479
(dp480
g19
I23
sg26
Nsg27
Nsg28
Nsbsg29
I2
sg30
F24
sbs(g10
S'contains(ant)'
p481
tp482
g1
(g15
g3
NtRp483
(dp484
g18
F0.5
sg19
I18
sg20
g1
(g21
g22
(dp485
NI18
stRp486
(dp487
g19
I18
sg26
Nsg27
Nsg28
Nsbsg29
I2
sg30
F19
sbs(g9
S'contains(mean)'
p488
tp489
g1
(g15
g3
NtRp490
(dp491
g18
F0.5
sg19
I23
sg20
g1
(g21
g22
(dp492
NI23
stRp493
(dp494
g19
I23
sg26
Nsg27
Nsg28
Nsbsg29
I2
sg30
F24
sbs(S'Abbreviation'
p495
S'contains(national)'
p496
tp497
g1
(g15
g3
NtRp498
(dp499
g18
F0.5
sg19
I18
sg20
g1
(g21
g22
(dp500
I01
I1
sNI17
stRp501
(dp502
g19
I18
sg26
Nsg27
Nsg28
Nsbsg29
I2
sg30
F19
sbs(S'Composition'
g74
tp503
g1
(g15
g3
NtRp504
(dp505
g18
F0.5
sg19
I23
sg20
g1
(g21
g22
(dp506
I01
I1
sNI22
stRp507
(dp508
g19
I23
sg26
Nsg27
Nsg28
Nsbsg29
I2
sg30
F24
sbs(g9
S'contains(selfish)'
p509
tp510
g1
(g15
g3
NtRp511
(dp512
g18
F0.5
sg19
I23
sg20
g1
(g21
g22
(dp513
NI23
stRp514
(dp515
g19
I23
sg26
Nsg27
Nsg28
Nsbsg29
I2
sg30
F24
sbs(S'Composition'
p516
S'contains(the)'
tp517
g1
(g15
g3
NtRp518
(dp519
g18
F0.5
sg19
I23
sg20
g1
(g21
g22
(dp520
I01
I6
sNI17
stRp521
(dp522
g19
I23
sg26
Nsg27
Nsg28
Nsbsg29
I2
sg30
F24
sbs(S'Composition'
S'contains(metal)'
p523
tp524
g1
(g15
g3
NtRp525
(dp526
g18
F0.5
sg19
I23
sg20
g1
(g21
g22
(dp527
I01
I1
sNI22
stRp528
(dp529
g19
I23
sg26
Nsg27
Nsg28
Nsbsg29
I2
sg30
F24
sbs(g10
g13
tp530
g1
(g15
g3
NtRp531
(dp532
g18
F0.5
sg19
I18
sg20
g1
(g21
g22
(dp533
NI18
stRp534
(dp535
g19
I18
sg26
Nsg27
Nsg28
Nsbsg29
I2
sg30
F19
sbs(g10
S'contains(asshole)'
p536
tp537
g1
(g15
g3
NtRp538
(dp539
g18
F0.5
sg19
I18
sg20
g1
(g21
g22
(dp540
NI18
stRp541
(dp542
g19
I18
sg26
Nsg27
Nsg28
Nsbsg29
I2
sg30
F19
sbs(g8
S'contains(g)'
p543
tp544
g1
(g15
g3
NtRp545
(dp546
g18
F0.5
sg19
I62
sg20
g1
(g21
g22
(dp547
NI62
stRp548
(dp549
g19
I62
sg26
Nsg27
Nsg28
Nsbsg29
I2
sg30
F63
sbs(g10
S'contains(juice)'
p550
tp551
g1
(g15
g3
NtRp552
(dp553
g18
F0.5
sg19
I18
sg20
g1
(g21
g22
(dp554
NI18
stRp555
(dp556
g19
I18
sg26
Nsg27
Nsg28
Nsbsg29
I2
sg30
F19
sbs(S'Abbreviation'
p557
g96
tp558
g1
(g15
g3
NtRp559
(dp560
g18
F0.5
sg19
I18
sg20
g1
(g21
g22
(dp561
I01
I9
sNI9
stRp562
(dp563
g19
I18
sg26
Nsg27
Nsg28
Nsbsg29
I2
sg30
F19
sbs(g9
S'contains(happy)'
p564
tp565
g1
(g15
g3
NtRp566
(dp567
g18
F0.5
sg19
I23
sg20
g1
(g21
g22
(dp568
NI23
stRp569
(dp570
g19
I23
sg26
Nsg27
Nsg28
Nsbsg29
I2
sg30
F24
sbs(g9
S'contains(a)'
tp571
g1
(g15
g3
NtRp572
(dp573
g18
F0.5
sg19
I23
sg20
g1
(g21
g22
(dp574
I01
I5
sNI18
stRp575
(dp576
g19
I23
sg26
Nsg27
Nsg28
Nsbsg29
I2
sg30
F24
sbs(g10
S'contains(trees)'
p577
tp578
g1
(g15
g3
NtRp579
(dp580
g18
F0.5
sg19
I18
sg20
g1
(g21
g22
(dp581
NI18
stRp582
(dp583
g19
I18
sg26
Nsg27
Nsg28
Nsbsg29
I2
sg30
F19
sbs(g10
S'contains(plug)'
p584
tp585
g1
(g15
g3
NtRp586
(dp587
g18
F0.5
sg19
I18
sg20
g1
(g21
g22
(dp588
NI18
stRp589
(dp590
g19
I18
sg26
Nsg27
Nsg28
Nsbsg29
I2
sg30
F19
sbs(g10
S'contains(milk)'
p591
tp592
g1
(g15
g3
NtRp593
(dp594
g18
F0.5
sg19
I18
sg20
g1
(g21
g22
(dp595
NI18
stRp596
(dp597
g19
I18
sg26
Nsg27
Nsg28
Nsbsg29
I2
sg30
F19
sbs(g8
S'contains(?)'
tp598
g1
(g15
g3
NtRp599
(dp600
g18
F0.5
sg19
I62
sg20
g1
(g21
g22
(dp601
I01
I62
stRp602
(dp603
g19
I62
sg26
Nsg27
Nsg28
Nsbsg29
I2
sg30
F63
sbs(S'Abbreviation'
g462
tp604
g1
(g15
g3
NtRp605
(dp606
g18
F0.5
sg19
I18
sg20
g1
(g21
g22
(dp607
I01
I1
sNI17
stRp608
(dp609
g19
I18
sg26
Nsg27
Nsg28
Nsbsg29
I2
sg30
F19
sbs(g9
g206
tp610
g1
(g15
g3
NtRp611
(dp612
g18
F0.5
sg19
I23
sg20
g1
(g21
g22
(dp613
NI23
stRp614
(dp615
g19
I23
sg26
Nsg27
Nsg28
Nsbsg29
I2
sg30
F24
sbs(S'Composition'
g428
tp616
g1
(g15
g3
NtRp617
(dp618
g18
F0.5
sg19
I23
sg20
g1
(g21
g22
(dp619
I01
I1
sNI22
stRp620
(dp621
g19
I23
sg26
Nsg27
Nsg28
Nsbsg29
I2
sg30
F24
sbs(S'Meaning'
p622
S'contains(of)'
tp623
g1
(g15
g3
NtRp624
(dp625
g18
F0.5
sg19
I62
sg20
g1
(g21
g22
(dp626
I01
I15
sNI47
stRp627
(dp628
g19
I62
sg26
Nsg27
Nsg28
Nsbsg29
I2
sg30
F63
sbs(g8
g89
tp629
g1
(g15
g3
NtRp630
(dp631
g18
F0.5
sg19
I62
sg20
g1
(g21
g22
(dp632
NI62
stRp633
(dp634
g19
I62
sg26
Nsg27
Nsg28
Nsbsg29
I2
sg30
F63
sbs(S'Meaning'
g449
tp635
g1
(g15
g3
NtRp636
(dp637
g18
F0.5
sg19
I62
sg20
g1
(g21
g22
(dp638
I01
I1
sNI61
stRp639
(dp640
g19
I62
sg26
Nsg27
Nsg28
Nsbsg29
I2
sg30
F63
sbs(g9
S'contains(abbreviation)'
p641
tp642
g1
(g15
g3
NtRp643
(dp644
g18
F0.5
sg19
I23
sg20
g1
(g21
g22
(dp645
NI23
stRp646
(dp647
g19
I23
sg26
Nsg27
Nsg28
Nsbsg29
I2
sg30
F24
sbs(g9
S'contains(mad)'
p648
tp649
g1
(g15
g3
NtRp650
(dp651
g18
F0.5
sg19
I23
sg20
g1
(g21
g22
(dp652
NI23
stRp653
(dp654
g19
I23
sg26
Nsg27
Nsg28
Nsbsg29
I2
sg30
F24
sbs(S'Meaning'
S'contains(thief)'
p655
tp656
g1
(g15
g3
NtRp657
(dp658
g18
F0.5
sg19
I62
sg20
g1
(g21
g22
(dp659
I01
I1
sNI61
stRp660
(dp661
g19
I62
sg26
Nsg27
Nsg28
Nsbsg29
I2
sg30
F63
sbs(g9
S'contains(duck)'
p662
tp663
g1
(g15
g3
NtRp664
(dp665
g18
F0.5
sg19
I23
sg20
g1
(g21
g22
(dp666
NI23
stRp667
(dp668
g19
I23
sg26
Nsg27
Nsg28
Nsbsg29
I2
sg30
F24
sbs(g9
S'contains(slut)'
p669
tp670
g1
(g15
g3
NtRp671
(dp672
g18
F0.5
sg19
I23
sg20
g1
(g21
g22
(dp673
NI23
stRp674
(dp675
g19
I23
sg26
Nsg27
Nsg28
Nsbsg29
I2
sg30
F24
sbs(g8
S'contains(cnn)'
p676
tp677
g1
(g15
g3
NtRp678
(dp679
g18
F0.5
sg19
I62
sg20
g1
(g21
g22
(dp680
NI62
stRp681
(dp682
g19
I62
sg26
Nsg27
Nsg28
Nsbsg29
I2
sg30
F63
sbs(S'Abbreviation'
p683
S'contains(classified)'
p684
tp685
g1
(g15
g3
NtRp686
(dp687
g18
F0.5
sg19
I18
sg20
g1
(g21
g22
(dp688
I01
I1
sNI17
stRp689
(dp690
g19
I18
sg26
Nsg27
Nsg28
Nsbsg29
I2
sg30
F19
sbs(S'Meaning'
S'contains(miscellaneous)'
p691
tp692
g1
(g15
g3
NtRp693
(dp694
g18
F0.5
sg19
I62
sg20
g1
(g21
g22
(dp695
I01
I1
sNI61
stRp696
(dp697
g19
I62
sg26
Nsg27
Nsg28
Nsbsg29
I2
sg30
F63
sbs(g8
S'contains(sun)'
p698
tp699
g1
(g15
g3
NtRp700
(dp701
g18
F0.5
sg19
I62
sg20
g1
(g21
g22
(dp702
NI62
stRp703
(dp704
g19
I62
sg26
Nsg27
Nsg28
Nsbsg29
I2
sg30
F63
sbs(g9
S'contains(starbucks)'
p705
tp706
g1
(g15
g3
NtRp707
(dp708
g18
F0.5
sg19
I23
sg20
g1
(g21
g22
(dp709
NI23
stRp710
(dp711
g19
I23
sg26
Nsg27
Nsg28
Nsbsg29
I2
sg30
F24
sbs(g495
S'contains(expression)'
p712
tp713
g1
(g15
g3
NtRp714
(dp715
g18
F0.5
sg19
I18
sg20
g1
(g21
g22
(dp716
I01
I1
sNI17
stRp717
(dp718
g19
I18
sg26
Nsg27
Nsg28
Nsbsg29
I2
sg30
F19
sbs(g9
S"contains(what's)"
p719
tp720
g1
(g15
g3
NtRp721
(dp722
g18
F0.5
sg19
I23
sg20
g1
(g21
g22
(dp723
NI23
stRp724
(dp725
g19
I23
sg26
Nsg27
Nsg28
Nsbsg29
I2
sg30
F24
sbs(g10
g662
tp726
g1
(g15
g3
NtRp727
(dp728
g18
F0.5
sg19
I18
sg20
g1
(g21
g22
(dp729
NI18
stRp730
(dp731
g19
I18
sg26
Nsg27
Nsg28
Nsbsg29
I2
sg30
F19
sbs(g9
S'contains(car)'
p732
tp733
g1
(g15
g3
NtRp734
(dp735
g18
F0.5
sg19
I23
sg20
g1
(g21
g22
(dp736
NI23
stRp737
(dp738
g19
I23
sg26
Nsg27
Nsg28
Nsbsg29
I2
sg30
F24
sbs(S'Meaning'
p739
S'contains(clever)'
p740
tp741
g1
(g15
g3
NtRp742
(dp743
g18
F0.5
sg19
I62
sg20
g1
(g21
g22
(dp744
I01
I1
sNI61
stRp745
(dp746
g19
I62
sg26
Nsg27
Nsg28
Nsbsg29
I2
sg30
F63
sbs(S'Meaning'
S'contains(booger)'
p747
tp748
g1
(g15
g3
NtRp749
(dp750
g18
F0.5
sg19
I62
sg20
g1
(g21
g22
(dp751
I01
I1
sNI61
stRp752
(dp753
g19
I62
sg26
Nsg27
Nsg28
Nsbsg29
I2
sg30
F63
sbs(g313
S'contains(prefix)'
p754
tp755
g1
(g15
g3
NtRp756
(dp757
g18
F0.5
sg19
I18
sg20
g1
(g21
g22
(dp758
I01
I1
sNI17
stRp759
(dp760
g19
I18
sg26
Nsg27
Nsg28
Nsbsg29
I2
sg30
F19
sbs(g10
g719
tp761
g1
(g15
g3
NtRp762
(dp763
g18
F0.5
sg19
I18
sg20
g1
(g21
g22
(dp764
NI18
stRp765
(dp766
g19
I18
sg26
Nsg27
Nsg28
Nsbsg29
I2
sg30
F19
sbs(g10
S'contains(cloak)'
p767
tp768
g1
(g15
g3
NtRp769
(dp770
g18
F0.5
sg19
I18
sg20
g1
(g21
g22
(dp771
NI18
stRp772
(dp773
g19
I18
sg26
Nsg27
Nsg28
Nsbsg29
I2
sg30
F19
sbs(g8
S'contains(inri)'
p774
tp775
g1
(g15
g3
NtRp776
(dp777
g18
F0.5
sg19
I62
sg20
g1
(g21
g22
(dp778
NI62
stRp779
(dp780
g19
I62
sg26
Nsg27
Nsg28
Nsbsg29
I2
sg30
F63
sbs(g495
g435
tp781
g1
(g15
g3
NtRp782
(dp783
g18
F0.5
sg19
I18
sg20
g1
(g21
g22
(dp784
I01
I1
sNI17
stRp785
(dp786
g19
I18
sg26
Nsg27
Nsg28
Nsbsg29
I2
sg30
F19
sbs(S'Meaning'
p787
S'contains(a)'
tp788
g1
(g15
g3
NtRp789
(dp790
g18
F0.5
sg19
I62
sg20
g1
(g21
g22
(dp791
I01
I13
sNI49
stRp792
(dp793
g19
I62
sg26
Nsg27
Nsg28
Nsbsg29
I2
sg30
F63
sbs(g10
g428
tp794
g1
(g15
g3
NtRp795
(dp796
g18
F0.5
sg19
I18
sg20
g1
(g21
g22
(dp797
NI18
stRp798
(dp799
g19
I18
sg26
Nsg27
Nsg28
Nsbsg29
I2
sg30
F19
sbs(g298
S'contains(used)'
p800
tp801
g1
(g15
g3
NtRp802
(dp803
g18
F0.5
sg19
I18
sg20
g1
(g21
g22
(dp804
I01
I2
sNI16
stRp805
(dp806
g19
I18
sg26
Nsg27
Nsg28
Nsbsg29
I2
sg30
F19
sbs(g10
g395
tp807
g1
(g15
g3
NtRp808
(dp809
g18
F0.5
sg19
I18
sg20
g1
(g21
g22
(dp810
I01
I2
sNI16
stRp811
(dp812
g19
I18
sg26
Nsg27
Nsg28
Nsbsg29
I2
sg30
F19
sbs(g10
S'contains(bag)'
p813
tp814
g1
(g15
g3
NtRp815
(dp816
g18
F0.5
sg19
I18
sg20
g1
(g21
g22
(dp817
NI18
stRp818
(dp819
g19
I18
sg26
Nsg27
Nsg28
Nsbsg29
I2
sg30
F19
sbs(g10
S'contains(zapping)'
p820
tp821
g1
(g15
g3
NtRp822
(dp823
g18
F0.5
sg19
I18
sg20
g1
(g21
g22
(dp824
NI18
stRp825
(dp826
g19
I18
sg26
Nsg27
Nsg28
Nsbsg29
I2
sg30
F19
sbs(g9
S'contains(t)'
p827
tp828
g1
(g15
g3
NtRp829
(dp830
g18
F0.5
sg19
I23
sg20
g1
(g21
g22
(dp831
NI23
stRp832
(dp833
g19
I23
sg26
Nsg27
Nsg28
Nsbsg29
I2
sg30
F24
sbs(g8
g684
tp834
g1
(g15
g3
NtRp835
(dp836
g18
F0.5
sg19
I62
sg20
g1
(g21
g22
(dp837
NI62
stRp838
(dp839
g19
I62
sg26
Nsg27
Nsg28
Nsbsg29
I2
sg30
F63
sbs(g9
S'contains(brain)'
p840
tp841
g1
(g15
g3
NtRp842
(dp843
g18
F0.5
sg19
I23
sg20
g1
(g21
g22
(dp844
NI23
stRp845
(dp846
g19
I23
sg26
Nsg27
Nsg28
Nsbsg29
I2
sg30
F24
sbs(g9
g774
tp847
g1
(g15
g3
NtRp848
(dp849
g18
F0.5
sg19
I23
sg20
g1
(g21
g22
(dp850
NI23
stRp851
(dp852
g19
I23
sg26
Nsg27
Nsg28
Nsbsg29
I2
sg30
F24
sbs(g10
S'contains(children)'
p853
tp854
g1
(g15
g3
NtRp855
(dp856
g18
F0.5
sg19
I18
sg20
g1
(g21
g22
(dp857
NI18
stRp858
(dp859
g19
I18
sg26
Nsg27
Nsg28
Nsbsg29
I2
sg30
F19
sbs(S'Composition'
S'contains(beverage)'
p860
tp861
g1
(g15
g3
NtRp862
(dp863
g18
F0.5
sg19
I23
sg20
g1
(g21
g22
(dp864
I01
I1
sNI22
stRp865
(dp866
g19
I23
sg26
Nsg27
Nsg28
Nsbsg29
I2
sg30
F24
sbs(g10
S'contains(your)'
p867
tp868
g1
(g15
g3
NtRp869
(dp870
g18
F0.5
sg19
I18
sg20
g1
(g21
g22
(dp871
NI18
stRp872
(dp873
g19
I18
sg26
Nsg27
Nsg28
Nsbsg29
I2
sg30
F19
sbs(S'Abbreviation'
S'contains(nafta)'
p874
tp875
g1
(g15
g3
NtRp876
(dp877
g18
F0.5
sg19
I18
sg20
g1
(g21
g22
(dp878
I01
I1
sNI17
stRp879
(dp880
g19
I18
sg26
Nsg27
Nsg28
Nsbsg29
I2
sg30
F19
sbs(g787
S'contains(king)'
p881
tp882
g1
(g15
g3
NtRp883
(dp884
g18
F0.5
sg19
I62
sg20
g1
(g21
g22
(dp885
I01
I1
sNI61
stRp886
(dp887
g19
I62
sg26
Nsg27
Nsg28
Nsbsg29
I2
sg30
F63
sbs(g8
g641
tp888
g1
(g15
g3
NtRp889
(dp890
g18
F0.5
sg19
I62
sg20
g1
(g21
g22
(dp891
NI62
stRp892
(dp893
g19
I62
sg26
Nsg27
Nsg28
Nsbsg29
I2
sg30
F63
sbs(S'Meaning'
g536
tp894
g1
(g15
g3
NtRp895
(dp896
g18
F0.5
sg19
I62
sg20
g1
(g21
g22
(dp897
I01
I1
sNI61
stRp898
(dp899
g19
I62
sg26
Nsg27
Nsg28
Nsbsg29
I2
sg30
F63
sbs(g9
g536
tp900
g1
(g15
g3
NtRp901
(dp902
g18
F0.5
sg19
I23
sg20
g1
(g21
g22
(dp903
NI23
stRp904
(dp905
g19
I23
sg26
Nsg27
Nsg28
Nsbsg29
I2
sg30
F24
sbs(g9
g481
tp906
g1
(g15
g3
NtRp907
(dp908
g18
F0.5
sg19
I23
sg20
g1
(g21
g22
(dp909
NI23
stRp910
(dp911
g19
I23
sg26
Nsg27
Nsg28
Nsbsg29
I2
sg30
F24
sbs(g8
g335
tp912
g1
(g15
g3
NtRp913
(dp914
g18
F0.5
sg19
I62
sg20
g1
(g21
g22
(dp915
NI62
stRp916
(dp917
g19
I62
sg26
Nsg27
Nsg28
Nsbsg29
I2
sg30
F63
sbs(g10
S'contains(com)'
p918
tp919
g1
(g15
g3
NtRp920
(dp921
g18
F0.5
sg19
I18
sg20
g1
(g21
g22
(dp922
I01
I1
sNI17
stRp923
(dp924
g19
I18
sg26
Nsg27
Nsg28
Nsbsg29
I2
sg30
F19
sbs(g8
g96
tp925
g1
(g15
g3
NtRp926
(dp927
g18
F0.5
sg19
I62
sg20
g1
(g21
g22
(dp928
NI62
stRp929
(dp930
g19
I62
sg26
Nsg27
Nsg28
Nsbsg29
I2
sg30
F63
sbs(g10
S'contains(pencil)'
p931
tp932
g1
(g15
g3
NtRp933
(dp934
g18
F0.5
sg19
I18
sg20
g1
(g21
g22
(dp935
NI18
stRp936
(dp937
g19
I18
sg26
Nsg27
Nsg28
Nsbsg29
I2
sg30
F19
sbs(g10
S'contains(bang)'
p938
tp939
g1
(g15
g3
NtRp940
(dp941
g18
F0.5
sg19
I18
sg20
g1
(g21
g22
(dp942
NI18
stRp943
(dp944
g19
I18
sg26
Nsg27
Nsg28
Nsbsg29
I2
sg30
F19
sbs(g8
S'contains(:)'
p945
tp946
g1
(g15
g3
NtRp947
(dp948
g18
F0.5
sg19
I62
sg20
g1
(g21
g22
(dp949
NI62
stRp950
(dp951
g19
I62
sg26
Nsg27
Nsg28
Nsbsg29
I2
sg30
F63
sbs(S'Meaning'
g354
tp952
g1
(g15
g3
NtRp953
(dp954
g18
F0.5
sg19
I62
sg20
g1
(g21
g22
(dp955
I01
I1
sNI61
stRp956
(dp957
g19
I62
sg26
Nsg27
Nsg28
Nsbsg29
I2
sg30
F63
sbs(g9
S'contains(badass)'
p958
tp959
g1
(g15
g3
NtRp960
(dp961
g18
F0.5
sg19
I23
sg20
g1
(g21
g22
(dp962
NI23
stRp963
(dp964
g19
I23
sg26
Nsg27
Nsg28
Nsbsg29
I2
sg30
F24
sbs(g8
S'contains(what)'
tp965
g1
(g15
g3
NtRp966
(dp967
g18
F0.5
sg19
I62
sg20
g1
(g21
g22
(dp968
I01
I50
sNI12
stRp969
(dp970
g19
I62
sg26
Nsg27
Nsg28
Nsbsg29
I2
sg30
F63
sbs(g10
g388
tp971
g1
(g15
g3
NtRp972
(dp973
g18
F0.5
sg19
I18
sg20
g1
(g21
g22
(dp974
NI18
stRp975
(dp976
g19
I18
sg26
Nsg27
Nsg28
Nsbsg29
I2
sg30
F19
sbs(S'Meaning'
g442
tp977
g1
(g15
g3
NtRp978
(dp979
g18
F0.5
sg19
I62
sg20
g1
(g21
g22
(dp980
I01
I1
sNI61
stRp981
(dp982
g19
I62
sg26
Nsg27
Nsg28
Nsbsg29
I2
sg30
F63
sbs(S'Abbreviation'
p983
S'contains(o)'
p984
tp985
g1
(g15
g3
NtRp986
(dp987
g18
F0.5
sg19
I18
sg20
g1
(g21
g22
(dp988
I01
I2
sNI16
stRp989
(dp990
g19
I18
sg26
Nsg27
Nsg28
Nsbsg29
I2
sg30
F19
sbs(g10
g408
tp991
g1
(g15
g3
NtRp992
(dp993
g18
F0.5
sg19
I18
sg20
g1
(g21
g22
(dp994
NI18
stRp995
(dp996
g19
I18
sg26
Nsg27
Nsg28
Nsbsg29
I2
sg30
F19
sbs(S'Meaning'
S'contains(tidy)'
p997
tp998
g1
(g15
g3
NtRp999
(dp1000
g18
F0.5
sg19
I62
sg20
g1
(g21
g22
(dp1001
I01
I1
sNI61
stRp1002
(dp1003
g19
I62
sg26
Nsg27
Nsg28
Nsbsg29
I2
sg30
F63
sbs(g9
g945
tp1004
g1
(g15
g3
NtRp1005
(dp1006
g18
F0.5
sg19
I23
sg20
g1
(g21
g22
(dp1007
NI23
stRp1008
(dp1009
g19
I23
sg26
Nsg27
Nsg28
Nsbsg29
I2
sg30
F24
sbs(S'Abbreviation'
g676
tp1010
g1
(g15
g3
NtRp1011
(dp1012
g18
F0.5
sg19
I18
sg20
g1
(g21
g22
(dp1013
I01
I1
sNI17
stRp1014
(dp1015
g19
I18
sg26
Nsg27
Nsg28
Nsbsg29
I2
sg30
F19
sbs(g10
g881
tp1016
g1
(g15
g3
NtRp1017
(dp1018
g18
F0.5
sg19
I18
sg20
g1
(g21
g22
(dp1019
NI18
stRp1020
(dp1021
g19
I18
sg26
Nsg27
Nsg28
Nsbsg29
I2
sg30
F19
sbs(g9
S'contains(on)'
p1022
tp1023
g1
(g15
g3
NtRp1024
(dp1025
g18
F0.5
sg19
I23
sg20
g1
(g21
g22
(dp1026
NI23
stRp1027
(dp1028
g19
I23
sg26
Nsg27
Nsg28
Nsbsg29
I2
sg30
F24
sbs(S'Meaning'
g853
tp1029
g1
(g15
g3
NtRp1030
(dp1031
g18
F0.5
sg19
I62
sg20
g1
(g21
g22
(dp1032
I01
I1
sNI61
stRp1033
(dp1034
g19
I62
sg26
Nsg27
Nsg28
Nsbsg29
I2
sg30
F63
sbs(g10
S'contains(pen)'
p1035
tp1036
g1
(g15
g3
NtRp1037
(dp1038
g18
F0.5
sg19
I18
sg20
g1
(g21
g22
(dp1039
NI18
stRp1040
(dp1041
g19
I18
sg26
Nsg27
Nsg28
Nsbsg29
I2
sg30
F19
sbs(S'Meaning'
g705
tp1042
g1
(g15
g3
NtRp1043
(dp1044
g18
F0.5
sg19
I62
sg20
g1
(g21
g22
(dp1045
I01
I1
sNI61
stRp1046
(dp1047
g19
I62
sg26
Nsg27
Nsg28
Nsbsg29
I2
sg30
F63
sbs(g9
g543
tp1048
g1
(g15
g3
NtRp1049
(dp1050
g18
F0.5
sg19
I23
sg20
g1
(g21
g22
(dp1051
NI23
stRp1052
(dp1053
g19
I23
sg26
Nsg27
Nsg28
Nsbsg29
I2
sg30
F24
sbs(g8
S'contains(nn)'
p1054
tp1055
g1
(g15
g3
NtRp1056
(dp1057
g18
F0.5
sg19
I62
sg20
g1
(g21
g22
(dp1058
NI62
stRp1059
(dp1060
g19
I62
sg26
Nsg27
Nsg28
Nsbsg29
I2
sg30
F63
sbs(g557
g277
tp1061
g1
(g15
g3
NtRp1062
(dp1063
g18
F0.5
sg19
I18
sg20
g1
(g21
g22
(dp1064
I01
I12
sNI6
stRp1065
(dp1066
g19
I18
sg26
Nsg27
Nsg28
Nsbsg29
I2
sg30
F19
sbs(g9
g984
tp1067
g1
(g15
g3
NtRp1068
(dp1069
g18
F0.5
sg19
I23
sg20
g1
(g21
g22
(dp1070
NI23
stRp1071
(dp1072
g19
I23
sg26
Nsg27
Nsg28
Nsbsg29
I2
sg30
F24
sbs(g9
g335
tp1073
g1
(g15
g3
NtRp1074
(dp1075
g18
F0.5
sg19
I23
sg20
g1
(g21
g22
(dp1076
NI23
stRp1077
(dp1078
g19
I23
sg26
Nsg27
Nsg28
Nsbsg29
I2
sg30
F24
sbs(g8
S'contains(,)'
p1079
tp1080
g1
(g15
g3
NtRp1081
(dp1082
g18
F0.5
sg19
I62
sg20
g1
(g21
g22
(dp1083
NI62
stRp1084
(dp1085
g19
I62
sg26
Nsg27
Nsg28
Nsbsg29
I2
sg30
F63
sbs(S'Meaning'
S'contains(chicken)'
p1086
tp1087
g1
(g15
g3
NtRp1088
(dp1089
g18
F0.5
sg19
I62
sg20
g1
(g21
g22
(dp1090
I01
I1
sNI61
stRp1091
(dp1092
g19
I62
sg26
Nsg27
Nsg28
Nsbsg29
I2
sg30
F63
sbs(g10
g243
tp1093
g1
(g15
g3
NtRp1094
(dp1095
g18
F0.5
sg19
I18
sg20
g1
(g21
g22
(dp1096
NI18
stRp1097
(dp1098
g19
I18
sg26
Nsg27
Nsg28
Nsbsg29
I2
sg30
F19
sbs(g10
S'contains(?)'
tp1099
g1
(g15
g3
NtRp1100
(dp1101
g18
F0.5
sg19
I18
sg20
g1
(g21
g22
(dp1102
I01
I18
stRp1103
(dp1104
g19
I18
sg26
Nsg27
Nsg28
Nsbsg29
I2
sg30
F19
sbs(g10
g374
tp1105
g1
(g15
g3
NtRp1106
(dp1107
g18
F0.5
sg19
I18
sg20
g1
(g21
g22
(dp1108
NI18
stRp1109
(dp1110
g19
I18
sg26
Nsg27
Nsg28
Nsbsg29
I2
sg30
F19
sbs(g8
S'contains(jacket)'
p1111
tp1112
g1
(g15
g3
NtRp1113
(dp1114
g18
F0.5
sg19
I62
sg20
g1
(g21
g22
(dp1115
NI62
stRp1116
(dp1117
g19
I62
sg26
Nsg27
Nsg28
Nsbsg29
I2
sg30
F63
sbs(S'Meaning'
g577
tp1118
g1
(g15
g3
NtRp1119
(dp1120
g18
F0.5
sg19
I62
sg20
g1
(g21
g22
(dp1121
I01
I1
sNI61
stRp1122
(dp1123
g19
I62
sg26
Nsg27
Nsg28
Nsbsg29
I2
sg30
F63
sbs(g10
S'contains(what)'
tp1124
g1
(g15
g3
NtRp1125
(dp1126
g18
F0.5
sg19
I18
sg20
g1
(g21
g22
(dp1127
I01
I18
stRp1128
(dp1129
g19
I18
sg26
Nsg27
Nsg28
Nsbsg29
I2
sg30
F19
sbs(S'Abbreviation'
g221
tp1130
g1
(g15
g3
NtRp1131
(dp1132
g18
F0.5
sg19
I18
sg20
g1
(g21
g22
(dp1133
I01
I1
sNI17
stRp1134
(dp1135
g19
I18
sg26
Nsg27
Nsg28
Nsbsg29
I2
sg30
F19
sbs(g10
g138
tp1136
g1
(g15
g3
NtRp1137
(dp1138
g18
F0.5
sg19
I18
sg20
g1
(g21
g22
(dp1139
NI18
stRp1140
(dp1141
g19
I18
sg26
Nsg27
Nsg28
Nsbsg29
I2
sg30
F19
sbs(g739
S'contains(the)'
tp1142
g1
(g15
g3
NtRp1143
(dp1144
g18
F0.5
sg19
I62
sg20
g1
(g21
g22
(dp1145
I01
I20
sNI42
stRp1146
(dp1147
g19
I62
sg26
Nsg27
Nsg28
Nsbsg29
I2
sg30
F63
sbs(S'Meaning'
S'contains(elephant)'
p1148
tp1149
g1
(g15
g3
NtRp1150
(dp1151
g18
F0.5
sg19
I62
sg20
g1
(g21
g22
(dp1152
I01
I1
sNI61
stRp1153
(dp1154
g19
I62
sg26
Nsg27
Nsg28
Nsbsg29
I2
sg30
F63
sbs(g9
g110
tp1155
g1
(g15
g3
NtRp1156
(dp1157
g18
F0.5
sg19
I23
sg20
g1
(g21
g22
(dp1158
NI23
stRp1159
(dp1160
g19
I23
sg26
Nsg27
Nsg28
Nsbsg29
I2
sg30
F24
sbs(g10
g958
tp1161
g1
(g15
g3
NtRp1162
(dp1163
g18
F0.5
sg19
I18
sg20
g1
(g21
g22
(dp1164
NI18
stRp1165
(dp1166
g19
I18
sg26
Nsg27
Nsg28
Nsbsg29
I2
sg30
F19
sbs(S'Composition'
g421
tp1167
g1
(g15
g3
NtRp1168
(dp1169
g18
F0.5
sg19
I23
sg20
g1
(g21
g22
(dp1170
I01
I1
sNI22
stRp1171
(dp1172
g19
I23
sg26
Nsg27
Nsg28
Nsbsg29
I2
sg30
F24
sbs(g9
g938
tp1173
g1
(g15
g3
NtRp1174
(dp1175
g18
F0.5
sg19
I23
sg20
g1
(g21
g22
(dp1176
NI23
stRp1177
(dp1178
g19
I23
sg26
Nsg27
Nsg28
Nsbsg29
I2
sg30
F24
sbs(g8
g860
tp1179
g1
(g15
g3
NtRp1180
(dp1181
g18
F0.5
sg19
I62
sg20
g1
(g21
g22
(dp1182
NI62
stRp1183
(dp1184
g19
I62
sg26
Nsg27
Nsg28
Nsbsg29
I2
sg30
F63
sbs(S'Meaning'
S'contains(street)'
p1185
tp1186
g1
(g15
g3
NtRp1187
(dp1188
g18
F0.5
sg19
I62
sg20
g1
(g21
g22
(dp1189
I01
I1
sNI61
stRp1190
(dp1191
g19
I62
sg26
Nsg27
Nsg28
Nsbsg29
I2
sg30
F63
sbs(g10
g157
tp1192
g1
(g15
g3
NtRp1193
(dp1194
g18
F0.5
sg19
I18
sg20
g1
(g21
g22
(dp1195
NI18
stRp1196
(dp1197
g19
I18
sg26
Nsg27
Nsg28
Nsbsg29
I2
sg30
F19
sbs(g8
S'contains(irish)'
p1198
tp1199
g1
(g15
g3
NtRp1200
(dp1201
g18
F0.5
sg19
I62
sg20
g1
(g21
g22
(dp1202
NI62
stRp1203
(dp1204
g19
I62
sg26
Nsg27
Nsg28
Nsbsg29
I2
sg30
F63
sbs(g9
g853
tp1205
g1
(g15
g3
NtRp1206
(dp1207
g18
F0.5
sg19
I23
sg20
g1
(g21
g22
(dp1208
NI23
stRp1209
(dp1210
g19
I23
sg26
Nsg27
Nsg28
Nsbsg29
I2
sg30
F24
sbs(g8
S'contains(psi)'
p1211
tp1212
g1
(g15
g3
NtRp1213
(dp1214
g18
F0.5
sg19
I62
sg20
g1
(g21
g22
(dp1215
NI62
stRp1216
(dp1217
g19
I62
sg26
Nsg27
Nsg28
Nsbsg29
I2
sg30
F63
sbs(g10
g1086
tp1218
g1
(g15
g3
NtRp1219
(dp1220
g18
F0.5
sg19
I18
sg20
g1
(g21
g22
(dp1221
NI18
stRp1222
(dp1223
g19
I18
sg26
Nsg27
Nsg28
Nsbsg29
I2
sg30
F19
sbs(g298
S'contains(jesus)'
p1224
tp1225
g1
(g15
g3
NtRp1226
(dp1227
g18
F0.5
sg19
I18
sg20
g1
(g21
g22
(dp1228
I01
I1
sNI17
stRp1229
(dp1230
g19
I18
sg26
Nsg27
Nsg28
Nsbsg29
I2
sg30
F19
sbs(g10
g31
tp1231
g1
(g15
g3
NtRp1232
(dp1233
g18
F0.5
sg19
I18
sg20
g1
(g21
g22
(dp1234
NI18
stRp1235
(dp1236
g19
I18
sg26
Nsg27
Nsg28
Nsbsg29
I2
sg30
F19
sbs(g8
g1224
tp1237
g1
(g15
g3
NtRp1238
(dp1239
g18
F0.5
sg19
I62
sg20
g1
(g21
g22
(dp1240
NI62
stRp1241
(dp1242
g19
I62
sg26
Nsg27
Nsg28
Nsbsg29
I2
sg30
F63
sbs(g9
S'contains(plo)'
p1243
tp1244
g1
(g15
g3
NtRp1245
(dp1246
g18
F0.5
sg19
I23
sg20
g1
(g21
g22
(dp1247
NI23
stRp1248
(dp1249
g19
I23
sg26
Nsg27
Nsg28
Nsbsg29
I2
sg30
F24
sbs(g9
g800
tp1250
g1
(g15
g3
NtRp1251
(dp1252
g18
F0.5
sg19
I23
sg20
g1
(g21
g22
(dp1253
NI23
stRp1254
(dp1255
g19
I23
sg26
Nsg27
Nsg28
Nsbsg29
I2
sg30
F24
sbs(g9
g1185
tp1256
g1
(g15
g3
NtRp1257
(dp1258
g18
F0.5
sg19
I23
sg20
g1
(g21
g22
(dp1259
NI23
stRp1260
(dp1261
g19
I23
sg26
Nsg27
Nsg28
Nsbsg29
I2
sg30
F24
sbs(g88
g321
tp1262
g1
(g15
g3
NtRp1263
(dp1264
g18
F0.5
sg19
I18
sg20
g1
(g21
g22
(dp1265
I01
I2
sNI16
stRp1266
(dp1267
g19
I18
sg26
Nsg27
Nsg28
Nsbsg29
I2
sg30
F19
sbs(g8
g185
tp1268
g1
(g15
g3
NtRp1269
(dp1270
g18
F0.5
sg19
I62
sg20
g1
(g21
g22
(dp1271
NI62
stRp1272
(dp1273
g19
I62
sg26
Nsg27
Nsg28
Nsbsg29
I2
sg30
F63
sbs(g622
g550
tp1274
g1
(g15
g3
NtRp1275
(dp1276
g18
F0.5
sg19
I62
sg20
g1
(g21
g22
(dp1277
I01
I1
sNI61
stRp1278
(dp1279
g19
I62
sg26
Nsg27
Nsg28
Nsbsg29
I2
sg30
F63
sbs(g9
g354
tp1280
g1
(g15
g3
NtRp1281
(dp1282
g18
F0.5
sg19
I23
sg20
g1
(g21
g22
(dp1283
NI23
stRp1284
(dp1285
g19
I23
sg26
Nsg27
Nsg28
Nsbsg29
I2
sg30
F24
sbs(g298
g774
tp1286
g1
(g15
g3
NtRp1287
(dp1288
g18
F0.5
sg19
I18
sg20
g1
(g21
g22
(dp1289
I01
I1
sNI17
stRp1290
(dp1291
g19
I18
sg26
Nsg27
Nsg28
Nsbsg29
I2
sg30
F19
sbs(g8
S'contains(.)'
p1292
tp1293
g1
(g15
g3
NtRp1294
(dp1295
g18
F0.5
sg19
I62
sg20
g1
(g21
g22
(dp1296
NI62
stRp1297
(dp1298
g19
I62
sg26
Nsg27
Nsg28
Nsbsg29
I2
sg30
F63
sbs(g8
g754
tp1299
g1
(g15
g3
NtRp1300
(dp1301
g18
F0.5
sg19
I62
sg20
g1
(g21
g22
(dp1302
NI62
stRp1303
(dp1304
g19
I62
sg26
Nsg27
Nsg28
Nsbsg29
I2
sg30
F63
sbs(S'Meaning'
g257
tp1305
g1
(g15
g3
NtRp1306
(dp1307
g18
F0.5
sg19
I62
sg20
g1
(g21
g22
(dp1308
I01
I1
sNI61
stRp1309
(dp1310
g19
I62
sg26
Nsg27
Nsg28
Nsbsg29
I2
sg30
F63
sbs(S'Meaning'
g840
tp1311
g1
(g15
g3
NtRp1312
(dp1313
g18
F0.5
sg19
I62
sg20
g1
(g21
g22
(dp1314
I01
I1
sNI61
stRp1315
(dp1316
g19
I62
sg26
Nsg27
Nsg28
Nsbsg29
I2
sg30
F63
sbs(g8
g800
tp1317
g1
(g15
g3
NtRp1318
(dp1319
g18
F0.5
sg19
I62
sg20
g1
(g21
g22
(dp1320
NI62
stRp1321
(dp1322
g19
I62
sg26
Nsg27
Nsg28
Nsbsg29
I2
sg30
F63
sbs(g8
g1243
tp1323
g1
(g15
g3
NtRp1324
(dp1325
g18
F0.5
sg19
I62
sg20
g1
(g21
g22
(dp1326
NI62
stRp1327
(dp1328
g19
I62
sg26
Nsg27
Nsg28
Nsbsg29
I2
sg30
F63
sbs(g10
g997
tp1329
g1
(g15
g3
NtRp1330
(dp1331
g18
F0.5
sg19
I18
sg20
g1
(g21
g22
(dp1332
NI18
stRp1333
(dp1334
g19
I18
sg26
Nsg27
Nsg28
Nsbsg29
I2
sg30
F19
sbs(g291
S'contains(laser)'
p1335
tp1336
g1
(g15
g3
NtRp1337
(dp1338
g18
F0.5
sg19
I18
sg20
g1
(g21
g22
(dp1339
I01
I1
sNI17
stRp1340
(dp1341
g19
I18
sg26
Nsg27
Nsg28
Nsbsg29
I2
sg30
F19
sbs(g10
S'contains(ear)'
p1342
tp1343
g1
(g15
g3
NtRp1344
(dp1345
g18
F0.5
sg19
I18
sg20
g1
(g21
g22
(dp1346
NI18
stRp1347
(dp1348
g19
I18
sg26
Nsg27
Nsg28
Nsbsg29
I2
sg30
F19
sbs(g557
g81
tp1349
g1
(g15
g3
NtRp1350
(dp1351
g18
F0.5
sg19
I18
sg20
g1
(g21
g22
(dp1352
I01
I1
sNI17
stRp1353
(dp1354
g19
I18
sg26
Nsg27
Nsg28
Nsbsg29
I2
sg30
F19
sbs(g495
S'contains(abbreviated)'
p1355
tp1356
g1
(g15
g3
NtRp1357
(dp1358
g18
F0.5
sg19
I18
sg20
g1
(g21
g22
(dp1359
I01
I1
sNI17
stRp1360
(dp1361
g19
I18
sg26
Nsg27
Nsg28
Nsbsg29
I2
sg30
F19
sbs(g9
g754
tp1362
g1
(g15
g3
NtRp1363
(dp1364
g18
F0.5
sg19
I23
sg20
g1
(g21
g22
(dp1365
NI23
stRp1366
(dp1367
g19
I23
sg26
Nsg27
Nsg28
Nsbsg29
I2
sg30
F24
sbs(g8
g712
tp1368
g1
(g15
g3
NtRp1369
(dp1370
g18
F0.5
sg19
I62
sg20
g1
(g21
g22
(dp1371
NI62
stRp1372
(dp1373
g19
I62
sg26
Nsg27
Nsg28
Nsbsg29
I2
sg30
F63
sbs(g10
S'contains(earth)'
p1374
tp1375
g1
(g15
g3
NtRp1376
(dp1377
g18
F0.5
sg19
I18
sg20
g1
(g21
g22
(dp1378
NI18
stRp1379
(dp1380
g19
I18
sg26
Nsg27
Nsg28
Nsbsg29
I2
sg30
F19
sbs(g10
g669
tp1381
g1
(g15
g3
NtRp1382
(dp1383
g18
F0.5
sg19
I18
sg20
g1
(g21
g22
(dp1384
NI18
stRp1385
(dp1386
g19
I18
sg26
Nsg27
Nsg28
Nsbsg29
I2
sg30
F19
sbs(g9
g1355
tp1387
g1
(g15
g3
NtRp1388
(dp1389
g18
F0.5
sg19
I23
sg20
g1
(g21
g22
(dp1390
NI23
stRp1391
(dp1392
g19
I23
sg26
Nsg27
Nsg28
Nsbsg29
I2
sg30
F24
sbs(g683
g1079
tp1393
g1
(g15
g3
NtRp1394
(dp1395
g18
F0.5
sg19
I18
sg20
g1
(g21
g22
(dp1396
I01
I1
sNI17
stRp1397
(dp1398
g19
I18
sg26
Nsg27
Nsg28
Nsbsg29
I2
sg30
F19
sbs(g9
g1335
tp1399
g1
(g15
g3
NtRp1400
(dp1401
g18
F0.5
sg19
I23
sg20
g1
(g21
g22
(dp1402
NI23
stRp1403
(dp1404
g19
I23
sg26
Nsg27
Nsg28
Nsbsg29
I2
sg30
F24
sbs(g8
g827
tp1405
g1
(g15
g3
NtRp1406
(dp1407
g18
F0.5
sg19
I62
sg20
g1
(g21
g22
(dp1408
NI62
stRp1409
(dp1410
g19
I62
sg26
Nsg27
Nsg28
Nsbsg29
I2
sg30
F63
sbs(g8
g1355
tp1411
g1
(g15
g3
NtRp1412
(dp1413
g18
F0.5
sg19
I62
sg20
g1
(g21
g22
(dp1414
NI62
stRp1415
(dp1416
g19
I62
sg26
Nsg27
Nsg28
Nsbsg29
I2
sg30
F63
sbs(g683
g206
tp1417
g1
(g15
g3
NtRp1418
(dp1419
g18
F0.5
sg19
I18
sg20
g1
(g21
g22
(dp1420
I01
I1
sNI17
stRp1421
(dp1422
g19
I18
sg26
Nsg27
Nsg28
Nsbsg29
I2
sg30
F19
sbs(S'Meaning'
g584
tp1423
g1
(g15
g3
NtRp1424
(dp1425
g18
F0.5
sg19
I62
sg20
g1
(g21
g22
(dp1426
I01
I1
sNI61
stRp1427
(dp1428
g19
I62
sg26
Nsg27
Nsg28
Nsbsg29
I2
sg30
F63
sbs(g8
g321
tp1429
g1
(g15
g3
NtRp1430
(dp1431
g18
F0.5
sg19
I62
sg20
g1
(g21
g22
(dp1432
NI62
stRp1433
(dp1434
g19
I62
sg26
Nsg27
Nsg28
Nsbsg29
I2
sg30
F63
sbs(g9
g81
tp1435
g1
(g15
g3
NtRp1436
(dp1437
g18
F0.5
sg19
I23
sg20
g1
(g21
g22
(dp1438
NI23
stRp1439
(dp1440
g19
I23
sg26
Nsg27
Nsg28
Nsbsg29
I2
sg30
F24
sbs(g9
g997
tp1441
g1
(g15
g3
NtRp1442
(dp1443
g18
F0.5
sg19
I23
sg20
g1
(g21
g22
(dp1444
NI23
stRp1445
(dp1446
g19
I23
sg26
Nsg27
Nsg28
Nsbsg29
I2
sg30
F24
sbs(g9
g550
tp1447
g1
(g15
g3
NtRp1448
(dp1449
g18
F0.5
sg19
I23
sg20
g1
(g21
g22
(dp1450
NI23
stRp1451
(dp1452
g19
I23
sg26
Nsg27
Nsg28
Nsbsg29
I2
sg30
F24
sbs(g9
g89
tp1453
g1
(g15
g3
NtRp1454
(dp1455
g18
F0.5
sg19
I23
sg20
g1
(g21
g22
(dp1456
NI23
stRp1457
(dp1458
g19
I23
sg26
Nsg27
Nsg28
Nsbsg29
I2
sg30
F24
sbs(g9
S'contains(tree)'
p1459
tp1460
g1
(g15
g3
NtRp1461
(dp1462
g18
F0.5
sg19
I23
sg20
g1
(g21
g22
(dp1463
NI23
stRp1464
(dp1465
g19
I23
sg26
Nsg27
Nsg28
Nsbsg29
I2
sg30
F24
sbs(g10
S'contains(the)'
tp1466
g1
(g15
g3
NtRp1467
(dp1468
g18
F0.5
sg19
I18
sg20
g1
(g21
g22
(dp1469
I01
I8
sNI10
stRp1470
(dp1471
g19
I18
sg26
Nsg27
Nsg28
Nsbsg29
I2
sg30
F19
sbs(g9
g584
tp1472
g1
(g15
g3
NtRp1473
(dp1474
g18
F0.5
sg19
I23
sg20
g1
(g21
g22
(dp1475
NI23
stRp1476
(dp1477
g19
I23
sg26
Nsg27
Nsg28
Nsbsg29
I2
sg30
F24
sbs(g10
g1185
tp1478
g1
(g15
g3
NtRp1479
(dp1480
g18
F0.5
sg19
I18
sg20
g1
(g21
g22
(dp1481
NI18
stRp1482
(dp1483
g19
I18
sg26
Nsg27
Nsg28
Nsbsg29
I2
sg30
F19
sbs(g8
g496
tp1484
g1
(g15
g3
NtRp1485
(dp1486
g18
F0.5
sg19
I62
sg20
g1
(g21
g22
(dp1487
NI62
stRp1488
(dp1489
g19
I62
sg26
Nsg27
Nsg28
Nsbsg29
I2
sg30
F63
sbs(g8
g299
tp1490
g1
(g15
g3
NtRp1491
(dp1492
g18
F0.5
sg19
I62
sg20
g1
(g21
g22
(dp1493
NI62
stRp1494
(dp1495
g19
I62
sg26
Nsg27
Nsg28
Nsbsg29
I2
sg30
F63
sbs(g9
S'contains(claus)'
p1496
tp1497
g1
(g15
g3
NtRp1498
(dp1499
g18
F0.5
sg19
I23
sg20
g1
(g21
g22
(dp1500
NI23
stRp1501
(dp1502
g19
I23
sg26
Nsg27
Nsg28
Nsbsg29
I2
sg30
F24
sbs(g9
S'contains(company)'
p1503
tp1504
g1
(g15
g3
NtRp1505
(dp1506
g18
F0.5
sg19
I23
sg20
g1
(g21
g22
(dp1507
NI23
stRp1508
(dp1509
g19
I23
sg26
Nsg27
Nsg28
Nsbsg29
I2
sg30
F24
sbs(S'Meaning'
g669
tp1510
g1
(g15
g3
NtRp1511
(dp1512
g18
F0.5
sg19
I62
sg20
g1
(g21
g22
(dp1513
I01
I1
sNI61
stRp1514
(dp1515
g19
I62
sg26
Nsg27
Nsg28
Nsbsg29
I2
sg30
F63
sbs(g10
S'contains(pretty)'
p1516
tp1517
g1
(g15
g3
NtRp1518
(dp1519
g18
F0.5
sg19
I18
sg20
g1
(g21
g22
(dp1520
NI18
stRp1521
(dp1522
g19
I18
sg26
Nsg27
Nsg28
Nsbsg29
I2
sg30
F19
sbs(S'Meaning'
g367
tp1523
g1
(g15
g3
NtRp1524
(dp1525
g18
F0.5
sg19
I62
sg20
g1
(g21
g22
(dp1526
I01
I1
sNI61
stRp1527
(dp1528
g19
I62
sg26
Nsg27
Nsg28
Nsbsg29
I2
sg30
F63
sbs(g8
g38
tp1529
g1
(g15
g3
NtRp1530
(dp1531
g18
F0.5
sg19
I62
sg20
g1
(g21
g22
(dp1532
NI62
stRp1533
(dp1534
g19
I62
sg26
Nsg27
Nsg28
Nsbsg29
I2
sg30
F63
sbs(g9
g1086
tp1535
g1
(g15
g3
NtRp1536
(dp1537
g18
F0.5
sg19
I23
sg20
g1
(g21
g22
(dp1538
NI23
stRp1539
(dp1540
g19
I23
sg26
Nsg27
Nsg28
Nsbsg29
I2
sg30
F24
sbs(g10
S'contains(rubber)'
p1541
tp1542
g1
(g15
g3
NtRp1543
(dp1544
g18
F0.5
sg19
I18
sg20
g1
(g21
g22
(dp1545
NI18
stRp1546
(dp1547
g19
I18
sg26
Nsg27
Nsg28
Nsbsg29
I2
sg30
F19
sbs(g9
g1198
tp1548
g1
(g15
g3
NtRp1549
(dp1550
g18
F0.5
sg19
I23
sg20
g1
(g21
g22
(dp1551
NI23
stRp1552
(dp1553
g19
I23
sg26
Nsg27
Nsg28
Nsbsg29
I2
sg30
F24
sbs(g9
S'contains(avenue)'
p1554
tp1555
g1
(g15
g3
NtRp1556
(dp1557
g18
F0.5
sg19
I23
sg20
g1
(g21
g22
(dp1558
NI23
stRp1559
(dp1560
g19
I23
sg26
Nsg27
Nsg28
Nsbsg29
I2
sg30
F24
sbs(g9
g442
tp1561
g1
(g15
g3
NtRp1562
(dp1563
g18
F0.5
sg19
I23
sg20
g1
(g21
g22
(dp1564
NI23
stRp1565
(dp1566
g19
I23
sg26
Nsg27
Nsg28
Nsbsg29
I2
sg30
F24
sbs(g10
S'contains(mellon)'
p1567
tp1568
g1
(g15
g3
NtRp1569
(dp1570
g18
F0.5
sg19
I18
sg20
g1
(g21
g22
(dp1571
NI18
stRp1572
(dp1573
g19
I18
sg26
Nsg27
Nsg28
Nsbsg29
I2
sg30
F19
sbs(S'Meaning'
S'contains(haircut)'
p1574
tp1575
g1
(g15
g3
NtRp1576
(dp1577
g18
F0.5
sg19
I62
sg20
g1
(g21
g22
(dp1578
I01
I1
sNI61
stRp1579
(dp1580
g19
I62
sg26
Nsg27
Nsg28
Nsbsg29
I2
sg30
F63
sbs(g213
g103
tp1581
g1
(g15
g3
NtRp1582
(dp1583
g18
F0.5
sg19
I23
sg20
g1
(g21
g22
(dp1584
I01
I1
sNI22
stRp1585
(dp1586
g19
I23
sg26
Nsg27
Nsg28
Nsbsg29
I2
sg30
F24
sbs(g683
S'contains(reading)'
p1587
tp1588
g1
(g15
g3
NtRp1589
(dp1590
g18
F0.5
sg19
I18
sg20
g1
(g21
g22
(dp1591
I01
I1
sNI17
stRp1592
(dp1593
g19
I18
sg26
Nsg27
Nsg28
Nsbsg29
I2
sg30
F19
sbs(g10
g421
tp1594
g1
(g15
g3
NtRp1595
(dp1596
g18
F0.5
sg19
I18
sg20
g1
(g21
g22
(dp1597
NI18
stRp1598
(dp1599
g19
I18
sg26
Nsg27
Nsg28
Nsbsg29
I2
sg30
F19
sbs(g10
g103
tp1600
g1
(g15
g3
NtRp1601
(dp1602
g18
F0.5
sg19
I18
sg20
g1
(g21
g22
(dp1603
NI18
stRp1604
(dp1605
g19
I18
sg26
Nsg27
Nsg28
Nsbsg29
I2
sg30
F19
sbs(g8
S'contains(as)'
p1606
tp1607
g1
(g15
g3
NtRp1608
(dp1609
g18
F0.5
sg19
I62
sg20
g1
(g21
g22
(dp1610
NI62
stRp1611
(dp1612
g19
I62
sg26
Nsg27
Nsg28
Nsbsg29
I2
sg30
F63
sbs(g9
S'contains(?)'
tp1613
g1
(g15
g3
NtRp1614
(dp1615
g18
F0.5
sg19
I23
sg20
g1
(g21
g22
(dp1616
I01
I23
stRp1617
(dp1618
g19
I23
sg26
Nsg27
Nsg28
Nsbsg29
I2
sg30
F24
sbs(g313
g381
tp1619
g1
(g15
g3
NtRp1620
(dp1621
g18
F0.5
sg19
I18
sg20
g1
(g21
g22
(dp1622
I01
I1
sNI17
stRp1623
(dp1624
g19
I18
sg26
Nsg27
Nsg28
Nsbsg29
I2
sg30
F19
sbs(g10
g449
tp1625
g1
(g15
g3
NtRp1626
(dp1627
g18
F0.5
sg19
I18
sg20
g1
(g21
g22
(dp1628
NI18
stRp1629
(dp1630
g19
I18
sg26
Nsg27
Nsg28
Nsbsg29
I2
sg30
F19
sbs(g10
S'contains(eucalyptus)'
p1631
tp1632
g1
(g15
g3
NtRp1633
(dp1634
g18
F0.5
sg19
I18
sg20
g1
(g21
g22
(dp1635
NI18
stRp1636
(dp1637
g19
I18
sg26
Nsg27
Nsg28
Nsbsg29
I2
sg30
F19
sbs(g9
S'contains(ads)'
p1638
tp1639
g1
(g15
g3
NtRp1640
(dp1641
g18
F0.5
sg19
I23
sg20
g1
(g21
g22
(dp1642
NI23
stRp1643
(dp1644
g19
I23
sg26
Nsg27
Nsg28
Nsbsg29
I2
sg30
F24
sbs(g8
g984
tp1645
g1
(g15
g3
NtRp1646
(dp1647
g18
F0.5
sg19
I62
sg20
g1
(g21
g22
(dp1648
NI62
stRp1649
(dp1650
g19
I62
sg26
Nsg27
Nsg28
Nsbsg29
I2
sg30
F63
sbs(g8
g214
tp1651
g1
(g15
g3
NtRp1652
(dp1653
g18
F0.5
sg19
I62
sg20
g1
(g21
g22
(dp1654
NI62
stRp1655
(dp1656
g19
I62
sg26
Nsg27
Nsg28
Nsbsg29
I2
sg30
F63
sbs(g9
g328
tp1657
g1
(g15
g3
NtRp1658
(dp1659
g18
F0.5
sg19
I23
sg20
g1
(g21
g22
(dp1660
NI23
stRp1661
(dp1662
g19
I23
sg26
Nsg27
Nsg28
Nsbsg29
I2
sg30
F24
sbs(g9
S'contains(what)'
tp1663
g1
(g15
g3
NtRp1664
(dp1665
g18
F0.5
sg19
I23
sg20
g1
(g21
g22
(dp1666
I01
I23
stRp1667
(dp1668
g19
I23
sg26
Nsg27
Nsg28
Nsbsg29
I2
sg30
F24
sbs(g9
g1574
tp1669
g1
(g15
g3
NtRp1670
(dp1671
g18
F0.5
sg19
I23
sg20
g1
(g21
g22
(dp1672
NI23
stRp1673
(dp1674
g19
I23
sg26
Nsg27
Nsg28
Nsbsg29
I2
sg30
F24
sbs(g8
S'contains(form)'
p1675
tp1676
g1
(g15
g3
NtRp1677
(dp1678
g18
F0.5
sg19
I62
sg20
g1
(g21
g22
(dp1679
NI62
stRp1680
(dp1681
g19
I62
sg26
Nsg27
Nsg28
Nsbsg29
I2
sg30
F63
sbs(g8
g1374
tp1682
g1
(g15
g3
NtRp1683
(dp1684
g18
F0.5
sg19
I62
sg20
g1
(g21
g22
(dp1685
NI62
stRp1686
(dp1687
g19
I62
sg26
Nsg27
Nsg28
Nsbsg29
I2
sg30
F63
sbs(g10
g564
tp1688
g1
(g15
g3
NtRp1689
(dp1690
g18
F0.5
sg19
I18
sg20
g1
(g21
g22
(dp1691
NI18
stRp1692
(dp1693
g19
I18
sg26
Nsg27
Nsg28
Nsbsg29
I2
sg30
F19
sbs(g8
g314
tp1694
g1
(g15
g3
NtRp1695
(dp1696
g18
F0.5
sg19
I62
sg20
g1
(g21
g22
(dp1697
NI62
stRp1698
(dp1699
g19
I62
sg26
Nsg27
Nsg28
Nsbsg29
I2
sg30
F63
sbs(g10
g306
tp1700
g1
(g15
g3
NtRp1701
(dp1702
g18
F0.5
sg19
I18
sg20
g1
(g21
g22
(dp1703
NI18
stRp1704
(dp1705
g19
I18
sg26
Nsg27
Nsg28
Nsbsg29
I2
sg30
F19
sbs(g9
g299
tp1706
g1
(g15
g3
NtRp1707
(dp1708
g18
F0.5
sg19
I23
sg20
g1
(g21
g22
(dp1709
NI23
stRp1710
(dp1711
g19
I23
sg26
Nsg27
Nsg28
Nsbsg29
I2
sg30
F24
sbs(g9
g740
tp1712
g1
(g15
g3
NtRp1713
(dp1714
g18
F0.5
sg19
I23
sg20
g1
(g21
g22
(dp1715
NI23
stRp1716
(dp1717
g19
I23
sg26
Nsg27
Nsg28
Nsbsg29
I2
sg30
F24
sbs(g228
g543
tp1718
g1
(g15
g3
NtRp1719
(dp1720
g18
F0.5
sg19
I18
sg20
g1
(g21
g22
(dp1721
I01
I1
sNI17
stRp1722
(dp1723
g19
I18
sg26
Nsg27
Nsg28
Nsbsg29
I2
sg30
F19
sbs(g9
g284
tp1724
g1
(g15
g3
NtRp1725
(dp1726
g18
F0.5
sg19
I23
sg20
g1
(g21
g22
(dp1727
NI23
stRp1728
(dp1729
g19
I23
sg26
Nsg27
Nsg28
Nsbsg29
I2
sg30
F24
sbs(S'Meaning'
p1730
S'contains(santa)'
p1731
tp1732
g1
(g15
g3
NtRp1733
(dp1734
g18
F0.5
sg19
I62
sg20
g1
(g21
g22
(dp1735
I01
I1
sNI61
stRp1736
(dp1737
g19
I62
sg26
Nsg27
Nsg28
Nsbsg29
I2
sg30
F63
sbs(g10
g740
tp1738
g1
(g15
g3
NtRp1739
(dp1740
g18
F0.5
sg19
I18
sg20
g1
(g21
g22
(dp1741
NI18
stRp1742
(dp1743
g19
I18
sg26
Nsg27
Nsg28
Nsbsg29
I2
sg30
F19
sbs(S'Meaning'
g1567
tp1744
g1
(g15
g3
NtRp1745
(dp1746
g18
F0.5
sg19
I62
sg20
g1
(g21
g22
(dp1747
I01
I1
sNI61
stRp1748
(dp1749
g19
I62
sg26
Nsg27
Nsg28
Nsbsg29
I2
sg30
F63
sbs(g9
S'contains(when)'
p1750
tp1751
g1
(g15
g3
NtRp1752
(dp1753
g18
F0.5
sg19
I23
sg20
g1
(g21
g22
(dp1754
NI23
stRp1755
(dp1756
g19
I23
sg26
Nsg27
Nsg28
Nsbsg29
I2
sg30
F24
sbs(g8
g1022
tp1757
g1
(g15
g3
NtRp1758
(dp1759
g18
F0.5
sg19
I62
sg20
g1
(g21
g22
(dp1760
NI62
stRp1761
(dp1762
g19
I62
sg26
Nsg27
Nsg28
Nsbsg29
I2
sg30
F63
sbs(g9
g1035
tp1763
g1
(g15
g3
NtRp1764
(dp1765
g18
F0.5
sg19
I23
sg20
g1
(g21
g22
(dp1766
NI23
stRp1767
(dp1768
g19
I23
sg26
Nsg27
Nsg28
Nsbsg29
I2
sg30
F24
sbs(g8
g918
tp1769
g1
(g15
g3
NtRp1770
(dp1771
g18
F0.5
sg19
I62
sg20
g1
(g21
g22
(dp1772
NI62
stRp1773
(dp1774
g19
I62
sg26
Nsg27
Nsg28
Nsbsg29
I2
sg30
F63
sbs(g10
g250
tp1775
g1
(g15
g3
NtRp1776
(dp1777
g18
F0.5
sg19
I18
sg20
g1
(g21
g22
(dp1778
NI18
stRp1779
(dp1780
g19
I18
sg26
Nsg27
Nsg28
Nsbsg29
I2
sg30
F19
sbs(g10
g509
tp1781
g1
(g15
g3
NtRp1782
(dp1783
g18
F0.5
sg19
I18
sg20
g1
(g21
g22
(dp1784
NI18
stRp1785
(dp1786
g19
I18
sg26
Nsg27
Nsg28
Nsbsg29
I2
sg30
F19
sbs(g9
g1211
tp1787
g1
(g15
g3
NtRp1788
(dp1789
g18
F0.5
sg19
I23
sg20
g1
(g21
g22
(dp1790
NI23
stRp1791
(dp1792
g19
I23
sg26
Nsg27
Nsg28
Nsbsg29
I2
sg30
F24
sbs(g8
g229
tp1793
g1
(g15
g3
NtRp1794
(dp1795
g18
F0.5
sg19
I62
sg20
g1
(g21
g22
(dp1796
NI62
stRp1797
(dp1798
g19
I62
sg26
Nsg27
Nsg28
Nsbsg29
I2
sg30
F63
sbs(S'Meaning'
p1799
g1631
tp1800
g1
(g15
g3
NtRp1801
(dp1802
g18
F0.5
sg19
I62
sg20
g1
(g21
g22
(dp1803
I01
I1
sNI61
stRp1804
(dp1805
g19
I62
sg26
Nsg27
Nsg28
Nsbsg29
I2
sg30
F63
sbs(g683
g945
tp1806
g1
(g15
g3
NtRp1807
(dp1808
g18
F0.5
sg19
I18
sg20
g1
(g21
g22
(dp1809
I01
I1
sNI17
stRp1810
(dp1811
g19
I18
sg26
Nsg27
Nsg28
Nsbsg29
I2
sg30
F19
sbs(g88
g185
tp1812
g1
(g15
g3
NtRp1813
(dp1814
g18
F0.5
sg19
I18
sg20
g1
(g21
g22
(dp1815
I01
I1
sNI17
stRp1816
(dp1817
g19
I18
sg26
Nsg27
Nsg28
Nsbsg29
I2
sg30
F19
sbs(g9
g199
tp1818
g1
(g15
g3
NtRp1819
(dp1820
g18
F0.5
sg19
I23
sg20
g1
(g21
g22
(dp1821
NI23
stRp1822
(dp1823
g19
I23
sg26
Nsg27
Nsg28
Nsbsg29
I2
sg30
F24
sbs(g683
g1638
tp1824
g1
(g15
g3
NtRp1825
(dp1826
g18
F0.5
sg19
I18
sg20
g1
(g21
g22
(dp1827
I01
I1
sNI17
stRp1828
(dp1829
g19
I18
sg26
Nsg27
Nsg28
Nsbsg29
I2
sg30
F19
sbs(g9
g918
tp1830
g1
(g15
g3
NtRp1831
(dp1832
g18
F0.5
sg19
I23
sg20
g1
(g21
g22
(dp1833
NI23
stRp1834
(dp1835
g19
I23
sg26
Nsg27
Nsg28
Nsbsg29
I2
sg30
F24
sbs(g8
S'contains(other)'
p1836
tp1837
g1
(g15
g3
NtRp1838
(dp1839
g18
F0.5
sg19
I62
sg20
g1
(g21
g22
(dp1840
NI62
stRp1841
(dp1842
g19
I62
sg26
Nsg27
Nsg28
Nsbsg29
I2
sg30
F63
sbs(S'Composition'
g931
tp1843
g1
(g15
g3
NtRp1844
(dp1845
g18
F0.5
sg19
I23
sg20
g1
(g21
g22
(dp1846
I01
I1
sNI22
stRp1847
(dp1848
g19
I23
sg26
Nsg27
Nsg28
Nsbsg29
I2
sg30
F24
sbs(g9
g1836
tp1849
g1
(g15
g3
NtRp1850
(dp1851
g18
F0.5
sg19
I23
sg20
g1
(g21
g22
(dp1852
NI23
stRp1853
(dp1854
g19
I23
sg26
Nsg27
Nsg28
Nsbsg29
I2
sg30
F24
sbs(g10
S'contains(mellons)'
p1855
tp1856
g1
(g15
g3
NtRp1857
(dp1858
g18
F0.5
sg19
I18
sg20
g1
(g21
g22
(dp1859
NI18
stRp1860
(dp1861
g19
I18
sg26
Nsg27
Nsg28
Nsbsg29
I2
sg30
F19
sbs(g9
g192
tp1862
g1
(g15
g3
NtRp1863
(dp1864
g18
F0.5
sg19
I23
sg20
g1
(g21
g22
(dp1865
NI23
stRp1866
(dp1867
g19
I23
sg26
Nsg27
Nsg28
Nsbsg29
I2
sg30
F24
sbs(g9
g820
tp1868
g1
(g15
g3
NtRp1869
(dp1870
g18
F0.5
sg19
I23
sg20
g1
(g21
g22
(dp1871
NI23
stRp1872
(dp1873
g19
I23
sg26
Nsg27
Nsg28
Nsbsg29
I2
sg30
F24
sbs(g10
g1496
tp1874
g1
(g15
g3
NtRp1875
(dp1876
g18
F0.5
sg19
I18
sg20
g1
(g21
g22
(dp1877
NI18
stRp1878
(dp1879
g19
I18
sg26
Nsg27
Nsg28
Nsbsg29
I2
sg30
F19
sbs(g8
g874
tp1880
g1
(g15
g3
NtRp1881
(dp1882
g18
F0.5
sg19
I62
sg20
g1
(g21
g22
(dp1883
NI62
stRp1884
(dp1885
g19
I62
sg26
Nsg27
Nsg28
Nsbsg29
I2
sg30
F63
sbs(g10
S'contains(backpacks)'
p1886
tp1887
g1
(g15
g3
NtRp1888
(dp1889
g18
F0.5
sg19
I18
sg20
g1
(g21
g22
(dp1890
NI18
stRp1891
(dp1892
g19
I18
sg26
Nsg27
Nsg28
Nsbsg29
I2
sg30
F19
sbs(g8
S'contains(made)'
p1893
tp1894
g1
(g15
g3
NtRp1895
(dp1896
g18
F0.5
sg19
I62
sg20
g1
(g21
g22
(dp1897
NI62
stRp1898
(dp1899
g19
I62
sg26
Nsg27
Nsg28
Nsbsg29
I2
sg30
F63
sbs(g9
g164
tp1900
g1
(g15
g3
NtRp1901
(dp1902
g18
F0.5
sg19
I23
sg20
g1
(g21
g22
(dp1903
NI23
stRp1904
(dp1905
g19
I23
sg26
Nsg27
Nsg28
Nsbsg29
I2
sg30
F24
sbs(g10
g1554
tp1906
g1
(g15
g3
NtRp1907
(dp1908
g18
F0.5
sg19
I18
sg20
g1
(g21
g22
(dp1909
NI18
stRp1910
(dp1911
g19
I18
sg26
Nsg27
Nsg28
Nsbsg29
I2
sg30
F19
sbs(g10
g860
tp1912
g1
(g15
g3
NtRp1913
(dp1914
g18
F0.5
sg19
I18
sg20
g1
(g21
g22
(dp1915
NI18
stRp1916
(dp1917
g19
I18
sg26
Nsg27
Nsg28
Nsbsg29
I2
sg30
F19
sbs(g10
g67
tp1918
g1
(g15
g3
NtRp1919
(dp1920
g18
F0.5
sg19
I18
sg20
g1
(g21
g22
(dp1921
NI18
stRp1922
(dp1923
g19
I18
sg26
Nsg27
Nsg28
Nsbsg29
I2
sg30
F19
sbs(S'Meaning'
g1554
tp1924
g1
(g15
g3
NtRp1925
(dp1926
g18
F0.5
sg19
I62
sg20
g1
(g21
g22
(dp1927
I01
I1
sNI61
stRp1928
(dp1929
g19
I62
sg26
Nsg27
Nsg28
Nsbsg29
I2
sg30
F63
sbs(S'Composition'
g1541
tp1930
g1
(g15
g3
NtRp1931
(dp1932
g18
F0.5
sg19
I23
sg20
g1
(g21
g22
(dp1933
I01
I1
sNI22
stRp1934
(dp1935
g19
I23
sg26
Nsg27
Nsg28
Nsbsg29
I2
sg30
F24
sbs(g9
g1148
tp1936
g1
(g15
g3
NtRp1937
(dp1938
g18
F0.5
sg19
I23
sg20
g1
(g21
g22
(dp1939
NI23
stRp1940
(dp1941
g19
I23
sg26
Nsg27
Nsg28
Nsbsg29
I2
sg30
F24
sbs(g228
g827
tp1942
g1
(g15
g3
NtRp1943
(dp1944
g18
F0.5
sg19
I18
sg20
g1
(g21
g22
(dp1945
I01
I1
sNI17
stRp1946
(dp1947
g19
I18
sg26
Nsg27
Nsg28
Nsbsg29
I2
sg30
F19
sbs(g8
g117
tp1948
g1
(g15
g3
NtRp1949
(dp1950
g18
F0.5
sg19
I62
sg20
g1
(g21
g22
(dp1951
NI62
stRp1952
(dp1953
g19
I62
sg26
Nsg27
Nsg28
Nsbsg29
I2
sg30
F63
sbs(S'Composition'
p1954
g813
tp1955
g1
(g15
g3
NtRp1956
(dp1957
g18
F0.5
sg19
I23
sg20
g1
(g21
g22
(dp1958
I01
I2
sNI21
stRp1959
(dp1960
g19
I23
sg26
Nsg27
Nsg28
Nsbsg29
I2
sg30
F24
sbs(g8
g488
tp1961
g1
(g15
g3
NtRp1962
(dp1963
g18
F0.5
sg19
I62
sg20
g1
(g21
g22
(dp1964
I01
I12
sNI50
stRp1965
(dp1966
g19
I62
sg26
Nsg27
Nsg28
Nsbsg29
I2
sg30
F63
sbs(S'Meaning'
g820
tp1967
g1
(g15
g3
NtRp1968
(dp1969
g18
F0.5
sg19
I62
sg20
g1
(g21
g22
(dp1970
I01
I1
sNI61
stRp1971
(dp1972
g19
I62
sg26
Nsg27
Nsg28
Nsbsg29
I2
sg30
F63
sbs(g495
S'contains(bureau)'
p1973
tp1974
g1
(g15
g3
NtRp1975
(dp1976
g18
F0.5
sg19
I18
sg20
g1
(g21
g22
(dp1977
I01
I1
sNI17
stRp1978
(dp1979
g19
I18
sg26
Nsg27
Nsg28
Nsbsg29
I2
sg30
F19
sbs(g10
g1292
tp1980
g1
(g15
g3
NtRp1981
(dp1982
g18
F0.5
sg19
I18
sg20
g1
(g21
g22
(dp1983
I01
I3
sNI15
stRp1984
(dp1985
g19
I18
sg26
Nsg27
Nsg28
Nsbsg29
I2
sg30
F19
sbs(S'Meaning'
S'contains(atm)'
p1986
tp1987
g1
(g15
g3
NtRp1988
(dp1989
g18
F0.5
sg19
I62
sg20
g1
(g21
g22
(dp1990
I01
I1
sNI61
stRp1991
(dp1992
g19
I62
sg26
Nsg27
Nsg28
Nsbsg29
I2
sg30
F63
sbs(g10
g698
tp1993
g1
(g15
g3
NtRp1994
(dp1995
g18
F0.5
sg19
I18
sg20
g1
(g21
g22
(dp1996
NI18
stRp1997
(dp1998
g19
I18
sg26
Nsg27
Nsg28
Nsbsg29
I2
sg30
F19
sbs(g10
S'contains(mouse)'
p1999
tp2000
g1
(g15
g3
NtRp2001
(dp2002
g18
F0.5
sg19
I18
sg20
g1
(g21
g22
(dp2003
NI18
stRp2004
(dp2005
g19
I18
sg26
Nsg27
Nsg28
Nsbsg29
I2
sg30
F19
sbs(g9
S'contains(word)'
p2006
tp2007
g1
(g15
g3
NtRp2008
(dp2009
g18
F0.5
sg19
I23
sg20
g1
(g21
g22
(dp2010
NI23
stRp2011
(dp2012
g19
I23
sg26
Nsg27
Nsg28
Nsbsg29
I2
sg30
F24
sbs(g10
g59
tp2013
g1
(g15
g3
NtRp2014
(dp2015
g18
F0.5
sg19
I18
sg20
g1
(g21
g22
(dp2016
NI18
stRp2017
(dp2018
g19
I18
sg26
Nsg27
Nsg28
Nsbsg29
I2
sg30
F19
sbs(g8
g221
tp2019
g1
(g15
g3
NtRp2020
(dp2021
g18
F0.5
sg19
I62
sg20
g1
(g21
g22
(dp2022
NI62
stRp2023
(dp2024
g19
I62
sg26
Nsg27
Nsg28
Nsbsg29
I2
sg30
F63
sbs(g8
g523
tp2025
g1
(g15
g3
NtRp2026
(dp2027
g18
F0.5
sg19
I62
sg20
g1
(g21
g22
(dp2028
NI62
stRp2029
(dp2030
g19
I62
sg26
Nsg27
Nsg28
Nsbsg29
I2
sg30
F63
sbs(g1954
g867
tp2031
g1
(g15
g3
NtRp2032
(dp2033
g18
F0.5
sg19
I23
sg20
g1
(g21
g22
(dp2034
I01
I5
sNI18
stRp2035
(dp2036
g19
I23
sg26
Nsg27
Nsg28
Nsbsg29
I2
sg30
F24
sbs(S'Meaning'
g59
tp2037
g1
(g15
g3
NtRp2038
(dp2039
g18
F0.5
sg19
I62
sg20
g1
(g21
g22
(dp2040
I01
I1
sNI61
stRp2041
(dp2042
g19
I62
sg26
Nsg27
Nsg28
Nsbsg29
I2
sg30
F63
sbs(g739
g2006
tp2043
g1
(g15
g3
NtRp2044
(dp2045
g18
F0.5
sg19
I62
sg20
g1
(g21
g22
(dp2046
I01
I5
sNI57
stRp2047
(dp2048
g19
I62
sg26
Nsg27
Nsg28
Nsbsg29
I2
sg30
F63
sbs(g9
g435
tp2049
g1
(g15
g3
NtRp2050
(dp2051
g18
F0.5
sg19
I23
sg20
g1
(g21
g22
(dp2052
NI23
stRp2053
(dp2054
g19
I23
sg26
Nsg27
Nsg28
Nsbsg29
I2
sg30
F24
sbs(S'Meaning'
g1342
tp2055
g1
(g15
g3
NtRp2056
(dp2057
g18
F0.5
sg19
I62
sg20
g1
(g21
g22
(dp2058
I01
I1
sNI61
stRp2059
(dp2060
g19
I62
sg26
Nsg27
Nsg28
Nsbsg29
I2
sg30
F63
sbs(g10
g732
tp2061
g1
(g15
g3
NtRp2062
(dp2063
g18
F0.5
sg19
I18
sg20
g1
(g21
g22
(dp2064
NI18
stRp2065
(dp2066
g19
I18
sg26
Nsg27
Nsg28
Nsbsg29
I2
sg30
F19
sbs(g10
S'contains(protective)'
p2067
tp2068
g1
(g15
g3
NtRp2069
(dp2070
g18
F0.5
sg19
I18
sg20
g1
(g21
g22
(dp2071
NI18
stRp2072
(dp2073
g19
I18
sg26
Nsg27
Nsg28
Nsbsg29
I2
sg30
F19
sbs(g10
S'contains(broke)'
p2074
tp2075
g1
(g15
g3
NtRp2076
(dp2077
g18
F0.5
sg19
I18
sg20
g1
(g21
g22
(dp2078
NI18
stRp2079
(dp2080
g19
I18
sg26
Nsg27
Nsg28
Nsbsg29
I2
sg30
F19
sbs(g10
g705
tp2081
g1
(g15
g3
NtRp2082
(dp2083
g18
F0.5
sg19
I18
sg20
g1
(g21
g22
(dp2084
NI18
stRp2085
(dp2086
g19
I18
sg26
Nsg27
Nsg28
Nsbsg29
I2
sg30
F19
sbs(S'Meaning'
g509
tp2087
g1
(g15
g3
NtRp2088
(dp2089
g18
F0.5
sg19
I62
sg20
g1
(g21
g22
(dp2090
I01
I1
sNI61
stRp2091
(dp2092
g19
I62
sg26
Nsg27
Nsg28
Nsbsg29
I2
sg30
F63
sbs(g10
g691
tp2093
g1
(g15
g3
NtRp2094
(dp2095
g18
F0.5
sg19
I18
sg20
g1
(g21
g22
(dp2096
NI18
stRp2097
(dp2098
g19
I18
sg26
Nsg27
Nsg28
Nsbsg29
I2
sg30
F19
sbs(g10
g1731
tp2099
g1
(g15
g3
NtRp2100
(dp2101
g18
F0.5
sg19
I18
sg20
g1
(g21
g22
(dp2102
NI18
stRp2103
(dp2104
g19
I18
sg26
Nsg27
Nsg28
Nsbsg29
I2
sg30
F19
sbs(g8
g250
tp2105
g1
(g15
g3
NtRp2106
(dp2107
g18
F0.5
sg19
I62
sg20
g1
(g21
g22
(dp2108
NI62
stRp2109
(dp2110
g19
I62
sg26
Nsg27
Nsg28
Nsbsg29
I2
sg30
F63
sbs(S'Composition'
S'contains(battery)'
p2111
tp2112
g1
(g15
g3
NtRp2113
(dp2114
g18
F0.5
sg19
I23
sg20
g1
(g21
g22
(dp2115
I01
I1
sNI22
stRp2116
(dp2117
g19
I23
sg26
Nsg27
Nsg28
Nsbsg29
I2
sg30
F24
sbs(g557
g641
tp2118
g1
(g15
g3
NtRp2119
(dp2120
g18
F0.5
sg19
I18
sg20
g1
(g21
g22
(dp2121
I01
I4
sNI14
stRp2122
(dp2123
g19
I18
sg26
Nsg27
Nsg28
Nsbsg29
I2
sg30
F19
sbs(g10
g1893
tp2124
g1
(g15
g3
NtRp2125
(dp2126
g18
F0.5
sg19
I18
sg20
g1
(g21
g22
(dp2127
NI18
stRp2128
(dp2129
g19
I18
sg26
Nsg27
Nsg28
Nsbsg29
I2
sg30
F19
sbs(g9
g1342
tp2130
g1
(g15
g3
NtRp2131
(dp2132
g18
F0.5
sg19
I23
sg20
g1
(g21
g22
(dp2133
NI23
stRp2134
(dp2135
g19
I23
sg26
Nsg27
Nsg28
Nsbsg29
I2
sg30
F24
sbs(g9
g655
tp2136
g1
(g15
g3
NtRp2137
(dp2138
g18
F0.5
sg19
I23
sg20
g1
(g21
g22
(dp2139
NI23
stRp2140
(dp2141
g19
I23
sg26
Nsg27
Nsg28
Nsbsg29
I2
sg30
F24
sbs(g9
g676
tp2142
g1
(g15
g3
NtRp2143
(dp2144
g18
F0.5
sg19
I23
sg20
g1
(g21
g22
(dp2145
NI23
stRp2146
(dp2147
g19
I23
sg26
Nsg27
Nsg28
Nsbsg29
I2
sg30
F24
sbs(g9
g1731
tp2148
g1
(g15
g3
NtRp2149
(dp2150
g18
F0.5
sg19
I23
sg20
g1
(g21
g22
(dp2151
NI23
stRp2152
(dp2153
g19
I23
sg26
Nsg27
Nsg28
Nsbsg29
I2
sg30
F24
sbs(g9
g691
tp2154
g1
(g15
g3
NtRp2155
(dp2156
g18
F0.5
sg19
I23
sg20
g1
(g21
g22
(dp2157
NI23
stRp2158
(dp2159
g19
I23
sg26
Nsg27
Nsg28
Nsbsg29
I2
sg30
F24
sbs(g8
g31
tp2160
g1
(g15
g3
NtRp2161
(dp2162
g18
F0.5
sg19
I62
sg20
g1
(g21
g22
(dp2163
NI62
stRp2164
(dp2165
g19
I62
sg26
Nsg27
Nsg28
Nsbsg29
I2
sg30
F63
sbs(g8
g13
tp2166
g1
(g15
g3
NtRp2167
(dp2168
g18
F0.5
sg19
I62
sg20
g1
(g21
g22
(dp2169
NI62
stRp2170
(dp2171
g19
I62
sg26
Nsg27
Nsg28
Nsbsg29
I2
sg30
F63
sbs(g9
g1631
tp2172
g1
(g15
g3
NtRp2173
(dp2174
g18
F0.5
sg19
I23
sg20
g1
(g21
g22
(dp2175
NI23
stRp2176
(dp2177
g19
I23
sg26
Nsg27
Nsg28
Nsbsg29
I2
sg30
F24
sbs(g9
g2074
tp2178
g1
(g15
g3
NtRp2179
(dp2180
g18
F0.5
sg19
I23
sg20
g1
(g21
g22
(dp2181
NI23
stRp2182
(dp2183
g19
I23
sg26
Nsg27
Nsg28
Nsbsg29
I2
sg30
F24
sbs(g1799
g1459
tp2184
g1
(g15
g3
NtRp2185
(dp2186
g18
F0.5
sg19
I62
sg20
g1
(g21
g22
(dp2187
I01
I1
sNI61
stRp2188
(dp2189
g19
I62
sg26
Nsg27
Nsg28
Nsbsg29
I2
sg30
F63
sbs(S'Meaning'
g591
tp2190
g1
(g15
g3
NtRp2191
(dp2192
g18
F0.5
sg19
I62
sg20
g1
(g21
g22
(dp2193
I01
I1
sNI61
stRp2194
(dp2195
g19
I62
sg26
Nsg27
Nsg28
Nsbsg29
I2
sg30
F63
sbs(S'Meaning'
g388
tp2196
g1
(g15
g3
NtRp2197
(dp2198
g18
F0.5
sg19
I62
sg20
g1
(g21
g22
(dp2199
I01
I1
sNI61
stRp2200
(dp2201
g19
I62
sg26
Nsg27
Nsg28
Nsbsg29
I2
sg30
F63
sbs(g516
g698
tp2202
g1
(g15
g3
NtRp2203
(dp2204
g18
F0.5
sg19
I23
sg20
g1
(g21
g22
(dp2205
I01
I1
sNI22
stRp2206
(dp2207
g19
I23
sg26
Nsg27
Nsg28
Nsbsg29
I2
sg30
F24
sbs(g313
S'contains(a)'
tp2208
g1
(g15
g3
NtRp2209
(dp2210
g18
F0.5
sg19
I18
sg20
g1
(g21
g22
(dp2211
I01
I1
sNI17
stRp2212
(dp2213
g19
I18
sg26
Nsg27
Nsg28
Nsbsg29
I2
sg30
F19
sbs(g8
g1638
tp2214
g1
(g15
g3
NtRp2215
(dp2216
g18
F0.5
sg19
I62
sg20
g1
(g21
g22
(dp2217
NI62
stRp2218
(dp2219
g19
I62
sg26
Nsg27
Nsg28
Nsbsg29
I2
sg30
F63
sbs(g9
g1986
tp2220
g1
(g15
g3
NtRp2221
(dp2222
g18
F0.5
sg19
I23
sg20
g1
(g21
g22
(dp2223
NI23
stRp2224
(dp2225
g19
I23
sg26
Nsg27
Nsg28
Nsbsg29
I2
sg30
F24
sbs(g313
g1606
tp2226
g1
(g15
g3
NtRp2227
(dp2228
g18
F0.5
sg19
I18
sg20
g1
(g21
g22
(dp2229
I01
I1
sNI17
stRp2230
(dp2231
g19
I18
sg26
Nsg27
Nsg28
Nsbsg29
I2
sg30
F19
sbs(g10
g264
tp2232
g1
(g15
g3
NtRp2233
(dp2234
g18
F0.5
sg19
I18
sg20
g1
(g21
g22
(dp2235
NI18
stRp2236
(dp2237
g19
I18
sg26
Nsg27
Nsg28
Nsbsg29
I2
sg30
F19
sbs(S'Meaning'
g481
tp2238
g1
(g15
g3
NtRp2239
(dp2240
g18
F0.5
sg19
I62
sg20
g1
(g21
g22
(dp2241
I01
I1
sNI61
stRp2242
(dp2243
g19
I62
sg26
Nsg27
Nsg28
Nsbsg29
I2
sg30
F63
sbs(g10
g523
tp2244
g1
(g15
g3
NtRp2245
(dp2246
g18
F0.5
sg19
I18
sg20
g1
(g21
g22
(dp2247
NI18
stRp2248
(dp2249
g19
I18
sg26
Nsg27
Nsg28
Nsbsg29
I2
sg30
F19
sbs(g10
g1148
tp2250
g1
(g15
g3
NtRp2251
(dp2252
g18
F0.5
sg19
I18
sg20
g1
(g21
g22
(dp2253
NI18
stRp2254
(dp2255
g19
I18
sg26
Nsg27
Nsg28
Nsbsg29
I2
sg30
F19
sbs(g9
g462
tp2256
g1
(g15
g3
NtRp2257
(dp2258
g18
F0.5
sg19
I23
sg20
g1
(g21
g22
(dp2259
NI23
stRp2260
(dp2261
g19
I23
sg26
Nsg27
Nsg28
Nsbsg29
I2
sg30
F24
sbs(S'Meaning'
p2262
g719
tp2263
g1
(g15
g3
NtRp2264
(dp2265
g18
F0.5
sg19
I62
sg20
g1
(g21
g22
(dp2266
I01
I12
sNI50
stRp2267
(dp2268
g19
I62
sg26
Nsg27
Nsg28
Nsbsg29
I2
sg30
F63
sbs(g9
g591
tp2269
g1
(g15
g3
NtRp2270
(dp2271
g18
F0.5
sg19
I23
sg20
g1
(g21
g22
(dp2272
NI23
stRp2273
(dp2274
g19
I23
sg26
Nsg27
Nsg28
Nsbsg29
I2
sg30
F24
sbs(g9
g1886
tp2275
g1
(g15
g3
NtRp2276
(dp2277
g18
F0.5
sg19
I23
sg20
g1
(g21
g22
(dp2278
NI23
stRp2279
(dp2280
g19
I23
sg26
Nsg27
Nsg28
Nsbsg29
I2
sg30
F24
sbs(g9
g229
tp2281
g1
(g15
g3
NtRp2282
(dp2283
g18
F0.5
sg19
I23
sg20
g1
(g21
g22
(dp2284
NI23
stRp2285
(dp2286
g19
I23
sg26
Nsg27
Nsg28
Nsbsg29
I2
sg30
F24
sbs(g8
g1541
tp2287
g1
(g15
g3
NtRp2288
(dp2289
g18
F0.5
sg19
I62
sg20
g1
(g21
g22
(dp2290
NI62
stRp2291
(dp2292
g19
I62
sg26
Nsg27
Nsg28
Nsbsg29
I2
sg30
F63
sbs(g9
g1224
tp2293
g1
(g15
g3
NtRp2294
(dp2295
g18
F0.5
sg19
I23
sg20
g1
(g21
g22
(dp2296
NI23
stRp2297
(dp2298
g19
I23
sg26
Nsg27
Nsg28
Nsbsg29
I2
sg30
F24
sbs(S'Meaning'
p2299
g164
tp2300
g1
(g15
g3
NtRp2301
(dp2302
g18
F0.5
sg19
I62
sg20
g1
(g21
g22
(dp2303
I01
I1
sNI61
stRp2304
(dp2305
g19
I62
sg26
Nsg27
Nsg28
Nsbsg29
I2
sg30
F63
sbs(S'Meaning'
g1516
tp2306
g1
(g15
g3
NtRp2307
(dp2308
g18
F0.5
sg19
I62
sg20
g1
(g21
g22
(dp2309
I01
I1
sNI61
stRp2310
(dp2311
g19
I62
sg26
Nsg27
Nsg28
Nsbsg29
I2
sg30
F63
sbs(g8
g243
tp2312
g1
(g15
g3
NtRp2313
(dp2314
g18
F0.5
sg19
I62
sg20
g1
(g21
g22
(dp2315
NI62
stRp2316
(dp2317
g19
I62
sg26
Nsg27
Nsg28
Nsbsg29
I2
sg30
F63
sbs(g9
S'contains(of)'
tp2318
g1
(g15
g3
NtRp2319
(dp2320
g18
F0.5
sg19
I23
sg20
g1
(g21
g22
(dp2321
I01
I23
stRp2322
(dp2323
g19
I23
sg26
Nsg27
Nsg28
Nsbsg29
I2
sg30
F24
sbs(g9
g496
tp2324
g1
(g15
g3
NtRp2325
(dp2326
g18
F0.5
sg19
I23
sg20
g1
(g21
g22
(dp2327
NI23
stRp2328
(dp2329
g19
I23
sg26
Nsg27
Nsg28
Nsbsg29
I2
sg30
F24
sbs(g8
S'contains(does)'
p2330
tp2331
g1
(g15
g3
NtRp2332
(dp2333
g18
F0.5
sg19
I62
sg20
g1
(g21
g22
(dp2334
I01
I12
sNI50
stRp2335
(dp2336
g19
I62
sg26
Nsg27
Nsg28
Nsbsg29
I2
sg30
F63
sbs(g9
g138
tp2337
g1
(g15
g3
NtRp2338
(dp2339
g18
F0.5
sg19
I23
sg20
g1
(g21
g22
(dp2340
I01
I1
sNI22
stRp2341
(dp2342
g19
I23
sg26
Nsg27
Nsg28
Nsbsg29
I2
sg30
F24
sbs(g291
S'contains(mean)'
tp2343
g1
(g15
g3
NtRp2344
(dp2345
g18
F0.5
sg19
I18
sg20
g1
(g21
g22
(dp2346
I01
I2
sNI16
stRp2347
(dp2348
g19
I18
sg26
Nsg27
Nsg28
Nsbsg29
I2
sg30
F19
sbs(g9
g1855
tp2349
g1
(g15
g3
NtRp2350
(dp2351
g18
F0.5
sg19
I23
sg20
g1
(g21
g22
(dp2352
NI23
stRp2353
(dp2354
g19
I23
sg26
Nsg27
Nsg28
Nsbsg29
I2
sg30
F24
sbs(g10
g214
tp2355
g1
(g15
g3
NtRp2356
(dp2357
g18
F0.5
sg19
I18
sg20
g1
(g21
g22
(dp2358
NI18
stRp2359
(dp2360
g19
I18
sg26
Nsg27
Nsg28
Nsbsg29
I2
sg30
F19
sbs(g9
g1292
tp2361
g1
(g15
g3
NtRp2362
(dp2363
g18
F0.5
sg19
I23
sg20
g1
(g21
g22
(dp2364
NI23
stRp2365
(dp2366
g19
I23
sg26
Nsg27
Nsg28
Nsbsg29
I2
sg30
F24
sbs(g557
S'contains(does)'
tp2367
g1
(g15
g3
NtRp2368
(dp2369
g18
F0.5
sg19
I18
sg20
g1
(g21
g22
(dp2370
I01
I11
sNI7
stRp2371
(dp2372
g19
I18
sg26
Nsg27
Nsg28
Nsbsg29
I2
sg30
F19
sbs(g9
g1079
tp2373
g1
(g15
g3
NtRp2374
(dp2375
g18
F0.5
sg19
I23
sg20
g1
(g21
g22
(dp2376
NI23
stRp2377
(dp2378
g19
I23
sg26
Nsg27
Nsg28
Nsbsg29
I2
sg30
F24
sbs(S'Meaning'
g767
tp2379
g1
(g15
g3
NtRp2380
(dp2381
g18
F0.5
sg19
I62
sg20
g1
(g21
g22
(dp2382
I01
I1
sNI61
stRp2383
(dp2384
g19
I62
sg26
Nsg27
Nsg28
Nsbsg29
I2
sg30
F63
sbs(g10
S'contains(are)'
p2385
tp2386
g1
(g15
g3
NtRp2387
(dp2388
g18
F0.5
sg19
I18
sg20
g1
(g21
g22
(dp2389
NI18
stRp2390
(dp2391
g19
I18
sg26
Nsg27
Nsg28
Nsbsg29
I2
sg30
F19
sbs(g8
g171
tp2392
g1
(g15
g3
NtRp2393
(dp2394
g18
F0.5
sg19
I62
sg20
g1
(g21
g22
(dp2395
NI62
stRp2396
(dp2397
g19
I62
sg26
Nsg27
Nsg28
Nsbsg29
I2
sg30
F63
sbs(g45
g1855
tp2398
g1
(g15
g3
NtRp2399
(dp2400
g18
F0.5
sg19
I62
sg20
g1
(g21
g22
(dp2401
I01
I1
sNI61
stRp2402
(dp2403
g19
I62
sg26
Nsg27
Nsg28
Nsbsg29
I2
sg30
F63
sbs(g8
g1503
tp2404
g1
(g15
g3
NtRp2405
(dp2406
g18
F0.5
sg19
I62
sg20
g1
(g21
g22
(dp2407
NI62
stRp2408
(dp2409
g19
I62
sg26
Nsg27
Nsg28
Nsbsg29
I2
sg30
F63
sbs(S'Meaning'
g284
tp2410
g1
(g15
g3
NtRp2411
(dp2412
g18
F0.5
sg19
I62
sg20
g1
(g21
g22
(dp2413
I01
I1
sNI61
stRp2414
(dp2415
g19
I62
sg26
Nsg27
Nsg28
Nsbsg29
I2
sg30
F63
sbs(S'Meaning'
g958
tp2416
g1
(g15
g3
NtRp2417
(dp2418
g18
F0.5
sg19
I62
sg20
g1
(g21
g22
(dp2419
I01
I1
sNI61
stRp2420
(dp2421
g19
I62
sg26
Nsg27
Nsg28
Nsbsg29
I2
sg30
F63
sbs(g9
S'contains(is)'
tp2422
g1
(g15
g3
NtRp2423
(dp2424
g18
F0.5
sg19
I23
sg20
g1
(g21
g22
(dp2425
I01
I16
sNI7
stRp2426
(dp2427
g19
I23
sg26
Nsg27
Nsg28
Nsbsg29
I2
sg30
F24
sbs(g683
g1836
tp2428
g1
(g15
g3
NtRp2429
(dp2430
g18
F0.5
sg19
I18
sg20
g1
(g21
g22
(dp2431
I01
I1
sNI17
stRp2432
(dp2433
g19
I18
sg26
Nsg27
Nsg28
Nsbsg29
I2
sg30
F19
sbs(g8
g1750
tp2434
g1
(g15
g3
NtRp2435
(dp2436
g18
F0.5
sg19
I62
sg20
g1
(g21
g22
(dp2437
NI62
stRp2438
(dp2439
g19
I62
sg26
Nsg27
Nsg28
Nsbsg29
I2
sg30
F63
sbs(S'Meaning'
g662
tp2440
g1
(g15
g3
NtRp2441
(dp2442
g18
F0.5
sg19
I62
sg20
g1
(g21
g22
(dp2443
I01
I1
sNI61
stRp2444
(dp2445
g19
I62
sg26
Nsg27
Nsg28
Nsbsg29
I2
sg30
F63
sbs(g9
g374
tp2446
g1
(g15
g3
NtRp2447
(dp2448
g18
F0.5
sg19
I23
sg20
g1
(g21
g22
(dp2449
NI23
stRp2450
(dp2451
g19
I23
sg26
Nsg27
Nsg28
Nsbsg29
I2
sg30
F24
sbs(S'Abbreviation'
g1211
tp2452
g1
(g15
g3
NtRp2453
(dp2454
g18
F0.5
sg19
I18
sg20
g1
(g21
g22
(dp2455
I01
I1
sNI17
stRp2456
(dp2457
g19
I18
sg26
Nsg27
Nsg28
Nsbsg29
I2
sg30
F19
sbs(S'Composition'
g1111
tp2458
g1
(g15
g3
NtRp2459
(dp2460
g18
F0.5
sg19
I23
sg20
g1
(g21
g22
(dp2461
I01
I1
sNI22
stRp2462
(dp2463
g19
I23
sg26
Nsg27
Nsg28
Nsbsg29
I2
sg30
F24
sbs(g298
g1750
tp2464
g1
(g15
g3
NtRp2465
(dp2466
g18
F0.5
sg19
I18
sg20
g1
(g21
g22
(dp2467
I01
I3
sNI15
stRp2468
(dp2469
g19
I18
sg26
Nsg27
Nsg28
Nsbsg29
I2
sg30
F19
sbs(g10
g367
tp2470
g1
(g15
g3
NtRp2471
(dp2472
g18
F0.5
sg19
I18
sg20
g1
(g21
g22
(dp2473
NI18
stRp2474
(dp2475
g19
I18
sg26
Nsg27
Nsg28
Nsbsg29
I2
sg30
F19
sbs(g9
g881
tp2476
g1
(g15
g3
NtRp2477
(dp2478
g18
F0.5
sg19
I23
sg20
g1
(g21
g22
(dp2479
NI23
stRp2480
(dp2481
g19
I23
sg26
Nsg27
Nsg28
Nsbsg29
I2
sg30
F24
sbs(S'Meaning'
g306
tp2482
g1
(g15
g3
NtRp2483
(dp2484
g18
F0.5
sg19
I62
sg20
g1
(g21
g22
(dp2485
I01
I1
sNI61
stRp2486
(dp2487
g19
I62
sg26
Nsg27
Nsg28
Nsbsg29
I2
sg30
F63
sbs(S'Meaning'
g564
tp2488
g1
(g15
g3
NtRp2489
(dp2490
g18
F0.5
sg19
I62
sg20
g1
(g21
g22
(dp2491
I01
I2
sNI60
stRp2492
(dp2493
g19
I62
sg26
Nsg27
Nsg28
Nsbsg29
I2
sg30
F63
sbs(g10
g1111
tp2494
g1
(g15
g3
NtRp2495
(dp2496
g18
F0.5
sg19
I18
sg20
g1
(g21
g22
(dp2497
NI18
stRp2498
(dp2499
g19
I18
sg26
Nsg27
Nsg28
Nsbsg29
I2
sg30
F19
sbs(g8
g1999
tp2500
g1
(g15
g3
NtRp2501
(dp2502
g18
F0.5
sg19
I62
sg20
g1
(g21
g22
(dp2503
NI62
stRp2504
(dp2505
g19
I62
sg26
Nsg27
Nsg28
Nsbsg29
I2
sg30
F63
sbs(g298
g1022
tp2506
g1
(g15
g3
NtRp2507
(dp2508
g18
F0.5
sg19
I18
sg20
g1
(g21
g22
(dp2509
I01
I1
sNI17
stRp2510
(dp2511
g19
I18
sg26
Nsg27
Nsg28
Nsbsg29
I2
sg30
F19
sbs(S'Meaning'
S'contains(pencil)'
tp2512
g1
(g15
g3
NtRp2513
(dp2514
g18
F0.5
sg19
I62
sg20
g1
(g21
g22
(dp2515
I01
I1
sNI61
stRp2516
(dp2517
g19
I62
sg26
Nsg27
Nsg28
Nsbsg29
I2
sg30
F63
sbs(g8
g1973
tp2518
g1
(g15
g3
NtRp2519
(dp2520
g18
F0.5
sg19
I62
sg20
g1
(g21
g22
(dp2521
NI62
stRp2522
(dp2523
g19
I62
sg26
Nsg27
Nsg28
Nsbsg29
I2
sg30
F63
sbs(g9
g2330
tp2524
g1
(g15
g3
NtRp2525
(dp2526
g18
F0.5
sg19
I23
sg20
g1
(g21
g22
(dp2527
NI23
stRp2528
(dp2529
g19
I23
sg26
Nsg27
Nsg28
Nsbsg29
I2
sg30
F24
sbs(g2299
g192
tp2530
g1
(g15
g3
NtRp2531
(dp2532
g18
F0.5
sg19
I62
sg20
g1
(g21
g22
(dp2533
I01
I1
sNI61
stRp2534
(dp2535
g19
I62
sg26
Nsg27
Nsg28
Nsbsg29
I2
sg30
F63
sbs(g9
g1567
tp2536
g1
(g15
g3
NtRp2537
(dp2538
g18
F0.5
sg19
I23
sg20
g1
(g21
g22
(dp2539
NI23
stRp2540
(dp2541
g19
I23
sg26
Nsg27
Nsg28
Nsbsg29
I2
sg30
F24
sbs(g10
g171
tp2542
g1
(g15
g3
NtRp2543
(dp2544
g18
F0.5
sg19
I18
sg20
g1
(g21
g22
(dp2545
NI18
stRp2546
(dp2547
g19
I18
sg26
Nsg27
Nsg28
Nsbsg29
I2
sg30
F19
sbs(g66
g2385
tp2548
g1
(g15
g3
NtRp2549
(dp2550
g18
F0.5
sg19
I23
sg20
g1
(g21
g22
(dp2551
I01
I7
sNI16
stRp2552
(dp2553
g19
I23
sg26
Nsg27
Nsg28
Nsbsg29
I2
sg30
F24
sbs(g622
g236
tp2554
g1
(g15
g3
NtRp2555
(dp2556
g18
F0.5
sg19
I62
sg20
g1
(g21
g22
(dp2557
I01
I15
sNI47
stRp2558
(dp2559
g19
I62
sg26
Nsg27
Nsg28
Nsbsg29
I2
sg30
F63
sbs(g8
g74
tp2560
g1
(g15
g3
NtRp2561
(dp2562
g18
F0.5
sg19
I62
sg20
g1
(g21
g22
(dp2563
NI62
stRp2564
(dp2565
g19
I62
sg26
Nsg27
Nsg28
Nsbsg29
I2
sg30
F63
sbs(g10
g236
tp2566
g1
(g15
g3
NtRp2567
(dp2568
g18
F0.5
sg19
I18
sg20
g1
(g21
g22
(dp2569
NI18
stRp2570
(dp2571
g19
I18
sg26
Nsg27
Nsg28
Nsbsg29
I2
sg30
F19
sbs(g10
g257
tp2572
g1
(g15
g3
NtRp2573
(dp2574
g18
F0.5
sg19
I18
sg20
g1
(g21
g22
(dp2575
NI18
stRp2576
(dp2577
g19
I18
sg26
Nsg27
Nsg28
Nsbsg29
I2
sg30
F19
sbs(g9
g131
tp2578
g1
(g15
g3
NtRp2579
(dp2580
g18
F0.5
sg19
I23
sg20
g1
(g21
g22
(dp2581
NI23
stRp2582
(dp2583
g19
I23
sg26
Nsg27
Nsg28
Nsbsg29
I2
sg30
F24
sbs(g8
g813
tp2584
g1
(g15
g3
NtRp2585
(dp2586
g18
F0.5
sg19
I62
sg20
g1
(g21
g22
(dp2587
NI62
stRp2588
(dp2589
g19
I62
sg26
Nsg27
Nsg28
Nsbsg29
I2
sg30
F63
sbs(S'Meaning'
g1886
tp2590
g1
(g15
g3
NtRp2591
(dp2592
g18
F0.5
sg19
I62
sg20
g1
(g21
g22
(dp2593
I01
I1
sNI61
stRp2594
(dp2595
g19
I62
sg26
Nsg27
Nsg28
Nsbsg29
I2
sg30
F63
sbs(g9
g117
tp2596
g1
(g15
g3
NtRp2597
(dp2598
g18
F0.5
sg19
I23
sg20
g1
(g21
g22
(dp2599
NI23
stRp2600
(dp2601
g19
I23
sg26
Nsg27
Nsg28
Nsbsg29
I2
sg30
F24
sbs(g9
g1587
tp2602
g1
(g15
g3
NtRp2603
(dp2604
g18
F0.5
sg19
I23
sg20
g1
(g21
g22
(dp2605
NI23
stRp2606
(dp2607
g19
I23
sg26
Nsg27
Nsg28
Nsbsg29
I2
sg30
F24
sbs(S'Meaning'
g2067
tp2608
g1
(g15
g3
NtRp2609
(dp2610
g18
F0.5
sg19
I62
sg20
g1
(g21
g22
(dp2611
I01
I1
sNI61
stRp2612
(dp2613
g19
I62
sg26
Nsg27
Nsg28
Nsbsg29
I2
sg30
F63
sbs(g88
g1503
tp2614
g1
(g15
g3
NtRp2615
(dp2616
g18
F0.5
sg19
I18
sg20
g1
(g21
g22
(dp2617
I01
I1
sNI17
stRp2618
(dp2619
g19
I18
sg26
Nsg27
Nsg28
Nsbsg29
I2
sg30
F19
sbs(S'Meaning'
g732
tp2620
g1
(g15
g3
NtRp2621
(dp2622
g18
F0.5
sg19
I62
sg20
g1
(g21
g22
(dp2623
I01
I1
sNI61
stRp2624
(dp2625
g19
I62
sg26
Nsg27
Nsg28
Nsbsg29
I2
sg30
F63
sbs(g622
S'contains(is)'
tp2626
g1
(g15
g3
NtRp2627
(dp2628
g18
F0.5
sg19
I62
sg20
g1
(g21
g22
(dp2629
I01
I29
sNI33
stRp2630
(dp2631
g19
I62
sg26
Nsg27
Nsg28
Nsbsg29
I2
sg30
F63
sbs(g313
g1198
tp2632
g1
(g15
g3
NtRp2633
(dp2634
g18
F0.5
sg19
I18
sg20
g1
(g21
g22
(dp2635
I01
I1
sNI17
stRp2636
(dp2637
g19
I18
sg26
Nsg27
Nsg28
Nsbsg29
I2
sg30
F19
sbs(g8
g124
tp2638
g1
(g15
g3
NtRp2639
(dp2640
g18
F0.5
sg19
I62
sg20
g1
(g21
g22
(dp2641
I01
I1
sNI61
stRp2642
(dp2643
g19
I62
sg26
Nsg27
Nsg28
Nsbsg29
I2
sg30
F63
sbs(g983
g38
tp2644
g1
(g15
g3
NtRp2645
(dp2646
g18
F0.5
sg19
I18
sg20
g1
(g21
g22
(dp2647
I01
I1
sNI17
stRp2648
(dp2649
g19
I18
sg26
Nsg27
Nsg28
Nsbsg29
I2
sg30
F19
sbs(g10
g124
tp2650
g1
(g15
g3
NtRp2651
(dp2652
g18
F0.5
sg19
I18
sg20
g1
(g21
g22
(dp2653
NI18
stRp2654
(dp2655
g19
I18
sg26
Nsg27
Nsg28
Nsbsg29
I2
sg30
F19
sbs(g8
g1587
tp2656
g1
(g15
g3
NtRp2657
(dp2658
g18
F0.5
sg19
I62
sg20
g1
(g21
g22
(dp2659
NI62
stRp2660
(dp2661
g19
I62
sg26
Nsg27
Nsg28
Nsbsg29
I2
sg30
F63
sbs(g9
g1516
tp2662
g1
(g15
g3
NtRp2663
(dp2664
g18
F0.5
sg19
I23
sg20
g1
(g21
g22
(dp2665
NI23
stRp2666
(dp2667
g19
I23
sg26
Nsg27
Nsg28
Nsbsg29
I2
sg30
F24
sbs(S'Meaning'
g938
tp2668
g1
(g15
g3
NtRp2669
(dp2670
g18
F0.5
sg19
I62
sg20
g1
(g21
g22
(dp2671
I01
I1
sNI61
stRp2672
(dp2673
g19
I62
sg26
Nsg27
Nsg28
Nsbsg29
I2
sg30
F63
sbs(g10
g1986
tp2674
g1
(g15
g3
NtRp2675
(dp2676
g18
F0.5
sg19
I18
sg20
g1
(g21
g22
(dp2677
NI18
stRp2678
(dp2679
g19
I18
sg26
Nsg27
Nsg28
Nsbsg29
I2
sg30
F19
sbs(S'Meaning'
g648
tp2680
g1
(g15
g3
NtRp2681
(dp2682
g18
F0.5
sg19
I62
sg20
g1
(g21
g22
(dp2683
I01
I1
sNI61
stRp2684
(dp2685
g19
I62
sg26
Nsg27
Nsg28
Nsbsg29
I2
sg30
F63
sbs(g9
g767
tp2686
g1
(g15
g3
NtRp2687
(dp2688
g18
F0.5
sg19
I23
sg20
g1
(g21
g22
(dp2689
NI23
stRp2690
(dp2691
g19
I23
sg26
Nsg27
Nsg28
Nsbsg29
I2
sg30
F24
sbs(g10
g840
tp2692
g1
(g15
g3
NtRp2693
(dp2694
g18
F0.5
sg19
I18
sg20
g1
(g21
g22
(dp2695
NI18
stRp2696
(dp2697
g19
I18
sg26
Nsg27
Nsg28
Nsbsg29
I2
sg30
F19
sbs(g10
g1459
tp2698
g1
(g15
g3
NtRp2699
(dp2700
g18
F0.5
sg19
I18
sg20
g1
(g21
g22
(dp2701
NI18
stRp2702
(dp2703
g19
I18
sg26
Nsg27
Nsg28
Nsbsg29
I2
sg30
F19
sbs(g9
g264
tp2704
g1
(g15
g3
NtRp2705
(dp2706
g18
F0.5
sg19
I23
sg20
g1
(g21
g22
(dp2707
NI23
stRp2708
(dp2709
g19
I23
sg26
Nsg27
Nsg28
Nsbsg29
I2
sg30
F24
sbs(g9
g1606
tp2710
g1
(g15
g3
NtRp2711
(dp2712
g18
F0.5
sg19
I23
sg20
g1
(g21
g22
(dp2713
NI23
stRp2714
(dp2715
g19
I23
sg26
Nsg27
Nsg28
Nsbsg29
I2
sg30
F24
sbs(g10
g655
tp2716
g1
(g15
g3
NtRp2717
(dp2718
g18
F0.5
sg19
I18
sg20
g1
(g21
g22
(dp2719
NI18
stRp2720
(dp2721
g19
I18
sg26
Nsg27
Nsg28
Nsbsg29
I2
sg30
F19
sbs(g8
g2111
tp2722
g1
(g15
g3
NtRp2723
(dp2724
g18
F0.5
sg19
I62
sg20
g1
(g21
g22
(dp2725
NI62
stRp2726
(dp2727
g19
I62
sg26
Nsg27
Nsg28
Nsbsg29
I2
sg30
F63
sbs(g10
S'contains(of)'
tp2728
g1
(g15
g3
NtRp2729
(dp2730
g18
F0.5
sg19
I18
sg20
g1
(g21
g22
(dp2731
I01
I4
sNI14
stRp2732
(dp2733
g19
I18
sg26
Nsg27
Nsg28
Nsbsg29
I2
sg30
F19
sbs(g1730
g1496
tp2734
g1
(g15
g3
NtRp2735
(dp2736
g18
F0.5
sg19
I62
sg20
g1
(g21
g22
(dp2737
I01
I1
sNI61
stRp2738
(dp2739
g19
I62
sg26
Nsg27
Nsg28
Nsbsg29
I2
sg30
F63
sbs(g10
g1675
tp2740
g1
(g15
g3
NtRp2741
(dp2742
g18
F0.5
sg19
I18
sg20
g1
(g21
g22
(dp2743
I01
I1
sNI17
stRp2744
(dp2745
g19
I18
sg26
Nsg27
Nsg28
Nsbsg29
I2
sg30
F19
sbs(g10
g2111
tp2746
g1
(g15
g3
NtRp2747
(dp2748
g18
F0.5
sg19
I18
sg20
g1
(g21
g22
(dp2749
NI18
stRp2750
(dp2751
g19
I18
sg26
Nsg27
Nsg28
Nsbsg29
I2
sg30
F19
sbs(S'Composition'
g1374
tp2752
g1
(g15
g3
NtRp2753
(dp2754
g18
F0.5
sg19
I23
sg20
g1
(g21
g22
(dp2755
I01
I1
sNI22
stRp2756
(dp2757
g19
I23
sg26
Nsg27
Nsg28
Nsbsg29
I2
sg30
F24
sbs(S'Meaning'
p2758
g131
tp2759
g1
(g15
g3
NtRp2760
(dp2761
g18
F0.5
sg19
I62
sg20
g1
(g21
g22
(dp2762
I01
I1
sNI61
stRp2763
(dp2764
g19
I62
sg26
Nsg27
Nsg28
Nsbsg29
I2
sg30
F63
sbs(g9
g747
tp2765
g1
(g15
g3
NtRp2766
(dp2767
g18
F0.5
sg19
I23
sg20
g1
(g21
g22
(dp2768
NI23
stRp2769
(dp2770
g19
I23
sg26
Nsg27
Nsg28
Nsbsg29
I2
sg30
F24
sbs(S'Meaning'
g328
tp2771
g1
(g15
g3
NtRp2772
(dp2773
g18
F0.5
sg19
I62
sg20
g1
(g21
g22
(dp2774
I01
I1
sNI61
stRp2775
(dp2776
g19
I62
sg26
Nsg27
Nsg28
Nsbsg29
I2
sg30
F63
sbs(g2758
g110
tp2777
g1
(g15
g3
NtRp2778
(dp2779
g18
F0.5
sg19
I62
sg20
g1
(g21
g22
(dp2780
I01
I1
sNI61
stRp2781
(dp2782
g19
I62
sg26
Nsg27
Nsg28
Nsbsg29
I2
sg30
F63
sbs(g313
g1054
tp2783
g1
(g15
g3
NtRp2784
(dp2785
g18
F0.5
sg19
I18
sg20
g1
(g21
g22
(dp2786
I01
I1
sNI17
stRp2787
(dp2788
g19
I18
sg26
Nsg27
Nsg28
Nsbsg29
I2
sg30
F19
sbs(g2262
g2074
tp2789
g1
(g15
g3
NtRp2790
(dp2791
g18
F0.5
sg19
I62
sg20
g1
(g21
g22
(dp2792
I01
I1
sNI61
stRp2793
(dp2794
g19
I62
sg26
Nsg27
Nsg28
Nsbsg29
I2
sg30
F63
sbs(g9
g2067
tp2795
g1
(g15
g3
NtRp2796
(dp2797
g18
F0.5
sg19
I23
sg20
g1
(g21
g22
(dp2798
NI23
stRp2799
(dp2800
g19
I23
sg26
Nsg27
Nsg28
Nsbsg29
I2
sg30
F24
sbs(g9
g1675
tp2801
g1
(g15
g3
NtRp2802
(dp2803
g18
F0.5
sg19
I23
sg20
g1
(g21
g22
(dp2804
NI23
stRp2805
(dp2806
g19
I23
sg26
Nsg27
Nsg28
Nsbsg29
I2
sg30
F24
sbs(g1799
g157
tp2807
g1
(g15
g3
NtRp2808
(dp2809
g18
F0.5
sg19
I62
sg20
g1
(g21
g22
(dp2810
I01
I6
sNI56
stRp2811
(dp2812
g19
I62
sg26
Nsg27
Nsg28
Nsbsg29
I2
sg30
F63
sbs(g10
g199
tp2813
g1
(g15
g3
NtRp2814
(dp2815
g18
F0.5
sg19
I18
sg20
g1
(g21
g22
(dp2816
NI18
stRp2817
(dp2818
g19
I18
sg26
Nsg27
Nsg28
Nsbsg29
I2
sg30
F19
sbs(g9
g1893
tp2819
g1
(g15
g3
NtRp2820
(dp2821
g18
F0.5
sg19
I23
sg20
g1
(g21
g22
(dp2822
I01
I23
stRp2823
(dp2824
g19
I23
sg26
Nsg27
Nsg28
Nsbsg29
I2
sg30
F24
sbs(S'Meaning'
g1035
tp2825
g1
(g15
g3
NtRp2826
(dp2827
g18
F0.5
sg19
I62
sg20
g1
(g21
g22
(dp2828
I01
I1
sNI61
stRp2829
(dp2830
g19
I62
sg26
Nsg27
Nsg28
Nsbsg29
I2
sg30
F63
sbs(g8
g867
tp2831
g1
(g15
g3
NtRp2832
(dp2833
g18
F0.5
sg19
I62
sg20
g1
(g21
g22
(dp2834
NI62
stRp2835
(dp2836
g19
I62
sg26
Nsg27
Nsg28
Nsbsg29
I2
sg30
F63
sbs(g10
g1574
tp2837
g1
(g15
g3
NtRp2838
(dp2839
g18
F0.5
sg19
I18
sg20
g1
(g21
g22
(dp2840
NI18
stRp2841
(dp2842
g19
I18
sg26
Nsg27
Nsg28
Nsbsg29
I2
sg30
F19
sbs(g9
g712
tp2843
g1
(g15
g3
NtRp2844
(dp2845
g18
F0.5
sg19
I23
sg20
g1
(g21
g22
(dp2846
NI23
stRp2847
(dp2848
g19
I23
sg26
Nsg27
Nsg28
Nsbsg29
I2
sg30
F24
sbs(g9
g1054
tp2849
g1
(g15
g3
NtRp2850
(dp2851
g18
F0.5
sg19
I23
sg20
g1
(g21
g22
(dp2852
NI23
stRp2853
(dp2854
g19
I23
sg26
Nsg27
Nsg28
Nsbsg29
I2
sg30
F24
sbs(g10
g747
tp2855
g1
(g15
g3
NtRp2856
(dp2857
g18
F0.5
sg19
I18
sg20
g1
(g21
g22
(dp2858
NI18
stRp2859
(dp2860
g19
I18
sg26
Nsg27
Nsg28
Nsbsg29
I2
sg30
F19
sbs(g9
g684
tp2861
g1
(g15
g3
NtRp2862
(dp2863
g18
F0.5
sg19
I23
sg20
g1
(g21
g22
(dp2864
NI23
stRp2865
(dp2866
g19
I23
sg26
Nsg27
Nsg28
Nsbsg29
I2
sg30
F24
sbs(S'Composition'
g1999
tp2867
g1
(g15
g3
NtRp2868
(dp2869
g18
F0.5
sg19
I23
sg20
g1
(g21
g22
(dp2870
I01
I1
sNI22
stRp2871
(dp2872
g19
I23
sg26
Nsg27
Nsg28
Nsbsg29
I2
sg30
F24
sbs(g10
g648
tp2873
g1
(g15
g3
NtRp2874
(dp2875
g18
F0.5
sg19
I18
sg20
g1
(g21
g22
(dp2876
NI18
stRp2877
(dp2878
g19
I18
sg26
Nsg27
Nsg28
Nsbsg29
I2
sg30
F19
sbs(g9
g577
tp2879
g1
(g15
g3
NtRp2880
(dp2881
g18
F0.5
sg19
I23
sg20
g1
(g21
g22
(dp2882
NI23
stRp2883
(dp2884
g19
I23
sg26
Nsg27
Nsg28
Nsbsg29
I2
sg30
F24
sbs(g9
g1973
tp2885
g1
(g15
g3
NtRp2886
(dp2887
g18
F0.5
sg19
I23
sg20
g1
(g21
g22
(dp2888
NI23
stRp2889
(dp2890
g19
I23
sg26
Nsg27
Nsg28
Nsbsg29
I2
sg30
F24
sbs(g8
g1335
tp2891
g1
(g15
g3
NtRp2892
(dp2893
g18
F0.5
sg19
I62
sg20
g1
(g21
g22
(dp2894
NI62
stRp2895
(dp2896
g19
I62
sg26
Nsg27
Nsg28
Nsbsg29
I2
sg30
F63
sbs(S'Abbreviation'
g1243
tp2897
g1
(g15
g3
NtRp2898
(dp2899
g18
F0.5
sg19
I18
sg20
g1
(g21
g22
(dp2900
I01
I1
sNI17
stRp2901
(dp2902
g19
I18
sg26
Nsg27
Nsg28
Nsbsg29
I2
sg30
F19
sbs(g9
g874
tp2903
g1
(g15
g3
NtRp2904
(dp2905
g18
F0.5
sg19
I23
sg20
g1
(g21
g22
(dp2906
NI23
stRp2907
(dp2908
g19
I23
sg26
Nsg27
Nsg28
Nsbsg29
I2
sg30
F24
sbssS'_label_probdist'
p2909
g1
(g15
g3
NtRp2910
(dp2911
g18
F0.5
sg19
I103
sg20
g1
(g21
g22
(dp2912
g10
I18
sg8
I62
sg9
I23
stRp2913
(dp2914
g19
I103
sg26
Nsg27
(lp2915
(g8
I62
tp2916
a(g9
I23
tp2917
a(g10
I18
tp2918
asg28
Nsbsg29
I3
sg30
F104.5
sbsb.