ccopy_reg
_reconstructor
p1
(cnltk.classify.naivebayes
NaiveBayesClassifier
p2
c__builtin__
object
p3
NtRp4
(dp5
S'_labels'
p6
(lp7
S'Abbreviation'
p8
aS'Meaning'
p9
aS'Composition'
p10
asS'_feature_probdist'
p11
(dp12
(S'Composition'
S'contains(batteries)'
p13
tp14
g1
(cnltk.probability
ELEProbDist
p15
g3
NtRp16
(dp17
S'_gamma'
p18
F0.5
sS'_N'
p19
I32
sS'_freqdist'
p20
cnltk.probability
FreqDist
p21
((dp22
NI31
sI01
I1
stRp23
sS'_bins'
p24
I2
sS'_divisor'
p25
F33
sbs(g9
S'contains(db)'
p26
tp27
g1
(g15
g3
NtRp28
(dp29
g18
F0.5
sg19
I92
sg20
g21
((dp30
NI92
stRp31
sg24
I2
sg25
F93
sbs(S'Composition'
S'contains(snake)'
p32
tp33
g1
(g15
g3
NtRp34
(dp35
g18
F0.5
sg19
I32
sg20
g21
((dp36
NI31
sI01
I1
stRp37
sg24
I2
sg25
F33
sbs(S'Meaning'
p38
S'contains(are)'
tp39
g1
(g15
g3
NtRp40
(dp41
g18
F0.5
sg19
I92
sg20
g21
((dp42
NI83
sI01
I9
stRp43
sg24
I2
sg25
F93
sbs(S'Meaning'
S'contains(ground)'
p44
tp45
g1
(g15
g3
NtRp46
(dp47
g18
F0.5
sg19
I92
sg20
g21
((dp48
NI91
sI01
I1
stRp49
sg24
I2
sg25
F93
sbs(g10
S'contains(dogs)'
p50
tp51
g1
(g15
g3
NtRp52
(dp53
g18
F0.5
sg19
I32
sg20
g21
((dp54
NI32
stRp55
sg24
I2
sg25
F33
sbs(S'Composition'
S'contains(buses)'
p56
tp57
g1
(g15
g3
NtRp58
(dp59
g18
F0.5
sg19
I32
sg20
g21
((dp60
NI30
sI01
I2
stRp61
sg24
I2
sg25
F33
sbs(S'Meaning'
S'contains(joker)'
p62
tp63
g1
(g15
g3
NtRp64
(dp65
g18
F0.5
sg19
I92
sg20
g21
((dp66
NI91
sI01
I1
stRp67
sg24
I2
sg25
F93
sbs(g8
S'contains(lockers)'
p68
tp69
g1
(g15
g3
NtRp70
(dp71
g18
F0.5
sg19
I51
sg20
g21
((dp72
NI51
stRp73
sg24
I2
sg25
F52
sbs(S'Abbreviation'
S'contains(ip)'
p74
tp75
g1
(g15
g3
NtRp76
(dp77
g18
F0.5
sg19
I51
sg20
g21
((dp78
NI50
sI01
I1
stRp79
sg24
I2
sg25
F52
sbs(g9
S'contains(aids)'
p80
tp81
g1
(g15
g3
NtRp82
(dp83
g18
F0.5
sg19
I92
sg20
g21
((dp84
NI92
stRp85
sg24
I2
sg25
F93
sbs(S'Abbreviation'
p86
S'contains(motors)'
p87
tp88
g1
(g15
g3
NtRp89
(dp90
g18
F0.5
sg19
I51
sg20
g21
((dp91
NI50
sI01
I1
stRp92
sg24
I2
sg25
F52
sbs(S'Composition'
p93
S'contains(a)'
tp94
g1
(g15
g3
NtRp95
(dp96
g18
F0.5
sg19
I32
sg20
g21
((dp97
NI25
sI01
I7
stRp98
sg24
I2
sg25
F33
sbs(g10
S'contains(stand)'
p99
tp100
g1
(g15
g3
NtRp101
(dp102
g18
F0.5
sg19
I32
sg20
g21
((dp103
NI32
stRp104
sg24
I2
sg25
F33
sbs(g8
S'contains(broke)'
p105
tp106
g1
(g15
g3
NtRp107
(dp108
g18
F0.5
sg19
I51
sg20
g21
((dp109
NI51
stRp110
sg24
I2
sg25
F52
sbs(S'Meaning'
S'contains(paper)'
tp111
g1
(g15
g3
NtRp112
(dp113
g18
F0.5
sg19
I92
sg20
g21
((dp114
NI91
sI01
I1
stRp115
sg24
I2
sg25
F93
sbs(g10
S'contains(fifo)'
p116
tp117
g1
(g15
g3
NtRp118
(dp119
g18
F0.5
sg19
I32
sg20
g21
((dp120
NI32
stRp121
sg24
I2
sg25
F33
sbs(g8
S'contains(bad)'
p122
tp123
g1
(g15
g3
NtRp124
(dp125
g18
F0.5
sg19
I51
sg20
g21
((dp126
NI51
stRp127
sg24
I2
sg25
F52
sbs(g10
g26
tp128
g1
(g15
g3
NtRp129
(dp130
g18
F0.5
sg19
I32
sg20
g21
((dp131
NI32
stRp132
sg24
I2
sg25
F33
sbs(g10
S'contains(war)'
p133
tp134
g1
(g15
g3
NtRp135
(dp136
g18
F0.5
sg19
I32
sg20
g21
((dp137
NI32
stRp138
sg24
I2
sg25
F33
sbs(g8
S'contains(ass)'
p139
tp140
g1
(g15
g3
NtRp141
(dp142
g18
F0.5
sg19
I51
sg20
g21
((dp143
NI51
stRp144
sg24
I2
sg25
F52
sbs(g8
S'contains(sun)'
p145
tp146
g1
(g15
g3
NtRp147
(dp148
g18
F0.5
sg19
I51
sg20
g21
((dp149
NI51
stRp150
sg24
I2
sg25
F52
sbs(S'Abbreviation'
S'contains(nsa)'
p151
tp152
g1
(g15
g3
NtRp153
(dp154
g18
F0.5
sg19
I51
sg20
g21
((dp155
NI50
sI01
I1
stRp156
sg24
I2
sg25
F52
sbs(g10
g44
tp157
g1
(g15
g3
NtRp158
(dp159
g18
F0.5
sg19
I32
sg20
g21
((dp160
NI32
stRp161
sg24
I2
sg25
F33
sbs(g10
S'contains(an)'
p162
tp163
g1
(g15
g3
NtRp164
(dp165
g18
F0.5
sg19
I32
sg20
g21
((dp166
NI32
stRp167
sg24
I2
sg25
F33
sbs(g8
S'contains(dunkin)'
p168
tp169
g1
(g15
g3
NtRp170
(dp171
g18
F0.5
sg19
I51
sg20
g21
((dp172
NI51
stRp173
sg24
I2
sg25
F52
sbs(S'Composition'
S'contains(plastic)'
p174
tp175
g1
(g15
g3
NtRp176
(dp177
g18
F0.5
sg19
I32
sg20
g21
((dp178
NI31
sI01
I1
stRp179
sg24
I2
sg25
F33
sbs(S'Abbreviation'
S'contains(png)'
p180
tp181
g1
(g15
g3
NtRp182
(dp183
g18
F0.5
sg19
I51
sg20
g21
((dp184
NI50
sI01
I1
stRp185
sg24
I2
sg25
F52
sbs(S'Meaning'
S'contains(cars)'
p186
tp187
g1
(g15
g3
NtRp188
(dp189
g18
F0.5
sg19
I92
sg20
g21
((dp190
NI91
sI01
I1
stRp191
sg24
I2
sg25
F93
sbs(g8
S'contains(gratinate)'
p192
tp193
g1
(g15
g3
NtRp194
(dp195
g18
F0.5
sg19
I51
sg20
g21
((dp196
NI51
stRp197
sg24
I2
sg25
F52
sbs(g8
S'contains(donuts)'
p198
tp199
g1
(g15
g3
NtRp200
(dp201
g18
F0.5
sg19
I51
sg20
g21
((dp202
NI51
stRp203
sg24
I2
sg25
F52
sbs(S'Abbreviation'
S'contains(dl)'
p204
tp205
g1
(g15
g3
NtRp206
(dp207
g18
F0.5
sg19
I51
sg20
g21
((dp208
NI50
sI01
I1
stRp209
sg24
I2
sg25
F52
sbs(S'Meaning'
S'contains(asshole)'
p210
tp211
g1
(g15
g3
NtRp212
(dp213
g18
F0.5
sg19
I92
sg20
g21
((dp214
NI91
sI01
I1
stRp215
sg24
I2
sg25
F93
sbs(g9
S'contains(eenty)'
p216
tp217
g1
(g15
g3
NtRp218
(dp219
g18
F0.5
sg19
I92
sg20
g21
((dp220
NI92
stRp221
sg24
I2
sg25
F93
sbs(S'Composition'
p222
S'contains(my)'
p223
tp224
g1
(g15
g3
NtRp225
(dp226
g18
F0.5
sg19
I32
sg20
g21
((dp227
NI31
sI01
I1
stRp228
sg24
I2
sg25
F33
sbs(g10
S'contains(micro)'
p229
tp230
g1
(g15
g3
NtRp231
(dp232
g18
F0.5
sg19
I32
sg20
g21
((dp233
NI32
stRp234
sg24
I2
sg25
F33
sbs(S'Abbreviation'
p235
S'contains(m)'
p236
tp237
g1
(g15
g3
NtRp238
(dp239
g18
F0.5
sg19
I51
sg20
g21
((dp240
NI50
sI01
I1
stRp241
sg24
I2
sg25
F52
sbs(g10
S'contains(meaning)'
p242
tp243
g1
(g15
g3
NtRp244
(dp245
g18
F0.5
sg19
I32
sg20
g21
((dp246
NI32
stRp247
sg24
I2
sg25
F33
sbs(S'Composition'
S'contains(b)'
p248
tp249
g1
(g15
g3
NtRp250
(dp251
g18
F0.5
sg19
I32
sg20
g21
((dp252
NI31
sI01
I1
stRp253
sg24
I2
sg25
F33
sbs(S'Composition'
S'contains(bicycles)'
p254
tp255
g1
(g15
g3
NtRp256
(dp257
g18
F0.5
sg19
I32
sg20
g21
((dp258
NI31
sI01
I1
stRp259
sg24
I2
sg25
F33
sbs(g10
S'contains(doors)'
p260
tp261
g1
(g15
g3
NtRp262
(dp263
g18
F0.5
sg19
I32
sg20
g21
((dp264
NI31
sI01
I1
stRp265
sg24
I2
sg25
F33
sbs(S'Meaning'
S'contains(rock)'
p266
tp267
g1
(g15
g3
NtRp268
(dp269
g18
F0.5
sg19
I92
sg20
g21
((dp270
NI91
sI01
I1
stRp271
sg24
I2
sg25
F93
sbs(g10
g186
tp272
g1
(g15
g3
NtRp273
(dp274
g18
F0.5
sg19
I32
sg20
g21
((dp275
NI32
stRp276
sg24
I2
sg25
F33
sbs(g10
S'contains(for)'
p277
tp278
g1
(g15
g3
NtRp279
(dp280
g18
F0.5
sg19
I32
sg20
g21
((dp281
NI32
stRp282
sg24
I2
sg25
F33
sbs(g8
S'contains(purse)'
p283
tp284
g1
(g15
g3
NtRp285
(dp286
g18
F0.5
sg19
I51
sg20
g21
((dp287
NI51
stRp288
sg24
I2
sg25
F52
sbs(S'Abbreviation'
p289
S'contains(word)'
tp290
g1
(g15
g3
NtRp291
(dp292
g18
F0.5
sg19
I51
sg20
g21
((dp293
NI49
sI01
I2
stRp294
sg24
I2
sg25
F52
sbs(S'Abbreviation'
p295
S'contains(cross)'
p296
tp297
g1
(g15
g3
NtRp298
(dp299
g18
F0.5
sg19
I51
sg20
g21
((dp300
NI50
sI01
I1
stRp301
sg24
I2
sg25
F52
sbs(g10
S'contains(girl)'
p302
tp303
g1
(g15
g3
NtRp304
(dp305
g18
F0.5
sg19
I32
sg20
g21
((dp306
NI32
stRp307
sg24
I2
sg25
F33
sbs(g10
S'contains(clarity)'
p308
tp309
g1
(g15
g3
NtRp310
(dp311
g18
F0.5
sg19
I32
sg20
g21
((dp312
NI32
stRp313
sg24
I2
sg25
F33
sbs(S'Abbreviation'
p314
S'contains(surnames)'
p315
tp316
g1
(g15
g3
NtRp317
(dp318
g18
F0.5
sg19
I51
sg20
g21
((dp319
NI50
sI01
I1
stRp320
sg24
I2
sg25
F52
sbs(g9
S'contains(abbreviated)'
p321
tp322
g1
(g15
g3
NtRp323
(dp324
g18
F0.5
sg19
I92
sg20
g21
((dp325
NI92
stRp326
sg24
I2
sg25
F93
sbs(g8
S'contains(street)'
p327
tp328
g1
(g15
g3
NtRp329
(dp330
g18
F0.5
sg19
I51
sg20
g21
((dp331
NI51
stRp332
sg24
I2
sg25
F52
sbs(g8
S'contains(hog)'
p333
tp334
g1
(g15
g3
NtRp335
(dp336
g18
F0.5
sg19
I51
sg20
g21
((dp337
NI51
stRp338
sg24
I2
sg25
F52
sbs(S'Abbreviation'
S'contains(sids)'
p339
tp340
g1
(g15
g3
NtRp341
(dp342
g18
F0.5
sg19
I51
sg20
g21
((dp343
NI50
sI01
I1
stRp344
sg24
I2
sg25
F52
sbs(g8
S'contains(is)'
tp345
g1
(g15
g3
NtRp346
(dp347
g18
F0.5
sg19
I51
sg20
g21
((dp348
NI27
sI01
I24
stRp349
sg24
I2
sg25
F52
sbs(g8
g308
tp350
g1
(g15
g3
NtRp351
(dp352
g18
F0.5
sg19
I51
sg20
g21
((dp353
NI51
stRp354
sg24
I2
sg25
F52
sbs(g9
g277
tp355
g1
(g15
g3
NtRp356
(dp357
g18
F0.5
sg19
I92
sg20
g21
((dp358
NI92
stRp359
sg24
I2
sg25
F93
sbs(g8
S'contains(planets)'
p360
tp361
g1
(g15
g3
NtRp362
(dp363
g18
F0.5
sg19
I51
sg20
g21
((dp364
NI51
stRp365
sg24
I2
sg25
F52
sbs(g8
g186
tp366
g1
(g15
g3
NtRp367
(dp368
g18
F0.5
sg19
I51
sg20
g21
((dp369
NI51
stRp370
sg24
I2
sg25
F52
sbs(S'Meaning'
S'contains(chicken)'
p371
tp372
g1
(g15
g3
NtRp373
(dp374
g18
F0.5
sg19
I92
sg20
g21
((dp375
NI91
sI01
I1
stRp376
sg24
I2
sg25
F93
sbs(g10
S'contains(stupid)'
p377
tp378
g1
(g15
g3
NtRp379
(dp380
g18
F0.5
sg19
I32
sg20
g21
((dp381
NI32
stRp382
sg24
I2
sg25
F33
sbs(S'Meaning'
S'contains(player)'
p383
tp384
g1
(g15
g3
NtRp385
(dp386
g18
F0.5
sg19
I92
sg20
g21
((dp387
NI91
sI01
I1
stRp388
sg24
I2
sg25
F93
sbs(g10
S'contains(in)'
p389
tp390
g1
(g15
g3
NtRp391
(dp392
g18
F0.5
sg19
I32
sg20
g21
((dp393
NI32
stRp394
sg24
I2
sg25
F33
sbs(g9
S'contains(dsn)'
p395
tp396
g1
(g15
g3
NtRp397
(dp398
g18
F0.5
sg19
I92
sg20
g21
((dp399
NI92
stRp400
sg24
I2
sg25
F93
sbs(g10
S'contains(4g)'
p401
tp402
g1
(g15
g3
NtRp403
(dp404
g18
F0.5
sg19
I32
sg20
g21
((dp405
NI32
stRp406
sg24
I2
sg25
F33
sbs(g10
g315
tp407
g1
(g15
g3
NtRp408
(dp409
g18
F0.5
sg19
I32
sg20
g21
((dp410
NI32
stRp411
sg24
I2
sg25
F33
sbs(S'Meaning'
S'contains(eye)'
p412
tp413
g1
(g15
g3
NtRp414
(dp415
g18
F0.5
sg19
I92
sg20
g21
((dp416
NI91
sI01
I1
stRp417
sg24
I2
sg25
F93
sbs(g8
g248
tp418
g1
(g15
g3
NtRp419
(dp420
g18
F0.5
sg19
I51
sg20
g21
((dp421
NI51
stRp422
sg24
I2
sg25
F52
sbs(g9
S'contains(full)'
p423
tp424
g1
(g15
g3
NtRp425
(dp426
g18
F0.5
sg19
I92
sg20
g21
((dp427
NI92
stRp428
sg24
I2
sg25
F93
sbs(g9
S'contains(mouse)'
p429
tp430
g1
(g15
g3
NtRp431
(dp432
g18
F0.5
sg19
I92
sg20
g21
((dp433
NI92
stRp434
sg24
I2
sg25
F93
sbs(g9
S'contains(cloud)'
p435
tp436
g1
(g15
g3
NtRp437
(dp438
g18
F0.5
sg19
I92
sg20
g21
((dp439
NI92
stRp440
sg24
I2
sg25
F93
sbs(g9
S'contains(locks)'
p441
tp442
g1
(g15
g3
NtRp443
(dp444
g18
F0.5
sg19
I92
sg20
g21
((dp445
NI92
stRp446
sg24
I2
sg25
F93
sbs(g8
S'contains(window)'
p447
tp448
g1
(g15
g3
NtRp449
(dp450
g18
F0.5
sg19
I51
sg20
g21
((dp451
NI51
stRp452
sg24
I2
sg25
F52
sbs(g9
S'contains(investigation)'
p453
tp454
g1
(g15
g3
NtRp455
(dp456
g18
F0.5
sg19
I92
sg20
g21
((dp457
NI92
stRp458
sg24
I2
sg25
F93
sbs(g8
S'contains(chairs)'
p459
tp460
g1
(g15
g3
NtRp461
(dp462
g18
F0.5
sg19
I51
sg20
g21
((dp463
NI51
stRp464
sg24
I2
sg25
F52
sbs(g10
S'contains(animal)'
p465
tp466
g1
(g15
g3
NtRp467
(dp468
g18
F0.5
sg19
I32
sg20
g21
((dp469
NI32
stRp470
sg24
I2
sg25
F33
sbs(g9
g389
tp471
g1
(g15
g3
NtRp472
(dp473
g18
F0.5
sg19
I92
sg20
g21
((dp474
NI92
stRp475
sg24
I2
sg25
F93
sbs(g9
S'contains(nasdaq)'
p476
tp477
g1
(g15
g3
NtRp478
(dp479
g18
F0.5
sg19
I92
sg20
g21
((dp480
NI92
stRp481
sg24
I2
sg25
F93
sbs(g9
S'contains(chap)'
p482
tp483
g1
(g15
g3
NtRp484
(dp485
g18
F0.5
sg19
I92
sg20
g21
((dp486
NI92
stRp487
sg24
I2
sg25
F93
sbs(g8
g44
tp488
g1
(g15
g3
NtRp489
(dp490
g18
F0.5
sg19
I51
sg20
g21
((dp491
NI51
stRp492
sg24
I2
sg25
F52
sbs(g10
g412
tp493
g1
(g15
g3
NtRp494
(dp495
g18
F0.5
sg19
I32
sg20
g21
((dp496
NI32
stRp497
sg24
I2
sg25
F33
sbs(g8
S'contains(cards)'
p498
tp499
g1
(g15
g3
NtRp500
(dp501
g18
F0.5
sg19
I51
sg20
g21
((dp502
NI51
stRp503
sg24
I2
sg25
F52
sbs(S'Meaning'
S'contains(inflamable)'
p504
tp505
g1
(g15
g3
NtRp506
(dp507
g18
F0.5
sg19
I92
sg20
g21
((dp508
NI91
sI01
I1
stRp509
sg24
I2
sg25
F93
sbs(g10
S'contains(witchery)'
p510
tp511
g1
(g15
g3
NtRp512
(dp513
g18
F0.5
sg19
I32
sg20
g21
((dp514
NI32
stRp515
sg24
I2
sg25
F33
sbs(g10
S'contains(esa)'
p516
tp517
g1
(g15
g3
NtRp518
(dp519
g18
F0.5
sg19
I32
sg20
g21
((dp520
NI32
stRp521
sg24
I2
sg25
F33
sbs(S'Abbreviation'
S'contains(bph)'
p522
tp523
g1
(g15
g3
NtRp524
(dp525
g18
F0.5
sg19
I51
sg20
g21
((dp526
NI50
sI01
I1
stRp527
sg24
I2
sg25
F52
sbs(g10
S'contains(mean)'
p528
tp529
g1
(g15
g3
NtRp530
(dp531
g18
F0.5
sg19
I32
sg20
g21
((dp532
NI32
stRp533
sg24
I2
sg25
F33
sbs(g9
S'contains(ctl)'
p534
tp535
g1
(g15
g3
NtRp536
(dp537
g18
F0.5
sg19
I92
sg20
g21
((dp538
NI92
stRp539
sg24
I2
sg25
F93
sbs(S'Composition'
S'contains(tapes)'
p540
tp541
g1
(g15
g3
NtRp542
(dp543
g18
F0.5
sg19
I32
sg20
g21
((dp544
NI31
sI01
I1
stRp545
sg24
I2
sg25
F33
sbs(S'Abbreviation'
p546
S'contains(national)'
p547
tp548
g1
(g15
g3
NtRp549
(dp550
g18
F0.5
sg19
I51
sg20
g21
((dp551
NI50
sI01
I1
stRp552
sg24
I2
sg25
F52
sbs(S'Composition'
g68
tp553
g1
(g15
g3
NtRp554
(dp555
g18
F0.5
sg19
I32
sg20
g21
((dp556
NI31
sI01
I1
stRp557
sg24
I2
sg25
F33
sbs(g10
S'contains(selfish)'
p558
tp559
g1
(g15
g3
NtRp560
(dp561
g18
F0.5
sg19
I32
sg20
g21
((dp562
NI32
stRp563
sg24
I2
sg25
F33
sbs(S'Composition'
p564
S'contains(the)'
tp565
g1
(g15
g3
NtRp566
(dp567
g18
F0.5
sg19
I32
sg20
g21
((dp568
NI26
sI01
I6
stRp569
sg24
I2
sg25
F33
sbs(S'Meaning'
S'contains(ear)'
p570
tp571
g1
(g15
g3
NtRp572
(dp573
g18
F0.5
sg19
I92
sg20
g21
((dp574
NI91
sI01
I1
stRp575
sg24
I2
sg25
F93
sbs(S'Composition'
S'contains(metal)'
p576
tp577
g1
(g15
g3
NtRp578
(dp579
g18
F0.5
sg19
I32
sg20
g21
((dp580
NI31
sI01
I1
stRp581
sg24
I2
sg25
F33
sbs(g8
g13
tp582
g1
(g15
g3
NtRp583
(dp584
g18
F0.5
sg19
I51
sg20
g21
((dp585
NI51
stRp586
sg24
I2
sg25
F52
sbs(g10
S'contains(does)'
p587
tp588
g1
(g15
g3
NtRp589
(dp590
g18
F0.5
sg19
I32
sg20
g21
((dp591
NI32
stRp592
sg24
I2
sg25
F33
sbs(g8
S'contains(wtf)'
p593
tp594
g1
(g15
g3
NtRp595
(dp596
g18
F0.5
sg19
I51
sg20
g21
((dp597
NI51
stRp598
sg24
I2
sg25
F52
sbs(g9
S'contains(g)'
p599
tp600
g1
(g15
g3
NtRp601
(dp602
g18
F0.5
sg19
I92
sg20
g21
((dp603
NI92
stRp604
sg24
I2
sg25
F93
sbs(g8
S'contains(juice)'
p605
tp606
g1
(g15
g3
NtRp607
(dp608
g18
F0.5
sg19
I51
sg20
g21
((dp609
NI51
stRp610
sg24
I2
sg25
F52
sbs(g10
g371
tp611
g1
(g15
g3
NtRp612
(dp613
g18
F0.5
sg19
I32
sg20
g21
((dp614
NI32
stRp615
sg24
I2
sg25
F33
sbs(S'Abbreviation'
p616
g99
tp617
g1
(g15
g3
NtRp618
(dp619
g18
F0.5
sg19
I51
sg20
g21
((dp620
NI25
sI01
I26
stRp621
sg24
I2
sg25
F52
sbs(g10
S'contains(happy)'
p622
tp623
g1
(g15
g3
NtRp624
(dp625
g18
F0.5
sg19
I32
sg20
g21
((dp626
NI32
stRp627
sg24
I2
sg25
F33
sbs(S'Meaning'
S'contains(pride)'
p628
tp629
g1
(g15
g3
NtRp630
(dp631
g18
F0.5
sg19
I92
sg20
g21
((dp632
NI91
sI01
I1
stRp633
sg24
I2
sg25
F93
sbs(S'Meaning'
S'contains(heater)'
p634
tp635
g1
(g15
g3
NtRp636
(dp637
g18
F0.5
sg19
I92
sg20
g21
((dp638
NI91
sI01
I1
stRp639
sg24
I2
sg25
F93
sbs(g9
g56
tp640
g1
(g15
g3
NtRp641
(dp642
g18
F0.5
sg19
I92
sg20
g21
((dp643
NI92
stRp644
sg24
I2
sg25
F93
sbs(g8
S'contains(plug)'
p645
tp646
g1
(g15
g3
NtRp647
(dp648
g18
F0.5
sg19
I51
sg20
g21
((dp649
NI51
stRp650
sg24
I2
sg25
F52
sbs(g8
S'contains(milk)'
p651
tp652
g1
(g15
g3
NtRp653
(dp654
g18
F0.5
sg19
I51
sg20
g21
((dp655
NI51
stRp656
sg24
I2
sg25
F52
sbs(g9
S'contains(?)'
tp657
g1
(g15
g3
NtRp658
(dp659
g18
F0.5
sg19
I92
sg20
g21
((dp660
I01
I92
stRp661
sg24
I1
sg25
F92.5
sbs(S'Abbreviation'
g476
tp662
g1
(g15
g3
NtRp663
(dp664
g18
F0.5
sg19
I51
sg20
g21
((dp665
NI50
sI01
I1
stRp666
sg24
I2
sg25
F52
sbs(g10
g216
tp667
g1
(g15
g3
NtRp668
(dp669
g18
F0.5
sg19
I32
sg20
g21
((dp670
NI32
stRp671
sg24
I2
sg25
F33
sbs(g9
S'contains(9d)'
p672
tp673
g1
(g15
g3
NtRp674
(dp675
g18
F0.5
sg19
I92
sg20
g21
((dp676
NI92
stRp677
sg24
I2
sg25
F93
sbs(S'Abbreviation'
S'contains(jpg)'
p678
tp679
g1
(g15
g3
NtRp680
(dp681
g18
F0.5
sg19
I51
sg20
g21
((dp682
NI50
sI01
I1
stRp683
sg24
I2
sg25
F52
sbs(S'Abbreviation'
g672
tp684
g1
(g15
g3
NtRp685
(dp686
g18
F0.5
sg19
I51
sg20
g21
((dp687
NI50
sI01
I1
stRp688
sg24
I2
sg25
F52
sbs(S'Abbreviation'
S'contains(dvr)'
p689
tp690
g1
(g15
g3
NtRp691
(dp692
g18
F0.5
sg19
I51
sg20
g21
((dp693
NI50
sI01
I1
stRp694
sg24
I2
sg25
F52
sbs(S'Composition'
g441
tp695
g1
(g15
g3
NtRp696
(dp697
g18
F0.5
sg19
I32
sg20
g21
((dp698
NI31
sI01
I1
stRp699
sg24
I2
sg25
F33
sbs(g10
S'contains(bribery)'
p700
tp701
g1
(g15
g3
NtRp702
(dp703
g18
F0.5
sg19
I32
sg20
g21
((dp704
NI32
stRp705
sg24
I2
sg25
F33
sbs(S'Meaning'
p706
S'contains(of)'
tp707
g1
(g15
g3
NtRp708
(dp709
g18
F0.5
sg19
I92
sg20
g21
((dp710
NI64
sI01
I28
stRp711
sg24
I2
sg25
F93
sbs(g9
g87
tp712
g1
(g15
g3
NtRp713
(dp714
g18
F0.5
sg19
I92
sg20
g21
((dp715
NI92
stRp716
sg24
I2
sg25
F93
sbs(S'Meaning'
g465
tp717
g1
(g15
g3
NtRp718
(dp719
g18
F0.5
sg19
I92
sg20
g21
((dp720
NI91
sI01
I1
stRp721
sg24
I2
sg25
F93
sbs(g10
S'contains(abbreviation)'
p722
tp723
g1
(g15
g3
NtRp724
(dp725
g18
F0.5
sg19
I32
sg20
g21
((dp726
NI32
stRp727
sg24
I2
sg25
F33
sbs(g10
S'contains(mad)'
p728
tp729
g1
(g15
g3
NtRp730
(dp731
g18
F0.5
sg19
I32
sg20
g21
((dp732
NI32
stRp733
sg24
I2
sg25
F33
sbs(S'Meaning'
S'contains(thief)'
p734
tp735
g1
(g15
g3
NtRp736
(dp737
g18
F0.5
sg19
I92
sg20
g21
((dp738
NI91
sI01
I1
stRp739
sg24
I2
sg25
F93
sbs(g10
S'contains(duck)'
p740
tp741
g1
(g15
g3
NtRp742
(dp743
g18
F0.5
sg19
I32
sg20
g21
((dp744
NI32
stRp745
sg24
I2
sg25
F33
sbs(g10
S'contains(slut)'
p746
tp747
g1
(g15
g3
NtRp748
(dp749
g18
F0.5
sg19
I32
sg20
g21
((dp750
NI32
stRp751
sg24
I2
sg25
F33
sbs(g8
S'contains(caution)'
p752
tp753
g1
(g15
g3
NtRp754
(dp755
g18
F0.5
sg19
I51
sg20
g21
((dp756
NI51
stRp757
sg24
I2
sg25
F52
sbs(S'Abbreviation'
p758
S'contains(classified)'
p759
tp760
g1
(g15
g3
NtRp761
(dp762
g18
F0.5
sg19
I51
sg20
g21
((dp763
NI50
sI01
I1
stRp764
sg24
I2
sg25
F52
sbs(g8
S'contains(bugs)'
p765
tp766
g1
(g15
g3
NtRp767
(dp768
g18
F0.5
sg19
I51
sg20
g21
((dp769
NI51
stRp770
sg24
I2
sg25
F52
sbs(S'Meaning'
S'contains(miscellaneous)'
p771
tp772
g1
(g15
g3
NtRp773
(dp774
g18
F0.5
sg19
I92
sg20
g21
((dp775
NI91
sI01
I1
stRp776
sg24
I2
sg25
F93
sbs(g9
g145
tp777
g1
(g15
g3
NtRp778
(dp779
g18
F0.5
sg19
I92
sg20
g21
((dp780
NI92
stRp781
sg24
I2
sg25
F93
sbs(g10
S'contains(starbucks)'
p782
tp783
g1
(g15
g3
NtRp784
(dp785
g18
F0.5
sg19
I32
sg20
g21
((dp786
NI32
stRp787
sg24
I2
sg25
F33
sbs(S'Abbreviation'
S'contains(dvi)'
p788
tp789
g1
(g15
g3
NtRp790
(dp791
g18
F0.5
sg19
I51
sg20
g21
((dp792
NI50
sI01
I1
stRp793
sg24
I2
sg25
F52
sbs(S'Abbreviation'
S'contains(html)'
p794
tp795
g1
(g15
g3
NtRp796
(dp797
g18
F0.5
sg19
I51
sg20
g21
((dp798
NI50
sI01
I1
stRp799
sg24
I2
sg25
F52
sbs(g8
S'contains(party)'
p800
tp801
g1
(g15
g3
NtRp802
(dp803
g18
F0.5
sg19
I51
sg20
g21
((dp804
NI51
stRp805
sg24
I2
sg25
F52
sbs(g546
S'contains(expression)'
p806
tp807
g1
(g15
g3
NtRp808
(dp809
g18
F0.5
sg19
I51
sg20
g21
((dp810
NI50
sI01
I1
stRp811
sg24
I2
sg25
F52
sbs(g10
S"contains(what's)"
p812
tp813
g1
(g15
g3
NtRp814
(dp815
g18
F0.5
sg19
I32
sg20
g21
((dp816
NI32
stRp817
sg24
I2
sg25
F33
sbs(g8
g740
tp818
g1
(g15
g3
NtRp819
(dp820
g18
F0.5
sg19
I51
sg20
g21
((dp821
NI51
stRp822
sg24
I2
sg25
F52
sbs(g10
S'contains(car)'
p823
tp824
g1
(g15
g3
NtRp825
(dp826
g18
F0.5
sg19
I32
sg20
g21
((dp827
NI32
stRp828
sg24
I2
sg25
F33
sbs(S'Composition'
g459
tp829
g1
(g15
g3
NtRp830
(dp831
g18
F0.5
sg19
I32
sg20
g21
((dp832
NI31
sI01
I1
stRp833
sg24
I2
sg25
F33
sbs(g10
S'contains(tragedy)'
p834
tp835
g1
(g15
g3
NtRp836
(dp837
g18
F0.5
sg19
I32
sg20
g21
((dp838
NI32
stRp839
sg24
I2
sg25
F33
sbs(S'Meaning'
p840
S'contains(clever)'
p841
tp842
g1
(g15
g3
NtRp843
(dp844
g18
F0.5
sg19
I92
sg20
g21
((dp845
NI91
sI01
I1
stRp846
sg24
I2
sg25
F93
sbs(S'Meaning'
S'contains(dauntless)'
p847
tp848
g1
(g15
g3
NtRp849
(dp850
g18
F0.5
sg19
I92
sg20
g21
((dp851
NI91
sI01
I1
stRp852
sg24
I2
sg25
F93
sbs(g10
g504
tp853
g1
(g15
g3
NtRp854
(dp855
g18
F0.5
sg19
I32
sg20
g21
((dp856
NI32
stRp857
sg24
I2
sg25
F33
sbs(S'Meaning'
S'contains(booger)'
p858
tp859
g1
(g15
g3
NtRp860
(dp861
g18
F0.5
sg19
I92
sg20
g21
((dp862
NI91
sI01
I1
stRp863
sg24
I2
sg25
F93
sbs(g314
S'contains(prefix)'
p864
tp865
g1
(g15
g3
NtRp866
(dp867
g18
F0.5
sg19
I51
sg20
g21
((dp868
NI50
sI01
I1
stRp869
sg24
I2
sg25
F52
sbs(g8
g812
tp870
g1
(g15
g3
NtRp871
(dp872
g18
F0.5
sg19
I51
sg20
g21
((dp873
NI51
stRp874
sg24
I2
sg25
F52
sbs(g8
S'contains(problematic)'
p875
tp876
g1
(g15
g3
NtRp877
(dp878
g18
F0.5
sg19
I51
sg20
g21
((dp879
NI51
stRp880
sg24
I2
sg25
F52
sbs(g9
S'contains(inri)'
p881
tp882
g1
(g15
g3
NtRp883
(dp884
g18
F0.5
sg19
I92
sg20
g21
((dp885
NI92
stRp886
sg24
I2
sg25
F93
sbs(g9
g401
tp887
g1
(g15
g3
NtRp888
(dp889
g18
F0.5
sg19
I92
sg20
g21
((dp890
NI92
stRp891
sg24
I2
sg25
F93
sbs(g10
S'contains(general)'
p892
tp893
g1
(g15
g3
NtRp894
(dp895
g18
F0.5
sg19
I32
sg20
g21
((dp896
NI32
stRp897
sg24
I2
sg25
F33
sbs(g8
g210
tp898
g1
(g15
g3
NtRp899
(dp900
g18
F0.5
sg19
I51
sg20
g21
((dp901
NI51
stRp902
sg24
I2
sg25
F52
sbs(g9
g516
tp903
g1
(g15
g3
NtRp904
(dp905
g18
F0.5
sg19
I92
sg20
g21
((dp906
NI92
stRp907
sg24
I2
sg25
F93
sbs(g546
g453
tp908
g1
(g15
g3
NtRp909
(dp910
g18
F0.5
sg19
I51
sg20
g21
((dp911
NI50
sI01
I1
stRp912
sg24
I2
sg25
F52
sbs(g10
g628
tp913
g1
(g15
g3
NtRp914
(dp915
g18
F0.5
sg19
I32
sg20
g21
((dp916
NI32
stRp917
sg24
I2
sg25
F33
sbs(g8
S'contains(plagiarism)'
p918
tp919
g1
(g15
g3
NtRp920
(dp921
g18
F0.5
sg19
I51
sg20
g21
((dp922
NI51
stRp923
sg24
I2
sg25
F52
sbs(g8
g441
tp924
g1
(g15
g3
NtRp925
(dp926
g18
F0.5
sg19
I51
sg20
g21
((dp927
NI51
stRp928
sg24
I2
sg25
F52
sbs(g295
S'contains(used)'
p929
tp930
g1
(g15
g3
NtRp931
(dp932
g18
F0.5
sg19
I51
sg20
g21
((dp933
NI49
sI01
I2
stRp934
sg24
I2
sg25
F52
sbs(g8
g423
tp935
g1
(g15
g3
NtRp936
(dp937
g18
F0.5
sg19
I51
sg20
g21
((dp938
NI37
sI01
I14
stRp939
sg24
I2
sg25
F52
sbs(g8
S'contains(bag)'
p940
tp941
g1
(g15
g3
NtRp942
(dp943
g18
F0.5
sg19
I51
sg20
g21
((dp944
NI51
stRp945
sg24
I2
sg25
F52
sbs(g8
S'contains(zapping)'
p946
tp947
g1
(g15
g3
NtRp948
(dp949
g18
F0.5
sg19
I51
sg20
g21
((dp950
NI51
stRp951
sg24
I2
sg25
F52
sbs(g9
g678
tp952
g1
(g15
g3
NtRp953
(dp954
g18
F0.5
sg19
I92
sg20
g21
((dp955
NI92
stRp956
sg24
I2
sg25
F93
sbs(g9
g759
tp957
g1
(g15
g3
NtRp958
(dp959
g18
F0.5
sg19
I92
sg20
g21
((dp960
NI92
stRp961
sg24
I2
sg25
F93
sbs(g10
S'contains(http)'
p962
tp963
g1
(g15
g3
NtRp964
(dp965
g18
F0.5
sg19
I32
sg20
g21
((dp966
NI32
stRp967
sg24
I2
sg25
F33
sbs(g10
S'contains(brain)'
p968
tp969
g1
(g15
g3
NtRp970
(dp971
g18
F0.5
sg19
I32
sg20
g21
((dp972
NI32
stRp973
sg24
I2
sg25
F33
sbs(g10
g881
tp974
g1
(g15
g3
NtRp975
(dp976
g18
F0.5
sg19
I32
sg20
g21
((dp977
NI32
stRp978
sg24
I2
sg25
F33
sbs(g8
S'contains(children)'
p979
tp980
g1
(g15
g3
NtRp981
(dp982
g18
F0.5
sg19
I51
sg20
g21
((dp983
NI51
stRp984
sg24
I2
sg25
F52
sbs(S'Meaning'
S'contains(candle)'
p985
tp986
g1
(g15
g3
NtRp987
(dp988
g18
F0.5
sg19
I92
sg20
g21
((dp989
NI91
sI01
I1
stRp990
sg24
I2
sg25
F93
sbs(S'Composition'
S'contains(beverage)'
p991
tp992
g1
(g15
g3
NtRp993
(dp994
g18
F0.5
sg19
I32
sg20
g21
((dp995
NI31
sI01
I1
stRp996
sg24
I2
sg25
F33
sbs(g10
S'contains(cpa)'
p997
tp998
g1
(g15
g3
NtRp999
(dp1000
g18
F0.5
sg19
I32
sg20
g21
((dp1001
NI32
stRp1002
sg24
I2
sg25
F33
sbs(g8
S'contains(your)'
p1003
tp1004
g1
(g15
g3
NtRp1005
(dp1006
g18
F0.5
sg19
I51
sg20
g21
((dp1007
NI51
stRp1008
sg24
I2
sg25
F52
sbs(g9
S'contains(fdma)'
p1009
tp1010
g1
(g15
g3
NtRp1011
(dp1012
g18
F0.5
sg19
I92
sg20
g21
((dp1013
NI92
stRp1014
sg24
I2
sg25
F93
sbs(S'Abbreviation'
S'contains(nafta)'
p1015
tp1016
g1
(g15
g3
NtRp1017
(dp1018
g18
F0.5
sg19
I51
sg20
g21
((dp1019
NI50
sI01
I1
stRp1020
sg24
I2
sg25
F52
sbs(S'Meaning'
p1021
S'contains(king)'
p1022
tp1023
g1
(g15
g3
NtRp1024
(dp1025
g18
F0.5
sg19
I92
sg20
g21
((dp1026
NI91
sI01
I1
stRp1027
sg24
I2
sg25
F93
sbs(g9
g722
tp1028
g1
(g15
g3
NtRp1029
(dp1030
g18
F0.5
sg19
I92
sg20
g21
((dp1031
NI92
stRp1032
sg24
I2
sg25
F93
sbs(S'Meaning'
g593
tp1033
g1
(g15
g3
NtRp1034
(dp1035
g18
F0.5
sg19
I92
sg20
g21
((dp1036
NI91
sI01
I1
stRp1037
sg24
I2
sg25
F93
sbs(g10
g210
tp1038
g1
(g15
g3
NtRp1039
(dp1040
g18
F0.5
sg19
I32
sg20
g21
((dp1041
NI32
stRp1042
sg24
I2
sg25
F33
sbs(g10
g534
tp1043
g1
(g15
g3
NtRp1044
(dp1045
g18
F0.5
sg19
I32
sg20
g21
((dp1046
NI32
stRp1047
sg24
I2
sg25
F33
sbs(g10
g151
tp1048
g1
(g15
g3
NtRp1049
(dp1050
g18
F0.5
sg19
I32
sg20
g21
((dp1051
NI32
stRp1052
sg24
I2
sg25
F33
sbs(S'Abbreviation'
S'contains(ctm)'
p1053
tp1054
g1
(g15
g3
NtRp1055
(dp1056
g18
F0.5
sg19
I51
sg20
g21
((dp1057
NI50
sI01
I1
stRp1058
sg24
I2
sg25
F52
sbs(g9
g339
tp1059
g1
(g15
g3
NtRp1060
(dp1061
g18
F0.5
sg19
I92
sg20
g21
((dp1062
NI92
stRp1063
sg24
I2
sg25
F93
sbs(g10
g498
tp1064
g1
(g15
g3
NtRp1065
(dp1066
g18
F0.5
sg19
I32
sg20
g21
((dp1067
NI32
stRp1068
sg24
I2
sg25
F33
sbs(g9
g997
tp1069
g1
(g15
g3
NtRp1070
(dp1071
g18
F0.5
sg19
I92
sg20
g21
((dp1072
NI92
stRp1073
sg24
I2
sg25
F93
sbs(g10
g985
tp1074
g1
(g15
g3
NtRp1075
(dp1076
g18
F0.5
sg19
I32
sg20
g21
((dp1077
NI32
stRp1078
sg24
I2
sg25
F33
sbs(g8
S'contains(com)'
p1079
tp1080
g1
(g15
g3
NtRp1081
(dp1082
g18
F0.5
sg19
I51
sg20
g21
((dp1083
NI50
sI01
I1
stRp1084
sg24
I2
sg25
F52
sbs(g8
S'contains(childhood)'
p1085
tp1086
g1
(g15
g3
NtRp1087
(dp1088
g18
F0.5
sg19
I51
sg20
g21
((dp1089
NI51
stRp1090
sg24
I2
sg25
F52
sbs(g9
g99
tp1091
g1
(g15
g3
NtRp1092
(dp1093
g18
F0.5
sg19
I92
sg20
g21
((dp1094
NI92
stRp1095
sg24
I2
sg25
F93
sbs(g8
S'contains(pencil)'
p1096
tp1097
g1
(g15
g3
NtRp1098
(dp1099
g18
F0.5
sg19
I51
sg20
g21
((dp1100
NI51
stRp1101
sg24
I2
sg25
F52
sbs(g8
S'contains(made)'
p1102
tp1103
g1
(g15
g3
NtRp1104
(dp1105
g18
F0.5
sg19
I51
sg20
g21
((dp1106
NI51
stRp1107
sg24
I2
sg25
F52
sbs(g93
g447
tp1108
g1
(g15
g3
NtRp1109
(dp1110
g18
F0.5
sg19
I32
sg20
g21
((dp1111
NI31
sI01
I1
stRp1112
sg24
I2
sg25
F33
sbs(g8
S'contains(bang)'
p1113
tp1114
g1
(g15
g3
NtRp1115
(dp1116
g18
F0.5
sg19
I51
sg20
g21
((dp1117
NI51
stRp1118
sg24
I2
sg25
F52
sbs(g9
S'contains(:)'
p1119
tp1120
g1
(g15
g3
NtRp1121
(dp1122
g18
F0.5
sg19
I92
sg20
g21
((dp1123
NI92
stRp1124
sg24
I2
sg25
F93
sbs(S'Meaning'
g360
tp1125
g1
(g15
g3
NtRp1126
(dp1127
g18
F0.5
sg19
I92
sg20
g21
((dp1128
NI91
sI01
I1
stRp1129
sg24
I2
sg25
F93
sbs(g9
g116
tp1130
g1
(g15
g3
NtRp1131
(dp1132
g18
F0.5
sg19
I92
sg20
g21
((dp1133
NI92
stRp1134
sg24
I2
sg25
F93
sbs(g10
S'contains(badass)'
p1135
tp1136
g1
(g15
g3
NtRp1137
(dp1138
g18
F0.5
sg19
I32
sg20
g21
((dp1139
NI32
stRp1140
sg24
I2
sg25
F33
sbs(g9
S'contains(what)'
tp1141
g1
(g15
g3
NtRp1142
(dp1143
g18
F0.5
sg19
I92
sg20
g21
((dp1144
NI20
sI01
I72
stRp1145
sg24
I2
sg25
F93
sbs(g9
S'contains(emacs)'
p1146
tp1147
g1
(g15
g3
NtRp1148
(dp1149
g18
F0.5
sg19
I92
sg20
g21
((dp1150
NI92
stRp1151
sg24
I2
sg25
F93
sbs(S'Meaning'
S'contains(cataclysm)'
p1152
tp1153
g1
(g15
g3
NtRp1154
(dp1155
g18
F0.5
sg19
I92
sg20
g21
((dp1156
NI91
sI01
I1
stRp1157
sg24
I2
sg25
F93
sbs(g8
S'contains(signs)'
p1158
tp1159
g1
(g15
g3
NtRp1160
(dp1161
g18
F0.5
sg19
I51
sg20
g21
((dp1162
NI51
stRp1163
sg24
I2
sg25
F52
sbs(S'Abbreviation'
g482
tp1164
g1
(g15
g3
NtRp1165
(dp1166
g18
F0.5
sg19
I51
sg20
g21
((dp1167
NI50
sI01
I1
stRp1168
sg24
I2
sg25
F52
sbs(S'Abbreviation'
g26
tp1169
g1
(g15
g3
NtRp1170
(dp1171
g18
F0.5
sg19
I51
sg20
g21
((dp1172
NI50
sI01
I1
stRp1173
sg24
I2
sg25
F52
sbs(g9
g765
tp1174
g1
(g15
g3
NtRp1175
(dp1176
g18
F0.5
sg19
I92
sg20
g21
((dp1177
NI92
stRp1178
sg24
I2
sg25
F93
sbs(S'Meaning'
g918
tp1179
g1
(g15
g3
NtRp1180
(dp1181
g18
F0.5
sg19
I92
sg20
g21
((dp1182
NI91
sI01
I1
stRp1183
sg24
I2
sg25
F93
sbs(S'Meaning'
S'contains(homogeneous)'
p1184
tp1185
g1
(g15
g3
NtRp1186
(dp1187
g18
F0.5
sg19
I92
sg20
g21
((dp1188
NI91
sI01
I1
stRp1189
sg24
I2
sg25
F93
sbs(g314
S'contains(o)'
p1190
tp1191
g1
(g15
g3
NtRp1192
(dp1193
g18
F0.5
sg19
I51
sg20
g21
((dp1194
NI50
sI01
I1
stRp1195
sg24
I2
sg25
F52
sbs(g8
g412
tp1196
g1
(g15
g3
NtRp1197
(dp1198
g18
F0.5
sg19
I51
sg20
g21
((dp1199
NI51
stRp1200
sg24
I2
sg25
F52
sbs(S'Meaning'
S'contains(tidy)'
p1201
tp1202
g1
(g15
g3
NtRp1203
(dp1204
g18
F0.5
sg19
I92
sg20
g21
((dp1205
NI91
sI01
I1
stRp1206
sg24
I2
sg25
F93
sbs(g10
g1119
tp1207
g1
(g15
g3
NtRp1208
(dp1209
g18
F0.5
sg19
I32
sg20
g21
((dp1210
NI32
stRp1211
sg24
I2
sg25
F33
sbs(S'Abbreviation'
S'contains(cnn)'
p1212
tp1213
g1
(g15
g3
NtRp1214
(dp1215
g18
F0.5
sg19
I51
sg20
g21
((dp1216
NI50
sI01
I1
stRp1217
sg24
I2
sg25
F52
sbs(g8
g1022
tp1218
g1
(g15
g3
NtRp1219
(dp1220
g18
F0.5
sg19
I51
sg20
g21
((dp1221
NI51
stRp1222
sg24
I2
sg25
F52
sbs(g10
S'contains(slaughter)'
p1223
tp1224
g1
(g15
g3
NtRp1225
(dp1226
g18
F0.5
sg19
I32
sg20
g21
((dp1227
NI32
stRp1228
sg24
I2
sg25
F33
sbs(S'Meaning'
g752
tp1229
g1
(g15
g3
NtRp1230
(dp1231
g18
F0.5
sg19
I92
sg20
g21
((dp1232
NI91
sI01
I1
stRp1233
sg24
I2
sg25
F93
sbs(S'Meaning'
S'contains(pen)'
p1234
tp1235
g1
(g15
g3
NtRp1236
(dp1237
g18
F0.5
sg19
I92
sg20
g21
((dp1238
NI91
sI01
I1
stRp1239
sg24
I2
sg25
F93
sbs(S'Meaning'
g979
tp1240
g1
(g15
g3
NtRp1241
(dp1242
g18
F0.5
sg19
I92
sg20
g21
((dp1243
NI91
sI01
I1
stRp1244
sg24
I2
sg25
F93
sbs(g8
g1234
tp1245
g1
(g15
g3
NtRp1246
(dp1247
g18
F0.5
sg19
I51
sg20
g21
((dp1248
NI51
stRp1249
sg24
I2
sg25
F52
sbs(g10
S'contains(yolo)'
p1250
tp1251
g1
(g15
g3
NtRp1252
(dp1253
g18
F0.5
sg19
I32
sg20
g21
((dp1254
NI32
stRp1255
sg24
I2
sg25
F33
sbs(S'Meaning'
g782
tp1256
g1
(g15
g3
NtRp1257
(dp1258
g18
F0.5
sg19
I92
sg20
g21
((dp1259
NI91
sI01
I1
stRp1260
sg24
I2
sg25
F93
sbs(g10
g599
tp1261
g1
(g15
g3
NtRp1262
(dp1263
g18
F0.5
sg19
I32
sg20
g21
((dp1264
NI32
stRp1265
sg24
I2
sg25
F33
sbs(g9
S'contains(nn)'
p1266
tp1267
g1
(g15
g3
NtRp1268
(dp1269
g18
F0.5
sg19
I92
sg20
g21
((dp1270
NI92
stRp1271
sg24
I2
sg25
F93
sbs(g616
g277
tp1272
g1
(g15
g3
NtRp1273
(dp1274
g18
F0.5
sg19
I51
sg20
g21
((dp1275
NI17
sI01
I34
stRp1276
sg24
I2
sg25
F52
sbs(g8
S'contains(superiority)'
p1277
tp1278
g1
(g15
g3
NtRp1279
(dp1280
g18
F0.5
sg19
I51
sg20
g21
((dp1281
NI51
stRp1282
sg24
I2
sg25
F52
sbs(g10
g1190
tp1283
g1
(g15
g3
NtRp1284
(dp1285
g18
F0.5
sg19
I32
sg20
g21
((dp1286
NI32
stRp1287
sg24
I2
sg25
F33
sbs(g10
g339
tp1288
g1
(g15
g3
NtRp1289
(dp1290
g18
F0.5
sg19
I32
sg20
g21
((dp1291
NI32
stRp1292
sg24
I2
sg25
F33
sbs(g9
S'contains(,)'
p1293
tp1294
g1
(g15
g3
NtRp1295
(dp1296
g18
F0.5
sg19
I92
sg20
g21
((dp1297
NI92
stRp1298
sg24
I2
sg25
F93
sbs(S'Meaning'
S'contains(clerk)'
p1299
tp1300
g1
(g15
g3
NtRp1301
(dp1302
g18
F0.5
sg19
I92
sg20
g21
((dp1303
NI91
sI01
I1
stRp1304
sg24
I2
sg25
F93
sbs(g8
S'contains(tulips)'
p1305
tp1306
g1
(g15
g3
NtRp1307
(dp1308
g18
F0.5
sg19
I51
sg20
g21
((dp1309
NI51
stRp1310
sg24
I2
sg25
F52
sbs(g8
g1250
tp1311
g1
(g15
g3
NtRp1312
(dp1313
g18
F0.5
sg19
I51
sg20
g21
((dp1314
NI51
stRp1315
sg24
I2
sg25
F52
sbs(g8
S'contains(?)'
tp1316
g1
(g15
g3
NtRp1317
(dp1318
g18
F0.5
sg19
I51
sg20
g21
((dp1319
I01
I51
stRp1320
sg24
I1
sg25
F51.5
sbs(g8
g383
tp1321
g1
(g15
g3
NtRp1322
(dp1323
g18
F0.5
sg19
I51
sg20
g21
((dp1324
NI51
stRp1325
sg24
I2
sg25
F52
sbs(g9
S'contains(jacket)'
p1326
tp1327
g1
(g15
g3
NtRp1328
(dp1329
g18
F0.5
sg19
I92
sg20
g21
((dp1330
NI92
stRp1331
sg24
I2
sg25
F93
sbs(S'Meaning'
S'contains(trees)'
p1332
tp1333
g1
(g15
g3
NtRp1334
(dp1335
g18
F0.5
sg19
I92
sg20
g21
((dp1336
NI91
sI01
I1
stRp1337
sg24
I2
sg25
F93
sbs(g8
S'contains(what)'
tp1338
g1
(g15
g3
NtRp1339
(dp1340
g18
F0.5
sg19
I51
sg20
g21
((dp1341
I01
I51
stRp1342
sg24
I2
sg25
F52
sbs(S'Abbreviation'
g229
tp1343
g1
(g15
g3
NtRp1344
(dp1345
g18
F0.5
sg19
I51
sg20
g21
((dp1346
NI50
sI01
I1
stRp1347
sg24
I2
sg25
F52
sbs(S'Meaning'
S'contains(theft)'
p1348
tp1349
g1
(g15
g3
NtRp1350
(dp1351
g18
F0.5
sg19
I92
sg20
g21
((dp1352
NI91
sI01
I1
stRp1353
sg24
I2
sg25
F93
sbs(g10
S'contains(seldom)'
p1354
tp1355
g1
(g15
g3
NtRp1356
(dp1357
g18
F0.5
sg19
I32
sg20
g21
((dp1358
NI32
stRp1359
sg24
I2
sg25
F33
sbs(S'Abbreviation'
S'contains(lol)'
p1360
tp1361
g1
(g15
g3
NtRp1362
(dp1363
g18
F0.5
sg19
I51
sg20
g21
((dp1364
NI50
sI01
I1
stRp1365
sg24
I2
sg25
F52
sbs(g840
S'contains(the)'
tp1366
g1
(g15
g3
NtRp1367
(dp1368
g18
F0.5
sg19
I92
sg20
g21
((dp1369
NI50
sI01
I42
stRp1370
sg24
I2
sg25
F93
sbs(S'Meaning'
S'contains(elephant)'
p1371
tp1372
g1
(g15
g3
NtRp1373
(dp1374
g18
F0.5
sg19
I92
sg20
g21
((dp1375
NI91
sI01
I1
stRp1376
sg24
I2
sg25
F93
sbs(g8
S'contains(windows)'
p1377
tp1378
g1
(g15
g3
NtRp1379
(dp1380
g18
F0.5
sg19
I51
sg20
g21
((dp1381
NI51
stRp1382
sg24
I2
sg25
F52
sbs(g10
g122
tp1383
g1
(g15
g3
NtRp1384
(dp1385
g18
F0.5
sg19
I32
sg20
g21
((dp1386
NI32
stRp1387
sg24
I2
sg25
F33
sbs(g8
g1135
tp1388
g1
(g15
g3
NtRp1389
(dp1390
g18
F0.5
sg19
I51
sg20
g21
((dp1391
NI51
stRp1392
sg24
I2
sg25
F52
sbs(S'Abbreviation'
g534
tp1393
g1
(g15
g3
NtRp1394
(dp1395
g18
F0.5
sg19
I51
sg20
g21
((dp1396
NI50
sI01
I1
stRp1397
sg24
I2
sg25
F52
sbs(S'Composition'
g435
tp1398
g1
(g15
g3
NtRp1399
(dp1400
g18
F0.5
sg19
I32
sg20
g21
((dp1401
NI31
sI01
I1
stRp1402
sg24
I2
sg25
F33
sbs(g10
g1113
tp1403
g1
(g15
g3
NtRp1404
(dp1405
g18
F0.5
sg19
I32
sg20
g21
((dp1406
NI32
stRp1407
sg24
I2
sg25
F33
sbs(g9
g991
tp1408
g1
(g15
g3
NtRp1409
(dp1410
g18
F0.5
sg19
I92
sg20
g21
((dp1411
NI92
stRp1412
sg24
I2
sg25
F93
sbs(g10
S'contains(slavery)'
p1413
tp1414
g1
(g15
g3
NtRp1415
(dp1416
g18
F0.5
sg19
I32
sg20
g21
((dp1417
NI32
stRp1418
sg24
I2
sg25
F33
sbs(S'Meaning'
g327
tp1419
g1
(g15
g3
NtRp1420
(dp1421
g18
F0.5
sg19
I92
sg20
g21
((dp1422
NI91
sI01
I1
stRp1423
sg24
I2
sg25
F93
sbs(S'Abbreviation'
g1009
tp1424
g1
(g15
g3
NtRp1425
(dp1426
g18
F0.5
sg19
I51
sg20
g21
((dp1427
NI50
sI01
I1
stRp1428
sg24
I2
sg25
F52
sbs(g8
g162
tp1429
g1
(g15
g3
NtRp1430
(dp1431
g18
F0.5
sg19
I51
sg20
g21
((dp1432
NI51
stRp1433
sg24
I2
sg25
F52
sbs(S'Abbreviation'
g997
tp1434
g1
(g15
g3
NtRp1435
(dp1436
g18
F0.5
sg19
I51
sg20
g21
((dp1437
NI50
sI01
I1
stRp1438
sg24
I2
sg25
F52
sbs(g9
S'contains(irish)'
p1439
tp1440
g1
(g15
g3
NtRp1441
(dp1442
g18
F0.5
sg19
I92
sg20
g21
((dp1443
NI92
stRp1444
sg24
I2
sg25
F93
sbs(g10
S'contains(nasa)'
p1445
tp1446
g1
(g15
g3
NtRp1447
(dp1448
g18
F0.5
sg19
I32
sg20
g21
((dp1449
NI32
stRp1450
sg24
I2
sg25
F33
sbs(S'Abbreviation'
S'contains(2d)'
p1451
tp1452
g1
(g15
g3
NtRp1453
(dp1454
g18
F0.5
sg19
I51
sg20
g21
((dp1455
NI50
sI01
I1
stRp1456
sg24
I2
sg25
F52
sbs(g9
S'contains(psi)'
p1457
tp1458
g1
(g15
g3
NtRp1459
(dp1460
g18
F0.5
sg19
I92
sg20
g21
((dp1461
NI92
stRp1462
sg24
I2
sg25
F93
sbs(g8
g371
tp1463
g1
(g15
g3
NtRp1464
(dp1465
g18
F0.5
sg19
I51
sg20
g21
((dp1466
NI51
stRp1467
sg24
I2
sg25
F52
sbs(g295
S'contains(jesus)'
p1468
tp1469
g1
(g15
g3
NtRp1470
(dp1471
g18
F0.5
sg19
I51
sg20
g21
((dp1472
NI50
sI01
I1
stRp1473
sg24
I2
sg25
F52
sbs(g8
g32
tp1474
g1
(g15
g3
NtRp1475
(dp1476
g18
F0.5
sg19
I51
sg20
g21
((dp1477
NI51
stRp1478
sg24
I2
sg25
F52
sbs(S'Meaning'
g510
tp1479
g1
(g15
g3
NtRp1480
(dp1481
g18
F0.5
sg19
I92
sg20
g21
((dp1482
NI91
sI01
I1
stRp1483
sg24
I2
sg25
F93
sbs(g10
S'contains(prejudice)'
p1484
tp1485
g1
(g15
g3
NtRp1486
(dp1487
g18
F0.5
sg19
I32
sg20
g21
((dp1488
NI32
stRp1489
sg24
I2
sg25
F33
sbs(S'Meaning'
g1277
tp1490
g1
(g15
g3
NtRp1491
(dp1492
g18
F0.5
sg19
I92
sg20
g21
((dp1493
NI91
sI01
I1
stRp1494
sg24
I2
sg25
F93
sbs(g10
S'contains(plo)'
p1495
tp1496
g1
(g15
g3
NtRp1497
(dp1498
g18
F0.5
sg19
I32
sg20
g21
((dp1499
NI32
stRp1500
sg24
I2
sg25
F33
sbs(g10
g929
tp1501
g1
(g15
g3
NtRp1502
(dp1503
g18
F0.5
sg19
I32
sg20
g21
((dp1504
NI32
stRp1505
sg24
I2
sg25
F33
sbs(g564
g145
tp1506
g1
(g15
g3
NtRp1507
(dp1508
g18
F0.5
sg19
I32
sg20
g21
((dp1509
NI31
sI01
I1
stRp1510
sg24
I2
sg25
F33
sbs(g8
g628
tp1511
g1
(g15
g3
NtRp1512
(dp1513
g18
F0.5
sg19
I51
sg20
g21
((dp1514
NI51
stRp1515
sg24
I2
sg25
F52
sbs(g10
g327
tp1516
g1
(g15
g3
NtRp1517
(dp1518
g18
F0.5
sg19
I32
sg20
g21
((dp1519
NI32
stRp1520
sg24
I2
sg25
F33
sbs(g86
S'contains(name)'
p1521
tp1522
g1
(g15
g3
NtRp1523
(dp1524
g18
F0.5
sg19
I51
sg20
g21
((dp1525
NI42
sI01
I9
stRp1526
sg24
I2
sg25
F52
sbs(g8
g1299
tp1527
g1
(g15
g3
NtRp1528
(dp1529
g18
F0.5
sg19
I51
sg20
g21
((dp1530
NI51
stRp1531
sg24
I2
sg25
F52
sbs(g8
S'contains(cloak)'
p1532
tp1533
g1
(g15
g3
NtRp1534
(dp1535
g18
F0.5
sg19
I51
sg20
g21
((dp1536
NI51
stRp1537
sg24
I2
sg25
F52
sbs(g10
g74
tp1538
g1
(g15
g3
NtRp1539
(dp1540
g18
F0.5
sg19
I32
sg20
g21
((dp1541
NI32
stRp1542
sg24
I2
sg25
F33
sbs(g10
S'contains(fttp)'
p1543
tp1544
g1
(g15
g3
NtRp1545
(dp1546
g18
F0.5
sg19
I32
sg20
g21
((dp1547
NI32
stRp1548
sg24
I2
sg25
F33
sbs(g9
g892
tp1549
g1
(g15
g3
NtRp1550
(dp1551
g18
F0.5
sg19
I92
sg20
g21
((dp1552
NI92
stRp1553
sg24
I2
sg25
F93
sbs(g706
g605
tp1554
g1
(g15
g3
NtRp1555
(dp1556
g18
F0.5
sg19
I92
sg20
g21
((dp1557
NI91
sI01
I1
stRp1558
sg24
I2
sg25
F93
sbs(S'Abbreviation'
g395
tp1559
g1
(g15
g3
NtRp1560
(dp1561
g18
F0.5
sg19
I51
sg20
g21
((dp1562
NI50
sI01
I1
stRp1563
sg24
I2
sg25
F52
sbs(g10
g360
tp1564
g1
(g15
g3
NtRp1565
(dp1566
g18
F0.5
sg19
I32
sg20
g21
((dp1567
NI32
stRp1568
sg24
I2
sg25
F33
sbs(g295
g881
tp1569
g1
(g15
g3
NtRp1570
(dp1571
g18
F0.5
sg19
I51
sg20
g21
((dp1572
NI50
sI01
I1
stRp1573
sg24
I2
sg25
F52
sbs(g8
S'contains(eucalyptus)'
p1574
tp1575
g1
(g15
g3
NtRp1576
(dp1577
g18
F0.5
sg19
I51
sg20
g21
((dp1578
NI51
stRp1579
sg24
I2
sg25
F52
sbs(g9
g864
tp1580
g1
(g15
g3
NtRp1581
(dp1582
g18
F0.5
sg19
I92
sg20
g21
((dp1583
NI92
stRp1584
sg24
I2
sg25
F93
sbs(g9
S'contains(chargers)'
p1585
tp1586
g1
(g15
g3
NtRp1587
(dp1588
g18
F0.5
sg19
I92
sg20
g21
((dp1589
NI92
stRp1590
sg24
I2
sg25
F93
sbs(S'Meaning'
S'contains(doors)'
tp1591
g1
(g15
g3
NtRp1592
(dp1593
g18
F0.5
sg19
I92
sg20
g21
((dp1594
NI91
sI01
I1
stRp1595
sg24
I2
sg25
F93
sbs(S'Meaning'
g968
tp1596
g1
(g15
g3
NtRp1597
(dp1598
g18
F0.5
sg19
I92
sg20
g21
((dp1599
NI91
sI01
I1
stRp1600
sg24
I2
sg25
F93
sbs(g9
g929
tp1601
g1
(g15
g3
NtRp1602
(dp1603
g18
F0.5
sg19
I92
sg20
g21
((dp1604
NI92
stRp1605
sg24
I2
sg25
F93
sbs(g9
g1495
tp1606
g1
(g15
g3
NtRp1607
(dp1608
g18
F0.5
sg19
I92
sg20
g21
((dp1609
NI92
stRp1610
sg24
I2
sg25
F93
sbs(g8
g1201
tp1611
g1
(g15
g3
NtRp1612
(dp1613
g18
F0.5
sg19
I51
sg20
g21
((dp1614
NI51
stRp1615
sg24
I2
sg25
F52
sbs(g10
S'contains(ipod)'
p1616
tp1617
g1
(g15
g3
NtRp1618
(dp1619
g18
F0.5
sg19
I32
sg20
g21
((dp1620
NI32
stRp1621
sg24
I2
sg25
F33
sbs(g289
S'contains(laser)'
p1622
tp1623
g1
(g15
g3
NtRp1624
(dp1625
g18
F0.5
sg19
I51
sg20
g21
((dp1626
NI50
sI01
I1
stRp1627
sg24
I2
sg25
F52
sbs(g8
g570
tp1628
g1
(g15
g3
NtRp1629
(dp1630
g18
F0.5
sg19
I51
sg20
g21
((dp1631
NI51
stRp1632
sg24
I2
sg25
F52
sbs(g616
g80
tp1633
g1
(g15
g3
NtRp1634
(dp1635
g18
F0.5
sg19
I51
sg20
g21
((dp1636
NI50
sI01
I1
stRp1637
sg24
I2
sg25
F52
sbs(g9
g1468
tp1638
g1
(g15
g3
NtRp1639
(dp1640
g18
F0.5
sg19
I92
sg20
g21
((dp1641
NI92
stRp1642
sg24
I2
sg25
F93
sbs(g1021
S'contains(a)'
tp1643
g1
(g15
g3
NtRp1644
(dp1645
g18
F0.5
sg19
I92
sg20
g21
((dp1646
NI79
sI01
I13
stRp1647
sg24
I2
sg25
F93
sbs(g546
g321
tp1648
g1
(g15
g3
NtRp1649
(dp1650
g18
F0.5
sg19
I51
sg20
g21
((dp1651
NI50
sI01
I1
stRp1652
sg24
I2
sg25
F52
sbs(g10
g864
tp1653
g1
(g15
g3
NtRp1654
(dp1655
g18
F0.5
sg19
I32
sg20
g21
((dp1656
NI32
stRp1657
sg24
I2
sg25
F33
sbs(g9
g806
tp1658
g1
(g15
g3
NtRp1659
(dp1660
g18
F0.5
sg19
I92
sg20
g21
((dp1661
NI92
stRp1662
sg24
I2
sg25
F93
sbs(g10
g788
tp1663
g1
(g15
g3
NtRp1664
(dp1665
g18
F0.5
sg19
I32
sg20
g21
((dp1666
NI32
stRp1667
sg24
I2
sg25
F33
sbs(g8
S'contains(person)'
p1668
tp1669
g1
(g15
g3
NtRp1670
(dp1671
g18
F0.5
sg19
I51
sg20
g21
((dp1672
NI51
stRp1673
sg24
I2
sg25
F52
sbs(g8
g504
tp1674
g1
(g15
g3
NtRp1675
(dp1676
g18
F0.5
sg19
I51
sg20
g21
((dp1677
NI51
stRp1678
sg24
I2
sg25
F52
sbs(g8
S'contains(earth)'
p1679
tp1680
g1
(g15
g3
NtRp1681
(dp1682
g18
F0.5
sg19
I51
sg20
g21
((dp1683
NI51
stRp1684
sg24
I2
sg25
F52
sbs(g8
g746
tp1685
g1
(g15
g3
NtRp1686
(dp1687
g18
F0.5
sg19
I51
sg20
g21
((dp1688
NI51
stRp1689
sg24
I2
sg25
F52
sbs(g10
g321
tp1690
g1
(g15
g3
NtRp1691
(dp1692
g18
F0.5
sg19
I32
sg20
g21
((dp1693
NI32
stRp1694
sg24
I2
sg25
F33
sbs(g8
g834
tp1695
g1
(g15
g3
NtRp1696
(dp1697
g18
F0.5
sg19
I51
sg20
g21
((dp1698
NI51
stRp1699
sg24
I2
sg25
F52
sbs(g758
g1293
tp1700
g1
(g15
g3
NtRp1701
(dp1702
g18
F0.5
sg19
I51
sg20
g21
((dp1703
NI50
sI01
I1
stRp1704
sg24
I2
sg25
F52
sbs(S'Meaning'
g1158
tp1705
g1
(g15
g3
NtRp1706
(dp1707
g18
F0.5
sg19
I92
sg20
g21
((dp1708
NI91
sI01
I1
stRp1709
sg24
I2
sg25
F93
sbs(g8
S'contains(widow)'
p1710
tp1711
g1
(g15
g3
NtRp1712
(dp1713
g18
F0.5
sg19
I51
sg20
g21
((dp1714
NI51
stRp1715
sg24
I2
sg25
F52
sbs(g10
g1622
tp1716
g1
(g15
g3
NtRp1717
(dp1718
g18
F0.5
sg19
I32
sg20
g21
((dp1719
NI32
stRp1720
sg24
I2
sg25
F33
sbs(S'Abbreviation'
S'contains(gif)'
p1721
tp1722
g1
(g15
g3
NtRp1723
(dp1724
g18
F0.5
sg19
I51
sg20
g21
((dp1725
NI50
sI01
I1
stRp1726
sg24
I2
sg25
F52
sbs(S'Abbreviation'
S'contains(https)'
p1727
tp1728
g1
(g15
g3
NtRp1729
(dp1730
g18
F0.5
sg19
I51
sg20
g21
((dp1731
NI50
sI01
I1
stRp1732
sg24
I2
sg25
F52
sbs(g8
S'contains(ant)'
p1733
tp1734
g1
(g15
g3
NtRp1735
(dp1736
g18
F0.5
sg19
I51
sg20
g21
((dp1737
NI51
stRp1738
sg24
I2
sg25
F52
sbs(g9
S'contains(t)'
p1739
tp1740
g1
(g15
g3
NtRp1741
(dp1742
g18
F0.5
sg19
I92
sg20
g21
((dp1743
NI92
stRp1744
sg24
I2
sg25
F93
sbs(g758
g216
tp1745
g1
(g15
g3
NtRp1746
(dp1747
g18
F0.5
sg19
I51
sg20
g21
((dp1748
NI50
sI01
I1
stRp1749
sg24
I2
sg25
F52
sbs(g10
g979
tp1750
g1
(g15
g3
NtRp1751
(dp1752
g18
F0.5
sg19
I32
sg20
g21
((dp1753
NI32
stRp1754
sg24
I2
sg25
F33
sbs(S'Meaning'
g192
tp1755
g1
(g15
g3
NtRp1756
(dp1757
g18
F0.5
sg19
I92
sg20
g21
((dp1758
NI91
sI01
I1
stRp1759
sg24
I2
sg25
F93
sbs(S'Meaning'
g645
tp1760
g1
(g15
g3
NtRp1761
(dp1762
g18
F0.5
sg19
I92
sg20
g21
((dp1763
NI91
sI01
I1
stRp1764
sg24
I2
sg25
F93
sbs(g9
g1521
tp1765
g1
(g15
g3
NtRp1766
(dp1767
g18
F0.5
sg19
I92
sg20
g21
((dp1768
NI92
stRp1769
sg24
I2
sg25
F93
sbs(g8
g266
tp1770
g1
(g15
g3
NtRp1771
(dp1772
g18
F0.5
sg19
I51
sg20
g21
((dp1773
NI51
stRp1774
sg24
I2
sg25
F52
sbs(g10
g80
tp1775
g1
(g15
g3
NtRp1776
(dp1777
g18
F0.5
sg19
I32
sg20
g21
((dp1778
NI32
stRp1779
sg24
I2
sg25
F33
sbs(g10
g1201
tp1780
g1
(g15
g3
NtRp1781
(dp1782
g18
F0.5
sg19
I32
sg20
g21
((dp1783
NI32
stRp1784
sg24
I2
sg25
F33
sbs(g10
g605
tp1785
g1
(g15
g3
NtRp1786
(dp1787
g18
F0.5
sg19
I32
sg20
g21
((dp1788
NI32
stRp1789
sg24
I2
sg25
F33
sbs(S'Abbreviation'
S'contains(lifo)'
p1790
tp1791
g1
(g15
g3
NtRp1792
(dp1793
g18
F0.5
sg19
I51
sg20
g21
((dp1794
NI50
sI01
I1
stRp1795
sg24
I2
sg25
F52
sbs(g9
g689
tp1796
g1
(g15
g3
NtRp1797
(dp1798
g18
F0.5
sg19
I92
sg20
g21
((dp1799
NI92
stRp1800
sg24
I2
sg25
F93
sbs(S'Composition'
g1585
tp1801
g1
(g15
g3
NtRp1802
(dp1803
g18
F0.5
sg19
I32
sg20
g21
((dp1804
NI31
sI01
I1
stRp1805
sg24
I2
sg25
F33
sbs(g9
g1377
tp1806
g1
(g15
g3
NtRp1807
(dp1808
g18
F0.5
sg19
I92
sg20
g21
((dp1809
NI92
stRp1810
sg24
I2
sg25
F93
sbs(g10
g87
tp1811
g1
(g15
g3
NtRp1812
(dp1813
g18
F0.5
sg19
I32
sg20
g21
((dp1814
NI32
stRp1815
sg24
I2
sg25
F33
sbs(g10
S'contains(tree)'
p1816
tp1817
g1
(g15
g3
NtRp1818
(dp1819
g18
F0.5
sg19
I32
sg20
g21
((dp1820
NI32
stRp1821
sg24
I2
sg25
F33
sbs(g8
g1616
tp1822
g1
(g15
g3
NtRp1823
(dp1824
g18
F0.5
sg19
I51
sg20
g21
((dp1825
NI51
stRp1826
sg24
I2
sg25
F52
sbs(g8
S'contains(the)'
tp1827
g1
(g15
g3
NtRp1828
(dp1829
g18
F0.5
sg19
I51
sg20
g21
((dp1830
NI16
sI01
I35
stRp1831
sg24
I2
sg25
F52
sbs(S'Abbreviation'
g1445
tp1832
g1
(g15
g3
NtRp1833
(dp1834
g18
F0.5
sg19
I51
sg20
g21
((dp1835
NI50
sI01
I1
stRp1836
sg24
I2
sg25
F52
sbs(g10
g645
tp1837
g1
(g15
g3
NtRp1838
(dp1839
g18
F0.5
sg19
I32
sg20
g21
((dp1840
NI32
stRp1841
sg24
I2
sg25
F33
sbs(g10
g1739
tp1842
g1
(g15
g3
NtRp1843
(dp1844
g18
F0.5
sg19
I32
sg20
g21
((dp1845
NI32
stRp1846
sg24
I2
sg25
F33
sbs(S'Abbreviation'
g1543
tp1847
g1
(g15
g3
NtRp1848
(dp1849
g18
F0.5
sg19
I51
sg20
g21
((dp1850
NI50
sI01
I1
stRp1851
sg24
I2
sg25
F52
sbs(g10
S'contains(cert)'
p1852
tp1853
g1
(g15
g3
NtRp1854
(dp1855
g18
F0.5
sg19
I32
sg20
g21
((dp1856
NI32
stRp1857
sg24
I2
sg25
F33
sbs(g9
g1305
tp1858
g1
(g15
g3
NtRp1859
(dp1860
g18
F0.5
sg19
I92
sg20
g21
((dp1861
NI92
stRp1862
sg24
I2
sg25
F93
sbs(g9
g547
tp1863
g1
(g15
g3
NtRp1864
(dp1865
g18
F0.5
sg19
I92
sg20
g21
((dp1866
NI92
stRp1867
sg24
I2
sg25
F93
sbs(g9
g296
tp1868
g1
(g15
g3
NtRp1869
(dp1870
g18
F0.5
sg19
I92
sg20
g21
((dp1871
NI92
stRp1872
sg24
I2
sg25
F93
sbs(g10
S'contains(claus)'
p1873
tp1874
g1
(g15
g3
NtRp1875
(dp1876
g18
F0.5
sg19
I32
sg20
g21
((dp1877
NI32
stRp1878
sg24
I2
sg25
F33
sbs(g8
g62
tp1879
g1
(g15
g3
NtRp1880
(dp1881
g18
F0.5
sg19
I51
sg20
g21
((dp1882
NI51
stRp1883
sg24
I2
sg25
F52
sbs(g9
S'contains(dvd)'
p1884
tp1885
g1
(g15
g3
NtRp1886
(dp1887
g18
F0.5
sg19
I92
sg20
g21
((dp1888
NI92
stRp1889
sg24
I2
sg25
F93
sbs(S'Meaning'
g746
tp1890
g1
(g15
g3
NtRp1891
(dp1892
g18
F0.5
sg19
I92
sg20
g21
((dp1893
NI91
sI01
I1
stRp1894
sg24
I2
sg25
F93
sbs(g8
S'contains(pretty)'
p1895
tp1896
g1
(g15
g3
NtRp1897
(dp1898
g18
F0.5
sg19
I51
sg20
g21
((dp1899
NI51
stRp1900
sg24
I2
sg25
F52
sbs(S'Abbreviation'
g1884
tp1901
g1
(g15
g3
NtRp1902
(dp1903
g18
F0.5
sg19
I51
sg20
g21
((dp1904
NI50
sI01
I1
stRp1905
sg24
I2
sg25
F52
sbs(S'Composition'
g1377
tp1906
g1
(g15
g3
NtRp1907
(dp1908
g18
F0.5
sg19
I32
sg20
g21
((dp1909
NI31
sI01
I1
stRp1910
sg24
I2
sg25
F33
sbs(g8
g1484
tp1911
g1
(g15
g3
NtRp1912
(dp1913
g18
F0.5
sg19
I51
sg20
g21
((dp1914
NI51
stRp1915
sg24
I2
sg25
F52
sbs(S'Meaning'
g377
tp1916
g1
(g15
g3
NtRp1917
(dp1918
g18
F0.5
sg19
I92
sg20
g21
((dp1919
NI91
sI01
I1
stRp1920
sg24
I2
sg25
F93
sbs(g10
g1299
tp1921
g1
(g15
g3
NtRp1922
(dp1923
g18
F0.5
sg19
I32
sg20
g21
((dp1924
NI32
stRp1925
sg24
I2
sg25
F33
sbs(g8
S'contains(rubber)'
p1926
tp1927
g1
(g15
g3
NtRp1928
(dp1929
g18
F0.5
sg19
I51
sg20
g21
((dp1930
NI51
stRp1931
sg24
I2
sg25
F52
sbs(g10
g1439
tp1932
g1
(g15
g3
NtRp1933
(dp1934
g18
F0.5
sg19
I32
sg20
g21
((dp1935
NI32
stRp1936
sg24
I2
sg25
F33
sbs(g10
S'contains(avenue)'
p1937
tp1938
g1
(g15
g3
NtRp1939
(dp1940
g18
F0.5
sg19
I32
sg20
g21
((dp1941
NI32
stRp1942
sg24
I2
sg25
F33
sbs(g10
S'contains(singleton)'
p1943
tp1944
g1
(g15
g3
NtRp1945
(dp1946
g18
F0.5
sg19
I32
sg20
g21
((dp1947
NI32
stRp1948
sg24
I2
sg25
F33
sbs(g10
g1009
tp1949
g1
(g15
g3
NtRp1950
(dp1951
g18
F0.5
sg19
I32
sg20
g21
((dp1952
NI32
stRp1953
sg24
I2
sg25
F33
sbs(g10
g1184
tp1954
g1
(g15
g3
NtRp1955
(dp1956
g18
F0.5
sg19
I32
sg20
g21
((dp1957
NI32
stRp1958
sg24
I2
sg25
F33
sbs(g8
S'contains(mellon)'
p1959
tp1960
g1
(g15
g3
NtRp1961
(dp1962
g18
F0.5
sg19
I51
sg20
g21
((dp1963
NI51
stRp1964
sg24
I2
sg25
F52
sbs(g8
g1413
tp1965
g1
(g15
g3
NtRp1966
(dp1967
g18
F0.5
sg19
I51
sg20
g21
((dp1968
NI51
stRp1969
sg24
I2
sg25
F52
sbs(g10
g1532
tp1970
g1
(g15
g3
NtRp1971
(dp1972
g18
F0.5
sg19
I32
sg20
g21
((dp1973
NI32
stRp1974
sg24
I2
sg25
F33
sbs(g10
g1451
tp1975
g1
(g15
g3
NtRp1976
(dp1977
g18
F0.5
sg19
I32
sg20
g21
((dp1978
NI32
stRp1979
sg24
I2
sg25
F33
sbs(g222
S'contains(paper)'
p1980
tp1981
g1
(g15
g3
NtRp1982
(dp1983
g18
F0.5
sg19
I32
sg20
g21
((dp1984
NI31
sI01
I1
stRp1985
sg24
I2
sg25
F33
sbs(g758
S'contains(reading)'
p1986
tp1987
g1
(g15
g3
NtRp1988
(dp1989
g18
F0.5
sg19
I51
sg20
g21
((dp1990
NI50
sI01
I1
stRp1991
sg24
I2
sg25
F52
sbs(g8
g435
tp1992
g1
(g15
g3
NtRp1993
(dp1994
g18
F0.5
sg19
I51
sg20
g21
((dp1995
NI51
stRp1996
sg24
I2
sg25
F52
sbs(g9
g1053
tp1997
g1
(g15
g3
NtRp1998
(dp1999
g18
F0.5
sg19
I92
sg20
g21
((dp2000
NI92
stRp2001
sg24
I2
sg25
F93
sbs(g8
g968
tp2002
g1
(g15
g3
NtRp2003
(dp2004
g18
F0.5
sg19
I51
sg20
g21
((dp2005
NI51
stRp2006
sg24
I2
sg25
F52
sbs(g8
g1980
tp2007
g1
(g15
g3
NtRp2008
(dp2009
g18
F0.5
sg19
I51
sg20
g21
((dp2010
NI51
stRp2011
sg24
I2
sg25
F52
sbs(g9
S'contains(as)'
p2012
tp2013
g1
(g15
g3
NtRp2014
(dp2015
g18
F0.5
sg19
I92
sg20
g21
((dp2016
NI92
stRp2017
sg24
I2
sg25
F93
sbs(g10
S'contains(?)'
tp2018
g1
(g15
g3
NtRp2019
(dp2020
g18
F0.5
sg19
I32
sg20
g21
((dp2021
I01
I32
stRp2022
sg24
I1
sg25
F32.5
sbs(g314
g389
tp2023
g1
(g15
g3
NtRp2024
(dp2025
g18
F0.5
sg19
I51
sg20
g21
((dp2026
NI50
sI01
I1
stRp2027
sg24
I2
sg25
F52
sbs(g8
g465
tp2028
g1
(g15
g3
NtRp2029
(dp2030
g18
F0.5
sg19
I51
sg20
g21
((dp2031
NI51
stRp2032
sg24
I2
sg25
F52
sbs(g9
S'contains(.)'
p2033
tp2034
g1
(g15
g3
NtRp2035
(dp2036
g18
F0.5
sg19
I92
sg20
g21
((dp2037
NI92
stRp2038
sg24
I2
sg25
F93
sbs(g10
S'contains(ads)'
p2039
tp2040
g1
(g15
g3
NtRp2041
(dp2042
g18
F0.5
sg19
I32
sg20
g21
((dp2043
NI32
stRp2044
sg24
I2
sg25
F33
sbs(g10
S'contains(dn)'
p2045
tp2046
g1
(g15
g3
NtRp2047
(dp2048
g18
F0.5
sg19
I32
sg20
g21
((dp2049
NI32
stRp2050
sg24
I2
sg25
F33
sbs(g9
g1190
tp2051
g1
(g15
g3
NtRp2052
(dp2053
g18
F0.5
sg19
I92
sg20
g21
((dp2054
NI92
stRp2055
sg24
I2
sg25
F93
sbs(g9
g223
tp2056
g1
(g15
g3
NtRp2057
(dp2058
g18
F0.5
sg19
I92
sg20
g21
((dp2059
NI92
stRp2060
sg24
I2
sg25
F93
sbs(g10
g333
tp2061
g1
(g15
g3
NtRp2062
(dp2063
g18
F0.5
sg19
I32
sg20
g21
((dp2064
NI32
stRp2065
sg24
I2
sg25
F33
sbs(g10
S'contains(what)'
tp2066
g1
(g15
g3
NtRp2067
(dp2068
g18
F0.5
sg19
I32
sg20
g21
((dp2069
I01
I32
stRp2070
sg24
I2
sg25
F33
sbs(g9
g1451
tp2071
g1
(g15
g3
NtRp2072
(dp2073
g18
F0.5
sg19
I92
sg20
g21
((dp2074
NI92
stRp2075
sg24
I2
sg25
F93
sbs(g9
S'contains(form)'
p2076
tp2077
g1
(g15
g3
NtRp2078
(dp2079
g18
F0.5
sg19
I92
sg20
g21
((dp2080
NI92
stRp2081
sg24
I2
sg25
F93
sbs(g9
g1679
tp2082
g1
(g15
g3
NtRp2083
(dp2084
g18
F0.5
sg19
I92
sg20
g21
((dp2085
NI92
stRp2086
sg24
I2
sg25
F93
sbs(g8
g622
tp2087
g1
(g15
g3
NtRp2088
(dp2089
g18
F0.5
sg19
I51
sg20
g21
((dp2090
NI51
stRp2091
sg24
I2
sg25
F52
sbs(g9
g315
tp2092
g1
(g15
g3
NtRp2093
(dp2094
g18
F0.5
sg19
I92
sg20
g21
((dp2095
NI92
stRp2096
sg24
I2
sg25
F93
sbs(g9
g1668
tp2097
g1
(g15
g3
NtRp2098
(dp2099
g18
F0.5
sg19
I92
sg20
g21
((dp2100
NI92
stRp2101
sg24
I2
sg25
F93
sbs(g8
g302
tp2102
g1
(g15
g3
NtRp2103
(dp2104
g18
F0.5
sg19
I51
sg20
g21
((dp2105
NI51
stRp2106
sg24
I2
sg25
F52
sbs(g10
g1277
tp2107
g1
(g15
g3
NtRp2108
(dp2109
g18
F0.5
sg19
I32
sg20
g21
((dp2110
NI32
stRp2111
sg24
I2
sg25
F33
sbs(g10
g296
tp2112
g1
(g15
g3
NtRp2113
(dp2114
g18
F0.5
sg19
I32
sg20
g21
((dp2115
NI32
stRp2116
sg24
I2
sg25
F33
sbs(g10
g841
tp2117
g1
(g15
g3
NtRp2118
(dp2119
g18
F0.5
sg19
I32
sg20
g21
((dp2120
NI32
stRp2121
sg24
I2
sg25
F33
sbs(S'Abbreviation'
g2045
tp2122
g1
(g15
g3
NtRp2123
(dp2124
g18
F0.5
sg19
I51
sg20
g21
((dp2125
NI50
sI01
I1
stRp2126
sg24
I2
sg25
F52
sbs(g235
g599
tp2127
g1
(g15
g3
NtRp2128
(dp2129
g18
F0.5
sg19
I51
sg20
g21
((dp2130
NI50
sI01
I1
stRp2131
sg24
I2
sg25
F52
sbs(g10
g283
tp2132
g1
(g15
g3
NtRp2133
(dp2134
g18
F0.5
sg19
I32
sg20
g21
((dp2135
NI32
stRp2136
sg24
I2
sg25
F33
sbs(S'Meaning'
p2137
S'contains(santa)'
p2138
tp2139
g1
(g15
g3
NtRp2140
(dp2141
g18
F0.5
sg19
I92
sg20
g21
((dp2142
NI91
sI01
I1
stRp2143
sg24
I2
sg25
F93
sbs(g8
g841
tp2144
g1
(g15
g3
NtRp2145
(dp2146
g18
F0.5
sg19
I51
sg20
g21
((dp2147
NI51
stRp2148
sg24
I2
sg25
F52
sbs(S'Meaning'
g1959
tp2149
g1
(g15
g3
NtRp2150
(dp2151
g18
F0.5
sg19
I92
sg20
g21
((dp2152
NI91
sI01
I1
stRp2153
sg24
I2
sg25
F93
sbs(g8
g1348
tp2154
g1
(g15
g3
NtRp2155
(dp2156
g18
F0.5
sg19
I51
sg20
g21
((dp2157
NI51
stRp2158
sg24
I2
sg25
F52
sbs(g10
S'contains(cad)'
p2159
tp2160
g1
(g15
g3
NtRp2161
(dp2162
g18
F0.5
sg19
I32
sg20
g21
((dp2163
NI32
stRp2164
sg24
I2
sg25
F33
sbs(S'Meaning'
g1223
tp2165
g1
(g15
g3
NtRp2166
(dp2167
g18
F0.5
sg19
I92
sg20
g21
((dp2168
NI91
sI01
I1
stRp2169
sg24
I2
sg25
F93
sbs(g10
S'contains(when)'
p2170
tp2171
g1
(g15
g3
NtRp2172
(dp2173
g18
F0.5
sg19
I32
sg20
g21
((dp2174
NI32
stRp2175
sg24
I2
sg25
F33
sbs(g10
g1053
tp2176
g1
(g15
g3
NtRp2177
(dp2178
g18
F0.5
sg19
I32
sg20
g21
((dp2179
NI32
stRp2180
sg24
I2
sg25
F33
sbs(g9
S'contains(on)'
p2181
tp2182
g1
(g15
g3
NtRp2183
(dp2184
g18
F0.5
sg19
I92
sg20
g21
((dp2185
NI92
stRp2186
sg24
I2
sg25
F93
sbs(g10
g1234
tp2187
g1
(g15
g3
NtRp2188
(dp2189
g18
F0.5
sg19
I32
sg20
g21
((dp2190
NI32
stRp2191
sg24
I2
sg25
F33
sbs(g8
g254
tp2192
g1
(g15
g3
NtRp2193
(dp2194
g18
F0.5
sg19
I51
sg20
g21
((dp2195
NI51
stRp2196
sg24
I2
sg25
F52
sbs(g9
g1079
tp2197
g1
(g15
g3
NtRp2198
(dp2199
g18
F0.5
sg19
I92
sg20
g21
((dp2200
NI92
stRp2201
sg24
I2
sg25
F93
sbs(g10
g482
tp2202
g1
(g15
g3
NtRp2203
(dp2204
g18
F0.5
sg19
I32
sg20
g21
((dp2205
NI32
stRp2206
sg24
I2
sg25
F33
sbs(g10
g1457
tp2207
g1
(g15
g3
NtRp2208
(dp2209
g18
F0.5
sg19
I32
sg20
g21
((dp2210
NI32
stRp2211
sg24
I2
sg25
F33
sbs(g10
S'contains(other)'
p2212
tp2213
g1
(g15
g3
NtRp2214
(dp2215
g18
F0.5
sg19
I32
sg20
g21
((dp2216
NI32
stRp2217
sg24
I2
sg25
F33
sbs(S'Meaning'
p2218
g1574
tp2219
g1
(g15
g3
NtRp2220
(dp2221
g18
F0.5
sg19
I92
sg20
g21
((dp2222
NI91
sI01
I1
stRp2223
sg24
I2
sg25
F93
sbs(g10
g1158
tp2224
g1
(g15
g3
NtRp2225
(dp2226
g18
F0.5
sg19
I32
sg20
g21
((dp2227
NI32
stRp2228
sg24
I2
sg25
F33
sbs(g758
g1119
tp2229
g1
(g15
g3
NtRp2230
(dp2231
g18
F0.5
sg19
I51
sg20
g21
((dp2232
NI50
sI01
I1
stRp2233
sg24
I2
sg25
F52
sbs(g9
g204
tp2234
g1
(g15
g3
NtRp2235
(dp2236
g18
F0.5
sg19
I92
sg20
g21
((dp2237
NI92
stRp2238
sg24
I2
sg25
F93
sbs(g10
g192
tp2239
g1
(g15
g3
NtRp2240
(dp2241
g18
F0.5
sg19
I32
sg20
g21
((dp2242
NI32
stRp2243
sg24
I2
sg25
F33
sbs(g10
g593
tp2244
g1
(g15
g3
NtRp2245
(dp2246
g18
F0.5
sg19
I32
sg20
g21
((dp2247
NI32
stRp2248
sg24
I2
sg25
F33
sbs(g758
g2039
tp2249
g1
(g15
g3
NtRp2250
(dp2251
g18
F0.5
sg19
I51
sg20
g21
((dp2252
NI50
sI01
I1
stRp2253
sg24
I2
sg25
F52
sbs(S'Composition'
g1710
tp2254
g1
(g15
g3
NtRp2255
(dp2256
g18
F0.5
sg19
I32
sg20
g21
((dp2257
NI31
sI01
I1
stRp2258
sg24
I2
sg25
F33
sbs(g10
g1079
tp2259
g1
(g15
g3
NtRp2260
(dp2261
g18
F0.5
sg19
I32
sg20
g21
((dp2262
NI32
stRp2263
sg24
I2
sg25
F33
sbs(g8
g1943
tp2264
g1
(g15
g3
NtRp2265
(dp2266
g18
F0.5
sg19
I51
sg20
g21
((dp2267
NI51
stRp2268
sg24
I2
sg25
F52
sbs(g9
g1445
tp2269
g1
(g15
g3
NtRp2270
(dp2271
g18
F0.5
sg19
I92
sg20
g21
((dp2272
NI92
stRp2273
sg24
I2
sg25
F93
sbs(g9
g2212
tp2274
g1
(g15
g3
NtRp2275
(dp2276
g18
F0.5
sg19
I92
sg20
g21
((dp2277
NI92
stRp2278
sg24
I2
sg25
F93
sbs(g8
g223
tp2279
g1
(g15
g3
NtRp2280
(dp2281
g18
F0.5
sg19
I51
sg20
g21
((dp2282
NI51
stRp2283
sg24
I2
sg25
F52
sbs(g8
g510
tp2284
g1
(g15
g3
NtRp2285
(dp2286
g18
F0.5
sg19
I51
sg20
g21
((dp2287
NI51
stRp2288
sg24
I2
sg25
F52
sbs(g9
g236
tp2289
g1
(g15
g3
NtRp2290
(dp2291
g18
F0.5
sg19
I92
sg20
g21
((dp2292
NI92
stRp2293
sg24
I2
sg25
F93
sbs(g8
S'contains(mellons)'
p2294
tp2295
g1
(g15
g3
NtRp2296
(dp2297
g18
F0.5
sg19
I51
sg20
g21
((dp2298
NI51
stRp2299
sg24
I2
sg25
F52
sbs(g10
g198
tp2300
g1
(g15
g3
NtRp2301
(dp2302
g18
F0.5
sg19
I32
sg20
g21
((dp2303
NI32
stRp2304
sg24
I2
sg25
F33
sbs(g10
g946
tp2305
g1
(g15
g3
NtRp2306
(dp2307
g18
F0.5
sg19
I32
sg20
g21
((dp2308
NI32
stRp2309
sg24
I2
sg25
F33
sbs(g10
g62
tp2310
g1
(g15
g3
NtRp2311
(dp2312
g18
F0.5
sg19
I32
sg20
g21
((dp2313
NI32
stRp2314
sg24
I2
sg25
F33
sbs(g8
g1873
tp2315
g1
(g15
g3
NtRp2316
(dp2317
g18
F0.5
sg19
I51
sg20
g21
((dp2318
NI51
stRp2319
sg24
I2
sg25
F52
sbs(S'Meaning'
g622
tp2320
g1
(g15
g3
NtRp2321
(dp2322
g18
F0.5
sg19
I92
sg20
g21
((dp2323
NI90
sI01
I2
stRp2324
sg24
I2
sg25
F93
sbs(g8
S'contains(backpacks)'
p2325
tp2326
g1
(g15
g3
NtRp2327
(dp2328
g18
F0.5
sg19
I51
sg20
g21
((dp2329
NI51
stRp2330
sg24
I2
sg25
F52
sbs(g9
g1102
tp2331
g1
(g15
g3
NtRp2332
(dp2333
g18
F0.5
sg19
I92
sg20
g21
((dp2334
NI92
stRp2335
sg24
I2
sg25
F93
sbs(g10
g168
tp2336
g1
(g15
g3
NtRp2337
(dp2338
g18
F0.5
sg19
I32
sg20
g21
((dp2339
NI32
stRp2340
sg24
I2
sg25
F33
sbs(g10
S'contains(dollar)'
p2341
tp2342
g1
(g15
g3
NtRp2343
(dp2344
g18
F0.5
sg19
I32
sg20
g21
((dp2345
NI32
stRp2346
sg24
I2
sg25
F33
sbs(g8
g1937
tp2347
g1
(g15
g3
NtRp2348
(dp2349
g18
F0.5
sg19
I51
sg20
g21
((dp2350
NI51
stRp2351
sg24
I2
sg25
F52
sbs(g8
g991
tp2352
g1
(g15
g3
NtRp2353
(dp2354
g18
F0.5
sg19
I51
sg20
g21
((dp2355
NI51
stRp2356
sg24
I2
sg25
F52
sbs(g10
g180
tp2357
g1
(g15
g3
NtRp2358
(dp2359
g18
F0.5
sg19
I32
sg20
g21
((dp2360
NI32
stRp2361
sg24
I2
sg25
F33
sbs(S'Meaning'
g1937
tp2362
g1
(g15
g3
NtRp2363
(dp2364
g18
F0.5
sg19
I92
sg20
g21
((dp2365
NI91
sI01
I1
stRp2366
sg24
I2
sg25
F93
sbs(S'Composition'
g1926
tp2367
g1
(g15
g3
NtRp2368
(dp2369
g18
F0.5
sg19
I32
sg20
g21
((dp2370
NI31
sI01
I1
stRp2371
sg24
I2
sg25
F33
sbs(S'Abbreviation'
g962
tp2372
g1
(g15
g3
NtRp2373
(dp2374
g18
F0.5
sg19
I51
sg20
g21
((dp2375
NI50
sI01
I1
stRp2376
sg24
I2
sg25
F52
sbs(g10
g1371
tp2377
g1
(g15
g3
NtRp2378
(dp2379
g18
F0.5
sg19
I32
sg20
g21
((dp2380
NI32
stRp2381
sg24
I2
sg25
F33
sbs(g235
g1739
tp2382
g1
(g15
g3
NtRp2383
(dp2384
g18
F0.5
sg19
I51
sg20
g21
((dp2385
NI50
sI01
I1
stRp2386
sg24
I2
sg25
F52
sbs(S'Meaning'
g1484
tp2387
g1
(g15
g3
NtRp2388
(dp2389
g18
F0.5
sg19
I92
sg20
g21
((dp2390
NI91
sI01
I1
stRp2391
sg24
I2
sg25
F93
sbs(g9
g522
tp2392
g1
(g15
g3
NtRp2393
(dp2394
g18
F0.5
sg19
I92
sg20
g21
((dp2395
NI92
stRp2396
sg24
I2
sg25
F93
sbs(S'Composition'
p2397
g940
tp2398
g1
(g15
g3
NtRp2399
(dp2400
g18
F0.5
sg19
I32
sg20
g21
((dp2401
NI30
sI01
I2
stRp2402
sg24
I2
sg25
F33
sbs(S'Meaning'
p2403
g168
tp2404
g1
(g15
g3
NtRp2405
(dp2406
g18
F0.5
sg19
I92
sg20
g21
((dp2407
NI91
sI01
I1
stRp2408
sg24
I2
sg25
F93
sbs(g9
g528
tp2409
g1
(g15
g3
NtRp2410
(dp2411
g18
F0.5
sg19
I92
sg20
g21
((dp2412
NI63
sI01
I29
stRp2413
sg24
I2
sg25
F93
sbs(g10
S'contains(haircut)'
p2414
tp2415
g1
(g15
g3
NtRp2416
(dp2417
g18
F0.5
sg19
I32
sg20
g21
((dp2418
NI32
stRp2419
sg24
I2
sg25
F33
sbs(S'Meaning'
g946
tp2420
g1
(g15
g3
NtRp2421
(dp2422
g18
F0.5
sg19
I92
sg20
g21
((dp2423
NI91
sI01
I1
stRp2424
sg24
I2
sg25
F93
sbs(g9
S'contains(htc)'
p2425
tp2426
g1
(g15
g3
NtRp2427
(dp2428
g18
F0.5
sg19
I92
sg20
g21
((dp2429
NI92
stRp2430
sg24
I2
sg25
F93
sbs(g546
S'contains(bureau)'
p2431
tp2432
g1
(g15
g3
NtRp2433
(dp2434
g18
F0.5
sg19
I51
sg20
g21
((dp2435
NI50
sI01
I1
stRp2436
sg24
I2
sg25
F52
sbs(S'Abbreviation'
g1852
tp2437
g1
(g15
g3
NtRp2438
(dp2439
g18
F0.5
sg19
I51
sg20
g21
((dp2440
NI50
sI01
I1
stRp2441
sg24
I2
sg25
F52
sbs(S'Meaning'
S'contains(atm)'
p2442
tp2443
g1
(g15
g3
NtRp2444
(dp2445
g18
F0.5
sg19
I92
sg20
g21
((dp2446
NI91
sI01
I1
stRp2447
sg24
I2
sg25
F93
sbs(g9
g1710
tp2448
g1
(g15
g3
NtRp2449
(dp2450
g18
F0.5
sg19
I92
sg20
g21
((dp2451
NI92
stRp2452
sg24
I2
sg25
F93
sbs(g8
g429
tp2453
g1
(g15
g3
NtRp2454
(dp2455
g18
F0.5
sg19
I51
sg20
g21
((dp2456
NI51
stRp2457
sg24
I2
sg25
F52
sbs(g10
S'contains(word)'
p2458
tp2459
g1
(g15
g3
NtRp2460
(dp2461
g18
F0.5
sg19
I32
sg20
g21
((dp2462
NI32
stRp2463
sg24
I2
sg25
F33
sbs(g8
g50
tp2464
g1
(g15
g3
NtRp2465
(dp2466
g18
F0.5
sg19
I51
sg20
g21
((dp2467
NI51
stRp2468
sg24
I2
sg25
F52
sbs(S'Abbreviation'
g1146
tp2469
g1
(g15
g3
NtRp2470
(dp2471
g18
F0.5
sg19
I51
sg20
g21
((dp2472
NI50
sI01
I1
stRp2473
sg24
I2
sg25
F52
sbs(g9
g229
tp2474
g1
(g15
g3
NtRp2475
(dp2476
g18
F0.5
sg19
I92
sg20
g21
((dp2477
NI92
stRp2478
sg24
I2
sg25
F93
sbs(g9
g576
tp2479
g1
(g15
g3
NtRp2480
(dp2481
g18
F0.5
sg19
I92
sg20
g21
((dp2482
NI92
stRp2483
sg24
I2
sg25
F93
sbs(g2397
g1003
tp2484
g1
(g15
g3
NtRp2485
(dp2486
g18
F0.5
sg19
I32
sg20
g21
((dp2487
NI27
sI01
I5
stRp2488
sg24
I2
sg25
F33
sbs(S'Meaning'
g1250
tp2489
g1
(g15
g3
NtRp2490
(dp2491
g18
F0.5
sg19
I92
sg20
g21
((dp2492
NI91
sI01
I1
stRp2493
sg24
I2
sg25
F93
sbs(S'Meaning'
g50
tp2494
g1
(g15
g3
NtRp2495
(dp2496
g18
F0.5
sg19
I92
sg20
g21
((dp2497
NI91
sI01
I1
stRp2498
sg24
I2
sg25
F93
sbs(g840
g2458
tp2499
g1
(g15
g3
NtRp2500
(dp2501
g18
F0.5
sg19
I92
sg20
g21
((dp2502
NI78
sI01
I14
stRp2503
sg24
I2
sg25
F93
sbs(g10
g453
tp2504
g1
(g15
g3
NtRp2505
(dp2506
g18
F0.5
sg19
I32
sg20
g21
((dp2507
NI32
stRp2508
sg24
I2
sg25
F33
sbs(g10
g1152
tp2509
g1
(g15
g3
NtRp2510
(dp2511
g18
F0.5
sg19
I32
sg20
g21
((dp2512
NI32
stRp2513
sg24
I2
sg25
F33
sbs(g8
g823
tp2514
g1
(g15
g3
NtRp2515
(dp2516
g18
F0.5
sg19
I51
sg20
g21
((dp2517
NI51
stRp2518
sg24
I2
sg25
F52
sbs(g9
g1543
tp2519
g1
(g15
g3
NtRp2520
(dp2521
g18
F0.5
sg19
I92
sg20
g21
((dp2522
NI92
stRp2523
sg24
I2
sg25
F93
sbs(g8
S'contains(protective)'
p2524
tp2525
g1
(g15
g3
NtRp2526
(dp2527
g18
F0.5
sg19
I51
sg20
g21
((dp2528
NI51
stRp2529
sg24
I2
sg25
F52
sbs(g9
g794
tp2530
g1
(g15
g3
NtRp2531
(dp2532
g18
F0.5
sg19
I92
sg20
g21
((dp2533
NI92
stRp2534
sg24
I2
sg25
F93
sbs(g10
g800
tp2535
g1
(g15
g3
NtRp2536
(dp2537
g18
F0.5
sg19
I32
sg20
g21
((dp2538
NI32
stRp2539
sg24
I2
sg25
F33
sbs(g9
g1212
tp2540
g1
(g15
g3
NtRp2541
(dp2542
g18
F0.5
sg19
I92
sg20
g21
((dp2543
NI92
stRp2544
sg24
I2
sg25
F93
sbs(g8
g2414
tp2545
g1
(g15
g3
NtRp2546
(dp2547
g18
F0.5
sg19
I51
sg20
g21
((dp2548
NI51
stRp2549
sg24
I2
sg25
F52
sbs(g8
g782
tp2550
g1
(g15
g3
NtRp2551
(dp2552
g18
F0.5
sg19
I51
sg20
g21
((dp2553
NI51
stRp2554
sg24
I2
sg25
F52
sbs(S'Meaning'
g558
tp2555
g1
(g15
g3
NtRp2556
(dp2557
g18
F0.5
sg19
I92
sg20
g21
((dp2558
NI91
sI01
I1
stRp2559
sg24
I2
sg25
F93
sbs(g86
g892
tp2560
g1
(g15
g3
NtRp2561
(dp2562
g18
F0.5
sg19
I51
sg20
g21
((dp2563
NI50
sI01
I1
stRp2564
sg24
I2
sg25
F52
sbs(g8
g771
tp2565
g1
(g15
g3
NtRp2566
(dp2567
g18
F0.5
sg19
I51
sg20
g21
((dp2568
NI51
stRp2569
sg24
I2
sg25
F52
sbs(g8
g2138
tp2570
g1
(g15
g3
NtRp2571
(dp2572
g18
F0.5
sg19
I51
sg20
g21
((dp2573
NI51
stRp2574
sg24
I2
sg25
F52
sbs(g10
g752
tp2575
g1
(g15
g3
NtRp2576
(dp2577
g18
F0.5
sg19
I32
sg20
g21
((dp2578
NI32
stRp2579
sg24
I2
sg25
F33
sbs(g9
g254
tp2580
g1
(g15
g3
NtRp2581
(dp2582
g18
F0.5
sg19
I92
sg20
g21
((dp2583
NI92
stRp2584
sg24
I2
sg25
F93
sbs(S'Composition'
S'contains(battery)'
p2585
tp2586
g1
(g15
g3
NtRp2587
(dp2588
g18
F0.5
sg19
I32
sg20
g21
((dp2589
NI31
sI01
I1
stRp2590
sg24
I2
sg25
F33
sbs(g616
g722
tp2591
g1
(g15
g3
NtRp2592
(dp2593
g18
F0.5
sg19
I51
sg20
g21
((dp2594
NI31
sI01
I20
stRp2595
sg24
I2
sg25
F52
sbs(g10
g1721
tp2596
g1
(g15
g3
NtRp2597
(dp2598
g18
F0.5
sg19
I32
sg20
g21
((dp2599
NI32
stRp2600
sg24
I2
sg25
F33
sbs(g8
g1152
tp2601
g1
(g15
g3
NtRp2602
(dp2603
g18
F0.5
sg19
I51
sg20
g21
((dp2604
NI51
stRp2605
sg24
I2
sg25
F52
sbs(S'Abbreviation'
S'contains(3d)'
p2606
tp2607
g1
(g15
g3
NtRp2608
(dp2609
g18
F0.5
sg19
I51
sg20
g21
((dp2610
NI50
sI01
I1
stRp2611
sg24
I2
sg25
F52
sbs(g10
g570
tp2612
g1
(g15
g3
NtRp2613
(dp2614
g18
F0.5
sg19
I32
sg20
g21
((dp2615
NI32
stRp2616
sg24
I2
sg25
F33
sbs(g10
g734
tp2617
g1
(g15
g3
NtRp2618
(dp2619
g18
F0.5
sg19
I32
sg20
g21
((dp2620
NI32
stRp2621
sg24
I2
sg25
F33
sbs(g10
g1212
tp2622
g1
(g15
g3
NtRp2623
(dp2624
g18
F0.5
sg19
I32
sg20
g21
((dp2625
NI32
stRp2626
sg24
I2
sg25
F33
sbs(g10
g2138
tp2627
g1
(g15
g3
NtRp2628
(dp2629
g18
F0.5
sg19
I32
sg20
g21
((dp2630
NI32
stRp2631
sg24
I2
sg25
F33
sbs(g10
g794
tp2632
g1
(g15
g3
NtRp2633
(dp2634
g18
F0.5
sg19
I32
sg20
g21
((dp2635
NI32
stRp2636
sg24
I2
sg25
F33
sbs(g8
g1184
tp2637
g1
(g15
g3
NtRp2638
(dp2639
g18
F0.5
sg19
I51
sg20
g21
((dp2640
NI51
stRp2641
sg24
I2
sg25
F52
sbs(g10
g689
tp2642
g1
(g15
g3
NtRp2643
(dp2644
g18
F0.5
sg19
I32
sg20
g21
((dp2645
NI32
stRp2646
sg24
I2
sg25
F33
sbs(g10
g771
tp2647
g1
(g15
g3
NtRp2648
(dp2649
g18
F0.5
sg19
I32
sg20
g21
((dp2650
NI32
stRp2651
sg24
I2
sg25
F33
sbs(g9
g32
tp2652
g1
(g15
g3
NtRp2653
(dp2654
g18
F0.5
sg19
I92
sg20
g21
((dp2655
NI92
stRp2656
sg24
I2
sg25
F93
sbs(g9
g13
tp2657
g1
(g15
g3
NtRp2658
(dp2659
g18
F0.5
sg19
I92
sg20
g21
((dp2660
NI92
stRp2661
sg24
I2
sg25
F93
sbs(g10
g1574
tp2662
g1
(g15
g3
NtRp2663
(dp2664
g18
F0.5
sg19
I32
sg20
g21
((dp2665
NI32
stRp2666
sg24
I2
sg25
F33
sbs(g10
g105
tp2667
g1
(g15
g3
NtRp2668
(dp2669
g18
F0.5
sg19
I32
sg20
g21
((dp2670
NI32
stRp2671
sg24
I2
sg25
F33
sbs(g2218
g1816
tp2672
g1
(g15
g3
NtRp2673
(dp2674
g18
F0.5
sg19
I92
sg20
g21
((dp2675
NI91
sI01
I1
stRp2676
sg24
I2
sg25
F93
sbs(g10
g1146
tp2677
g1
(g15
g3
NtRp2678
(dp2679
g18
F0.5
sg19
I32
sg20
g21
((dp2680
NI32
stRp2681
sg24
I2
sg25
F33
sbs(S'Meaning'
g651
tp2682
g1
(g15
g3
NtRp2683
(dp2684
g18
F0.5
sg19
I92
sg20
g21
((dp2685
NI91
sI01
I1
stRp2686
sg24
I2
sg25
F93
sbs(g10
g395
tp2687
g1
(g15
g3
NtRp2688
(dp2689
g18
F0.5
sg19
I32
sg20
g21
((dp2690
NI32
stRp2691
sg24
I2
sg25
F33
sbs(g8
g634
tp2692
g1
(g15
g3
NtRp2693
(dp2694
g18
F0.5
sg19
I51
sg20
g21
((dp2695
NI51
stRp2696
sg24
I2
sg25
F52
sbs(S'Meaning'
g1354
tp2697
g1
(g15
g3
NtRp2698
(dp2699
g18
F0.5
sg19
I92
sg20
g21
((dp2700
NI91
sI01
I1
stRp2701
sg24
I2
sg25
F93
sbs(g314
S'contains(a)'
tp2702
g1
(g15
g3
NtRp2703
(dp2704
g18
F0.5
sg19
I51
sg20
g21
((dp2705
NI50
sI01
I1
stRp2706
sg24
I2
sg25
F52
sbs(S'Composition'
g765
tp2707
g1
(g15
g3
NtRp2708
(dp2709
g18
F0.5
sg19
I32
sg20
g21
((dp2710
NI31
sI01
I1
stRp2711
sg24
I2
sg25
F33
sbs(g9
g2039
tp2712
g1
(g15
g3
NtRp2713
(dp2714
g18
F0.5
sg19
I92
sg20
g21
((dp2715
NI92
stRp2716
sg24
I2
sg25
F93
sbs(g10
g2442
tp2717
g1
(g15
g3
NtRp2718
(dp2719
g18
F0.5
sg19
I32
sg20
g21
((dp2720
NI32
stRp2721
sg24
I2
sg25
F33
sbs(g314
g2012
tp2722
g1
(g15
g3
NtRp2723
(dp2724
g18
F0.5
sg19
I51
sg20
g21
((dp2725
NI50
sI01
I1
stRp2726
sg24
I2
sg25
F52
sbs(g8
g847
tp2727
g1
(g15
g3
NtRp2728
(dp2729
g18
F0.5
sg19
I51
sg20
g21
((dp2730
NI51
stRp2731
sg24
I2
sg25
F52
sbs(g10
g1348
tp2732
g1
(g15
g3
NtRp2733
(dp2734
g18
F0.5
sg19
I32
sg20
g21
((dp2735
NI32
stRp2736
sg24
I2
sg25
F33
sbs(g10
g672
tp2737
g1
(g15
g3
NtRp2738
(dp2739
g18
F0.5
sg19
I32
sg20
g21
((dp2740
NI32
stRp2741
sg24
I2
sg25
F33
sbs(g8
g540
tp2742
g1
(g15
g3
NtRp2743
(dp2744
g18
F0.5
sg19
I51
sg20
g21
((dp2745
NI51
stRp2746
sg24
I2
sg25
F52
sbs(g8
g576
tp2747
g1
(g15
g3
NtRp2748
(dp2749
g18
F0.5
sg19
I51
sg20
g21
((dp2750
NI51
stRp2751
sg24
I2
sg25
F52
sbs(g8
g1371
tp2752
g1
(g15
g3
NtRp2753
(dp2754
g18
F0.5
sg19
I51
sg20
g21
((dp2755
NI51
stRp2756
sg24
I2
sg25
F52
sbs(g10
g476
tp2757
g1
(g15
g3
NtRp2758
(dp2759
g18
F0.5
sg19
I32
sg20
g21
((dp2760
NI32
stRp2761
sg24
I2
sg25
F33
sbs(S'Meaning'
p2762
g812
tp2763
g1
(g15
g3
NtRp2764
(dp2765
g18
F0.5
sg19
I92
sg20
g21
((dp2766
NI72
sI01
I20
stRp2767
sg24
I2
sg25
F93
sbs(S'Meaning'
g498
tp2768
g1
(g15
g3
NtRp2769
(dp2770
g18
F0.5
sg19
I92
sg20
g21
((dp2771
NI91
sI01
I1
stRp2772
sg24
I2
sg25
F93
sbs(g10
g651
tp2773
g1
(g15
g3
NtRp2774
(dp2775
g18
F0.5
sg19
I32
sg20
g21
((dp2776
NI32
stRp2777
sg24
I2
sg25
F33
sbs(g8
g2341
tp2778
g1
(g15
g3
NtRp2779
(dp2780
g18
F0.5
sg19
I51
sg20
g21
((dp2781
NI51
stRp2782
sg24
I2
sg25
F52
sbs(g9
g1727
tp2783
g1
(g15
g3
NtRp2784
(dp2785
g18
F0.5
sg19
I92
sg20
g21
((dp2786
NI92
stRp2787
sg24
I2
sg25
F93
sbs(S'Meaning'
g2341
tp2788
g1
(g15
g3
NtRp2789
(dp2790
g18
F0.5
sg19
I92
sg20
g21
((dp2791
NI91
sI01
I1
stRp2792
sg24
I2
sg25
F93
sbs(g10
g2325
tp2793
g1
(g15
g3
NtRp2794
(dp2795
g18
F0.5
sg19
I32
sg20
g21
((dp2796
NI32
stRp2797
sg24
I2
sg25
F33
sbs(g10
g1884
tp2798
g1
(g15
g3
NtRp2799
(dp2800
g18
F0.5
sg19
I32
sg20
g21
((dp2801
NI32
stRp2802
sg24
I2
sg25
F33
sbs(g10
g236
tp2803
g1
(g15
g3
NtRp2804
(dp2805
g18
F0.5
sg19
I32
sg20
g21
((dp2806
NI32
stRp2807
sg24
I2
sg25
F33
sbs(g9
g1926
tp2808
g1
(g15
g3
NtRp2809
(dp2810
g18
F0.5
sg19
I92
sg20
g21
((dp2811
NI92
stRp2812
sg24
I2
sg25
F93
sbs(S'Abbreviation'
g516
tp2813
g1
(g15
g3
NtRp2814
(dp2815
g18
F0.5
sg19
I51
sg20
g21
((dp2816
NI50
sI01
I1
stRp2817
sg24
I2
sg25
F52
sbs(g10
g1468
tp2818
g1
(g15
g3
NtRp2819
(dp2820
g18
F0.5
sg19
I32
sg20
g21
((dp2821
NI32
stRp2822
sg24
I2
sg25
F33
sbs(g8
g1332
tp2823
g1
(g15
g3
NtRp2824
(dp2825
g18
F0.5
sg19
I51
sg20
g21
((dp2826
NI51
stRp2827
sg24
I2
sg25
F52
sbs(S'Meaning'
g1895
tp2828
g1
(g15
g3
NtRp2829
(dp2830
g18
F0.5
sg19
I92
sg20
g21
((dp2831
NI91
sI01
I1
stRp2832
sg24
I2
sg25
F93
sbs(g10
g2181
tp2833
g1
(g15
g3
NtRp2834
(dp2835
g18
F0.5
sg19
I32
sg20
g21
((dp2836
NI32
stRp2837
sg24
I2
sg25
F33
sbs(g9
g962
tp2838
g1
(g15
g3
NtRp2839
(dp2840
g18
F0.5
sg19
I92
sg20
g21
((dp2841
NI92
stRp2842
sg24
I2
sg25
F93
sbs(g9
g248
tp2843
g1
(g15
g3
NtRp2844
(dp2845
g18
F0.5
sg19
I92
sg20
g21
((dp2846
NI92
stRp2847
sg24
I2
sg25
F93
sbs(g10
g547
tp2848
g1
(g15
g3
NtRp2849
(dp2850
g18
F0.5
sg19
I32
sg20
g21
((dp2851
NI32
stRp2852
sg24
I2
sg25
F33
sbs(g9
g587
tp2853
g1
(g15
g3
NtRp2854
(dp2855
g18
F0.5
sg19
I92
sg20
g21
((dp2856
NI63
sI01
I29
stRp2857
sg24
I2
sg25
F93
sbs(S'Composition'
g1305
tp2858
g1
(g15
g3
NtRp2859
(dp2860
g18
F0.5
sg19
I32
sg20
g21
((dp2861
NI31
sI01
I1
stRp2862
sg24
I2
sg25
F33
sbs(g8
g1354
tp2863
g1
(g15
g3
NtRp2864
(dp2865
g18
F0.5
sg19
I51
sg20
g21
((dp2866
NI51
stRp2867
sg24
I2
sg25
F52
sbs(g10
g1102
tp2868
g1
(g15
g3
NtRp2869
(dp2870
g18
F0.5
sg19
I32
sg20
g21
((dp2871
I01
I32
stRp2872
sg24
I2
sg25
F33
sbs(g314
S'contains(mean)'
tp2873
g1
(g15
g3
NtRp2874
(dp2875
g18
F0.5
sg19
I51
sg20
g21
((dp2876
NI50
sI01
I1
stRp2877
sg24
I2
sg25
F52
sbs(g10
g2294
tp2878
g1
(g15
g3
NtRp2879
(dp2880
g18
F0.5
sg19
I32
sg20
g21
((dp2881
NI32
stRp2882
sg24
I2
sg25
F33
sbs(S'Composition'
g1096
tp2883
g1
(g15
g3
NtRp2884
(dp2885
g18
F0.5
sg19
I32
sg20
g21
((dp2886
NI31
sI01
I1
stRp2887
sg24
I2
sg25
F33
sbs(g10
g2033
tp2888
g1
(g15
g3
NtRp2889
(dp2890
g18
F0.5
sg19
I32
sg20
g21
((dp2891
NI32
stRp2892
sg24
I2
sg25
F33
sbs(g10
g2425
tp2893
g1
(g15
g3
NtRp2894
(dp2895
g18
F0.5
sg19
I32
sg20
g21
((dp2896
NI32
stRp2897
sg24
I2
sg25
F33
sbs(g616
S'contains(does)'
tp2898
g1
(g15
g3
NtRp2899
(dp2900
g18
F0.5
sg19
I51
sg20
g21
((dp2901
NI24
sI01
I27
stRp2902
sg24
I2
sg25
F52
sbs(g8
g2033
tp2903
g1
(g15
g3
NtRp2904
(dp2905
g18
F0.5
sg19
I51
sg20
g21
((dp2906
NI49
sI01
I2
stRp2907
sg24
I2
sg25
F52
sbs(S'Abbreviation'
g401
tp2908
g1
(g15
g3
NtRp2909
(dp2910
g18
F0.5
sg19
I51
sg20
g21
((dp2911
NI50
sI01
I1
stRp2912
sg24
I2
sg25
F52
sbs(S'Meaning'
g1532
tp2913
g1
(g15
g3
NtRp2914
(dp2915
g18
F0.5
sg19
I92
sg20
g21
((dp2916
NI91
sI01
I1
stRp2917
sg24
I2
sg25
F93
sbs(S'Meaning'
g1616
tp2918
g1
(g15
g3
NtRp2919
(dp2920
g18
F0.5
sg19
I92
sg20
g21
((dp2921
NI91
sI01
I1
stRp2922
sg24
I2
sg25
F93
sbs(g8
S'contains(are)'
p2923
tp2924
g1
(g15
g3
NtRp2925
(dp2926
g18
F0.5
sg19
I51
sg20
g21
((dp2927
NI51
stRp2928
sg24
I2
sg25
F52
sbs(S'Meaning'
g1943
tp2929
g1
(g15
g3
NtRp2930
(dp2931
g18
F0.5
sg19
I92
sg20
g21
((dp2932
NI91
sI01
I1
stRp2933
sg24
I2
sg25
F93
sbs(g8
g260
tp2934
g1
(g15
g3
NtRp2935
(dp2936
g18
F0.5
sg19
I51
sg20
g21
((dp2937
NI51
stRp2938
sg24
I2
sg25
F52
sbs(g9
g174
tp2939
g1
(g15
g3
NtRp2940
(dp2941
g18
F0.5
sg19
I92
sg20
g21
((dp2942
NI92
stRp2943
sg24
I2
sg25
F93
sbs(g10
g1733
tp2944
g1
(g15
g3
NtRp2945
(dp2946
g18
F0.5
sg19
I32
sg20
g21
((dp2947
NI32
stRp2948
sg24
I2
sg25
F33
sbs(g9
g788
tp2949
g1
(g15
g3
NtRp2950
(dp2951
g18
F0.5
sg19
I92
sg20
g21
((dp2952
NI92
stRp2953
sg24
I2
sg25
F93
sbs(S'Abbreviation'
g2159
tp2954
g1
(g15
g3
NtRp2955
(dp2956
g18
F0.5
sg19
I51
sg20
g21
((dp2957
NI50
sI01
I1
stRp2958
sg24
I2
sg25
F52
sbs(g10
g1266
tp2959
g1
(g15
g3
NtRp2960
(dp2961
g18
F0.5
sg19
I32
sg20
g21
((dp2962
NI32
stRp2963
sg24
I2
sg25
F33
sbs(g38
g2294
tp2964
g1
(g15
g3
NtRp2965
(dp2966
g18
F0.5
sg19
I92
sg20
g21
((dp2967
NI91
sI01
I1
stRp2968
sg24
I2
sg25
F93
sbs(g9
S'contains(company)'
p2969
tp2970
g1
(g15
g3
NtRp2971
(dp2972
g18
F0.5
sg19
I92
sg20
g21
((dp2973
NI92
stRp2974
sg24
I2
sg25
F93
sbs(S'Meaning'
g283
tp2975
g1
(g15
g3
NtRp2976
(dp2977
g18
F0.5
sg19
I92
sg20
g21
((dp2978
NI91
sI01
I1
stRp2979
sg24
I2
sg25
F93
sbs(S'Meaning'
g1135
tp2980
g1
(g15
g3
NtRp2981
(dp2982
g18
F0.5
sg19
I92
sg20
g21
((dp2983
NI91
sI01
I1
stRp2984
sg24
I2
sg25
F93
sbs(S'Meaning'
g1733
tp2985
g1
(g15
g3
NtRp2986
(dp2987
g18
F0.5
sg19
I92
sg20
g21
((dp2988
NI91
sI01
I1
stRp2989
sg24
I2
sg25
F93
sbs(g758
g2212
tp2990
g1
(g15
g3
NtRp2991
(dp2992
g18
F0.5
sg19
I51
sg20
g21
((dp2993
NI50
sI01
I1
stRp2994
sg24
I2
sg25
F52
sbs(g9
g2170
tp2995
g1
(g15
g3
NtRp2996
(dp2997
g18
F0.5
sg19
I92
sg20
g21
((dp2998
NI92
stRp2999
sg24
I2
sg25
F93
sbs(S'Meaning'
g740
tp3000
g1
(g15
g3
NtRp3001
(dp3002
g18
F0.5
sg19
I92
sg20
g21
((dp3003
NI91
sI01
I1
stRp3004
sg24
I2
sg25
F93
sbs(g10
g383
tp3005
g1
(g15
g3
NtRp3006
(dp3007
g18
F0.5
sg19
I32
sg20
g21
((dp3008
NI32
stRp3009
sg24
I2
sg25
F33
sbs(S'Meaning'
g875
tp3010
g1
(g15
g3
NtRp3011
(dp3012
g18
F0.5
sg19
I92
sg20
g21
((dp3013
NI91
sI01
I1
stRp3014
sg24
I2
sg25
F93
sbs(S'Composition'
g1326
tp3015
g1
(g15
g3
NtRp3016
(dp3017
g18
F0.5
sg19
I32
sg20
g21
((dp3018
NI31
sI01
I1
stRp3019
sg24
I2
sg25
F33
sbs(S'Meaning'
g800
tp3020
g1
(g15
g3
NtRp3021
(dp3022
g18
F0.5
sg19
I92
sg20
g21
((dp3023
NI91
sI01
I1
stRp3024
sg24
I2
sg25
F93
sbs(g295
g2170
tp3025
g1
(g15
g3
NtRp3026
(dp3027
g18
F0.5
sg19
I51
sg20
g21
((dp3028
NI48
sI01
I3
stRp3029
sg24
I2
sg25
F52
sbs(g8
g377
tp3030
g1
(g15
g3
NtRp3031
(dp3032
g18
F0.5
sg19
I51
sg20
g21
((dp3033
NI51
stRp3034
sg24
I2
sg25
F52
sbs(g8
g1223
tp3035
g1
(g15
g3
NtRp3036
(dp3037
g18
F0.5
sg19
I51
sg20
g21
((dp3038
NI51
stRp3039
sg24
I2
sg25
F52
sbs(g10
g1022
tp3040
g1
(g15
g3
NtRp3041
(dp3042
g18
F0.5
sg19
I32
sg20
g21
((dp3043
NI32
stRp3044
sg24
I2
sg25
F33
sbs(g9
g2045
tp3045
g1
(g15
g3
NtRp3046
(dp3047
g18
F0.5
sg19
I92
sg20
g21
((dp3048
NI92
stRp3049
sg24
I2
sg25
F93
sbs(S'Meaning'
g302
tp3050
g1
(g15
g3
NtRp3051
(dp3052
g18
F0.5
sg19
I92
sg20
g21
((dp3053
NI91
sI01
I1
stRp3054
sg24
I2
sg25
F93
sbs(S'Meaning'
g1085
tp3055
g1
(g15
g3
NtRp3056
(dp3057
g18
F0.5
sg19
I92
sg20
g21
((dp3058
NI91
sI01
I1
stRp3059
sg24
I2
sg25
F93
sbs(g9
g151
tp3060
g1
(g15
g3
NtRp3061
(dp3062
g18
F0.5
sg19
I92
sg20
g21
((dp3063
NI92
stRp3064
sg24
I2
sg25
F93
sbs(g10
g1727
tp3065
g1
(g15
g3
NtRp3066
(dp3067
g18
F0.5
sg19
I32
sg20
g21
((dp3068
NI32
stRp3069
sg24
I2
sg25
F33
sbs(g9
g1015
tp3070
g1
(g15
g3
NtRp3071
(dp3072
g18
F0.5
sg19
I92
sg20
g21
((dp3073
NI92
stRp3074
sg24
I2
sg25
F93
sbs(g8
g1326
tp3075
g1
(g15
g3
NtRp3076
(dp3077
g18
F0.5
sg19
I51
sg20
g21
((dp3078
NI51
stRp3079
sg24
I2
sg25
F52
sbs(g9
g540
tp3080
g1
(g15
g3
NtRp3081
(dp3082
g18
F0.5
sg19
I92
sg20
g21
((dp3083
NI92
stRp3084
sg24
I2
sg25
F93
sbs(g295
g2181
tp3085
g1
(g15
g3
NtRp3086
(dp3087
g18
F0.5
sg19
I51
sg20
g21
((dp3088
NI50
sI01
I1
stRp3089
sg24
I2
sg25
F52
sbs(g8
g858
tp3090
g1
(g15
g3
NtRp3091
(dp3092
g18
F0.5
sg19
I51
sg20
g21
((dp3093
NI51
stRp3094
sg24
I2
sg25
F52
sbs(S'Meaning'
S'contains(pencil)'
tp3095
g1
(g15
g3
NtRp3096
(dp3097
g18
F0.5
sg19
I92
sg20
g21
((dp3098
NI91
sI01
I1
stRp3099
sg24
I2
sg25
F93
sbs(g9
g2431
tp3100
g1
(g15
g3
NtRp3101
(dp3102
g18
F0.5
sg19
I92
sg20
g21
((dp3103
NI92
stRp3104
sg24
I2
sg25
F93
sbs(g10
g2969
tp3105
g1
(g15
g3
NtRp3106
(dp3107
g18
F0.5
sg19
I32
sg20
g21
((dp3108
NI32
stRp3109
sg24
I2
sg25
F33
sbs(g10
g678
tp3110
g1
(g15
g3
NtRp3111
(dp3112
g18
F0.5
sg19
I32
sg20
g21
((dp3113
NI32
stRp3114
sg24
I2
sg25
F33
sbs(S'Abbreviation'
g2425
tp3115
g1
(g15
g3
NtRp3116
(dp3117
g18
F0.5
sg19
I51
sg20
g21
((dp3118
NI50
sI01
I1
stRp3119
sg24
I2
sg25
F52
sbs(g9
g2606
tp3120
g1
(g15
g3
NtRp3121
(dp3122
g18
F0.5
sg19
I92
sg20
g21
((dp3123
NI92
stRp3124
sg24
I2
sg25
F93
sbs(g9
g447
tp3125
g1
(g15
g3
NtRp3126
(dp3127
g18
F0.5
sg19
I92
sg20
g21
((dp3128
NI92
stRp3129
sg24
I2
sg25
F93
sbs(g2403
g198
tp3130
g1
(g15
g3
NtRp3131
(dp3132
g18
F0.5
sg19
I92
sg20
g21
((dp3133
NI91
sI01
I1
stRp3134
sg24
I2
sg25
F93
sbs(g9
g2159
tp3135
g1
(g15
g3
NtRp3136
(dp3137
g18
F0.5
sg19
I92
sg20
g21
((dp3138
NI92
stRp3139
sg24
I2
sg25
F93
sbs(g9
g459
tp3140
g1
(g15
g3
NtRp3141
(dp3142
g18
F0.5
sg19
I92
sg20
g21
((dp3143
NI92
stRp3144
sg24
I2
sg25
F93
sbs(g10
g1521
tp3145
g1
(g15
g3
NtRp3146
(dp3147
g18
F0.5
sg19
I32
sg20
g21
((dp3148
NI32
stRp3149
sg24
I2
sg25
F33
sbs(g10
g1959
tp3150
g1
(g15
g3
NtRp3151
(dp3152
g18
F0.5
sg19
I32
sg20
g21
((dp3153
NI32
stRp3154
sg24
I2
sg25
F33
sbs(g8
g174
tp3155
g1
(g15
g3
NtRp3156
(dp3157
g18
F0.5
sg19
I51
sg20
g21
((dp3158
NI51
stRp3159
sg24
I2
sg25
F52
sbs(g10
g1085
tp3160
g1
(g15
g3
NtRp3161
(dp3162
g18
F0.5
sg19
I32
sg20
g21
((dp3163
NI32
stRp3164
sg24
I2
sg25
F33
sbs(g10
g2923
tp3165
g1
(g15
g3
NtRp3166
(dp3167
g18
F0.5
sg19
I32
sg20
g21
((dp3168
NI18
sI01
I14
stRp3169
sg24
I2
sg25
F33
sbs(g8
g985
tp3170
g1
(g15
g3
NtRp3171
(dp3172
g18
F0.5
sg19
I51
sg20
g21
((dp3173
NI51
stRp3174
sg24
I2
sg25
F52
sbs(g706
g242
tp3175
g1
(g15
g3
NtRp3176
(dp3177
g18
F0.5
sg19
I92
sg20
g21
((dp3178
NI64
sI01
I28
stRp3179
sg24
I2
sg25
F93
sbs(g9
g68
tp3180
g1
(g15
g3
NtRp3181
(dp3182
g18
F0.5
sg19
I92
sg20
g21
((dp3183
NI92
stRp3184
sg24
I2
sg25
F93
sbs(g8
g242
tp3185
g1
(g15
g3
NtRp3186
(dp3187
g18
F0.5
sg19
I51
sg20
g21
((dp3188
NI51
stRp3189
sg24
I2
sg25
F52
sbs(g9
g180
tp3190
g1
(g15
g3
NtRp3191
(dp3192
g18
F0.5
sg19
I92
sg20
g21
((dp3193
NI92
stRp3194
sg24
I2
sg25
F93
sbs(g10
g139
tp3195
g1
(g15
g3
NtRp3196
(dp3197
g18
F0.5
sg19
I32
sg20
g21
((dp3198
NI32
stRp3199
sg24
I2
sg25
F33
sbs(g9
g940
tp3200
g1
(g15
g3
NtRp3201
(dp3202
g18
F0.5
sg19
I92
sg20
g21
((dp3203
NI92
stRp3204
sg24
I2
sg25
F93
sbs(S'Meaning'
g2325
tp3205
g1
(g15
g3
NtRp3206
(dp3207
g18
F0.5
sg19
I92
sg20
g21
((dp3208
NI91
sI01
I1
stRp3209
sg24
I2
sg25
F93
sbs(g10
g522
tp3210
g1
(g15
g3
NtRp3211
(dp3212
g18
F0.5
sg19
I32
sg20
g21
((dp3213
NI32
stRp3214
sg24
I2
sg25
F33
sbs(g10
g759
tp3215
g1
(g15
g3
NtRp3216
(dp3217
g18
F0.5
sg19
I32
sg20
g21
((dp3218
NI32
stRp3219
sg24
I2
sg25
F33
sbs(g10
g204
tp3220
g1
(g15
g3
NtRp3221
(dp3222
g18
F0.5
sg19
I32
sg20
g21
((dp3223
NI32
stRp3224
sg24
I2
sg25
F33
sbs(g10
g1986
tp3225
g1
(g15
g3
NtRp3226
(dp3227
g18
F0.5
sg19
I32
sg20
g21
((dp3228
NI32
stRp3229
sg24
I2
sg25
F33
sbs(S'Meaning'
g2524
tp3230
g1
(g15
g3
NtRp3231
(dp3232
g18
F0.5
sg19
I92
sg20
g21
((dp3233
NI91
sI01
I1
stRp3234
sg24
I2
sg25
F93
sbs(g86
g2969
tp3235
g1
(g15
g3
NtRp3236
(dp3237
g18
F0.5
sg19
I51
sg20
g21
((dp3238
NI50
sI01
I1
stRp3239
sg24
I2
sg25
F52
sbs(S'Meaning'
g823
tp3240
g1
(g15
g3
NtRp3241
(dp3242
g18
F0.5
sg19
I92
sg20
g21
((dp3243
NI91
sI01
I1
stRp3244
sg24
I2
sg25
F93
sbs(g706
S'contains(is)'
tp3245
g1
(g15
g3
NtRp3246
(dp3247
g18
F0.5
sg19
I92
sg20
g21
((dp3248
NI58
sI01
I34
stRp3249
sg24
I2
sg25
F93
sbs(g9
g74
tp3250
g1
(g15
g3
NtRp3251
(dp3252
g18
F0.5
sg19
I92
sg20
g21
((dp3253
NI92
stRp3254
sg24
I2
sg25
F93
sbs(S'Meaning'
g834
tp3255
g1
(g15
g3
NtRp3256
(dp3257
g18
F0.5
sg19
I92
sg20
g21
((dp3258
NI91
sI01
I1
stRp3259
sg24
I2
sg25
F93
sbs(g314
g1439
tp3260
g1
(g15
g3
NtRp3261
(dp3262
g18
F0.5
sg19
I51
sg20
g21
((dp3263
NI50
sI01
I1
stRp3264
sg24
I2
sg25
F52
sbs(g8
g56
tp3265
g1
(g15
g3
NtRp3266
(dp3267
g18
F0.5
sg19
I51
sg20
g21
((dp3268
NI51
stRp3269
sg24
I2
sg25
F52
sbs(g9
g133
tp3270
g1
(g15
g3
NtRp3271
(dp3272
g18
F0.5
sg19
I92
sg20
g21
((dp3273
NI91
sI01
I1
stRp3274
sg24
I2
sg25
F93
sbs(g8
g133
tp3275
g1
(g15
g3
NtRp3276
(dp3277
g18
F0.5
sg19
I51
sg20
g21
((dp3278
NI51
stRp3279
sg24
I2
sg25
F52
sbs(g9
g1986
tp3280
g1
(g15
g3
NtRp3281
(dp3282
g18
F0.5
sg19
I92
sg20
g21
((dp3283
NI92
stRp3284
sg24
I2
sg25
F93
sbs(g10
g1895
tp3285
g1
(g15
g3
NtRp3286
(dp3287
g18
F0.5
sg19
I32
sg20
g21
((dp3288
NI32
stRp3289
sg24
I2
sg25
F33
sbs(S'Abbreviation'
g116
tp3290
g1
(g15
g3
NtRp3291
(dp3292
g18
F0.5
sg19
I51
sg20
g21
((dp3293
NI50
sI01
I1
stRp3294
sg24
I2
sg25
F52
sbs(g10
g1790
tp3295
g1
(g15
g3
NtRp3296
(dp3297
g18
F0.5
sg19
I32
sg20
g21
((dp3298
NI32
stRp3299
sg24
I2
sg25
F33
sbs(S'Meaning'
g1413
tp3300
g1
(g15
g3
NtRp3301
(dp3302
g18
F0.5
sg19
I92
sg20
g21
((dp3303
NI91
sI01
I1
stRp3304
sg24
I2
sg25
F93
sbs(S'Meaning'
g1113
tp3305
g1
(g15
g3
NtRp3306
(dp3307
g18
F0.5
sg19
I92
sg20
g21
((dp3308
NI91
sI01
I1
stRp3309
sg24
I2
sg25
F93
sbs(S'Meaning'
g700
tp3310
g1
(g15
g3
NtRp3311
(dp3312
g18
F0.5
sg19
I92
sg20
g21
((dp3313
NI91
sI01
I1
stRp3314
sg24
I2
sg25
F93
sbs(g8
g2442
tp3315
g1
(g15
g3
NtRp3316
(dp3317
g18
F0.5
sg19
I51
sg20
g21
((dp3318
NI51
stRp3319
sg24
I2
sg25
F52
sbs(S'Meaning'
g728
tp3320
g1
(g15
g3
NtRp3321
(dp3322
g18
F0.5
sg19
I92
sg20
g21
((dp3323
NI91
sI01
I1
stRp3324
sg24
I2
sg25
F93
sbs(g10
g875
tp3325
g1
(g15
g3
NtRp3326
(dp3327
g18
F0.5
sg19
I32
sg20
g21
((dp3328
NI32
stRp3329
sg24
I2
sg25
F33
sbs(g8
g558
tp3330
g1
(g15
g3
NtRp3331
(dp3332
g18
F0.5
sg19
I51
sg20
g21
((dp3333
NI51
stRp3334
sg24
I2
sg25
F52
sbs(g8
g1816
tp3335
g1
(g15
g3
NtRp3336
(dp3337
g18
F0.5
sg19
I51
sg20
g21
((dp3338
NI51
stRp3339
sg24
I2
sg25
F52
sbs(g8
g1585
tp3340
g1
(g15
g3
NtRp3341
(dp3342
g18
F0.5
sg19
I51
sg20
g21
((dp3343
NI51
stRp3344
sg24
I2
sg25
F52
sbs(g10
g266
tp3345
g1
(g15
g3
NtRp3346
(dp3347
g18
F0.5
sg19
I32
sg20
g21
((dp3348
NI32
stRp3349
sg24
I2
sg25
F33
sbs(g93
S'contains(is)'
tp3350
g1
(g15
g3
NtRp3351
(dp3352
g18
F0.5
sg19
I32
sg20
g21
((dp3353
NI14
sI01
I18
stRp3354
sg24
I2
sg25
F33
sbs(g10
g2012
tp3355
g1
(g15
g3
NtRp3356
(dp3357
g18
F0.5
sg19
I32
sg20
g21
((dp3358
NI32
stRp3359
sg24
I2
sg25
F33
sbs(g9
g1790
tp3360
g1
(g15
g3
NtRp3361
(dp3362
g18
F0.5
sg19
I92
sg20
g21
((dp3363
NI92
stRp3364
sg24
I2
sg25
F93
sbs(g8
g734
tp3365
g1
(g15
g3
NtRp3366
(dp3367
g18
F0.5
sg19
I51
sg20
g21
((dp3368
NI51
stRp3369
sg24
I2
sg25
F52
sbs(g9
g2585
tp3370
g1
(g15
g3
NtRp3371
(dp3372
g18
F0.5
sg19
I92
sg20
g21
((dp3373
NI92
stRp3374
sg24
I2
sg25
F93
sbs(g8
S'contains(of)'
tp3375
g1
(g15
g3
NtRp3376
(dp3377
g18
F0.5
sg19
I51
sg20
g21
((dp3378
NI35
sI01
I16
stRp3379
sg24
I2
sg25
F52
sbs(g2137
g1873
tp3380
g1
(g15
g3
NtRp3381
(dp3382
g18
F0.5
sg19
I92
sg20
g21
((dp3383
NI91
sI01
I1
stRp3384
sg24
I2
sg25
F93
sbs(g10
g634
tp3385
g1
(g15
g3
NtRp3386
(dp3387
g18
F0.5
sg19
I32
sg20
g21
((dp3388
NI32
stRp3389
sg24
I2
sg25
F33
sbs(g8
g2076
tp3390
g1
(g15
g3
NtRp3391
(dp3392
g18
F0.5
sg19
I51
sg20
g21
((dp3393
NI45
sI01
I6
stRp3394
sg24
I2
sg25
F52
sbs(g8
g2585
tp3395
g1
(g15
g3
NtRp3396
(dp3397
g18
F0.5
sg19
I51
sg20
g21
((dp3398
NI51
stRp3399
sg24
I2
sg25
F52
sbs(S'Composition'
g1679
tp3400
g1
(g15
g3
NtRp3401
(dp3402
g18
F0.5
sg19
I32
sg20
g21
((dp3403
NI31
sI01
I1
stRp3404
sg24
I2
sg25
F33
sbs(g10
g1360
tp3405
g1
(g15
g3
NtRp3406
(dp3407
g18
F0.5
sg19
I32
sg20
g21
((dp3408
NI32
stRp3409
sg24
I2
sg25
F33
sbs(S'Meaning'
g308
tp3410
g1
(g15
g3
NtRp3411
(dp3412
g18
F0.5
sg19
I92
sg20
g21
((dp3413
NI91
sI01
I1
stRp3414
sg24
I2
sg25
F93
sbs(S'Meaning'
p3415
g139
tp3416
g1
(g15
g3
NtRp3417
(dp3418
g18
F0.5
sg19
I92
sg20
g21
((dp3419
NI91
sI01
I1
stRp3420
sg24
I2
sg25
F93
sbs(g10
g858
tp3421
g1
(g15
g3
NtRp3422
(dp3423
g18
F0.5
sg19
I32
sg20
g21
((dp3424
NI32
stRp3425
sg24
I2
sg25
F33
sbs(S'Composition'
g1668
tp3426
g1
(g15
g3
NtRp3427
(dp3428
g18
F0.5
sg19
I32
sg20
g21
((dp3429
NI31
sI01
I1
stRp3430
sg24
I2
sg25
F33
sbs(S'Meaning'
g333
tp3431
g1
(g15
g3
NtRp3432
(dp3433
g18
F0.5
sg19
I92
sg20
g21
((dp3434
NI91
sI01
I1
stRp3435
sg24
I2
sg25
F93
sbs(g3415
g122
tp3436
g1
(g15
g3
NtRp3437
(dp3438
g18
F0.5
sg19
I92
sg20
g21
((dp3439
NI91
sI01
I1
stRp3440
sg24
I2
sg25
F93
sbs(g314
g1266
tp3441
g1
(g15
g3
NtRp3442
(dp3443
g18
F0.5
sg19
I51
sg20
g21
((dp3444
NI50
sI01
I1
stRp3445
sg24
I2
sg25
F52
sbs(g2762
g105
tp3446
g1
(g15
g3
NtRp3447
(dp3448
g18
F0.5
sg19
I92
sg20
g21
((dp3449
NI91
sI01
I1
stRp3450
sg24
I2
sg25
F93
sbs(g10
g2524
tp3451
g1
(g15
g3
NtRp3452
(dp3453
g18
F0.5
sg19
I32
sg20
g21
((dp3454
NI32
stRp3455
sg24
I2
sg25
F33
sbs(g10
g2076
tp3456
g1
(g15
g3
NtRp3457
(dp3458
g18
F0.5
sg19
I32
sg20
g21
((dp3459
NI32
stRp3460
sg24
I2
sg25
F33
sbs(g2218
g162
tp3461
g1
(g15
g3
NtRp3462
(dp3463
g18
F0.5
sg19
I92
sg20
g21
((dp3464
NI86
sI01
I6
stRp3465
sg24
I2
sg25
F93
sbs(g10
S'contains(of)'
tp3466
g1
(g15
g3
NtRp3467
(dp3468
g18
F0.5
sg19
I32
sg20
g21
((dp3469
I01
I32
stRp3470
sg24
I2
sg25
F33
sbs(g10
g2606
tp3471
g1
(g15
g3
NtRp3472
(dp3473
g18
F0.5
sg19
I32
sg20
g21
((dp3474
NI32
stRp3475
sg24
I2
sg25
F33
sbs(g10
g1293
tp3476
g1
(g15
g3
NtRp3477
(dp3478
g18
F0.5
sg19
I32
sg20
g21
((dp3479
NI32
stRp3480
sg24
I2
sg25
F33
sbs(g9
g1003
tp3481
g1
(g15
g3
NtRp3482
(dp3483
g18
F0.5
sg19
I92
sg20
g21
((dp3484
NI92
stRp3485
sg24
I2
sg25
F93
sbs(g8
g700
tp3486
g1
(g15
g3
NtRp3487
(dp3488
g18
F0.5
sg19
I51
sg20
g21
((dp3489
NI51
stRp3490
sg24
I2
sg25
F52
sbs(g10
g806
tp3491
g1
(g15
g3
NtRp3492
(dp3493
g18
F0.5
sg19
I32
sg20
g21
((dp3494
NI32
stRp3495
sg24
I2
sg25
F33
sbs(S'Meaning'
g2414
tp3496
g1
(g15
g3
NtRp3497
(dp3498
g18
F0.5
sg19
I92
sg20
g21
((dp3499
NI91
sI01
I1
stRp3500
sg24
I2
sg25
F93
sbs(g10
g847
tp3501
g1
(g15
g3
NtRp3502
(dp3503
g18
F0.5
sg19
I32
sg20
g21
((dp3504
NI32
stRp3505
sg24
I2
sg25
F33
sbs(g9
g1360
tp3506
g1
(g15
g3
NtRp3507
(dp3508
g18
F0.5
sg19
I92
sg20
g21
((dp3509
NI92
stRp3510
sg24
I2
sg25
F93
sbs(g9
g1721
tp3511
g1
(g15
g3
NtRp3512
(dp3513
g18
F0.5
sg19
I92
sg20
g21
((dp3514
NI92
stRp3515
sg24
I2
sg25
F93
sbs(S'Abbreviation'
g1457
tp3516
g1
(g15
g3
NtRp3517
(dp3518
g18
F0.5
sg19
I51
sg20
g21
((dp3519
NI50
sI01
I1
stRp3520
sg24
I2
sg25
F52
sbs(S'Composition'
g429
tp3521
g1
(g15
g3
NtRp3522
(dp3523
g18
F0.5
sg19
I32
sg20
g21
((dp3524
NI31
sI01
I1
stRp3525
sg24
I2
sg25
F33
sbs(g10
g423
tp3526
g1
(g15
g3
NtRp3527
(dp3528
g18
F0.5
sg19
I32
sg20
g21
((dp3529
NI32
stRp3530
sg24
I2
sg25
F33
sbs(g8
g728
tp3531
g1
(g15
g3
NtRp3532
(dp3533
g18
F0.5
sg19
I51
sg20
g21
((dp3534
NI51
stRp3535
sg24
I2
sg25
F52
sbs(g10
g1332
tp3536
g1
(g15
g3
NtRp3537
(dp3538
g18
F0.5
sg19
I32
sg20
g21
((dp3539
NI32
stRp3540
sg24
I2
sg25
F33
sbs(g10
g918
tp3541
g1
(g15
g3
NtRp3542
(dp3543
g18
F0.5
sg19
I32
sg20
g21
((dp3544
NI32
stRp3545
sg24
I2
sg25
F33
sbs(g10
g2431
tp3546
g1
(g15
g3
NtRp3547
(dp3548
g18
F0.5
sg19
I32
sg20
g21
((dp3549
NI32
stRp3550
sg24
I2
sg25
F33
sbs(g9
g1852
tp3551
g1
(g15
g3
NtRp3552
(dp3553
g18
F0.5
sg19
I92
sg20
g21
((dp3554
NI92
stRp3555
sg24
I2
sg25
F93
sbs(g9
g1622
tp3556
g1
(g15
g3
NtRp3557
(dp3558
g18
F0.5
sg19
I92
sg20
g21
((dp3559
NI92
stRp3560
sg24
I2
sg25
F93
sbs(S'Abbreviation'
g1495
tp3561
g1
(g15
g3
NtRp3562
(dp3563
g18
F0.5
sg19
I51
sg20
g21
((dp3564
NI50
sI01
I1
stRp3565
sg24
I2
sg25
F52
sbs(g10
g1015
tp3566
g1
(g15
g3
NtRp3567
(dp3568
g18
F0.5
sg19
I32
sg20
g21
((dp3569
NI32
stRp3570
sg24
I2
sg25
F33
sbssS'_label_probdist'
p3571
g1
(g15
g3
NtRp3572
(dp3573
g18
F0.5
sg19
I175
sg20
g21
((dp3574
g8
I51
sg9
I92
sg10
I32
stRp3575
sg24
I3
sg25
F176.5
sbsb.