ccopy_reg
_reconstructor
p1
(cnltk.classify.naivebayes
NaiveBayesClassifier
p2
c__builtin__
object
p3
NtRp4
(dp5
S'_labels'
p6
(lp7
S'Abbreviation'
p8
aS'Meaning'
p9
aS'Composition'
p10
asS'_feature_probdist'
p11
(dp12
(S'Composition'
S'contains(batteries)'
p13
tp14
g1
(cnltk.probability
ELEProbDist
p15
g3
NtRp16
(dp17
S'_gamma'
p18
F0.5
sS'_N'
p19
I28
sS'_freqdist'
p20
cnltk.probability
FreqDist
p21
((dp22
NI27
sI01
I1
stRp23
sS'_bins'
p24
I2
sS'_divisor'
p25
F29
sbs(S'Composition'
S'contains(snake)'
p26
tp27
g1
(g15
g3
NtRp28
(dp29
g18
F0.5
sg19
I28
sg20
g21
((dp30
NI27
sI01
I1
stRp31
sg24
I2
sg25
F29
sbs(g10
S'contains(s)'
p32
tp33
g1
(g15
g3
NtRp34
(dp35
g18
F0.5
sg19
I28
sg20
g21
((dp36
NI28
stRp37
sg24
I2
sg25
F29
sbs(S'Meaning'
p38
S'contains(are)'
tp39
g1
(g15
g3
NtRp40
(dp41
g18
F0.5
sg19
I62
sg20
g21
((dp42
NI53
sI01
I9
stRp43
sg24
I2
sg25
F63
sbs(S'Meaning'
S'contains(ground)'
p44
tp45
g1
(g15
g3
NtRp46
(dp47
g18
F0.5
sg19
I62
sg20
g21
((dp48
NI61
sI01
I1
stRp49
sg24
I2
sg25
F63
sbs(g10
S'contains(dogs)'
p50
tp51
g1
(g15
g3
NtRp52
(dp53
g18
F0.5
sg19
I28
sg20
g21
((dp54
NI28
stRp55
sg24
I2
sg25
F29
sbs(S'Composition'
S'contains(buses)'
p56
tp57
g1
(g15
g3
NtRp58
(dp59
g18
F0.5
sg19
I28
sg20
g21
((dp60
NI26
sI01
I2
stRp61
sg24
I2
sg25
F29
sbs(g8
S'contains(lockers)'
p62
tp63
g1
(g15
g3
NtRp64
(dp65
g18
F0.5
sg19
I22
sg20
g21
((dp66
NI22
stRp67
sg24
I2
sg25
F23
sbs(g9
S'contains(aids)'
p68
tp69
g1
(g15
g3
NtRp70
(dp71
g18
F0.5
sg19
I62
sg20
g21
((dp72
NI62
stRp73
sg24
I2
sg25
F63
sbs(S'Abbreviation'
p74
S'contains(motors)'
p75
tp76
g1
(g15
g3
NtRp77
(dp78
g18
F0.5
sg19
I22
sg20
g21
((dp79
NI21
sI01
I1
stRp80
sg24
I2
sg25
F23
sbs(g10
S'contains(stand)'
p81
tp82
g1
(g15
g3
NtRp83
(dp84
g18
F0.5
sg19
I28
sg20
g21
((dp85
NI28
stRp86
sg24
I2
sg25
F29
sbs(g9
S'contains(paper)'
p87
tp88
g1
(g15
g3
NtRp89
(dp90
g18
F0.5
sg19
I62
sg20
g21
((dp91
NI62
stRp92
sg24
I2
sg25
F63
sbs(g8
S'contains(bad)'
p93
tp94
g1
(g15
g3
NtRp95
(dp96
g18
F0.5
sg19
I22
sg20
g21
((dp97
NI22
stRp98
sg24
I2
sg25
F23
sbs(S'Abbreviation'
S'contains(bph)'
p99
tp100
g1
(g15
g3
NtRp101
(dp102
g18
F0.5
sg19
I22
sg20
g21
((dp103
NI21
sI01
I1
stRp104
sg24
I2
sg25
F23
sbs(g10
S'contains(war)'
p105
tp106
g1
(g15
g3
NtRp107
(dp108
g18
F0.5
sg19
I28
sg20
g21
((dp109
NI28
stRp110
sg24
I2
sg25
F29
sbs(g8
S'contains(ass)'
p111
tp112
g1
(g15
g3
NtRp113
(dp114
g18
F0.5
sg19
I22
sg20
g21
((dp115
NI22
stRp116
sg24
I2
sg25
F23
sbs(g9
S'contains(widow)'
p117
tp118
g1
(g15
g3
NtRp119
(dp120
g18
F0.5
sg19
I62
sg20
g21
((dp121
NI62
stRp122
sg24
I2
sg25
F63
sbs(S'Abbreviation'
S'contains(nsa)'
p123
tp124
g1
(g15
g3
NtRp125
(dp126
g18
F0.5
sg19
I22
sg20
g21
((dp127
NI21
sI01
I1
stRp128
sg24
I2
sg25
F23
sbs(g10
g44
tp129
g1
(g15
g3
NtRp130
(dp131
g18
F0.5
sg19
I28
sg20
g21
((dp132
NI28
stRp133
sg24
I2
sg25
F29
sbs(g10
S'contains(an)'
p134
tp135
g1
(g15
g3
NtRp136
(dp137
g18
F0.5
sg19
I28
sg20
g21
((dp138
NI28
stRp139
sg24
I2
sg25
F29
sbs(g8
S'contains(dunkin)'
p140
tp141
g1
(g15
g3
NtRp142
(dp143
g18
F0.5
sg19
I22
sg20
g21
((dp144
NI22
stRp145
sg24
I2
sg25
F23
sbs(S'Composition'
S'contains(plastic)'
p146
tp147
g1
(g15
g3
NtRp148
(dp149
g18
F0.5
sg19
I28
sg20
g21
((dp150
NI27
sI01
I1
stRp151
sg24
I2
sg25
F29
sbs(S'Meaning'
S'contains(cars)'
p152
tp153
g1
(g15
g3
NtRp154
(dp155
g18
F0.5
sg19
I62
sg20
g21
((dp156
NI61
sI01
I1
stRp157
sg24
I2
sg25
F63
sbs(g10
S'contains(general)'
p158
tp159
g1
(g15
g3
NtRp160
(dp161
g18
F0.5
sg19
I28
sg20
g21
((dp162
NI28
stRp163
sg24
I2
sg25
F29
sbs(g8
S'contains(donuts)'
p164
tp165
g1
(g15
g3
NtRp166
(dp167
g18
F0.5
sg19
I22
sg20
g21
((dp168
NI22
stRp169
sg24
I2
sg25
F23
sbs(S'Meaning'
S'contains(wtf)'
p170
tp171
g1
(g15
g3
NtRp172
(dp173
g18
F0.5
sg19
I62
sg20
g21
((dp174
NI61
sI01
I1
stRp175
sg24
I2
sg25
F63
sbs(g9
S'contains(eenty)'
p176
tp177
g1
(g15
g3
NtRp178
(dp179
g18
F0.5
sg19
I62
sg20
g21
((dp180
NI62
stRp181
sg24
I2
sg25
F63
sbs(S'Composition'
p182
S'contains(my)'
p183
tp184
g1
(g15
g3
NtRp185
(dp186
g18
F0.5
sg19
I28
sg20
g21
((dp187
NI27
sI01
I1
stRp188
sg24
I2
sg25
F29
sbs(g10
S'contains(micro)'
p189
tp190
g1
(g15
g3
NtRp191
(dp192
g18
F0.5
sg19
I28
sg20
g21
((dp193
NI28
stRp194
sg24
I2
sg25
F29
sbs(S'Abbreviation'
p195
S'contains(m)'
p196
tp197
g1
(g15
g3
NtRp198
(dp199
g18
F0.5
sg19
I22
sg20
g21
((dp200
NI21
sI01
I1
stRp201
sg24
I2
sg25
F23
sbs(g10
S'contains(meaning)'
p202
tp203
g1
(g15
g3
NtRp204
(dp205
g18
F0.5
sg19
I28
sg20
g21
((dp206
NI28
stRp207
sg24
I2
sg25
F29
sbs(S'Composition'
S'contains(b)'
p208
tp209
g1
(g15
g3
NtRp210
(dp211
g18
F0.5
sg19
I28
sg20
g21
((dp212
NI27
sI01
I1
stRp213
sg24
I2
sg25
F29
sbs(S'Composition'
S'contains(bicycles)'
p214
tp215
g1
(g15
g3
NtRp216
(dp217
g18
F0.5
sg19
I28
sg20
g21
((dp218
NI27
sI01
I1
stRp219
sg24
I2
sg25
F29
sbs(g10
S'contains(o)'
p220
tp221
g1
(g15
g3
NtRp222
(dp223
g18
F0.5
sg19
I28
sg20
g21
((dp224
NI28
stRp225
sg24
I2
sg25
F29
sbs(S'Meaning'
S'contains(rock)'
p226
tp227
g1
(g15
g3
NtRp228
(dp229
g18
F0.5
sg19
I62
sg20
g21
((dp230
NI61
sI01
I1
stRp231
sg24
I2
sg25
F63
sbs(g10
g152
tp232
g1
(g15
g3
NtRp233
(dp234
g18
F0.5
sg19
I28
sg20
g21
((dp235
NI28
stRp236
sg24
I2
sg25
F29
sbs(g10
S'contains(for)'
p237
tp238
g1
(g15
g3
NtRp239
(dp240
g18
F0.5
sg19
I28
sg20
g21
((dp241
NI28
stRp242
sg24
I2
sg25
F29
sbs(g8
S'contains(purse)'
p243
tp244
g1
(g15
g3
NtRp245
(dp246
g18
F0.5
sg19
I22
sg20
g21
((dp247
NI22
stRp248
sg24
I2
sg25
F23
sbs(S'Abbreviation'
p249
S'contains(word)'
tp250
g1
(g15
g3
NtRp251
(dp252
g18
F0.5
sg19
I22
sg20
g21
((dp253
NI20
sI01
I2
stRp254
sg24
I2
sg25
F23
sbs(S'Abbreviation'
p255
S'contains(cross)'
p256
tp257
g1
(g15
g3
NtRp258
(dp259
g18
F0.5
sg19
I22
sg20
g21
((dp260
NI21
sI01
I1
stRp261
sg24
I2
sg25
F23
sbs(g10
S'contains(girl)'
p262
tp263
g1
(g15
g3
NtRp264
(dp265
g18
F0.5
sg19
I28
sg20
g21
((dp266
NI28
stRp267
sg24
I2
sg25
F29
sbs(S'Abbreviation'
p268
S'contains(surnames)'
p269
tp270
g1
(g15
g3
NtRp271
(dp272
g18
F0.5
sg19
I22
sg20
g21
((dp273
NI21
sI01
I1
stRp274
sg24
I2
sg25
F23
sbs(g9
S'contains(abbreviated)'
p275
tp276
g1
(g15
g3
NtRp277
(dp278
g18
F0.5
sg19
I62
sg20
g21
((dp279
NI62
stRp280
sg24
I2
sg25
F63
sbs(g8
S'contains(hog)'
p281
tp282
g1
(g15
g3
NtRp283
(dp284
g18
F0.5
sg19
I22
sg20
g21
((dp285
NI22
stRp286
sg24
I2
sg25
F23
sbs(S'Abbreviation'
S'contains(sids)'
p287
tp288
g1
(g15
g3
NtRp289
(dp290
g18
F0.5
sg19
I22
sg20
g21
((dp291
NI21
sI01
I1
stRp292
sg24
I2
sg25
F23
sbs(g8
S'contains(is)'
tp293
g1
(g15
g3
NtRp294
(dp295
g18
F0.5
sg19
I22
sg20
g21
((dp296
NI10
sI01
I12
stRp297
sg24
I2
sg25
F23
sbs(g9
g237
tp298
g1
(g15
g3
NtRp299
(dp300
g18
F0.5
sg19
I62
sg20
g21
((dp301
NI62
stRp302
sg24
I2
sg25
F63
sbs(g8
S'contains(planets)'
p303
tp304
g1
(g15
g3
NtRp305
(dp306
g18
F0.5
sg19
I22
sg20
g21
((dp307
NI22
stRp308
sg24
I2
sg25
F23
sbs(g8
g152
tp309
g1
(g15
g3
NtRp310
(dp311
g18
F0.5
sg19
I22
sg20
g21
((dp312
NI22
stRp313
sg24
I2
sg25
F23
sbs(g10
S'contains(stupid)'
p314
tp315
g1
(g15
g3
NtRp316
(dp317
g18
F0.5
sg19
I28
sg20
g21
((dp318
NI28
stRp319
sg24
I2
sg25
F29
sbs(S'Meaning'
S'contains(player)'
p320
tp321
g1
(g15
g3
NtRp322
(dp323
g18
F0.5
sg19
I62
sg20
g21
((dp324
NI61
sI01
I1
stRp325
sg24
I2
sg25
F63
sbs(g10
S'contains(in)'
p326
tp327
g1
(g15
g3
NtRp328
(dp329
g18
F0.5
sg19
I28
sg20
g21
((dp330
NI28
stRp331
sg24
I2
sg25
F29
sbs(g10
S'contains(signs)'
p332
tp333
g1
(g15
g3
NtRp334
(dp335
g18
F0.5
sg19
I28
sg20
g21
((dp336
NI28
stRp337
sg24
I2
sg25
F29
sbs(S'Meaning'
p338
S'contains(word)'
p339
tp340
g1
(g15
g3
NtRp341
(dp342
g18
F0.5
sg19
I62
sg20
g21
((dp343
NI57
sI01
I5
stRp344
sg24
I2
sg25
F63
sbs(g10
g269
tp345
g1
(g15
g3
NtRp346
(dp347
g18
F0.5
sg19
I28
sg20
g21
((dp348
NI28
stRp349
sg24
I2
sg25
F29
sbs(S'Meaning'
S'contains(eye)'
p350
tp351
g1
(g15
g3
NtRp352
(dp353
g18
F0.5
sg19
I62
sg20
g21
((dp354
NI61
sI01
I1
stRp355
sg24
I2
sg25
F63
sbs(g9
S'contains(full)'
p356
tp357
g1
(g15
g3
NtRp358
(dp359
g18
F0.5
sg19
I62
sg20
g21
((dp360
NI62
stRp361
sg24
I2
sg25
F63
sbs(g9
S'contains(cloud)'
p362
tp363
g1
(g15
g3
NtRp364
(dp365
g18
F0.5
sg19
I62
sg20
g21
((dp366
NI62
stRp367
sg24
I2
sg25
F63
sbs(g9
S'contains(locks)'
p368
tp369
g1
(g15
g3
NtRp370
(dp371
g18
F0.5
sg19
I62
sg20
g21
((dp372
NI62
stRp373
sg24
I2
sg25
F63
sbs(g8
S'contains(window)'
p374
tp375
g1
(g15
g3
NtRp376
(dp377
g18
F0.5
sg19
I22
sg20
g21
((dp378
NI22
stRp379
sg24
I2
sg25
F23
sbs(g9
S'contains(investigation)'
p380
tp381
g1
(g15
g3
NtRp382
(dp383
g18
F0.5
sg19
I62
sg20
g21
((dp384
NI62
stRp385
sg24
I2
sg25
F63
sbs(g8
S'contains(chairs)'
p386
tp387
g1
(g15
g3
NtRp388
(dp389
g18
F0.5
sg19
I22
sg20
g21
((dp390
NI22
stRp391
sg24
I2
sg25
F23
sbs(g10
S'contains(animal)'
p392
tp393
g1
(g15
g3
NtRp394
(dp395
g18
F0.5
sg19
I28
sg20
g21
((dp396
NI28
stRp397
sg24
I2
sg25
F29
sbs(g9
g326
tp398
g1
(g15
g3
NtRp399
(dp400
g18
F0.5
sg19
I62
sg20
g21
((dp401
NI62
stRp402
sg24
I2
sg25
F63
sbs(g9
S'contains(nasdaq)'
p403
tp404
g1
(g15
g3
NtRp405
(dp406
g18
F0.5
sg19
I62
sg20
g21
((dp407
NI62
stRp408
sg24
I2
sg25
F63
sbs(g8
g44
tp409
g1
(g15
g3
NtRp410
(dp411
g18
F0.5
sg19
I22
sg20
g21
((dp412
NI22
stRp413
sg24
I2
sg25
F23
sbs(g10
g350
tp414
g1
(g15
g3
NtRp415
(dp416
g18
F0.5
sg19
I28
sg20
g21
((dp417
NI28
stRp418
sg24
I2
sg25
F29
sbs(g8
S'contains(ant)'
p419
tp420
g1
(g15
g3
NtRp421
(dp422
g18
F0.5
sg19
I22
sg20
g21
((dp423
NI22
stRp424
sg24
I2
sg25
F23
sbs(g10
S'contains(esa)'
p425
tp426
g1
(g15
g3
NtRp427
(dp428
g18
F0.5
sg19
I28
sg20
g21
((dp429
NI28
stRp430
sg24
I2
sg25
F29
sbs(g10
S'contains(mean)'
p431
tp432
g1
(g15
g3
NtRp433
(dp434
g18
F0.5
sg19
I28
sg20
g21
((dp435
NI28
stRp436
sg24
I2
sg25
F29
sbs(S'Abbreviation'
p437
S'contains(national)'
p438
tp439
g1
(g15
g3
NtRp440
(dp441
g18
F0.5
sg19
I22
sg20
g21
((dp442
NI21
sI01
I1
stRp443
sg24
I2
sg25
F23
sbs(S'Composition'
g62
tp444
g1
(g15
g3
NtRp445
(dp446
g18
F0.5
sg19
I28
sg20
g21
((dp447
NI27
sI01
I1
stRp448
sg24
I2
sg25
F29
sbs(g10
S'contains(selfish)'
p449
tp450
g1
(g15
g3
NtRp451
(dp452
g18
F0.5
sg19
I28
sg20
g21
((dp453
NI28
stRp454
sg24
I2
sg25
F29
sbs(S'Composition'
p455
S'contains(the)'
tp456
g1
(g15
g3
NtRp457
(dp458
g18
F0.5
sg19
I28
sg20
g21
((dp459
NI22
sI01
I6
stRp460
sg24
I2
sg25
F29
sbs(g8
S'contains(children)'
p461
tp462
g1
(g15
g3
NtRp463
(dp464
g18
F0.5
sg19
I22
sg20
g21
((dp465
NI22
stRp466
sg24
I2
sg25
F23
sbs(S'Composition'
S'contains(metal)'
p467
tp468
g1
(g15
g3
NtRp469
(dp470
g18
F0.5
sg19
I28
sg20
g21
((dp471
NI27
sI01
I1
stRp472
sg24
I2
sg25
F29
sbs(g8
g13
tp473
g1
(g15
g3
NtRp474
(dp475
g18
F0.5
sg19
I22
sg20
g21
((dp476
NI22
stRp477
sg24
I2
sg25
F23
sbs(g8
g170
tp478
g1
(g15
g3
NtRp479
(dp480
g18
F0.5
sg19
I22
sg20
g21
((dp481
NI22
stRp482
sg24
I2
sg25
F23
sbs(g9
S'contains(g)'
p483
tp484
g1
(g15
g3
NtRp485
(dp486
g18
F0.5
sg19
I62
sg20
g21
((dp487
NI62
stRp488
sg24
I2
sg25
F63
sbs(g8
S'contains(juice)'
p489
tp490
g1
(g15
g3
NtRp491
(dp492
g18
F0.5
sg19
I22
sg20
g21
((dp493
NI22
stRp494
sg24
I2
sg25
F23
sbs(S'Abbreviation'
p495
g81
tp496
g1
(g15
g3
NtRp497
(dp498
g18
F0.5
sg19
I22
sg20
g21
((dp499
NI13
sI01
I9
stRp500
sg24
I2
sg25
F23
sbs(g10
S'contains(happy)'
p501
tp502
g1
(g15
g3
NtRp503
(dp504
g18
F0.5
sg19
I28
sg20
g21
((dp505
NI28
stRp506
sg24
I2
sg25
F29
sbs(S'Composition'
p507
S'contains(a)'
tp508
g1
(g15
g3
NtRp509
(dp510
g18
F0.5
sg19
I28
sg20
g21
((dp511
NI21
sI01
I7
stRp512
sg24
I2
sg25
F29
sbs(g9
g56
tp513
g1
(g15
g3
NtRp514
(dp515
g18
F0.5
sg19
I62
sg20
g21
((dp516
NI62
stRp517
sg24
I2
sg25
F63
sbs(g8
S'contains(plug)'
p518
tp519
g1
(g15
g3
NtRp520
(dp521
g18
F0.5
sg19
I22
sg20
g21
((dp522
NI22
stRp523
sg24
I2
sg25
F23
sbs(g8
S'contains(milk)'
p524
tp525
g1
(g15
g3
NtRp526
(dp527
g18
F0.5
sg19
I22
sg20
g21
((dp528
NI22
stRp529
sg24
I2
sg25
F23
sbs(g9
S'contains(?)'
tp530
g1
(g15
g3
NtRp531
(dp532
g18
F0.5
sg19
I62
sg20
g21
((dp533
I01
I62
stRp534
sg24
I1
sg25
F62.5
sbs(S'Abbreviation'
g403
tp535
g1
(g15
g3
NtRp536
(dp537
g18
F0.5
sg19
I22
sg20
g21
((dp538
NI21
sI01
I1
stRp539
sg24
I2
sg25
F23
sbs(g10
g176
tp540
g1
(g15
g3
NtRp541
(dp542
g18
F0.5
sg19
I28
sg20
g21
((dp543
NI28
stRp544
sg24
I2
sg25
F29
sbs(S'Composition'
g368
tp545
g1
(g15
g3
NtRp546
(dp547
g18
F0.5
sg19
I28
sg20
g21
((dp548
NI27
sI01
I1
stRp549
sg24
I2
sg25
F29
sbs(S'Meaning'
p550
S'contains(of)'
tp551
g1
(g15
g3
NtRp552
(dp553
g18
F0.5
sg19
I62
sg20
g21
((dp554
NI47
sI01
I15
stRp555
sg24
I2
sg25
F63
sbs(g9
g75
tp556
g1
(g15
g3
NtRp557
(dp558
g18
F0.5
sg19
I62
sg20
g21
((dp559
NI62
stRp560
sg24
I2
sg25
F63
sbs(S'Meaning'
g392
tp561
g1
(g15
g3
NtRp562
(dp563
g18
F0.5
sg19
I62
sg20
g21
((dp564
NI61
sI01
I1
stRp565
sg24
I2
sg25
F63
sbs(g10
S'contains(abbreviation)'
p566
tp567
g1
(g15
g3
NtRp568
(dp569
g18
F0.5
sg19
I28
sg20
g21
((dp570
NI28
stRp571
sg24
I2
sg25
F29
sbs(g10
S'contains(mad)'
p572
tp573
g1
(g15
g3
NtRp574
(dp575
g18
F0.5
sg19
I28
sg20
g21
((dp576
NI28
stRp577
sg24
I2
sg25
F29
sbs(S'Meaning'
S'contains(thief)'
p578
tp579
g1
(g15
g3
NtRp580
(dp581
g18
F0.5
sg19
I62
sg20
g21
((dp582
NI61
sI01
I1
stRp583
sg24
I2
sg25
F63
sbs(g10
S'contains(duck)'
p584
tp585
g1
(g15
g3
NtRp586
(dp587
g18
F0.5
sg19
I28
sg20
g21
((dp588
NI28
stRp589
sg24
I2
sg25
F29
sbs(g10
S'contains(slut)'
p590
tp591
g1
(g15
g3
NtRp592
(dp593
g18
F0.5
sg19
I28
sg20
g21
((dp594
NI28
stRp595
sg24
I2
sg25
F29
sbs(g9
S'contains(cnn)'
p596
tp597
g1
(g15
g3
NtRp598
(dp599
g18
F0.5
sg19
I62
sg20
g21
((dp600
NI62
stRp601
sg24
I2
sg25
F63
sbs(S'Abbreviation'
p602
S'contains(classified)'
p603
tp604
g1
(g15
g3
NtRp605
(dp606
g18
F0.5
sg19
I22
sg20
g21
((dp607
NI21
sI01
I1
stRp608
sg24
I2
sg25
F23
sbs(S'Meaning'
S'contains(miscellaneous)'
p609
tp610
g1
(g15
g3
NtRp611
(dp612
g18
F0.5
sg19
I62
sg20
g21
((dp613
NI61
sI01
I1
stRp614
sg24
I2
sg25
F63
sbs(g9
S'contains(sun)'
p615
tp616
g1
(g15
g3
NtRp617
(dp618
g18
F0.5
sg19
I62
sg20
g21
((dp619
NI62
stRp620
sg24
I2
sg25
F63
sbs(g10
S'contains(starbucks)'
p621
tp622
g1
(g15
g3
NtRp623
(dp624
g18
F0.5
sg19
I28
sg20
g21
((dp625
NI28
stRp626
sg24
I2
sg25
F29
sbs(g9
g425
tp627
g1
(g15
g3
NtRp628
(dp629
g18
F0.5
sg19
I62
sg20
g21
((dp630
NI62
stRp631
sg24
I2
sg25
F63
sbs(g437
S'contains(expression)'
p632
tp633
g1
(g15
g3
NtRp634
(dp635
g18
F0.5
sg19
I22
sg20
g21
((dp636
NI21
sI01
I1
stRp637
sg24
I2
sg25
F23
sbs(g8
g584
tp638
g1
(g15
g3
NtRp639
(dp640
g18
F0.5
sg19
I22
sg20
g21
((dp641
NI22
stRp642
sg24
I2
sg25
F23
sbs(g10
S'contains(car)'
p643
tp644
g1
(g15
g3
NtRp645
(dp646
g18
F0.5
sg19
I28
sg20
g21
((dp647
NI28
stRp648
sg24
I2
sg25
F29
sbs(S'Composition'
g386
tp649
g1
(g15
g3
NtRp650
(dp651
g18
F0.5
sg19
I28
sg20
g21
((dp652
NI27
sI01
I1
stRp653
sg24
I2
sg25
F29
sbs(g338
S'contains(clever)'
p654
tp655
g1
(g15
g3
NtRp656
(dp657
g18
F0.5
sg19
I62
sg20
g21
((dp658
NI61
sI01
I1
stRp659
sg24
I2
sg25
F63
sbs(S'Meaning'
S'contains(booger)'
p660
tp661
g1
(g15
g3
NtRp662
(dp663
g18
F0.5
sg19
I62
sg20
g21
((dp664
NI61
sI01
I1
stRp665
sg24
I2
sg25
F63
sbs(g268
S'contains(prefix)'
p666
tp667
g1
(g15
g3
NtRp668
(dp669
g18
F0.5
sg19
I22
sg20
g21
((dp670
NI21
sI01
I1
stRp671
sg24
I2
sg25
F23
sbs(g8
S"contains(what's)"
p672
tp673
g1
(g15
g3
NtRp674
(dp675
g18
F0.5
sg19
I22
sg20
g21
((dp676
NI22
stRp677
sg24
I2
sg25
F23
sbs(g8
S'contains(cloak)'
p678
tp679
g1
(g15
g3
NtRp680
(dp681
g18
F0.5
sg19
I22
sg20
g21
((dp682
NI22
stRp683
sg24
I2
sg25
F23
sbs(g9
S'contains(inri)'
p684
tp685
g1
(g15
g3
NtRp686
(dp687
g18
F0.5
sg19
I62
sg20
g21
((dp688
NI62
stRp689
sg24
I2
sg25
F63
sbs(g437
g380
tp690
g1
(g15
g3
NtRp691
(dp692
g18
F0.5
sg19
I22
sg20
g21
((dp693
NI21
sI01
I1
stRp694
sg24
I2
sg25
F23
sbs(S'Meaning'
p695
S'contains(a)'
tp696
g1
(g15
g3
NtRp697
(dp698
g18
F0.5
sg19
I62
sg20
g21
((dp699
NI49
sI01
I13
stRp700
sg24
I2
sg25
F63
sbs(g8
g368
tp701
g1
(g15
g3
NtRp702
(dp703
g18
F0.5
sg19
I22
sg20
g21
((dp704
NI22
stRp705
sg24
I2
sg25
F23
sbs(g255
S'contains(used)'
p706
tp707
g1
(g15
g3
NtRp708
(dp709
g18
F0.5
sg19
I22
sg20
g21
((dp710
NI20
sI01
I2
stRp711
sg24
I2
sg25
F23
sbs(g8
g356
tp712
g1
(g15
g3
NtRp713
(dp714
g18
F0.5
sg19
I22
sg20
g21
((dp715
NI15
sI01
I7
stRp716
sg24
I2
sg25
F23
sbs(g8
S'contains(bag)'
p717
tp718
g1
(g15
g3
NtRp719
(dp720
g18
F0.5
sg19
I22
sg20
g21
((dp721
NI22
stRp722
sg24
I2
sg25
F23
sbs(g10
S'contains(t)'
p723
tp724
g1
(g15
g3
NtRp725
(dp726
g18
F0.5
sg19
I28
sg20
g21
((dp727
NI28
stRp728
sg24
I2
sg25
F29
sbs(g9
g603
tp729
g1
(g15
g3
NtRp730
(dp731
g18
F0.5
sg19
I62
sg20
g21
((dp732
NI62
stRp733
sg24
I2
sg25
F63
sbs(g10
S'contains(brain)'
p734
tp735
g1
(g15
g3
NtRp736
(dp737
g18
F0.5
sg19
I28
sg20
g21
((dp738
NI28
stRp739
sg24
I2
sg25
F29
sbs(g10
g684
tp740
g1
(g15
g3
NtRp741
(dp742
g18
F0.5
sg19
I28
sg20
g21
((dp743
NI28
stRp744
sg24
I2
sg25
F29
sbs(S'Meaning'
S'contains(haircut)'
p745
tp746
g1
(g15
g3
NtRp747
(dp748
g18
F0.5
sg19
I62
sg20
g21
((dp749
NI61
sI01
I1
stRp750
sg24
I2
sg25
F63
sbs(S'Composition'
S'contains(beverage)'
p751
tp752
g1
(g15
g3
NtRp753
(dp754
g18
F0.5
sg19
I28
sg20
g21
((dp755
NI27
sI01
I1
stRp756
sg24
I2
sg25
F29
sbs(S'Composition'
S'contains(battery)'
p757
tp758
g1
(g15
g3
NtRp759
(dp760
g18
F0.5
sg19
I28
sg20
g21
((dp761
NI27
sI01
I1
stRp762
sg24
I2
sg25
F29
sbs(S'Abbreviation'
S'contains(nafta)'
p763
tp764
g1
(g15
g3
NtRp765
(dp766
g18
F0.5
sg19
I22
sg20
g21
((dp767
NI21
sI01
I1
stRp768
sg24
I2
sg25
F23
sbs(g695
S'contains(king)'
p769
tp770
g1
(g15
g3
NtRp771
(dp772
g18
F0.5
sg19
I62
sg20
g21
((dp773
NI61
sI01
I1
stRp774
sg24
I2
sg25
F63
sbs(g9
g566
tp775
g1
(g15
g3
NtRp776
(dp777
g18
F0.5
sg19
I62
sg20
g21
((dp778
NI62
stRp779
sg24
I2
sg25
F63
sbs(S'Meaning'
S'contains(asshole)'
p780
tp781
g1
(g15
g3
NtRp782
(dp783
g18
F0.5
sg19
I62
sg20
g21
((dp784
NI61
sI01
I1
stRp785
sg24
I2
sg25
F63
sbs(g10
g170
tp786
g1
(g15
g3
NtRp787
(dp788
g18
F0.5
sg19
I28
sg20
g21
((dp789
NI28
stRp790
sg24
I2
sg25
F29
sbs(g10
g419
tp791
g1
(g15
g3
NtRp792
(dp793
g18
F0.5
sg19
I28
sg20
g21
((dp794
NI28
stRp795
sg24
I2
sg25
F29
sbs(g9
g287
tp796
g1
(g15
g3
NtRp797
(dp798
g18
F0.5
sg19
I62
sg20
g21
((dp799
NI62
stRp800
sg24
I2
sg25
F63
sbs(g8
S'contains(com)'
p801
tp802
g1
(g15
g3
NtRp803
(dp804
g18
F0.5
sg19
I22
sg20
g21
((dp805
NI21
sI01
I1
stRp806
sg24
I2
sg25
F23
sbs(g9
g81
tp807
g1
(g15
g3
NtRp808
(dp809
g18
F0.5
sg19
I62
sg20
g21
((dp810
NI62
stRp811
sg24
I2
sg25
F63
sbs(g8
S'contains(pencil)'
p812
tp813
g1
(g15
g3
NtRp814
(dp815
g18
F0.5
sg19
I22
sg20
g21
((dp816
NI22
stRp817
sg24
I2
sg25
F23
sbs(g507
g374
tp818
g1
(g15
g3
NtRp819
(dp820
g18
F0.5
sg19
I28
sg20
g21
((dp821
NI27
sI01
I1
stRp822
sg24
I2
sg25
F29
sbs(g8
S'contains(bang)'
p823
tp824
g1
(g15
g3
NtRp825
(dp826
g18
F0.5
sg19
I22
sg20
g21
((dp827
NI22
stRp828
sg24
I2
sg25
F23
sbs(g9
S'contains(:)'
p829
tp830
g1
(g15
g3
NtRp831
(dp832
g18
F0.5
sg19
I62
sg20
g21
((dp833
NI62
stRp834
sg24
I2
sg25
F63
sbs(S'Meaning'
g303
tp835
g1
(g15
g3
NtRp836
(dp837
g18
F0.5
sg19
I62
sg20
g21
((dp838
NI61
sI01
I1
stRp839
sg24
I2
sg25
F63
sbs(g10
S'contains(badass)'
p840
tp841
g1
(g15
g3
NtRp842
(dp843
g18
F0.5
sg19
I28
sg20
g21
((dp844
NI28
stRp845
sg24
I2
sg25
F29
sbs(g9
S'contains(what)'
tp846
g1
(g15
g3
NtRp847
(dp848
g18
F0.5
sg19
I62
sg20
g21
((dp849
NI12
sI01
I50
stRp850
sg24
I2
sg25
F63
sbs(g8
g332
tp851
g1
(g15
g3
NtRp852
(dp853
g18
F0.5
sg19
I22
sg20
g21
((dp854
NI22
stRp855
sg24
I2
sg25
F23
sbs(S'Meaning'
S'contains(homogeneous)'
p856
tp857
g1
(g15
g3
NtRp858
(dp859
g18
F0.5
sg19
I62
sg20
g21
((dp860
NI61
sI01
I1
stRp861
sg24
I2
sg25
F63
sbs(S'Abbreviation'
p862
g220
tp863
g1
(g15
g3
NtRp864
(dp865
g18
F0.5
sg19
I22
sg20
g21
((dp866
NI20
sI01
I2
stRp867
sg24
I2
sg25
F23
sbs(g8
g350
tp868
g1
(g15
g3
NtRp869
(dp870
g18
F0.5
sg19
I22
sg20
g21
((dp871
NI22
stRp872
sg24
I2
sg25
F23
sbs(S'Meaning'
S'contains(tidy)'
p873
tp874
g1
(g15
g3
NtRp875
(dp876
g18
F0.5
sg19
I62
sg20
g21
((dp877
NI61
sI01
I1
stRp878
sg24
I2
sg25
F63
sbs(g10
g829
tp879
g1
(g15
g3
NtRp880
(dp881
g18
F0.5
sg19
I28
sg20
g21
((dp882
NI28
stRp883
sg24
I2
sg25
F29
sbs(S'Abbreviation'
g596
tp884
g1
(g15
g3
NtRp885
(dp886
g18
F0.5
sg19
I22
sg20
g21
((dp887
NI21
sI01
I1
stRp888
sg24
I2
sg25
F23
sbs(g8
g769
tp889
g1
(g15
g3
NtRp890
(dp891
g18
F0.5
sg19
I22
sg20
g21
((dp892
NI22
stRp893
sg24
I2
sg25
F23
sbs(S'Meaning'
S'contains(pen)'
p894
tp895
g1
(g15
g3
NtRp896
(dp897
g18
F0.5
sg19
I62
sg20
g21
((dp898
NI61
sI01
I1
stRp899
sg24
I2
sg25
F63
sbs(S'Meaning'
g461
tp900
g1
(g15
g3
NtRp901
(dp902
g18
F0.5
sg19
I62
sg20
g21
((dp903
NI61
sI01
I1
stRp904
sg24
I2
sg25
F63
sbs(g8
g894
tp905
g1
(g15
g3
NtRp906
(dp907
g18
F0.5
sg19
I22
sg20
g21
((dp908
NI22
stRp909
sg24
I2
sg25
F23
sbs(S'Meaning'
g621
tp910
g1
(g15
g3
NtRp911
(dp912
g18
F0.5
sg19
I62
sg20
g21
((dp913
NI61
sI01
I1
stRp914
sg24
I2
sg25
F63
sbs(g10
g483
tp915
g1
(g15
g3
NtRp916
(dp917
g18
F0.5
sg19
I28
sg20
g21
((dp918
NI28
stRp919
sg24
I2
sg25
F29
sbs(g9
S'contains(nn)'
p920
tp921
g1
(g15
g3
NtRp922
(dp923
g18
F0.5
sg19
I62
sg20
g21
((dp924
NI62
stRp925
sg24
I2
sg25
F63
sbs(g495
g237
tp926
g1
(g15
g3
NtRp927
(dp928
g18
F0.5
sg19
I22
sg20
g21
((dp929
NI10
sI01
I12
stRp930
sg24
I2
sg25
F23
sbs(g10
S'contains(doors)'
p931
tp932
g1
(g15
g3
NtRp933
(dp934
g18
F0.5
sg19
I28
sg20
g21
((dp935
NI27
sI01
I1
stRp936
sg24
I2
sg25
F29
sbs(g10
g287
tp937
g1
(g15
g3
NtRp938
(dp939
g18
F0.5
sg19
I28
sg20
g21
((dp940
NI28
stRp941
sg24
I2
sg25
F29
sbs(g9
S'contains(,)'
p942
tp943
g1
(g15
g3
NtRp944
(dp945
g18
F0.5
sg19
I62
sg20
g21
((dp946
NI62
stRp947
sg24
I2
sg25
F63
sbs(S'Meaning'
S'contains(chicken)'
p948
tp949
g1
(g15
g3
NtRp950
(dp951
g18
F0.5
sg19
I62
sg20
g21
((dp952
NI61
sI01
I1
stRp953
sg24
I2
sg25
F63
sbs(g8
g208
tp954
g1
(g15
g3
NtRp955
(dp956
g18
F0.5
sg19
I22
sg20
g21
((dp957
NI22
stRp958
sg24
I2
sg25
F23
sbs(g8
S'contains(?)'
tp959
g1
(g15
g3
NtRp960
(dp961
g18
F0.5
sg19
I22
sg20
g21
((dp962
I01
I22
stRp963
sg24
I1
sg25
F22.5
sbs(g8
g320
tp964
g1
(g15
g3
NtRp965
(dp966
g18
F0.5
sg19
I22
sg20
g21
((dp967
NI22
stRp968
sg24
I2
sg25
F23
sbs(g9
S'contains(jacket)'
p969
tp970
g1
(g15
g3
NtRp971
(dp972
g18
F0.5
sg19
I62
sg20
g21
((dp973
NI62
stRp974
sg24
I2
sg25
F63
sbs(S'Meaning'
S'contains(trees)'
p975
tp976
g1
(g15
g3
NtRp977
(dp978
g18
F0.5
sg19
I62
sg20
g21
((dp979
NI61
sI01
I1
stRp980
sg24
I2
sg25
F63
sbs(g8
S'contains(what)'
tp981
g1
(g15
g3
NtRp982
(dp983
g18
F0.5
sg19
I22
sg20
g21
((dp984
I01
I22
stRp985
sg24
I2
sg25
F23
sbs(S'Abbreviation'
g189
tp986
g1
(g15
g3
NtRp987
(dp988
g18
F0.5
sg19
I22
sg20
g21
((dp989
NI21
sI01
I1
stRp990
sg24
I2
sg25
F23
sbs(g8
g117
tp991
g1
(g15
g3
NtRp992
(dp993
g18
F0.5
sg19
I22
sg20
g21
((dp994
NI22
stRp995
sg24
I2
sg25
F23
sbs(S'Abbreviation'
S'contains(lol)'
p996
tp997
g1
(g15
g3
NtRp998
(dp999
g18
F0.5
sg19
I22
sg20
g21
((dp1000
NI21
sI01
I1
stRp1001
sg24
I2
sg25
F23
sbs(g338
S'contains(the)'
tp1002
g1
(g15
g3
NtRp1003
(dp1004
g18
F0.5
sg19
I62
sg20
g21
((dp1005
NI42
sI01
I20
stRp1006
sg24
I2
sg25
F63
sbs(S'Meaning'
S'contains(elephant)'
p1007
tp1008
g1
(g15
g3
NtRp1009
(dp1010
g18
F0.5
sg19
I62
sg20
g21
((dp1011
NI61
sI01
I1
stRp1012
sg24
I2
sg25
F63
sbs(g8
S'contains(windows)'
p1013
tp1014
g1
(g15
g3
NtRp1015
(dp1016
g18
F0.5
sg19
I22
sg20
g21
((dp1017
NI22
stRp1018
sg24
I2
sg25
F23
sbs(g10
g93
tp1019
g1
(g15
g3
NtRp1020
(dp1021
g18
F0.5
sg19
I28
sg20
g21
((dp1022
NI28
stRp1023
sg24
I2
sg25
F29
sbs(g8
g840
tp1024
g1
(g15
g3
NtRp1025
(dp1026
g18
F0.5
sg19
I22
sg20
g21
((dp1027
NI22
stRp1028
sg24
I2
sg25
F23
sbs(S'Composition'
g362
tp1029
g1
(g15
g3
NtRp1030
(dp1031
g18
F0.5
sg19
I28
sg20
g21
((dp1032
NI27
sI01
I1
stRp1033
sg24
I2
sg25
F29
sbs(g10
g823
tp1034
g1
(g15
g3
NtRp1035
(dp1036
g18
F0.5
sg19
I28
sg20
g21
((dp1037
NI28
stRp1038
sg24
I2
sg25
F29
sbs(g9
g751
tp1039
g1
(g15
g3
NtRp1040
(dp1041
g18
F0.5
sg19
I62
sg20
g21
((dp1042
NI62
stRp1043
sg24
I2
sg25
F63
sbs(S'Meaning'
S'contains(street)'
p1044
tp1045
g1
(g15
g3
NtRp1046
(dp1047
g18
F0.5
sg19
I62
sg20
g21
((dp1048
NI61
sI01
I1
stRp1049
sg24
I2
sg25
F63
sbs(g8
g134
tp1050
g1
(g15
g3
NtRp1051
(dp1052
g18
F0.5
sg19
I22
sg20
g21
((dp1053
NI22
stRp1054
sg24
I2
sg25
F23
sbs(g9
S'contains(irish)'
p1055
tp1056
g1
(g15
g3
NtRp1057
(dp1058
g18
F0.5
sg19
I62
sg20
g21
((dp1059
NI62
stRp1060
sg24
I2
sg25
F63
sbs(g10
S'contains(nasa)'
p1061
tp1062
g1
(g15
g3
NtRp1063
(dp1064
g18
F0.5
sg19
I28
sg20
g21
((dp1065
NI28
stRp1066
sg24
I2
sg25
F29
sbs(g10
g461
tp1067
g1
(g15
g3
NtRp1068
(dp1069
g18
F0.5
sg19
I28
sg20
g21
((dp1070
NI28
stRp1071
sg24
I2
sg25
F29
sbs(g9
S'contains(psi)'
p1072
tp1073
g1
(g15
g3
NtRp1074
(dp1075
g18
F0.5
sg19
I62
sg20
g21
((dp1076
NI62
stRp1077
sg24
I2
sg25
F63
sbs(g8
g948
tp1078
g1
(g15
g3
NtRp1079
(dp1080
g18
F0.5
sg19
I22
sg20
g21
((dp1081
NI22
stRp1082
sg24
I2
sg25
F23
sbs(g255
S'contains(jesus)'
p1083
tp1084
g1
(g15
g3
NtRp1085
(dp1086
g18
F0.5
sg19
I22
sg20
g21
((dp1087
NI21
sI01
I1
stRp1088
sg24
I2
sg25
F23
sbs(g8
g26
tp1089
g1
(g15
g3
NtRp1090
(dp1091
g18
F0.5
sg19
I22
sg20
g21
((dp1092
NI22
stRp1093
sg24
I2
sg25
F23
sbs(g9
g1083
tp1094
g1
(g15
g3
NtRp1095
(dp1096
g18
F0.5
sg19
I62
sg20
g21
((dp1097
NI62
stRp1098
sg24
I2
sg25
F63
sbs(g10
S'contains(plo)'
p1099
tp1100
g1
(g15
g3
NtRp1101
(dp1102
g18
F0.5
sg19
I28
sg20
g21
((dp1103
NI28
stRp1104
sg24
I2
sg25
F29
sbs(g10
g706
tp1105
g1
(g15
g3
NtRp1106
(dp1107
g18
F0.5
sg19
I28
sg20
g21
((dp1108
NI28
stRp1109
sg24
I2
sg25
F29
sbs(g10
g1044
tp1110
g1
(g15
g3
NtRp1111
(dp1112
g18
F0.5
sg19
I28
sg20
g21
((dp1113
NI28
stRp1114
sg24
I2
sg25
F29
sbs(g74
S'contains(name)'
p1115
tp1116
g1
(g15
g3
NtRp1117
(dp1118
g18
F0.5
sg19
I22
sg20
g21
((dp1119
NI20
sI01
I2
stRp1120
sg24
I2
sg25
F23
sbs(g9
g158
tp1121
g1
(g15
g3
NtRp1122
(dp1123
g18
F0.5
sg19
I62
sg20
g21
((dp1124
NI62
stRp1125
sg24
I2
sg25
F63
sbs(g550
g489
tp1126
g1
(g15
g3
NtRp1127
(dp1128
g18
F0.5
sg19
I62
sg20
g21
((dp1129
NI61
sI01
I1
stRp1130
sg24
I2
sg25
F63
sbs(g10
g303
tp1131
g1
(g15
g3
NtRp1132
(dp1133
g18
F0.5
sg19
I28
sg20
g21
((dp1134
NI28
stRp1135
sg24
I2
sg25
F29
sbs(g255
g684
tp1136
g1
(g15
g3
NtRp1137
(dp1138
g18
F0.5
sg19
I22
sg20
g21
((dp1139
NI21
sI01
I1
stRp1140
sg24
I2
sg25
F23
sbs(g9
S'contains(.)'
p1141
tp1142
g1
(g15
g3
NtRp1143
(dp1144
g18
F0.5
sg19
I62
sg20
g21
((dp1145
NI62
stRp1146
sg24
I2
sg25
F63
sbs(g9
g666
tp1147
g1
(g15
g3
NtRp1148
(dp1149
g18
F0.5
sg19
I62
sg20
g21
((dp1150
NI62
stRp1151
sg24
I2
sg25
F63
sbs(S'Meaning'
S'contains(doors)'
tp1152
g1
(g15
g3
NtRp1153
(dp1154
g18
F0.5
sg19
I62
sg20
g21
((dp1155
NI61
sI01
I1
stRp1156
sg24
I2
sg25
F63
sbs(S'Meaning'
g734
tp1157
g1
(g15
g3
NtRp1158
(dp1159
g18
F0.5
sg19
I62
sg20
g21
((dp1160
NI61
sI01
I1
stRp1161
sg24
I2
sg25
F63
sbs(g9
g706
tp1162
g1
(g15
g3
NtRp1163
(dp1164
g18
F0.5
sg19
I62
sg20
g21
((dp1165
NI62
stRp1166
sg24
I2
sg25
F63
sbs(g9
g1099
tp1167
g1
(g15
g3
NtRp1168
(dp1169
g18
F0.5
sg19
I62
sg20
g21
((dp1170
NI62
stRp1171
sg24
I2
sg25
F63
sbs(g8
g873
tp1172
g1
(g15
g3
NtRp1173
(dp1174
g18
F0.5
sg19
I22
sg20
g21
((dp1175
NI22
stRp1176
sg24
I2
sg25
F23
sbs(g249
S'contains(laser)'
p1177
tp1178
g1
(g15
g3
NtRp1179
(dp1180
g18
F0.5
sg19
I22
sg20
g21
((dp1181
NI21
sI01
I1
stRp1182
sg24
I2
sg25
F23
sbs(g8
S'contains(ear)'
p1183
tp1184
g1
(g15
g3
NtRp1185
(dp1186
g18
F0.5
sg19
I22
sg20
g21
((dp1187
NI22
stRp1188
sg24
I2
sg25
F23
sbs(g495
g68
tp1189
g1
(g15
g3
NtRp1190
(dp1191
g18
F0.5
sg19
I22
sg20
g21
((dp1192
NI21
sI01
I1
stRp1193
sg24
I2
sg25
F23
sbs(g437
g275
tp1194
g1
(g15
g3
NtRp1195
(dp1196
g18
F0.5
sg19
I22
sg20
g21
((dp1197
NI21
sI01
I1
stRp1198
sg24
I2
sg25
F23
sbs(g10
g666
tp1199
g1
(g15
g3
NtRp1200
(dp1201
g18
F0.5
sg19
I28
sg20
g21
((dp1202
NI28
stRp1203
sg24
I2
sg25
F29
sbs(g10
g672
tp1204
g1
(g15
g3
NtRp1205
(dp1206
g18
F0.5
sg19
I28
sg20
g21
((dp1207
NI28
stRp1208
sg24
I2
sg25
F29
sbs(g10
S'contains(other)'
p1209
tp1210
g1
(g15
g3
NtRp1211
(dp1212
g18
F0.5
sg19
I28
sg20
g21
((dp1213
NI28
stRp1214
sg24
I2
sg25
F29
sbs(g8
S'contains(person)'
p1215
tp1216
g1
(g15
g3
NtRp1217
(dp1218
g18
F0.5
sg19
I22
sg20
g21
((dp1219
NI22
stRp1220
sg24
I2
sg25
F23
sbs(g8
S'contains(earth)'
p1221
tp1222
g1
(g15
g3
NtRp1223
(dp1224
g18
F0.5
sg19
I22
sg20
g21
((dp1225
NI22
stRp1226
sg24
I2
sg25
F23
sbs(g8
g590
tp1227
g1
(g15
g3
NtRp1228
(dp1229
g18
F0.5
sg19
I22
sg20
g21
((dp1230
NI22
stRp1231
sg24
I2
sg25
F23
sbs(g10
g275
tp1232
g1
(g15
g3
NtRp1233
(dp1234
g18
F0.5
sg19
I28
sg20
g21
((dp1235
NI28
stRp1236
sg24
I2
sg25
F29
sbs(g602
g942
tp1237
g1
(g15
g3
NtRp1238
(dp1239
g18
F0.5
sg19
I22
sg20
g21
((dp1240
NI21
sI01
I1
stRp1241
sg24
I2
sg25
F23
sbs(g10
g1177
tp1242
g1
(g15
g3
NtRp1243
(dp1244
g18
F0.5
sg19
I28
sg20
g21
((dp1245
NI28
stRp1246
sg24
I2
sg25
F29
sbs(g9
g723
tp1247
g1
(g15
g3
NtRp1248
(dp1249
g18
F0.5
sg19
I62
sg20
g21
((dp1250
NI62
stRp1251
sg24
I2
sg25
F63
sbs(g602
g176
tp1252
g1
(g15
g3
NtRp1253
(dp1254
g18
F0.5
sg19
I22
sg20
g21
((dp1255
NI21
sI01
I1
stRp1256
sg24
I2
sg25
F23
sbs(S'Meaning'
g518
tp1257
g1
(g15
g3
NtRp1258
(dp1259
g18
F0.5
sg19
I62
sg20
g21
((dp1260
NI61
sI01
I1
stRp1261
sg24
I2
sg25
F63
sbs(g9
g1115
tp1262
g1
(g15
g3
NtRp1263
(dp1264
g18
F0.5
sg19
I62
sg20
g21
((dp1265
NI62
stRp1266
sg24
I2
sg25
F63
sbs(g10
g68
tp1267
g1
(g15
g3
NtRp1268
(dp1269
g18
F0.5
sg19
I28
sg20
g21
((dp1270
NI28
stRp1271
sg24
I2
sg25
F29
sbs(g10
g873
tp1272
g1
(g15
g3
NtRp1273
(dp1274
g18
F0.5
sg19
I28
sg20
g21
((dp1275
NI28
stRp1276
sg24
I2
sg25
F29
sbs(g10
g489
tp1277
g1
(g15
g3
NtRp1278
(dp1279
g18
F0.5
sg19
I28
sg20
g21
((dp1280
NI28
stRp1281
sg24
I2
sg25
F29
sbs(g9
g1013
tp1282
g1
(g15
g3
NtRp1283
(dp1284
g18
F0.5
sg19
I62
sg20
g21
((dp1285
NI62
stRp1286
sg24
I2
sg25
F63
sbs(g10
g75
tp1287
g1
(g15
g3
NtRp1288
(dp1289
g18
F0.5
sg19
I28
sg20
g21
((dp1290
NI28
stRp1291
sg24
I2
sg25
F29
sbs(g10
S'contains(tree)'
p1292
tp1293
g1
(g15
g3
NtRp1294
(dp1295
g18
F0.5
sg19
I28
sg20
g21
((dp1296
NI28
stRp1297
sg24
I2
sg25
F29
sbs(g8
S'contains(the)'
tp1298
g1
(g15
g3
NtRp1299
(dp1300
g18
F0.5
sg19
I22
sg20
g21
((dp1301
NI10
sI01
I12
stRp1302
sg24
I2
sg25
F23
sbs(S'Abbreviation'
g1061
tp1303
g1
(g15
g3
NtRp1304
(dp1305
g18
F0.5
sg19
I22
sg20
g21
((dp1306
NI21
sI01
I1
stRp1307
sg24
I2
sg25
F23
sbs(g10
g518
tp1308
g1
(g15
g3
NtRp1309
(dp1310
g18
F0.5
sg19
I28
sg20
g21
((dp1311
NI28
stRp1312
sg24
I2
sg25
F29
sbs(g8
g1044
tp1313
g1
(g15
g3
NtRp1314
(dp1315
g18
F0.5
sg19
I22
sg20
g21
((dp1316
NI22
stRp1317
sg24
I2
sg25
F23
sbs(g9
g438
tp1318
g1
(g15
g3
NtRp1319
(dp1320
g18
F0.5
sg19
I62
sg20
g21
((dp1321
NI62
stRp1322
sg24
I2
sg25
F63
sbs(g9
g256
tp1323
g1
(g15
g3
NtRp1324
(dp1325
g18
F0.5
sg19
I62
sg20
g21
((dp1326
NI62
stRp1327
sg24
I2
sg25
F63
sbs(g10
S'contains(claus)'
p1328
tp1329
g1
(g15
g3
NtRp1330
(dp1331
g18
F0.5
sg19
I28
sg20
g21
((dp1332
NI28
stRp1333
sg24
I2
sg25
F29
sbs(g10
S'contains(company)'
p1334
tp1335
g1
(g15
g3
NtRp1336
(dp1337
g18
F0.5
sg19
I28
sg20
g21
((dp1338
NI28
stRp1339
sg24
I2
sg25
F29
sbs(S'Meaning'
g590
tp1340
g1
(g15
g3
NtRp1341
(dp1342
g18
F0.5
sg19
I62
sg20
g21
((dp1343
NI61
sI01
I1
stRp1344
sg24
I2
sg25
F63
sbs(g8
S'contains(pretty)'
p1345
tp1346
g1
(g15
g3
NtRp1347
(dp1348
g18
F0.5
sg19
I22
sg20
g21
((dp1349
NI22
stRp1350
sg24
I2
sg25
F23
sbs(S'Composition'
g1013
tp1351
g1
(g15
g3
NtRp1352
(dp1353
g18
F0.5
sg19
I28
sg20
g21
((dp1354
NI27
sI01
I1
stRp1355
sg24
I2
sg25
F29
sbs(S'Meaning'
g314
tp1356
g1
(g15
g3
NtRp1357
(dp1358
g18
F0.5
sg19
I62
sg20
g21
((dp1359
NI61
sI01
I1
stRp1360
sg24
I2
sg25
F63
sbs(g9
g32
tp1361
g1
(g15
g3
NtRp1362
(dp1363
g18
F0.5
sg19
I62
sg20
g21
((dp1364
NI62
stRp1365
sg24
I2
sg25
F63
sbs(g10
g948
tp1366
g1
(g15
g3
NtRp1367
(dp1368
g18
F0.5
sg19
I28
sg20
g21
((dp1369
NI28
stRp1370
sg24
I2
sg25
F29
sbs(g8
S'contains(rubber)'
p1371
tp1372
g1
(g15
g3
NtRp1373
(dp1374
g18
F0.5
sg19
I22
sg20
g21
((dp1375
NI22
stRp1376
sg24
I2
sg25
F23
sbs(g10
g1055
tp1377
g1
(g15
g3
NtRp1378
(dp1379
g18
F0.5
sg19
I28
sg20
g21
((dp1380
NI28
stRp1381
sg24
I2
sg25
F29
sbs(g10
S'contains(avenue)'
p1382
tp1383
g1
(g15
g3
NtRp1384
(dp1385
g18
F0.5
sg19
I28
sg20
g21
((dp1386
NI28
stRp1387
sg24
I2
sg25
F29
sbs(g10
g856
tp1388
g1
(g15
g3
NtRp1389
(dp1390
g18
F0.5
sg19
I28
sg20
g21
((dp1391
NI28
stRp1392
sg24
I2
sg25
F29
sbs(g8
S'contains(mellon)'
p1393
tp1394
g1
(g15
g3
NtRp1395
(dp1396
g18
F0.5
sg19
I22
sg20
g21
((dp1397
NI22
stRp1398
sg24
I2
sg25
F23
sbs(g8
S'contains(zapping)'
p1399
tp1400
g1
(g15
g3
NtRp1401
(dp1402
g18
F0.5
sg19
I22
sg20
g21
((dp1403
NI22
stRp1404
sg24
I2
sg25
F23
sbs(g182
g87
tp1405
g1
(g15
g3
NtRp1406
(dp1407
g18
F0.5
sg19
I28
sg20
g21
((dp1408
NI27
sI01
I1
stRp1409
sg24
I2
sg25
F29
sbs(g602
S'contains(reading)'
p1410
tp1411
g1
(g15
g3
NtRp1412
(dp1413
g18
F0.5
sg19
I22
sg20
g21
((dp1414
NI21
sI01
I1
stRp1415
sg24
I2
sg25
F23
sbs(g8
g362
tp1416
g1
(g15
g3
NtRp1417
(dp1418
g18
F0.5
sg19
I22
sg20
g21
((dp1419
NI22
stRp1420
sg24
I2
sg25
F23
sbs(g8
g734
tp1421
g1
(g15
g3
NtRp1422
(dp1423
g18
F0.5
sg19
I22
sg20
g21
((dp1424
NI22
stRp1425
sg24
I2
sg25
F23
sbs(g8
g87
tp1426
g1
(g15
g3
NtRp1427
(dp1428
g18
F0.5
sg19
I22
sg20
g21
((dp1429
NI22
stRp1430
sg24
I2
sg25
F23
sbs(g9
S'contains(as)'
p1431
tp1432
g1
(g15
g3
NtRp1433
(dp1434
g18
F0.5
sg19
I62
sg20
g21
((dp1435
NI62
stRp1436
sg24
I2
sg25
F63
sbs(g10
S'contains(?)'
tp1437
g1
(g15
g3
NtRp1438
(dp1439
g18
F0.5
sg19
I28
sg20
g21
((dp1440
I01
I28
stRp1441
sg24
I1
sg25
F28.5
sbs(g268
g326
tp1442
g1
(g15
g3
NtRp1443
(dp1444
g18
F0.5
sg19
I22
sg20
g21
((dp1445
NI21
sI01
I1
stRp1446
sg24
I2
sg25
F23
sbs(g8
g392
tp1447
g1
(g15
g3
NtRp1448
(dp1449
g18
F0.5
sg19
I22
sg20
g21
((dp1450
NI22
stRp1451
sg24
I2
sg25
F23
sbs(g8
S'contains(eucalyptus)'
p1452
tp1453
g1
(g15
g3
NtRp1454
(dp1455
g18
F0.5
sg19
I22
sg20
g21
((dp1456
NI22
stRp1457
sg24
I2
sg25
F23
sbs(g10
S'contains(ads)'
p1458
tp1459
g1
(g15
g3
NtRp1460
(dp1461
g18
F0.5
sg19
I28
sg20
g21
((dp1462
NI28
stRp1463
sg24
I2
sg25
F29
sbs(g9
g220
tp1464
g1
(g15
g3
NtRp1465
(dp1466
g18
F0.5
sg19
I62
sg20
g21
((dp1467
NI62
stRp1468
sg24
I2
sg25
F63
sbs(g9
g183
tp1469
g1
(g15
g3
NtRp1470
(dp1471
g18
F0.5
sg19
I62
sg20
g21
((dp1472
NI62
stRp1473
sg24
I2
sg25
F63
sbs(g10
g281
tp1474
g1
(g15
g3
NtRp1475
(dp1476
g18
F0.5
sg19
I28
sg20
g21
((dp1477
NI28
stRp1478
sg24
I2
sg25
F29
sbs(g10
S'contains(what)'
tp1479
g1
(g15
g3
NtRp1480
(dp1481
g18
F0.5
sg19
I28
sg20
g21
((dp1482
I01
I28
stRp1483
sg24
I2
sg25
F29
sbs(g10
g745
tp1484
g1
(g15
g3
NtRp1485
(dp1486
g18
F0.5
sg19
I28
sg20
g21
((dp1487
NI28
stRp1488
sg24
I2
sg25
F29
sbs(g9
S'contains(form)'
p1489
tp1490
g1
(g15
g3
NtRp1491
(dp1492
g18
F0.5
sg19
I62
sg20
g21
((dp1493
NI62
stRp1494
sg24
I2
sg25
F63
sbs(g9
g1221
tp1495
g1
(g15
g3
NtRp1496
(dp1497
g18
F0.5
sg19
I62
sg20
g21
((dp1498
NI62
stRp1499
sg24
I2
sg25
F63
sbs(g8
g501
tp1500
g1
(g15
g3
NtRp1501
(dp1502
g18
F0.5
sg19
I22
sg20
g21
((dp1503
NI22
stRp1504
sg24
I2
sg25
F23
sbs(g9
g269
tp1505
g1
(g15
g3
NtRp1506
(dp1507
g18
F0.5
sg19
I62
sg20
g21
((dp1508
NI62
stRp1509
sg24
I2
sg25
F63
sbs(g9
g1215
tp1510
g1
(g15
g3
NtRp1511
(dp1512
g18
F0.5
sg19
I62
sg20
g21
((dp1513
NI62
stRp1514
sg24
I2
sg25
F63
sbs(g8
g262
tp1515
g1
(g15
g3
NtRp1516
(dp1517
g18
F0.5
sg19
I22
sg20
g21
((dp1518
NI22
stRp1519
sg24
I2
sg25
F23
sbs(g10
g256
tp1520
g1
(g15
g3
NtRp1521
(dp1522
g18
F0.5
sg19
I28
sg20
g21
((dp1523
NI28
stRp1524
sg24
I2
sg25
F29
sbs(g10
g654
tp1525
g1
(g15
g3
NtRp1526
(dp1527
g18
F0.5
sg19
I28
sg20
g21
((dp1528
NI28
stRp1529
sg24
I2
sg25
F29
sbs(g195
g483
tp1530
g1
(g15
g3
NtRp1531
(dp1532
g18
F0.5
sg19
I22
sg20
g21
((dp1533
NI21
sI01
I1
stRp1534
sg24
I2
sg25
F23
sbs(g10
g243
tp1535
g1
(g15
g3
NtRp1536
(dp1537
g18
F0.5
sg19
I28
sg20
g21
((dp1538
NI28
stRp1539
sg24
I2
sg25
F29
sbs(S'Meaning'
p1540
S'contains(santa)'
p1541
tp1542
g1
(g15
g3
NtRp1543
(dp1544
g18
F0.5
sg19
I62
sg20
g21
((dp1545
NI61
sI01
I1
stRp1546
sg24
I2
sg25
F63
sbs(g8
g654
tp1547
g1
(g15
g3
NtRp1548
(dp1549
g18
F0.5
sg19
I22
sg20
g21
((dp1550
NI22
stRp1551
sg24
I2
sg25
F23
sbs(S'Meaning'
g1393
tp1552
g1
(g15
g3
NtRp1553
(dp1554
g18
F0.5
sg19
I62
sg20
g21
((dp1555
NI61
sI01
I1
stRp1556
sg24
I2
sg25
F63
sbs(g10
S'contains(when)'
p1557
tp1558
g1
(g15
g3
NtRp1559
(dp1560
g18
F0.5
sg19
I28
sg20
g21
((dp1561
NI28
stRp1562
sg24
I2
sg25
F29
sbs(g9
S'contains(on)'
p1563
tp1564
g1
(g15
g3
NtRp1565
(dp1566
g18
F0.5
sg19
I62
sg20
g21
((dp1567
NI62
stRp1568
sg24
I2
sg25
F63
sbs(g10
g894
tp1569
g1
(g15
g3
NtRp1570
(dp1571
g18
F0.5
sg19
I28
sg20
g21
((dp1572
NI28
stRp1573
sg24
I2
sg25
F29
sbs(g8
g214
tp1574
g1
(g15
g3
NtRp1575
(dp1576
g18
F0.5
sg19
I22
sg20
g21
((dp1577
NI22
stRp1578
sg24
I2
sg25
F23
sbs(g9
g801
tp1579
g1
(g15
g3
NtRp1580
(dp1581
g18
F0.5
sg19
I62
sg20
g21
((dp1582
NI62
stRp1583
sg24
I2
sg25
F63
sbs(g10
g1072
tp1584
g1
(g15
g3
NtRp1585
(dp1586
g18
F0.5
sg19
I28
sg20
g21
((dp1587
NI28
stRp1588
sg24
I2
sg25
F29
sbs(g9
g196
tp1589
g1
(g15
g3
NtRp1590
(dp1591
g18
F0.5
sg19
I62
sg20
g21
((dp1592
NI62
stRp1593
sg24
I2
sg25
F63
sbs(S'Meaning'
p1594
g1452
tp1595
g1
(g15
g3
NtRp1596
(dp1597
g18
F0.5
sg19
I62
sg20
g21
((dp1598
NI61
sI01
I1
stRp1599
sg24
I2
sg25
F63
sbs(g602
g829
tp1600
g1
(g15
g3
NtRp1601
(dp1602
g18
F0.5
sg19
I22
sg20
g21
((dp1603
NI21
sI01
I1
stRp1604
sg24
I2
sg25
F23
sbs(g74
g158
tp1605
g1
(g15
g3
NtRp1606
(dp1607
g18
F0.5
sg19
I22
sg20
g21
((dp1608
NI21
sI01
I1
stRp1609
sg24
I2
sg25
F23
sbs(g10
g780
tp1610
g1
(g15
g3
NtRp1611
(dp1612
g18
F0.5
sg19
I28
sg20
g21
((dp1613
NI28
stRp1614
sg24
I2
sg25
F29
sbs(g602
g1458
tp1615
g1
(g15
g3
NtRp1616
(dp1617
g18
F0.5
sg19
I22
sg20
g21
((dp1618
NI21
sI01
I1
stRp1619
sg24
I2
sg25
F23
sbs(g10
g801
tp1620
g1
(g15
g3
NtRp1621
(dp1622
g18
F0.5
sg19
I28
sg20
g21
((dp1623
NI28
stRp1624
sg24
I2
sg25
F29
sbs(g9
g1061
tp1625
g1
(g15
g3
NtRp1626
(dp1627
g18
F0.5
sg19
I62
sg20
g21
((dp1628
NI62
stRp1629
sg24
I2
sg25
F63
sbs(g9
g1209
tp1630
g1
(g15
g3
NtRp1631
(dp1632
g18
F0.5
sg19
I62
sg20
g21
((dp1633
NI62
stRp1634
sg24
I2
sg25
F63
sbs(g8
g183
tp1635
g1
(g15
g3
NtRp1636
(dp1637
g18
F0.5
sg19
I22
sg20
g21
((dp1638
NI22
stRp1639
sg24
I2
sg25
F23
sbs(g9
g1334
tp1640
g1
(g15
g3
NtRp1641
(dp1642
g18
F0.5
sg19
I62
sg20
g21
((dp1643
NI62
stRp1644
sg24
I2
sg25
F63
sbs(g8
S'contains(mellons)'
p1645
tp1646
g1
(g15
g3
NtRp1647
(dp1648
g18
F0.5
sg19
I22
sg20
g21
((dp1649
NI22
stRp1650
sg24
I2
sg25
F23
sbs(g10
g164
tp1651
g1
(g15
g3
NtRp1652
(dp1653
g18
F0.5
sg19
I28
sg20
g21
((dp1654
NI28
stRp1655
sg24
I2
sg25
F29
sbs(g10
g1399
tp1656
g1
(g15
g3
NtRp1657
(dp1658
g18
F0.5
sg19
I28
sg20
g21
((dp1659
NI28
stRp1660
sg24
I2
sg25
F29
sbs(g8
g1328
tp1661
g1
(g15
g3
NtRp1662
(dp1663
g18
F0.5
sg19
I22
sg20
g21
((dp1664
NI22
stRp1665
sg24
I2
sg25
F23
sbs(S'Meaning'
g501
tp1666
g1
(g15
g3
NtRp1667
(dp1668
g18
F0.5
sg19
I62
sg20
g21
((dp1669
NI60
sI01
I2
stRp1670
sg24
I2
sg25
F63
sbs(g8
S'contains(backpacks)'
p1671
tp1672
g1
(g15
g3
NtRp1673
(dp1674
g18
F0.5
sg19
I22
sg20
g21
((dp1675
NI22
stRp1676
sg24
I2
sg25
F23
sbs(g9
S'contains(made)'
p1677
tp1678
g1
(g15
g3
NtRp1679
(dp1680
g18
F0.5
sg19
I62
sg20
g21
((dp1681
NI62
stRp1682
sg24
I2
sg25
F63
sbs(g10
g140
tp1683
g1
(g15
g3
NtRp1684
(dp1685
g18
F0.5
sg19
I28
sg20
g21
((dp1686
NI28
stRp1687
sg24
I2
sg25
F29
sbs(g8
g1382
tp1688
g1
(g15
g3
NtRp1689
(dp1690
g18
F0.5
sg19
I22
sg20
g21
((dp1691
NI22
stRp1692
sg24
I2
sg25
F23
sbs(g8
g751
tp1693
g1
(g15
g3
NtRp1694
(dp1695
g18
F0.5
sg19
I22
sg20
g21
((dp1696
NI22
stRp1697
sg24
I2
sg25
F23
sbs(g9
g123
tp1698
g1
(g15
g3
NtRp1699
(dp1700
g18
F0.5
sg19
I62
sg20
g21
((dp1701
NI62
stRp1702
sg24
I2
sg25
F63
sbs(S'Meaning'
g1382
tp1703
g1
(g15
g3
NtRp1704
(dp1705
g18
F0.5
sg19
I62
sg20
g21
((dp1706
NI61
sI01
I1
stRp1707
sg24
I2
sg25
F63
sbs(S'Composition'
g1371
tp1708
g1
(g15
g3
NtRp1709
(dp1710
g18
F0.5
sg19
I28
sg20
g21
((dp1711
NI27
sI01
I1
stRp1712
sg24
I2
sg25
F29
sbs(g10
g1007
tp1713
g1
(g15
g3
NtRp1714
(dp1715
g18
F0.5
sg19
I28
sg20
g21
((dp1716
NI28
stRp1717
sg24
I2
sg25
F29
sbs(g195
g723
tp1718
g1
(g15
g3
NtRp1719
(dp1720
g18
F0.5
sg19
I22
sg20
g21
((dp1721
NI21
sI01
I1
stRp1722
sg24
I2
sg25
F23
sbs(g9
g99
tp1723
g1
(g15
g3
NtRp1724
(dp1725
g18
F0.5
sg19
I62
sg20
g21
((dp1726
NI62
stRp1727
sg24
I2
sg25
F63
sbs(S'Composition'
p1728
g717
tp1729
g1
(g15
g3
NtRp1730
(dp1731
g18
F0.5
sg19
I28
sg20
g21
((dp1732
NI26
sI01
I2
stRp1733
sg24
I2
sg25
F29
sbs(S'Meaning'
p1734
g140
tp1735
g1
(g15
g3
NtRp1736
(dp1737
g18
F0.5
sg19
I62
sg20
g21
((dp1738
NI61
sI01
I1
stRp1739
sg24
I2
sg25
F63
sbs(g9
g431
tp1740
g1
(g15
g3
NtRp1741
(dp1742
g18
F0.5
sg19
I62
sg20
g21
((dp1743
NI50
sI01
I12
stRp1744
sg24
I2
sg25
F63
sbs(S'Meaning'
g1399
tp1745
g1
(g15
g3
NtRp1746
(dp1747
g18
F0.5
sg19
I62
sg20
g21
((dp1748
NI61
sI01
I1
stRp1749
sg24
I2
sg25
F63
sbs(g437
S'contains(bureau)'
p1750
tp1751
g1
(g15
g3
NtRp1752
(dp1753
g18
F0.5
sg19
I22
sg20
g21
((dp1754
NI21
sI01
I1
stRp1755
sg24
I2
sg25
F23
sbs(g8
g1141
tp1756
g1
(g15
g3
NtRp1757
(dp1758
g18
F0.5
sg19
I22
sg20
g21
((dp1759
NI19
sI01
I3
stRp1760
sg24
I2
sg25
F23
sbs(S'Meaning'
S'contains(atm)'
p1761
tp1762
g1
(g15
g3
NtRp1763
(dp1764
g18
F0.5
sg19
I62
sg20
g21
((dp1765
NI61
sI01
I1
stRp1766
sg24
I2
sg25
F63
sbs(g8
g615
tp1767
g1
(g15
g3
NtRp1768
(dp1769
g18
F0.5
sg19
I22
sg20
g21
((dp1770
NI22
stRp1771
sg24
I2
sg25
F23
sbs(g8
S'contains(mouse)'
p1772
tp1773
g1
(g15
g3
NtRp1774
(dp1775
g18
F0.5
sg19
I22
sg20
g21
((dp1776
NI22
stRp1777
sg24
I2
sg25
F23
sbs(g10
g339
tp1778
g1
(g15
g3
NtRp1779
(dp1780
g18
F0.5
sg19
I28
sg20
g21
((dp1781
NI28
stRp1782
sg24
I2
sg25
F29
sbs(g8
g50
tp1783
g1
(g15
g3
NtRp1784
(dp1785
g18
F0.5
sg19
I22
sg20
g21
((dp1786
NI22
stRp1787
sg24
I2
sg25
F23
sbs(g9
g189
tp1788
g1
(g15
g3
NtRp1789
(dp1790
g18
F0.5
sg19
I62
sg20
g21
((dp1791
NI62
stRp1792
sg24
I2
sg25
F63
sbs(g9
g467
tp1793
g1
(g15
g3
NtRp1794
(dp1795
g18
F0.5
sg19
I62
sg20
g21
((dp1796
NI62
stRp1797
sg24
I2
sg25
F63
sbs(g8
g757
tp1798
g1
(g15
g3
NtRp1799
(dp1800
g18
F0.5
sg19
I22
sg20
g21
((dp1801
NI22
stRp1802
sg24
I2
sg25
F23
sbs(S'Meaning'
g50
tp1803
g1
(g15
g3
NtRp1804
(dp1805
g18
F0.5
sg19
I62
sg20
g21
((dp1806
NI61
sI01
I1
stRp1807
sg24
I2
sg25
F63
sbs(g10
g356
tp1808
g1
(g15
g3
NtRp1809
(dp1810
g18
F0.5
sg19
I28
sg20
g21
((dp1811
NI28
stRp1812
sg24
I2
sg25
F29
sbs(g10
g380
tp1813
g1
(g15
g3
NtRp1814
(dp1815
g18
F0.5
sg19
I28
sg20
g21
((dp1816
NI28
stRp1817
sg24
I2
sg25
F29
sbs(S'Meaning'
g1183
tp1818
g1
(g15
g3
NtRp1819
(dp1820
g18
F0.5
sg19
I62
sg20
g21
((dp1821
NI61
sI01
I1
stRp1822
sg24
I2
sg25
F63
sbs(g8
g643
tp1823
g1
(g15
g3
NtRp1824
(dp1825
g18
F0.5
sg19
I22
sg20
g21
((dp1826
NI22
stRp1827
sg24
I2
sg25
F23
sbs(g8
S'contains(protective)'
p1828
tp1829
g1
(g15
g3
NtRp1830
(dp1831
g18
F0.5
sg19
I22
sg20
g21
((dp1832
NI22
stRp1833
sg24
I2
sg25
F23
sbs(g9
g632
tp1834
g1
(g15
g3
NtRp1835
(dp1836
g18
F0.5
sg19
I62
sg20
g21
((dp1837
NI62
stRp1838
sg24
I2
sg25
F63
sbs(g8
S'contains(broke)'
p1839
tp1840
g1
(g15
g3
NtRp1841
(dp1842
g18
F0.5
sg19
I22
sg20
g21
((dp1843
NI22
stRp1844
sg24
I2
sg25
F23
sbs(g8
g621
tp1845
g1
(g15
g3
NtRp1846
(dp1847
g18
F0.5
sg19
I22
sg20
g21
((dp1848
NI22
stRp1849
sg24
I2
sg25
F23
sbs(S'Meaning'
g449
tp1850
g1
(g15
g3
NtRp1851
(dp1852
g18
F0.5
sg19
I62
sg20
g21
((dp1853
NI61
sI01
I1
stRp1854
sg24
I2
sg25
F63
sbs(g8
g609
tp1855
g1
(g15
g3
NtRp1856
(dp1857
g18
F0.5
sg19
I22
sg20
g21
((dp1858
NI22
stRp1859
sg24
I2
sg25
F23
sbs(g8
g1541
tp1860
g1
(g15
g3
NtRp1861
(dp1862
g18
F0.5
sg19
I22
sg20
g21
((dp1863
NI22
stRp1864
sg24
I2
sg25
F23
sbs(g9
g214
tp1865
g1
(g15
g3
NtRp1866
(dp1867
g18
F0.5
sg19
I62
sg20
g21
((dp1868
NI62
stRp1869
sg24
I2
sg25
F63
sbs(g8
S'contains(your)'
p1870
tp1871
g1
(g15
g3
NtRp1872
(dp1873
g18
F0.5
sg19
I22
sg20
g21
((dp1874
NI22
stRp1875
sg24
I2
sg25
F23
sbs(g495
g566
tp1876
g1
(g15
g3
NtRp1877
(dp1878
g18
F0.5
sg19
I22
sg20
g21
((dp1879
NI18
sI01
I4
stRp1880
sg24
I2
sg25
F23
sbs(g8
g1677
tp1881
g1
(g15
g3
NtRp1882
(dp1883
g18
F0.5
sg19
I22
sg20
g21
((dp1884
NI22
stRp1885
sg24
I2
sg25
F23
sbs(g10
g1183
tp1886
g1
(g15
g3
NtRp1887
(dp1888
g18
F0.5
sg19
I28
sg20
g21
((dp1889
NI28
stRp1890
sg24
I2
sg25
F29
sbs(g10
g578
tp1891
g1
(g15
g3
NtRp1892
(dp1893
g18
F0.5
sg19
I28
sg20
g21
((dp1894
NI28
stRp1895
sg24
I2
sg25
F29
sbs(g10
g596
tp1896
g1
(g15
g3
NtRp1897
(dp1898
g18
F0.5
sg19
I28
sg20
g21
((dp1899
NI28
stRp1900
sg24
I2
sg25
F29
sbs(g10
g1541
tp1901
g1
(g15
g3
NtRp1902
(dp1903
g18
F0.5
sg19
I28
sg20
g21
((dp1904
NI28
stRp1905
sg24
I2
sg25
F29
sbs(g8
g856
tp1906
g1
(g15
g3
NtRp1907
(dp1908
g18
F0.5
sg19
I22
sg20
g21
((dp1909
NI22
stRp1910
sg24
I2
sg25
F23
sbs(g10
g609
tp1911
g1
(g15
g3
NtRp1912
(dp1913
g18
F0.5
sg19
I28
sg20
g21
((dp1914
NI28
stRp1915
sg24
I2
sg25
F29
sbs(g9
g26
tp1916
g1
(g15
g3
NtRp1917
(dp1918
g18
F0.5
sg19
I62
sg20
g21
((dp1919
NI62
stRp1920
sg24
I2
sg25
F63
sbs(g9
g13
tp1921
g1
(g15
g3
NtRp1922
(dp1923
g18
F0.5
sg19
I62
sg20
g21
((dp1924
NI62
stRp1925
sg24
I2
sg25
F63
sbs(g10
g1452
tp1926
g1
(g15
g3
NtRp1927
(dp1928
g18
F0.5
sg19
I28
sg20
g21
((dp1929
NI28
stRp1930
sg24
I2
sg25
F29
sbs(g10
g1839
tp1931
g1
(g15
g3
NtRp1932
(dp1933
g18
F0.5
sg19
I28
sg20
g21
((dp1934
NI28
stRp1935
sg24
I2
sg25
F29
sbs(g1594
g1292
tp1936
g1
(g15
g3
NtRp1937
(dp1938
g18
F0.5
sg19
I62
sg20
g21
((dp1939
NI61
sI01
I1
stRp1940
sg24
I2
sg25
F63
sbs(S'Meaning'
g524
tp1941
g1
(g15
g3
NtRp1942
(dp1943
g18
F0.5
sg19
I62
sg20
g21
((dp1944
NI61
sI01
I1
stRp1945
sg24
I2
sg25
F63
sbs(S'Meaning'
g332
tp1946
g1
(g15
g3
NtRp1947
(dp1948
g18
F0.5
sg19
I62
sg20
g21
((dp1949
NI61
sI01
I1
stRp1950
sg24
I2
sg25
F63
sbs(g455
g615
tp1951
g1
(g15
g3
NtRp1952
(dp1953
g18
F0.5
sg19
I28
sg20
g21
((dp1954
NI27
sI01
I1
stRp1955
sg24
I2
sg25
F29
sbs(g268
S'contains(a)'
tp1956
g1
(g15
g3
NtRp1957
(dp1958
g18
F0.5
sg19
I22
sg20
g21
((dp1959
NI21
sI01
I1
stRp1960
sg24
I2
sg25
F23
sbs(g9
g1458
tp1961
g1
(g15
g3
NtRp1962
(dp1963
g18
F0.5
sg19
I62
sg20
g21
((dp1964
NI62
stRp1965
sg24
I2
sg25
F63
sbs(g10
g1761
tp1966
g1
(g15
g3
NtRp1967
(dp1968
g18
F0.5
sg19
I28
sg20
g21
((dp1969
NI28
stRp1970
sg24
I2
sg25
F29
sbs(g268
g1431
tp1971
g1
(g15
g3
NtRp1972
(dp1973
g18
F0.5
sg19
I22
sg20
g21
((dp1974
NI21
sI01
I1
stRp1975
sg24
I2
sg25
F23
sbs(g8
g226
tp1976
g1
(g15
g3
NtRp1977
(dp1978
g18
F0.5
sg19
I22
sg20
g21
((dp1979
NI22
stRp1980
sg24
I2
sg25
F23
sbs(S'Meaning'
g419
tp1981
g1
(g15
g3
NtRp1982
(dp1983
g18
F0.5
sg19
I62
sg20
g21
((dp1984
NI61
sI01
I1
stRp1985
sg24
I2
sg25
F63
sbs(g8
g467
tp1986
g1
(g15
g3
NtRp1987
(dp1988
g18
F0.5
sg19
I22
sg20
g21
((dp1989
NI22
stRp1990
sg24
I2
sg25
F23
sbs(g8
g1007
tp1991
g1
(g15
g3
NtRp1992
(dp1993
g18
F0.5
sg19
I22
sg20
g21
((dp1994
NI22
stRp1995
sg24
I2
sg25
F23
sbs(g10
g403
tp1996
g1
(g15
g3
NtRp1997
(dp1998
g18
F0.5
sg19
I28
sg20
g21
((dp1999
NI28
stRp2000
sg24
I2
sg25
F29
sbs(S'Meaning'
p2001
g672
tp2002
g1
(g15
g3
NtRp2003
(dp2004
g18
F0.5
sg19
I62
sg20
g21
((dp2005
NI50
sI01
I12
stRp2006
sg24
I2
sg25
F63
sbs(g10
g524
tp2007
g1
(g15
g3
NtRp2008
(dp2009
g18
F0.5
sg19
I28
sg20
g21
((dp2010
NI28
stRp2011
sg24
I2
sg25
F29
sbs(g10
g1671
tp2012
g1
(g15
g3
NtRp2013
(dp2014
g18
F0.5
sg19
I28
sg20
g21
((dp2015
NI28
stRp2016
sg24
I2
sg25
F29
sbs(g10
g196
tp2017
g1
(g15
g3
NtRp2018
(dp2019
g18
F0.5
sg19
I28
sg20
g21
((dp2020
NI28
stRp2021
sg24
I2
sg25
F29
sbs(g9
g1371
tp2022
g1
(g15
g3
NtRp2023
(dp2024
g18
F0.5
sg19
I62
sg20
g21
((dp2025
NI62
stRp2026
sg24
I2
sg25
F63
sbs(S'Abbreviation'
g425
tp2027
g1
(g15
g3
NtRp2028
(dp2029
g18
F0.5
sg19
I22
sg20
g21
((dp2030
NI21
sI01
I1
stRp2031
sg24
I2
sg25
F23
sbs(g10
g1083
tp2032
g1
(g15
g3
NtRp2033
(dp2034
g18
F0.5
sg19
I28
sg20
g21
((dp2035
NI28
stRp2036
sg24
I2
sg25
F29
sbs(g8
g975
tp2037
g1
(g15
g3
NtRp2038
(dp2039
g18
F0.5
sg19
I22
sg20
g21
((dp2040
NI22
stRp2041
sg24
I2
sg25
F23
sbs(S'Meaning'
g1345
tp2042
g1
(g15
g3
NtRp2043
(dp2044
g18
F0.5
sg19
I62
sg20
g21
((dp2045
NI61
sI01
I1
stRp2046
sg24
I2
sg25
F63
sbs(g10
g1563
tp2047
g1
(g15
g3
NtRp2048
(dp2049
g18
F0.5
sg19
I28
sg20
g21
((dp2050
NI28
stRp2051
sg24
I2
sg25
F29
sbs(g9
g208
tp2052
g1
(g15
g3
NtRp2053
(dp2054
g18
F0.5
sg19
I62
sg20
g21
((dp2055
NI62
stRp2056
sg24
I2
sg25
F63
sbs(g10
S'contains(of)'
tp2057
g1
(g15
g3
NtRp2058
(dp2059
g18
F0.5
sg19
I28
sg20
g21
((dp2060
I01
I28
stRp2061
sg24
I2
sg25
F29
sbs(g10
g438
tp2062
g1
(g15
g3
NtRp2063
(dp2064
g18
F0.5
sg19
I28
sg20
g21
((dp2065
NI28
stRp2066
sg24
I2
sg25
F29
sbs(g9
S'contains(does)'
p2067
tp2068
g1
(g15
g3
NtRp2069
(dp2070
g18
F0.5
sg19
I62
sg20
g21
((dp2071
NI50
sI01
I12
stRp2072
sg24
I2
sg25
F63
sbs(S'Composition'
g117
tp2073
g1
(g15
g3
NtRp2074
(dp2075
g18
F0.5
sg19
I28
sg20
g21
((dp2076
NI27
sI01
I1
stRp2077
sg24
I2
sg25
F29
sbs(g268
S'contains(mean)'
tp2078
g1
(g15
g3
NtRp2079
(dp2080
g18
F0.5
sg19
I22
sg20
g21
((dp2081
NI21
sI01
I1
stRp2082
sg24
I2
sg25
F23
sbs(g10
g1645
tp2083
g1
(g15
g3
NtRp2084
(dp2085
g18
F0.5
sg19
I28
sg20
g21
((dp2086
NI28
stRp2087
sg24
I2
sg25
F29
sbs(S'Composition'
g812
tp2088
g1
(g15
g3
NtRp2089
(dp2090
g18
F0.5
sg19
I28
sg20
g21
((dp2091
NI27
sI01
I1
stRp2092
sg24
I2
sg25
F29
sbs(g10
g1141
tp2093
g1
(g15
g3
NtRp2094
(dp2095
g18
F0.5
sg19
I28
sg20
g21
((dp2096
NI28
stRp2097
sg24
I2
sg25
F29
sbs(g495
S'contains(does)'
tp2098
g1
(g15
g3
NtRp2099
(dp2100
g18
F0.5
sg19
I22
sg20
g21
((dp2101
NI12
sI01
I10
stRp2102
sg24
I2
sg25
F23
sbs(S'Meaning'
g678
tp2103
g1
(g15
g3
NtRp2104
(dp2105
g18
F0.5
sg19
I62
sg20
g21
((dp2106
NI61
sI01
I1
stRp2107
sg24
I2
sg25
F63
sbs(g8
S'contains(are)'
p2108
tp2109
g1
(g15
g3
NtRp2110
(dp2111
g18
F0.5
sg19
I22
sg20
g21
((dp2112
NI22
stRp2113
sg24
I2
sg25
F23
sbs(g8
g931
tp2114
g1
(g15
g3
NtRp2115
(dp2116
g18
F0.5
sg19
I22
sg20
g21
((dp2117
NI22
stRp2118
sg24
I2
sg25
F23
sbs(g9
g146
tp2119
g1
(g15
g3
NtRp2120
(dp2121
g18
F0.5
sg19
I62
sg20
g21
((dp2122
NI62
stRp2123
sg24
I2
sg25
F63
sbs(g38
g1645
tp2124
g1
(g15
g3
NtRp2125
(dp2126
g18
F0.5
sg19
I62
sg20
g21
((dp2127
NI61
sI01
I1
stRp2128
sg24
I2
sg25
F63
sbs(S'Meaning'
g243
tp2129
g1
(g15
g3
NtRp2130
(dp2131
g18
F0.5
sg19
I62
sg20
g21
((dp2132
NI61
sI01
I1
stRp2133
sg24
I2
sg25
F63
sbs(S'Meaning'
g840
tp2134
g1
(g15
g3
NtRp2135
(dp2136
g18
F0.5
sg19
I62
sg20
g21
((dp2137
NI61
sI01
I1
stRp2138
sg24
I2
sg25
F63
sbs(g507
S'contains(is)'
tp2139
g1
(g15
g3
NtRp2140
(dp2141
g18
F0.5
sg19
I28
sg20
g21
((dp2142
NI10
sI01
I18
stRp2143
sg24
I2
sg25
F29
sbs(g602
g1209
tp2144
g1
(g15
g3
NtRp2145
(dp2146
g18
F0.5
sg19
I22
sg20
g21
((dp2147
NI21
sI01
I1
stRp2148
sg24
I2
sg25
F23
sbs(g9
g1557
tp2149
g1
(g15
g3
NtRp2150
(dp2151
g18
F0.5
sg19
I62
sg20
g21
((dp2152
NI62
stRp2153
sg24
I2
sg25
F63
sbs(S'Meaning'
g584
tp2154
g1
(g15
g3
NtRp2155
(dp2156
g18
F0.5
sg19
I62
sg20
g21
((dp2157
NI61
sI01
I1
stRp2158
sg24
I2
sg25
F63
sbs(g10
g320
tp2159
g1
(g15
g3
NtRp2160
(dp2161
g18
F0.5
sg19
I28
sg20
g21
((dp2162
NI28
stRp2163
sg24
I2
sg25
F29
sbs(S'Abbreviation'
g1072
tp2164
g1
(g15
g3
NtRp2165
(dp2166
g18
F0.5
sg19
I22
sg20
g21
((dp2167
NI21
sI01
I1
stRp2168
sg24
I2
sg25
F23
sbs(S'Composition'
g969
tp2169
g1
(g15
g3
NtRp2170
(dp2171
g18
F0.5
sg19
I28
sg20
g21
((dp2172
NI27
sI01
I1
stRp2173
sg24
I2
sg25
F29
sbs(g255
g1557
tp2174
g1
(g15
g3
NtRp2175
(dp2176
g18
F0.5
sg19
I22
sg20
g21
((dp2177
NI19
sI01
I3
stRp2178
sg24
I2
sg25
F23
sbs(g8
g314
tp2179
g1
(g15
g3
NtRp2180
(dp2181
g18
F0.5
sg19
I22
sg20
g21
((dp2182
NI22
stRp2183
sg24
I2
sg25
F23
sbs(g10
g769
tp2184
g1
(g15
g3
NtRp2185
(dp2186
g18
F0.5
sg19
I28
sg20
g21
((dp2187
NI28
stRp2188
sg24
I2
sg25
F29
sbs(S'Meaning'
g262
tp2189
g1
(g15
g3
NtRp2190
(dp2191
g18
F0.5
sg19
I62
sg20
g21
((dp2192
NI61
sI01
I1
stRp2193
sg24
I2
sg25
F63
sbs(g9
g763
tp2194
g1
(g15
g3
NtRp2195
(dp2196
g18
F0.5
sg19
I62
sg20
g21
((dp2197
NI62
stRp2198
sg24
I2
sg25
F63
sbs(g8
g969
tp2199
g1
(g15
g3
NtRp2200
(dp2201
g18
F0.5
sg19
I22
sg20
g21
((dp2202
NI22
stRp2203
sg24
I2
sg25
F23
sbs(g9
g1772
tp2204
g1
(g15
g3
NtRp2205
(dp2206
g18
F0.5
sg19
I62
sg20
g21
((dp2207
NI62
stRp2208
sg24
I2
sg25
F63
sbs(g255
g1563
tp2209
g1
(g15
g3
NtRp2210
(dp2211
g18
F0.5
sg19
I22
sg20
g21
((dp2212
NI21
sI01
I1
stRp2213
sg24
I2
sg25
F23
sbs(g9
g996
tp2214
g1
(g15
g3
NtRp2215
(dp2216
g18
F0.5
sg19
I62
sg20
g21
((dp2217
NI62
stRp2218
sg24
I2
sg25
F63
sbs(S'Meaning'
S'contains(pencil)'
tp2219
g1
(g15
g3
NtRp2220
(dp2221
g18
F0.5
sg19
I62
sg20
g21
((dp2222
NI61
sI01
I1
stRp2223
sg24
I2
sg25
F63
sbs(g9
g1750
tp2224
g1
(g15
g3
NtRp2225
(dp2226
g18
F0.5
sg19
I62
sg20
g21
((dp2227
NI62
stRp2228
sg24
I2
sg25
F63
sbs(g10
g2067
tp2229
g1
(g15
g3
NtRp2230
(dp2231
g18
F0.5
sg19
I28
sg20
g21
((dp2232
NI28
stRp2233
sg24
I2
sg25
F29
sbs(g9
g374
tp2234
g1
(g15
g3
NtRp2235
(dp2236
g18
F0.5
sg19
I62
sg20
g21
((dp2237
NI62
stRp2238
sg24
I2
sg25
F63
sbs(g1734
g164
tp2239
g1
(g15
g3
NtRp2240
(dp2241
g18
F0.5
sg19
I62
sg20
g21
((dp2242
NI61
sI01
I1
stRp2243
sg24
I2
sg25
F63
sbs(g9
g386
tp2244
g1
(g15
g3
NtRp2245
(dp2246
g18
F0.5
sg19
I62
sg20
g21
((dp2247
NI62
stRp2248
sg24
I2
sg25
F63
sbs(g10
g1115
tp2249
g1
(g15
g3
NtRp2250
(dp2251
g18
F0.5
sg19
I28
sg20
g21
((dp2252
NI28
stRp2253
sg24
I2
sg25
F29
sbs(g10
g1393
tp2254
g1
(g15
g3
NtRp2255
(dp2256
g18
F0.5
sg19
I28
sg20
g21
((dp2257
NI28
stRp2258
sg24
I2
sg25
F29
sbs(g8
g146
tp2259
g1
(g15
g3
NtRp2260
(dp2261
g18
F0.5
sg19
I22
sg20
g21
((dp2262
NI22
stRp2263
sg24
I2
sg25
F23
sbs(g10
g2108
tp2264
g1
(g15
g3
NtRp2265
(dp2266
g18
F0.5
sg19
I28
sg20
g21
((dp2267
NI18
sI01
I10
stRp2268
sg24
I2
sg25
F29
sbs(g550
g202
tp2269
g1
(g15
g3
NtRp2270
(dp2271
g18
F0.5
sg19
I62
sg20
g21
((dp2272
NI47
sI01
I15
stRp2273
sg24
I2
sg25
F63
sbs(g9
g62
tp2274
g1
(g15
g3
NtRp2275
(dp2276
g18
F0.5
sg19
I62
sg20
g21
((dp2277
NI62
stRp2278
sg24
I2
sg25
F63
sbs(g8
g202
tp2279
g1
(g15
g3
NtRp2280
(dp2281
g18
F0.5
sg19
I22
sg20
g21
((dp2282
NI22
stRp2283
sg24
I2
sg25
F23
sbs(g10
g123
tp2284
g1
(g15
g3
NtRp2285
(dp2286
g18
F0.5
sg19
I28
sg20
g21
((dp2287
NI28
stRp2288
sg24
I2
sg25
F29
sbs(g10
g111
tp2289
g1
(g15
g3
NtRp2290
(dp2291
g18
F0.5
sg19
I28
sg20
g21
((dp2292
NI28
stRp2293
sg24
I2
sg25
F29
sbs(g9
g717
tp2294
g1
(g15
g3
NtRp2295
(dp2296
g18
F0.5
sg19
I62
sg20
g21
((dp2297
NI62
stRp2298
sg24
I2
sg25
F63
sbs(S'Meaning'
g1671
tp2299
g1
(g15
g3
NtRp2300
(dp2301
g18
F0.5
sg19
I62
sg20
g21
((dp2302
NI61
sI01
I1
stRp2303
sg24
I2
sg25
F63
sbs(g10
g99
tp2304
g1
(g15
g3
NtRp2305
(dp2306
g18
F0.5
sg19
I28
sg20
g21
((dp2307
NI28
stRp2308
sg24
I2
sg25
F29
sbs(g10
g1410
tp2309
g1
(g15
g3
NtRp2310
(dp2311
g18
F0.5
sg19
I28
sg20
g21
((dp2312
NI28
stRp2313
sg24
I2
sg25
F29
sbs(S'Meaning'
g1828
tp2314
g1
(g15
g3
NtRp2315
(dp2316
g18
F0.5
sg19
I62
sg20
g21
((dp2317
NI61
sI01
I1
stRp2318
sg24
I2
sg25
F63
sbs(g74
g1334
tp2319
g1
(g15
g3
NtRp2320
(dp2321
g18
F0.5
sg19
I22
sg20
g21
((dp2322
NI21
sI01
I1
stRp2323
sg24
I2
sg25
F23
sbs(S'Meaning'
g643
tp2324
g1
(g15
g3
NtRp2325
(dp2326
g18
F0.5
sg19
I62
sg20
g21
((dp2327
NI61
sI01
I1
stRp2328
sg24
I2
sg25
F63
sbs(g550
S'contains(is)'
tp2329
g1
(g15
g3
NtRp2330
(dp2331
g18
F0.5
sg19
I62
sg20
g21
((dp2332
NI33
sI01
I29
stRp2333
sg24
I2
sg25
F63
sbs(g268
g1055
tp2334
g1
(g15
g3
NtRp2335
(dp2336
g18
F0.5
sg19
I22
sg20
g21
((dp2337
NI21
sI01
I1
stRp2338
sg24
I2
sg25
F23
sbs(g8
g56
tp2339
g1
(g15
g3
NtRp2340
(dp2341
g18
F0.5
sg19
I22
sg20
g21
((dp2342
NI22
stRp2343
sg24
I2
sg25
F23
sbs(g9
g105
tp2344
g1
(g15
g3
NtRp2345
(dp2346
g18
F0.5
sg19
I62
sg20
g21
((dp2347
NI61
sI01
I1
stRp2348
sg24
I2
sg25
F63
sbs(g862
g32
tp2349
g1
(g15
g3
NtRp2350
(dp2351
g18
F0.5
sg19
I22
sg20
g21
((dp2352
NI21
sI01
I1
stRp2353
sg24
I2
sg25
F23
sbs(g8
g105
tp2354
g1
(g15
g3
NtRp2355
(dp2356
g18
F0.5
sg19
I22
sg20
g21
((dp2357
NI22
stRp2358
sg24
I2
sg25
F23
sbs(g9
g1410
tp2359
g1
(g15
g3
NtRp2360
(dp2361
g18
F0.5
sg19
I62
sg20
g21
((dp2362
NI62
stRp2363
sg24
I2
sg25
F63
sbs(g10
g1345
tp2364
g1
(g15
g3
NtRp2365
(dp2366
g18
F0.5
sg19
I28
sg20
g21
((dp2367
NI28
stRp2368
sg24
I2
sg25
F29
sbs(S'Meaning'
g823
tp2369
g1
(g15
g3
NtRp2370
(dp2371
g18
F0.5
sg19
I62
sg20
g21
((dp2372
NI61
sI01
I1
stRp2373
sg24
I2
sg25
F63
sbs(g8
g1761
tp2374
g1
(g15
g3
NtRp2375
(dp2376
g18
F0.5
sg19
I22
sg20
g21
((dp2377
NI22
stRp2378
sg24
I2
sg25
F23
sbs(S'Meaning'
g572
tp2379
g1
(g15
g3
NtRp2380
(dp2381
g18
F0.5
sg19
I62
sg20
g21
((dp2382
NI61
sI01
I1
stRp2383
sg24
I2
sg25
F63
sbs(g10
g678
tp2384
g1
(g15
g3
NtRp2385
(dp2386
g18
F0.5
sg19
I28
sg20
g21
((dp2387
NI28
stRp2388
sg24
I2
sg25
F29
sbs(g8
g449
tp2389
g1
(g15
g3
NtRp2390
(dp2391
g18
F0.5
sg19
I22
sg20
g21
((dp2392
NI22
stRp2393
sg24
I2
sg25
F23
sbs(g8
g1292
tp2394
g1
(g15
g3
NtRp2395
(dp2396
g18
F0.5
sg19
I22
sg20
g21
((dp2397
NI22
stRp2398
sg24
I2
sg25
F23
sbs(g10
g226
tp2399
g1
(g15
g3
NtRp2400
(dp2401
g18
F0.5
sg19
I28
sg20
g21
((dp2402
NI28
stRp2403
sg24
I2
sg25
F29
sbs(g10
g1431
tp2404
g1
(g15
g3
NtRp2405
(dp2406
g18
F0.5
sg19
I28
sg20
g21
((dp2407
NI28
stRp2408
sg24
I2
sg25
F29
sbs(g8
g578
tp2409
g1
(g15
g3
NtRp2410
(dp2411
g18
F0.5
sg19
I22
sg20
g21
((dp2412
NI22
stRp2413
sg24
I2
sg25
F23
sbs(g9
g757
tp2414
g1
(g15
g3
NtRp2415
(dp2416
g18
F0.5
sg19
I62
sg20
g21
((dp2417
NI62
stRp2418
sg24
I2
sg25
F63
sbs(g8
S'contains(of)'
tp2419
g1
(g15
g3
NtRp2420
(dp2421
g18
F0.5
sg19
I22
sg20
g21
((dp2422
NI13
sI01
I9
stRp2423
sg24
I2
sg25
F23
sbs(g1540
g1328
tp2424
g1
(g15
g3
NtRp2425
(dp2426
g18
F0.5
sg19
I62
sg20
g21
((dp2427
NI61
sI01
I1
stRp2428
sg24
I2
sg25
F63
sbs(g8
g1489
tp2429
g1
(g15
g3
NtRp2430
(dp2431
g18
F0.5
sg19
I22
sg20
g21
((dp2432
NI16
sI01
I6
stRp2433
sg24
I2
sg25
F23
sbs(g1728
g1870
tp2434
g1
(g15
g3
NtRp2435
(dp2436
g18
F0.5
sg19
I28
sg20
g21
((dp2437
NI23
sI01
I5
stRp2438
sg24
I2
sg25
F29
sbs(S'Composition'
g1221
tp2439
g1
(g15
g3
NtRp2440
(dp2441
g18
F0.5
sg19
I28
sg20
g21
((dp2442
NI27
sI01
I1
stRp2443
sg24
I2
sg25
F29
sbs(g10
g996
tp2444
g1
(g15
g3
NtRp2445
(dp2446
g18
F0.5
sg19
I28
sg20
g21
((dp2447
NI28
stRp2448
sg24
I2
sg25
F29
sbs(S'Meaning'
p2449
g111
tp2450
g1
(g15
g3
NtRp2451
(dp2452
g18
F0.5
sg19
I62
sg20
g21
((dp2453
NI61
sI01
I1
stRp2454
sg24
I2
sg25
F63
sbs(g10
g660
tp2455
g1
(g15
g3
NtRp2456
(dp2457
g18
F0.5
sg19
I28
sg20
g21
((dp2458
NI28
stRp2459
sg24
I2
sg25
F29
sbs(S'Composition'
g1215
tp2460
g1
(g15
g3
NtRp2461
(dp2462
g18
F0.5
sg19
I28
sg20
g21
((dp2463
NI27
sI01
I1
stRp2464
sg24
I2
sg25
F29
sbs(S'Meaning'
g281
tp2465
g1
(g15
g3
NtRp2466
(dp2467
g18
F0.5
sg19
I62
sg20
g21
((dp2468
NI61
sI01
I1
stRp2469
sg24
I2
sg25
F63
sbs(g2449
g93
tp2470
g1
(g15
g3
NtRp2471
(dp2472
g18
F0.5
sg19
I62
sg20
g21
((dp2473
NI61
sI01
I1
stRp2474
sg24
I2
sg25
F63
sbs(g268
g920
tp2475
g1
(g15
g3
NtRp2476
(dp2477
g18
F0.5
sg19
I22
sg20
g21
((dp2478
NI21
sI01
I1
stRp2479
sg24
I2
sg25
F23
sbs(g2001
g1839
tp2480
g1
(g15
g3
NtRp2481
(dp2482
g18
F0.5
sg19
I62
sg20
g21
((dp2483
NI61
sI01
I1
stRp2484
sg24
I2
sg25
F63
sbs(g10
g1828
tp2485
g1
(g15
g3
NtRp2486
(dp2487
g18
F0.5
sg19
I28
sg20
g21
((dp2488
NI28
stRp2489
sg24
I2
sg25
F29
sbs(g10
g1489
tp2490
g1
(g15
g3
NtRp2491
(dp2492
g18
F0.5
sg19
I28
sg20
g21
((dp2493
NI28
stRp2494
sg24
I2
sg25
F29
sbs(g1594
g134
tp2495
g1
(g15
g3
NtRp2496
(dp2497
g18
F0.5
sg19
I62
sg20
g21
((dp2498
NI56
sI01
I6
stRp2499
sg24
I2
sg25
F63
sbs(g8
g780
tp2500
g1
(g15
g3
NtRp2501
(dp2502
g18
F0.5
sg19
I22
sg20
g21
((dp2503
NI22
stRp2504
sg24
I2
sg25
F23
sbs(g10
g1677
tp2505
g1
(g15
g3
NtRp2506
(dp2507
g18
F0.5
sg19
I28
sg20
g21
((dp2508
I01
I28
stRp2509
sg24
I2
sg25
F29
sbs(g10
g942
tp2510
g1
(g15
g3
NtRp2511
(dp2512
g18
F0.5
sg19
I28
sg20
g21
((dp2513
NI28
stRp2514
sg24
I2
sg25
F29
sbs(g9
g1870
tp2515
g1
(g15
g3
NtRp2516
(dp2517
g18
F0.5
sg19
I62
sg20
g21
((dp2518
NI62
stRp2519
sg24
I2
sg25
F63
sbs(g8
g745
tp2520
g1
(g15
g3
NtRp2521
(dp2522
g18
F0.5
sg19
I22
sg20
g21
((dp2523
NI22
stRp2524
sg24
I2
sg25
F23
sbs(g10
g632
tp2525
g1
(g15
g3
NtRp2526
(dp2527
g18
F0.5
sg19
I28
sg20
g21
((dp2528
NI28
stRp2529
sg24
I2
sg25
F29
sbs(g10
g920
tp2530
g1
(g15
g3
NtRp2531
(dp2532
g18
F0.5
sg19
I28
sg20
g21
((dp2533
NI28
stRp2534
sg24
I2
sg25
F29
sbs(g8
g660
tp2535
g1
(g15
g3
NtRp2536
(dp2537
g18
F0.5
sg19
I22
sg20
g21
((dp2538
NI22
stRp2539
sg24
I2
sg25
F23
sbs(g10
g603
tp2540
g1
(g15
g3
NtRp2541
(dp2542
g18
F0.5
sg19
I28
sg20
g21
((dp2543
NI28
stRp2544
sg24
I2
sg25
F29
sbs(S'Composition'
g1772
tp2545
g1
(g15
g3
NtRp2546
(dp2547
g18
F0.5
sg19
I28
sg20
g21
((dp2548
NI27
sI01
I1
stRp2549
sg24
I2
sg25
F29
sbs(g8
g572
tp2550
g1
(g15
g3
NtRp2551
(dp2552
g18
F0.5
sg19
I22
sg20
g21
((dp2553
NI22
stRp2554
sg24
I2
sg25
F23
sbs(g10
g975
tp2555
g1
(g15
g3
NtRp2556
(dp2557
g18
F0.5
sg19
I28
sg20
g21
((dp2558
NI28
stRp2559
sg24
I2
sg25
F29
sbs(g10
g1750
tp2560
g1
(g15
g3
NtRp2561
(dp2562
g18
F0.5
sg19
I28
sg20
g21
((dp2563
NI28
stRp2564
sg24
I2
sg25
F29
sbs(g9
g1177
tp2565
g1
(g15
g3
NtRp2566
(dp2567
g18
F0.5
sg19
I62
sg20
g21
((dp2568
NI62
stRp2569
sg24
I2
sg25
F63
sbs(S'Abbreviation'
g1099
tp2570
g1
(g15
g3
NtRp2571
(dp2572
g18
F0.5
sg19
I22
sg20
g21
((dp2573
NI21
sI01
I1
stRp2574
sg24
I2
sg25
F23
sbs(g10
g763
tp2575
g1
(g15
g3
NtRp2576
(dp2577
g18
F0.5
sg19
I28
sg20
g21
((dp2578
NI28
stRp2579
sg24
I2
sg25
F29
sbssS'_label_probdist'
p2580
g1
(g15
g3
NtRp2581
(dp2582
g18
F0.5
sg19
I112
sg20
g21
((dp2583
g8
I22
sg9
I62
sg10
I28
stRp2584
sg24
I3
sg25
F113.5
sbsb.