ccopy_reg
_reconstructor
p1
(cnltk.classify.naivebayes
NaiveBayesClassifier
p2
c__builtin__
object
p3
NtRp4
(dp5
S'_labels'
p6
(lp7
S'Meaning'
p8
aS'Composition'
p9
aS'Abbreviation'
p10
asS'_feature_probdist'
p11
(dp12
(S'Composition'
S'contains(batteries)'
p13
tp14
g1
(cnltk.probability
ELEProbDist
p15
g3
NtRp16
(dp17
S'_gamma'
p18
F0.5
sS'_N'
p19
I23
sS'_freqdist'
p20
g1
(cnltk.probability
FreqDist
p21
c__builtin__
dict
p22
(dp23
NI22
sI01
I1
stRp24
(dp25
g19
I23
sS'_max_cache'
p26
NsS'_item_cache'
p27
NsS'_Nr_cache'
p28
NsbsS'_bins'
p29
I2
sS'_divisor'
p30
F24
sbs(S'Composition'
S'contains(snake)'
p31
tp32
g1
(g15
g3
NtRp33
(dp34
g18
F0.5
sg19
I23
sg20
g1
(g21
g22
(dp35
NI22
sI01
I1
stRp36
(dp37
g19
I23
sg26
Nsg27
Nsg28
Nsbsg29
I2
sg30
F24
sbs(g9
S'contains(s)'
p38
tp39
g1
(g15
g3
NtRp40
(dp41
g18
F0.5
sg19
I23
sg20
g1
(g21
g22
(dp42
NI23
stRp43
(dp44
g19
I23
sg26
Nsg27
Nsg28
Nsbsg29
I2
sg30
F24
sbs(S'Meaning'
p45
S'contains(are)'
tp46
g1
(g15
g3
NtRp47
(dp48
g18
F0.5
sg19
I60
sg20
g1
(g21
g22
(dp49
NI51
sI01
I9
stRp50
(dp51
g19
I60
sg26
Nsg27
Nsg28
Nsbsg29
I2
sg30
F61
sbs(S'Meaning'
S'contains(ground)'
p52
tp53
g1
(g15
g3
NtRp54
(dp55
g18
F0.5
sg19
I60
sg20
g1
(g21
g22
(dp56
NI59
sI01
I1
stRp57
(dp58
g19
I60
sg26
Nsg27
Nsg28
Nsbsg29
I2
sg30
F61
sbs(g9
S'contains(dogs)'
p59
tp60
g1
(g15
g3
NtRp61
(dp62
g18
F0.5
sg19
I23
sg20
g1
(g21
g22
(dp63
NI23
stRp64
(dp65
g19
I23
sg26
Nsg27
Nsg28
Nsbsg29
I2
sg30
F24
sbs(S'Composition'
p66
S'contains(buses)'
p67
tp68
g1
(g15
g3
NtRp69
(dp70
g18
F0.5
sg19
I23
sg20
g1
(g21
g22
(dp71
NI21
sI01
I2
stRp72
(dp73
g19
I23
sg26
Nsg27
Nsg28
Nsbsg29
I2
sg30
F24
sbs(g10
S'contains(lockers)'
p74
tp75
g1
(g15
g3
NtRp76
(dp77
g18
F0.5
sg19
I18
sg20
g1
(g21
g22
(dp78
NI18
stRp79
(dp80
g19
I18
sg26
Nsg27
Nsg28
Nsbsg29
I2
sg30
F19
sbs(g8
S'contains(aids)'
p81
tp82
g1
(g15
g3
NtRp83
(dp84
g18
F0.5
sg19
I60
sg20
g1
(g21
g22
(dp85
NI60
stRp86
(dp87
g19
I60
sg26
Nsg27
Nsg28
Nsbsg29
I2
sg30
F61
sbs(S'Abbreviation'
p88
S'contains(motors)'
p89
tp90
g1
(g15
g3
NtRp91
(dp92
g18
F0.5
sg19
I18
sg20
g1
(g21
g22
(dp93
NI17
sI01
I1
stRp94
(dp95
g19
I18
sg26
Nsg27
Nsg28
Nsbsg29
I2
sg30
F19
sbs(g9
S'contains(stand)'
p96
tp97
g1
(g15
g3
NtRp98
(dp99
g18
F0.5
sg19
I23
sg20
g1
(g21
g22
(dp100
NI23
stRp101
(dp102
g19
I23
sg26
Nsg27
Nsg28
Nsbsg29
I2
sg30
F24
sbs(g8
S'contains(paper)'
p103
tp104
g1
(g15
g3
NtRp105
(dp106
g18
F0.5
sg19
I60
sg20
g1
(g21
g22
(dp107
NI60
stRp108
(dp109
g19
I60
sg26
Nsg27
Nsg28
Nsbsg29
I2
sg30
F61
sbs(g10
S'contains(bad)'
p110
tp111
g1
(g15
g3
NtRp112
(dp113
g18
F0.5
sg19
I18
sg20
g1
(g21
g22
(dp114
NI18
stRp115
(dp116
g19
I18
sg26
Nsg27
Nsg28
Nsbsg29
I2
sg30
F19
sbs(S'Abbreviation'
S'contains(bph)'
p117
tp118
g1
(g15
g3
NtRp119
(dp120
g18
F0.5
sg19
I18
sg20
g1
(g21
g22
(dp121
NI17
sI01
I1
stRp122
(dp123
g19
I18
sg26
Nsg27
Nsg28
Nsbsg29
I2
sg30
F19
sbs(g9
S'contains(war)'
p124
tp125
g1
(g15
g3
NtRp126
(dp127
g18
F0.5
sg19
I23
sg20
g1
(g21
g22
(dp128
NI23
stRp129
(dp130
g19
I23
sg26
Nsg27
Nsg28
Nsbsg29
I2
sg30
F24
sbs(g10
S'contains(ass)'
p131
tp132
g1
(g15
g3
NtRp133
(dp134
g18
F0.5
sg19
I18
sg20
g1
(g21
g22
(dp135
NI18
stRp136
(dp137
g19
I18
sg26
Nsg27
Nsg28
Nsbsg29
I2
sg30
F19
sbs(g8
S'contains(widow)'
p138
tp139
g1
(g15
g3
NtRp140
(dp141
g18
F0.5
sg19
I60
sg20
g1
(g21
g22
(dp142
NI60
stRp143
(dp144
g19
I60
sg26
Nsg27
Nsg28
Nsbsg29
I2
sg30
F61
sbs(g8
g67
tp145
g1
(g15
g3
NtRp146
(dp147
g18
F0.5
sg19
I60
sg20
g1
(g21
g22
(dp148
NI60
stRp149
(dp150
g19
I60
sg26
Nsg27
Nsg28
Nsbsg29
I2
sg30
F61
sbs(g9
g52
tp151
g1
(g15
g3
NtRp152
(dp153
g18
F0.5
sg19
I23
sg20
g1
(g21
g22
(dp154
NI23
stRp155
(dp156
g19
I23
sg26
Nsg27
Nsg28
Nsbsg29
I2
sg30
F24
sbs(g9
S'contains(an)'
p157
tp158
g1
(g15
g3
NtRp159
(dp160
g18
F0.5
sg19
I23
sg20
g1
(g21
g22
(dp161
NI23
stRp162
(dp163
g19
I23
sg26
Nsg27
Nsg28
Nsbsg29
I2
sg30
F24
sbs(g10
S'contains(dunkin)'
p164
tp165
g1
(g15
g3
NtRp166
(dp167
g18
F0.5
sg19
I18
sg20
g1
(g21
g22
(dp168
NI18
stRp169
(dp170
g19
I18
sg26
Nsg27
Nsg28
Nsbsg29
I2
sg30
F19
sbs(S'Composition'
S'contains(plastic)'
p171
tp172
g1
(g15
g3
NtRp173
(dp174
g18
F0.5
sg19
I23
sg20
g1
(g21
g22
(dp175
NI22
sI01
I1
stRp176
(dp177
g19
I23
sg26
Nsg27
Nsg28
Nsbsg29
I2
sg30
F24
sbs(S'Meaning'
S'contains(cars)'
p178
tp179
g1
(g15
g3
NtRp180
(dp181
g18
F0.5
sg19
I60
sg20
g1
(g21
g22
(dp182
NI59
sI01
I1
stRp183
(dp184
g19
I60
sg26
Nsg27
Nsg28
Nsbsg29
I2
sg30
F61
sbs(g9
S'contains(general)'
p185
tp186
g1
(g15
g3
NtRp187
(dp188
g18
F0.5
sg19
I23
sg20
g1
(g21
g22
(dp189
NI23
stRp190
(dp191
g19
I23
sg26
Nsg27
Nsg28
Nsbsg29
I2
sg30
F24
sbs(g10
S'contains(donuts)'
p192
tp193
g1
(g15
g3
NtRp194
(dp195
g18
F0.5
sg19
I18
sg20
g1
(g21
g22
(dp196
NI18
stRp197
(dp198
g19
I18
sg26
Nsg27
Nsg28
Nsbsg29
I2
sg30
F19
sbs(S'Meaning'
S'contains(wtf)'
p199
tp200
g1
(g15
g3
NtRp201
(dp202
g18
F0.5
sg19
I60
sg20
g1
(g21
g22
(dp203
NI59
sI01
I1
stRp204
(dp205
g19
I60
sg26
Nsg27
Nsg28
Nsbsg29
I2
sg30
F61
sbs(g8
S'contains(eenty)'
p206
tp207
g1
(g15
g3
NtRp208
(dp209
g18
F0.5
sg19
I60
sg20
g1
(g21
g22
(dp210
NI60
stRp211
(dp212
g19
I60
sg26
Nsg27
Nsg28
Nsbsg29
I2
sg30
F61
sbs(S'Composition'
p213
S'contains(my)'
p214
tp215
g1
(g15
g3
NtRp216
(dp217
g18
F0.5
sg19
I23
sg20
g1
(g21
g22
(dp218
NI22
sI01
I1
stRp219
(dp220
g19
I23
sg26
Nsg27
Nsg28
Nsbsg29
I2
sg30
F24
sbs(g9
S'contains(micro)'
p221
tp222
g1
(g15
g3
NtRp223
(dp224
g18
F0.5
sg19
I23
sg20
g1
(g21
g22
(dp225
NI23
stRp226
(dp227
g19
I23
sg26
Nsg27
Nsg28
Nsbsg29
I2
sg30
F24
sbs(S'Abbreviation'
p228
S'contains(m)'
p229
tp230
g1
(g15
g3
NtRp231
(dp232
g18
F0.5
sg19
I18
sg20
g1
(g21
g22
(dp233
NI17
sI01
I1
stRp234
(dp235
g19
I18
sg26
Nsg27
Nsg28
Nsbsg29
I2
sg30
F19
sbs(g9
S'contains(meaning)'
p236
tp237
g1
(g15
g3
NtRp238
(dp239
g18
F0.5
sg19
I23
sg20
g1
(g21
g22
(dp240
NI23
stRp241
(dp242
g19
I23
sg26
Nsg27
Nsg28
Nsbsg29
I2
sg30
F24
sbs(S'Composition'
S'contains(b)'
p243
tp244
g1
(g15
g3
NtRp245
(dp246
g18
F0.5
sg19
I23
sg20
g1
(g21
g22
(dp247
NI22
sI01
I1
stRp248
(dp249
g19
I23
sg26
Nsg27
Nsg28
Nsbsg29
I2
sg30
F24
sbs(S'Composition'
S'contains(bicycles)'
p250
tp251
g1
(g15
g3
NtRp252
(dp253
g18
F0.5
sg19
I23
sg20
g1
(g21
g22
(dp254
NI22
sI01
I1
stRp255
(dp256
g19
I23
sg26
Nsg27
Nsg28
Nsbsg29
I2
sg30
F24
sbs(g9
S'contains(doors)'
p257
tp258
g1
(g15
g3
NtRp259
(dp260
g18
F0.5
sg19
I23
sg20
g1
(g21
g22
(dp261
NI23
stRp262
(dp263
g19
I23
sg26
Nsg27
Nsg28
Nsbsg29
I2
sg30
F24
sbs(S'Meaning'
S'contains(rock)'
p264
tp265
g1
(g15
g3
NtRp266
(dp267
g18
F0.5
sg19
I60
sg20
g1
(g21
g22
(dp268
NI59
sI01
I1
stRp269
(dp270
g19
I60
sg26
Nsg27
Nsg28
Nsbsg29
I2
sg30
F61
sbs(g9
g178
tp271
g1
(g15
g3
NtRp272
(dp273
g18
F0.5
sg19
I23
sg20
g1
(g21
g22
(dp274
NI23
stRp275
(dp276
g19
I23
sg26
Nsg27
Nsg28
Nsbsg29
I2
sg30
F24
sbs(g9
S'contains(for)'
p277
tp278
g1
(g15
g3
NtRp279
(dp280
g18
F0.5
sg19
I23
sg20
g1
(g21
g22
(dp281
NI23
stRp282
(dp283
g19
I23
sg26
Nsg27
Nsg28
Nsbsg29
I2
sg30
F24
sbs(g10
S'contains(purse)'
p284
tp285
g1
(g15
g3
NtRp286
(dp287
g18
F0.5
sg19
I18
sg20
g1
(g21
g22
(dp288
NI18
stRp289
(dp290
g19
I18
sg26
Nsg27
Nsg28
Nsbsg29
I2
sg30
F19
sbs(S'Abbreviation'
p291
S'contains(word)'
tp292
g1
(g15
g3
NtRp293
(dp294
g18
F0.5
sg19
I18
sg20
g1
(g21
g22
(dp295
NI17
sI01
I1
stRp296
(dp297
g19
I18
sg26
Nsg27
Nsg28
Nsbsg29
I2
sg30
F19
sbs(S'Abbreviation'
p298
S'contains(cross)'
p299
tp300
g1
(g15
g3
NtRp301
(dp302
g18
F0.5
sg19
I18
sg20
g1
(g21
g22
(dp303
NI17
sI01
I1
stRp304
(dp305
g19
I18
sg26
Nsg27
Nsg28
Nsbsg29
I2
sg30
F19
sbs(g9
S'contains(girl)'
p306
tp307
g1
(g15
g3
NtRp308
(dp309
g18
F0.5
sg19
I23
sg20
g1
(g21
g22
(dp310
NI23
stRp311
(dp312
g19
I23
sg26
Nsg27
Nsg28
Nsbsg29
I2
sg30
F24
sbs(S'Abbreviation'
p313
S'contains(surnames)'
p314
tp315
g1
(g15
g3
NtRp316
(dp317
g18
F0.5
sg19
I18
sg20
g1
(g21
g22
(dp318
NI17
sI01
I1
stRp319
(dp320
g19
I18
sg26
Nsg27
Nsg28
Nsbsg29
I2
sg30
F19
sbs(g8
S'contains(abbreviated)'
p321
tp322
g1
(g15
g3
NtRp323
(dp324
g18
F0.5
sg19
I60
sg20
g1
(g21
g22
(dp325
NI60
stRp326
(dp327
g19
I60
sg26
Nsg27
Nsg28
Nsbsg29
I2
sg30
F61
sbs(g10
S'contains(hog)'
p328
tp329
g1
(g15
g3
NtRp330
(dp331
g18
F0.5
sg19
I18
sg20
g1
(g21
g22
(dp332
NI18
stRp333
(dp334
g19
I18
sg26
Nsg27
Nsg28
Nsbsg29
I2
sg30
F19
sbs(S'Abbreviation'
S'contains(sids)'
p335
tp336
g1
(g15
g3
NtRp337
(dp338
g18
F0.5
sg19
I18
sg20
g1
(g21
g22
(dp339
NI17
sI01
I1
stRp340
(dp341
g19
I18
sg26
Nsg27
Nsg28
Nsbsg29
I2
sg30
F19
sbs(g10
S'contains(is)'
tp342
g1
(g15
g3
NtRp343
(dp344
g18
F0.5
sg19
I18
sg20
g1
(g21
g22
(dp345
NI11
sI01
I7
stRp346
(dp347
g19
I18
sg26
Nsg27
Nsg28
Nsbsg29
I2
sg30
F19
sbs(g8
g277
tp348
g1
(g15
g3
NtRp349
(dp350
g18
F0.5
sg19
I60
sg20
g1
(g21
g22
(dp351
NI60
stRp352
(dp353
g19
I60
sg26
Nsg27
Nsg28
Nsbsg29
I2
sg30
F61
sbs(g10
S'contains(planets)'
p354
tp355
g1
(g15
g3
NtRp356
(dp357
g18
F0.5
sg19
I18
sg20
g1
(g21
g22
(dp358
NI18
stRp359
(dp360
g19
I18
sg26
Nsg27
Nsg28
Nsbsg29
I2
sg30
F19
sbs(g10
g178
tp361
g1
(g15
g3
NtRp362
(dp363
g18
F0.5
sg19
I18
sg20
g1
(g21
g22
(dp364
NI18
stRp365
(dp366
g19
I18
sg26
Nsg27
Nsg28
Nsbsg29
I2
sg30
F19
sbs(g9
S'contains(stupid)'
p367
tp368
g1
(g15
g3
NtRp369
(dp370
g18
F0.5
sg19
I23
sg20
g1
(g21
g22
(dp371
NI23
stRp372
(dp373
g19
I23
sg26
Nsg27
Nsg28
Nsbsg29
I2
sg30
F24
sbs(S'Meaning'
S'contains(player)'
p374
tp375
g1
(g15
g3
NtRp376
(dp377
g18
F0.5
sg19
I60
sg20
g1
(g21
g22
(dp378
NI59
sI01
I1
stRp379
(dp380
g19
I60
sg26
Nsg27
Nsg28
Nsbsg29
I2
sg30
F61
sbs(g9
S'contains(in)'
p381
tp382
g1
(g15
g3
NtRp383
(dp384
g18
F0.5
sg19
I23
sg20
g1
(g21
g22
(dp385
NI23
stRp386
(dp387
g19
I23
sg26
Nsg27
Nsg28
Nsbsg29
I2
sg30
F24
sbs(g9
S'contains(signs)'
p388
tp389
g1
(g15
g3
NtRp390
(dp391
g18
F0.5
sg19
I23
sg20
g1
(g21
g22
(dp392
NI23
stRp393
(dp394
g19
I23
sg26
Nsg27
Nsg28
Nsbsg29
I2
sg30
F24
sbs(g9
S'contains(full)'
p395
tp396
g1
(g15
g3
NtRp397
(dp398
g18
F0.5
sg19
I23
sg20
g1
(g21
g22
(dp399
NI23
stRp400
(dp401
g19
I23
sg26
Nsg27
Nsg28
Nsbsg29
I2
sg30
F24
sbs(g9
g314
tp402
g1
(g15
g3
NtRp403
(dp404
g18
F0.5
sg19
I23
sg20
g1
(g21
g22
(dp405
NI23
stRp406
(dp407
g19
I23
sg26
Nsg27
Nsg28
Nsbsg29
I2
sg30
F24
sbs(S'Meaning'
S'contains(eye)'
p408
tp409
g1
(g15
g3
NtRp410
(dp411
g18
F0.5
sg19
I60
sg20
g1
(g21
g22
(dp412
NI59
sI01
I1
stRp413
(dp414
g19
I60
sg26
Nsg27
Nsg28
Nsbsg29
I2
sg30
F61
sbs(g8
g395
tp415
g1
(g15
g3
NtRp416
(dp417
g18
F0.5
sg19
I60
sg20
g1
(g21
g22
(dp418
NI60
stRp419
(dp420
g19
I60
sg26
Nsg27
Nsg28
Nsbsg29
I2
sg30
F61
sbs(g8
S'contains(cloud)'
p421
tp422
g1
(g15
g3
NtRp423
(dp424
g18
F0.5
sg19
I60
sg20
g1
(g21
g22
(dp425
NI60
stRp426
(dp427
g19
I60
sg26
Nsg27
Nsg28
Nsbsg29
I2
sg30
F61
sbs(g8
S'contains(locks)'
p428
tp429
g1
(g15
g3
NtRp430
(dp431
g18
F0.5
sg19
I60
sg20
g1
(g21
g22
(dp432
NI60
stRp433
(dp434
g19
I60
sg26
Nsg27
Nsg28
Nsbsg29
I2
sg30
F61
sbs(g8
S'contains(investigation)'
p435
tp436
g1
(g15
g3
NtRp437
(dp438
g18
F0.5
sg19
I60
sg20
g1
(g21
g22
(dp439
NI60
stRp440
(dp441
g19
I60
sg26
Nsg27
Nsg28
Nsbsg29
I2
sg30
F61
sbs(g10
S'contains(homogeneous)'
p442
tp443
g1
(g15
g3
NtRp444
(dp445
g18
F0.5
sg19
I18
sg20
g1
(g21
g22
(dp446
NI18
stRp447
(dp448
g19
I18
sg26
Nsg27
Nsg28
Nsbsg29
I2
sg30
F19
sbs(g9
S'contains(animal)'
p449
tp450
g1
(g15
g3
NtRp451
(dp452
g18
F0.5
sg19
I23
sg20
g1
(g21
g22
(dp453
NI23
stRp454
(dp455
g19
I23
sg26
Nsg27
Nsg28
Nsbsg29
I2
sg30
F24
sbs(g8
g381
tp456
g1
(g15
g3
NtRp457
(dp458
g18
F0.5
sg19
I60
sg20
g1
(g21
g22
(dp459
NI60
stRp460
(dp461
g19
I60
sg26
Nsg27
Nsg28
Nsbsg29
I2
sg30
F61
sbs(g8
S'contains(nasdaq)'
p462
tp463
g1
(g15
g3
NtRp464
(dp465
g18
F0.5
sg19
I60
sg20
g1
(g21
g22
(dp466
NI60
stRp467
(dp468
g19
I60
sg26
Nsg27
Nsg28
Nsbsg29
I2
sg30
F61
sbs(g10
g52
tp469
g1
(g15
g3
NtRp470
(dp471
g18
F0.5
sg19
I18
sg20
g1
(g21
g22
(dp472
NI18
stRp473
(dp474
g19
I18
sg26
Nsg27
Nsg28
Nsbsg29
I2
sg30
F19
sbs(g9
g408
tp475
g1
(g15
g3
NtRp476
(dp477
g18
F0.5
sg19
I23
sg20
g1
(g21
g22
(dp478
NI23
stRp479
(dp480
g19
I23
sg26
Nsg27
Nsg28
Nsbsg29
I2
sg30
F24
sbs(g10
S'contains(ant)'
p481
tp482
g1
(g15
g3
NtRp483
(dp484
g18
F0.5
sg19
I18
sg20
g1
(g21
g22
(dp485
NI18
stRp486
(dp487
g19
I18
sg26
Nsg27
Nsg28
Nsbsg29
I2
sg30
F19
sbs(g9
S'contains(mean)'
p488
tp489
g1
(g15
g3
NtRp490
(dp491
g18
F0.5
sg19
I23
sg20
g1
(g21
g22
(dp492
NI23
stRp493
(dp494
g19
I23
sg26
Nsg27
Nsg28
Nsbsg29
I2
sg30
F24
sbs(S'Abbreviation'
p495
S'contains(national)'
p496
tp497
g1
(g15
g3
NtRp498
(dp499
g18
F0.5
sg19
I18
sg20
g1
(g21
g22
(dp500
NI17
sI01
I1
stRp501
(dp502
g19
I18
sg26
Nsg27
Nsg28
Nsbsg29
I2
sg30
F19
sbs(S'Composition'
g74
tp503
g1
(g15
g3
NtRp504
(dp505
g18
F0.5
sg19
I23
sg20
g1
(g21
g22
(dp506
NI22
sI01
I1
stRp507
(dp508
g19
I23
sg26
Nsg27
Nsg28
Nsbsg29
I2
sg30
F24
sbs(g9
S'contains(selfish)'
p509
tp510
g1
(g15
g3
NtRp511
(dp512
g18
F0.5
sg19
I23
sg20
g1
(g21
g22
(dp513
NI23
stRp514
(dp515
g19
I23
sg26
Nsg27
Nsg28
Nsbsg29
I2
sg30
F24
sbs(S'Composition'
p516
S'contains(the)'
tp517
g1
(g15
g3
NtRp518
(dp519
g18
F0.5
sg19
I23
sg20
g1
(g21
g22
(dp520
NI17
sI01
I6
stRp521
(dp522
g19
I23
sg26
Nsg27
Nsg28
Nsbsg29
I2
sg30
F24
sbs(S'Composition'
S'contains(metal)'
p523
tp524
g1
(g15
g3
NtRp525
(dp526
g18
F0.5
sg19
I23
sg20
g1
(g21
g22
(dp527
NI22
sI01
I1
stRp528
(dp529
g19
I23
sg26
Nsg27
Nsg28
Nsbsg29
I2
sg30
F24
sbs(g10
g13
tp530
g1
(g15
g3
NtRp531
(dp532
g18
F0.5
sg19
I18
sg20
g1
(g21
g22
(dp533
NI18
stRp534
(dp535
g19
I18
sg26
Nsg27
Nsg28
Nsbsg29
I2
sg30
F19
sbs(g10
S'contains(asshole)'
p536
tp537
g1
(g15
g3
NtRp538
(dp539
g18
F0.5
sg19
I18
sg20
g1
(g21
g22
(dp540
NI18
stRp541
(dp542
g19
I18
sg26
Nsg27
Nsg28
Nsbsg29
I2
sg30
F19
sbs(g8
S'contains(g)'
p543
tp544
g1
(g15
g3
NtRp545
(dp546
g18
F0.5
sg19
I60
sg20
g1
(g21
g22
(dp547
NI60
stRp548
(dp549
g19
I60
sg26
Nsg27
Nsg28
Nsbsg29
I2
sg30
F61
sbs(g10
S'contains(juice)'
p550
tp551
g1
(g15
g3
NtRp552
(dp553
g18
F0.5
sg19
I18
sg20
g1
(g21
g22
(dp554
NI18
stRp555
(dp556
g19
I18
sg26
Nsg27
Nsg28
Nsbsg29
I2
sg30
F19
sbs(S'Abbreviation'
p557
g96
tp558
g1
(g15
g3
NtRp559
(dp560
g18
F0.5
sg19
I18
sg20
g1
(g21
g22
(dp561
NI9
sI01
I9
stRp562
(dp563
g19
I18
sg26
Nsg27
Nsg28
Nsbsg29
I2
sg30
F19
sbs(g9
S'contains(nafta)'
p564
tp565
g1
(g15
g3
NtRp566
(dp567
g18
F0.5
sg19
I23
sg20
g1
(g21
g22
(dp568
NI23
stRp569
(dp570
g19
I23
sg26
Nsg27
Nsg28
Nsbsg29
I2
sg30
F24
sbs(g9
S'contains(a)'
tp571
g1
(g15
g3
NtRp572
(dp573
g18
F0.5
sg19
I23
sg20
g1
(g21
g22
(dp574
NI18
sI01
I5
stRp575
(dp576
g19
I23
sg26
Nsg27
Nsg28
Nsbsg29
I2
sg30
F24
sbs(g10
S'contains(trees)'
p577
tp578
g1
(g15
g3
NtRp579
(dp580
g18
F0.5
sg19
I18
sg20
g1
(g21
g22
(dp581
NI18
stRp582
(dp583
g19
I18
sg26
Nsg27
Nsg28
Nsbsg29
I2
sg30
F19
sbs(g10
S'contains(plug)'
p584
tp585
g1
(g15
g3
NtRp586
(dp587
g18
F0.5
sg19
I18
sg20
g1
(g21
g22
(dp588
NI18
stRp589
(dp590
g19
I18
sg26
Nsg27
Nsg28
Nsbsg29
I2
sg30
F19
sbs(g10
S'contains(milk)'
p591
tp592
g1
(g15
g3
NtRp593
(dp594
g18
F0.5
sg19
I18
sg20
g1
(g21
g22
(dp595
NI18
stRp596
(dp597
g19
I18
sg26
Nsg27
Nsg28
Nsbsg29
I2
sg30
F19
sbs(g8
S'contains(?)'
tp598
g1
(g15
g3
NtRp599
(dp600
g18
F0.5
sg19
I60
sg20
g1
(g21
g22
(dp601
I01
I60
stRp602
(dp603
g19
I60
sg26
Nsg27
Nsg28
Nsbsg29
I2
sg30
F61
sbs(S'Abbreviation'
g462
tp604
g1
(g15
g3
NtRp605
(dp606
g18
F0.5
sg19
I18
sg20
g1
(g21
g22
(dp607
NI17
sI01
I1
stRp608
(dp609
g19
I18
sg26
Nsg27
Nsg28
Nsbsg29
I2
sg30
F19
sbs(g9
g206
tp610
g1
(g15
g3
NtRp611
(dp612
g18
F0.5
sg19
I23
sg20
g1
(g21
g22
(dp613
NI23
stRp614
(dp615
g19
I23
sg26
Nsg27
Nsg28
Nsbsg29
I2
sg30
F24
sbs(S'Composition'
g428
tp616
g1
(g15
g3
NtRp617
(dp618
g18
F0.5
sg19
I23
sg20
g1
(g21
g22
(dp619
NI22
sI01
I1
stRp620
(dp621
g19
I23
sg26
Nsg27
Nsg28
Nsbsg29
I2
sg30
F24
sbs(S'Meaning'
p622
S'contains(of)'
tp623
g1
(g15
g3
NtRp624
(dp625
g18
F0.5
sg19
I60
sg20
g1
(g21
g22
(dp626
NI45
sI01
I15
stRp627
(dp628
g19
I60
sg26
Nsg27
Nsg28
Nsbsg29
I2
sg30
F61
sbs(g8
g89
tp629
g1
(g15
g3
NtRp630
(dp631
g18
F0.5
sg19
I60
sg20
g1
(g21
g22
(dp632
NI60
stRp633
(dp634
g19
I60
sg26
Nsg27
Nsg28
Nsbsg29
I2
sg30
F61
sbs(S'Meaning'
g449
tp635
g1
(g15
g3
NtRp636
(dp637
g18
F0.5
sg19
I60
sg20
g1
(g21
g22
(dp638
NI59
sI01
I1
stRp639
(dp640
g19
I60
sg26
Nsg27
Nsg28
Nsbsg29
I2
sg30
F61
sbs(g9
S'contains(abbreviation)'
p641
tp642
g1
(g15
g3
NtRp643
(dp644
g18
F0.5
sg19
I23
sg20
g1
(g21
g22
(dp645
NI23
stRp646
(dp647
g19
I23
sg26
Nsg27
Nsg28
Nsbsg29
I2
sg30
F24
sbs(g9
S'contains(mad)'
p648
tp649
g1
(g15
g3
NtRp650
(dp651
g18
F0.5
sg19
I23
sg20
g1
(g21
g22
(dp652
NI23
stRp653
(dp654
g19
I23
sg26
Nsg27
Nsg28
Nsbsg29
I2
sg30
F24
sbs(S'Meaning'
S'contains(thief)'
p655
tp656
g1
(g15
g3
NtRp657
(dp658
g18
F0.5
sg19
I60
sg20
g1
(g21
g22
(dp659
NI59
sI01
I1
stRp660
(dp661
g19
I60
sg26
Nsg27
Nsg28
Nsbsg29
I2
sg30
F61
sbs(g9
S'contains(duck)'
p662
tp663
g1
(g15
g3
NtRp664
(dp665
g18
F0.5
sg19
I23
sg20
g1
(g21
g22
(dp666
NI23
stRp667
(dp668
g19
I23
sg26
Nsg27
Nsg28
Nsbsg29
I2
sg30
F24
sbs(g9
S'contains(slut)'
p669
tp670
g1
(g15
g3
NtRp671
(dp672
g18
F0.5
sg19
I23
sg20
g1
(g21
g22
(dp673
NI23
stRp674
(dp675
g19
I23
sg26
Nsg27
Nsg28
Nsbsg29
I2
sg30
F24
sbs(g8
S'contains(cnn)'
p676
tp677
g1
(g15
g3
NtRp678
(dp679
g18
F0.5
sg19
I60
sg20
g1
(g21
g22
(dp680
NI60
stRp681
(dp682
g19
I60
sg26
Nsg27
Nsg28
Nsbsg29
I2
sg30
F61
sbs(S'Abbreviation'
p683
S'contains(classified)'
p684
tp685
g1
(g15
g3
NtRp686
(dp687
g18
F0.5
sg19
I18
sg20
g1
(g21
g22
(dp688
NI17
sI01
I1
stRp689
(dp690
g19
I18
sg26
Nsg27
Nsg28
Nsbsg29
I2
sg30
F19
sbs(S'Meaning'
S'contains(miscellaneous)'
p691
tp692
g1
(g15
g3
NtRp693
(dp694
g18
F0.5
sg19
I60
sg20
g1
(g21
g22
(dp695
NI59
sI01
I1
stRp696
(dp697
g19
I60
sg26
Nsg27
Nsg28
Nsbsg29
I2
sg30
F61
sbs(g8
S'contains(sun)'
p698
tp699
g1
(g15
g3
NtRp700
(dp701
g18
F0.5
sg19
I60
sg20
g1
(g21
g22
(dp702
NI60
stRp703
(dp704
g19
I60
sg26
Nsg27
Nsg28
Nsbsg29
I2
sg30
F61
sbs(g9
S'contains(starbucks)'
p705
tp706
g1
(g15
g3
NtRp707
(dp708
g18
F0.5
sg19
I23
sg20
g1
(g21
g22
(dp709
NI23
stRp710
(dp711
g19
I23
sg26
Nsg27
Nsg28
Nsbsg29
I2
sg30
F24
sbs(g495
S'contains(expression)'
p712
tp713
g1
(g15
g3
NtRp714
(dp715
g18
F0.5
sg19
I18
sg20
g1
(g21
g22
(dp716
NI17
sI01
I1
stRp717
(dp718
g19
I18
sg26
Nsg27
Nsg28
Nsbsg29
I2
sg30
F19
sbs(g9
S"contains(what's)"
p719
tp720
g1
(g15
g3
NtRp721
(dp722
g18
F0.5
sg19
I23
sg20
g1
(g21
g22
(dp723
NI23
stRp724
(dp725
g19
I23
sg26
Nsg27
Nsg28
Nsbsg29
I2
sg30
F24
sbs(g10
g662
tp726
g1
(g15
g3
NtRp727
(dp728
g18
F0.5
sg19
I18
sg20
g1
(g21
g22
(dp729
NI18
stRp730
(dp731
g19
I18
sg26
Nsg27
Nsg28
Nsbsg29
I2
sg30
F19
sbs(g9
S'contains(car)'
p732
tp733
g1
(g15
g3
NtRp734
(dp735
g18
F0.5
sg19
I23
sg20
g1
(g21
g22
(dp736
NI23
stRp737
(dp738
g19
I23
sg26
Nsg27
Nsg28
Nsbsg29
I2
sg30
F24
sbs(S'Meaning'
p739
S'contains(clever)'
p740
tp741
g1
(g15
g3
NtRp742
(dp743
g18
F0.5
sg19
I60
sg20
g1
(g21
g22
(dp744
NI59
sI01
I1
stRp745
(dp746
g19
I60
sg26
Nsg27
Nsg28
Nsbsg29
I2
sg30
F61
sbs(S'Meaning'
S'contains(booger)'
p747
tp748
g1
(g15
g3
NtRp749
(dp750
g18
F0.5
sg19
I60
sg20
g1
(g21
g22
(dp751
NI59
sI01
I1
stRp752
(dp753
g19
I60
sg26
Nsg27
Nsg28
Nsbsg29
I2
sg30
F61
sbs(g313
S'contains(prefix)'
p754
tp755
g1
(g15
g3
NtRp756
(dp757
g18
F0.5
sg19
I18
sg20
g1
(g21
g22
(dp758
NI17
sI01
I1
stRp759
(dp760
g19
I18
sg26
Nsg27
Nsg28
Nsbsg29
I2
sg30
F19
sbs(g10
g719
tp761
g1
(g15
g3
NtRp762
(dp763
g18
F0.5
sg19
I18
sg20
g1
(g21
g22
(dp764
NI18
stRp765
(dp766
g19
I18
sg26
Nsg27
Nsg28
Nsbsg29
I2
sg30
F19
sbs(g10
S'contains(cloak)'
p767
tp768
g1
(g15
g3
NtRp769
(dp770
g18
F0.5
sg19
I18
sg20
g1
(g21
g22
(dp771
NI18
stRp772
(dp773
g19
I18
sg26
Nsg27
Nsg28
Nsbsg29
I2
sg30
F19
sbs(g8
S'contains(inri)'
p774
tp775
g1
(g15
g3
NtRp776
(dp777
g18
F0.5
sg19
I60
sg20
g1
(g21
g22
(dp778
NI60
stRp779
(dp780
g19
I60
sg26
Nsg27
Nsg28
Nsbsg29
I2
sg30
F61
sbs(g495
g435
tp781
g1
(g15
g3
NtRp782
(dp783
g18
F0.5
sg19
I18
sg20
g1
(g21
g22
(dp784
NI17
sI01
I1
stRp785
(dp786
g19
I18
sg26
Nsg27
Nsg28
Nsbsg29
I2
sg30
F19
sbs(S'Meaning'
p787
S'contains(a)'
tp788
g1
(g15
g3
NtRp789
(dp790
g18
F0.5
sg19
I60
sg20
g1
(g21
g22
(dp791
NI48
sI01
I12
stRp792
(dp793
g19
I60
sg26
Nsg27
Nsg28
Nsbsg29
I2
sg30
F61
sbs(g10
g428
tp794
g1
(g15
g3
NtRp795
(dp796
g18
F0.5
sg19
I18
sg20
g1
(g21
g22
(dp797
NI18
stRp798
(dp799
g19
I18
sg26
Nsg27
Nsg28
Nsbsg29
I2
sg30
F19
sbs(g298
S'contains(used)'
p800
tp801
g1
(g15
g3
NtRp802
(dp803
g18
F0.5
sg19
I18
sg20
g1
(g21
g22
(dp804
NI16
sI01
I2
stRp805
(dp806
g19
I18
sg26
Nsg27
Nsg28
Nsbsg29
I2
sg30
F19
sbs(g10
g395
tp807
g1
(g15
g3
NtRp808
(dp809
g18
F0.5
sg19
I18
sg20
g1
(g21
g22
(dp810
NI16
sI01
I2
stRp811
(dp812
g19
I18
sg26
Nsg27
Nsg28
Nsbsg29
I2
sg30
F19
sbs(g10
S'contains(bag)'
p813
tp814
g1
(g15
g3
NtRp815
(dp816
g18
F0.5
sg19
I18
sg20
g1
(g21
g22
(dp817
NI18
stRp818
(dp819
g19
I18
sg26
Nsg27
Nsg28
Nsbsg29
I2
sg30
F19
sbs(g10
S'contains(zapping)'
p820
tp821
g1
(g15
g3
NtRp822
(dp823
g18
F0.5
sg19
I18
sg20
g1
(g21
g22
(dp824
NI18
stRp825
(dp826
g19
I18
sg26
Nsg27
Nsg28
Nsbsg29
I2
sg30
F19
sbs(g9
S'contains(t)'
p827
tp828
g1
(g15
g3
NtRp829
(dp830
g18
F0.5
sg19
I23
sg20
g1
(g21
g22
(dp831
NI23
stRp832
(dp833
g19
I23
sg26
Nsg27
Nsg28
Nsbsg29
I2
sg30
F24
sbs(g8
g684
tp834
g1
(g15
g3
NtRp835
(dp836
g18
F0.5
sg19
I60
sg20
g1
(g21
g22
(dp837
NI60
stRp838
(dp839
g19
I60
sg26
Nsg27
Nsg28
Nsbsg29
I2
sg30
F61
sbs(g9
S'contains(brain)'
p840
tp841
g1
(g15
g3
NtRp842
(dp843
g18
F0.5
sg19
I23
sg20
g1
(g21
g22
(dp844
NI23
stRp845
(dp846
g19
I23
sg26
Nsg27
Nsg28
Nsbsg29
I2
sg30
F24
sbs(g9
g774
tp847
g1
(g15
g3
NtRp848
(dp849
g18
F0.5
sg19
I23
sg20
g1
(g21
g22
(dp850
NI23
stRp851
(dp852
g19
I23
sg26
Nsg27
Nsg28
Nsbsg29
I2
sg30
F24
sbs(g10
S'contains(children)'
p853
tp854
g1
(g15
g3
NtRp855
(dp856
g18
F0.5
sg19
I18
sg20
g1
(g21
g22
(dp857
NI18
stRp858
(dp859
g19
I18
sg26
Nsg27
Nsg28
Nsbsg29
I2
sg30
F19
sbs(S'Composition'
S'contains(beverage)'
p860
tp861
g1
(g15
g3
NtRp862
(dp863
g18
F0.5
sg19
I23
sg20
g1
(g21
g22
(dp864
NI22
sI01
I1
stRp865
(dp866
g19
I23
sg26
Nsg27
Nsg28
Nsbsg29
I2
sg30
F24
sbs(g10
S'contains(your)'
p867
tp868
g1
(g15
g3
NtRp869
(dp870
g18
F0.5
sg19
I18
sg20
g1
(g21
g22
(dp871
NI18
stRp872
(dp873
g19
I18
sg26
Nsg27
Nsg28
Nsbsg29
I2
sg30
F19
sbs(S'Abbreviation'
g564
tp874
g1
(g15
g3
NtRp875
(dp876
g18
F0.5
sg19
I18
sg20
g1
(g21
g22
(dp877
NI17
sI01
I1
stRp878
(dp879
g19
I18
sg26
Nsg27
Nsg28
Nsbsg29
I2
sg30
F19
sbs(g8
g641
tp880
g1
(g15
g3
NtRp881
(dp882
g18
F0.5
sg19
I60
sg20
g1
(g21
g22
(dp883
NI60
stRp884
(dp885
g19
I60
sg26
Nsg27
Nsg28
Nsbsg29
I2
sg30
F61
sbs(S'Meaning'
g536
tp886
g1
(g15
g3
NtRp887
(dp888
g18
F0.5
sg19
I60
sg20
g1
(g21
g22
(dp889
NI59
sI01
I1
stRp890
(dp891
g19
I60
sg26
Nsg27
Nsg28
Nsbsg29
I2
sg30
F61
sbs(g9
g536
tp892
g1
(g15
g3
NtRp893
(dp894
g18
F0.5
sg19
I23
sg20
g1
(g21
g22
(dp895
NI23
stRp896
(dp897
g19
I23
sg26
Nsg27
Nsg28
Nsbsg29
I2
sg30
F24
sbs(g9
g481
tp898
g1
(g15
g3
NtRp899
(dp900
g18
F0.5
sg19
I23
sg20
g1
(g21
g22
(dp901
NI23
stRp902
(dp903
g19
I23
sg26
Nsg27
Nsg28
Nsbsg29
I2
sg30
F24
sbs(g8
g335
tp904
g1
(g15
g3
NtRp905
(dp906
g18
F0.5
sg19
I60
sg20
g1
(g21
g22
(dp907
NI60
stRp908
(dp909
g19
I60
sg26
Nsg27
Nsg28
Nsbsg29
I2
sg30
F61
sbs(g10
S'contains(com)'
p910
tp911
g1
(g15
g3
NtRp912
(dp913
g18
F0.5
sg19
I18
sg20
g1
(g21
g22
(dp914
NI17
sI01
I1
stRp915
(dp916
g19
I18
sg26
Nsg27
Nsg28
Nsbsg29
I2
sg30
F19
sbs(g8
g96
tp917
g1
(g15
g3
NtRp918
(dp919
g18
F0.5
sg19
I60
sg20
g1
(g21
g22
(dp920
NI60
stRp921
(dp922
g19
I60
sg26
Nsg27
Nsg28
Nsbsg29
I2
sg30
F61
sbs(g10
S'contains(pencil)'
p923
tp924
g1
(g15
g3
NtRp925
(dp926
g18
F0.5
sg19
I18
sg20
g1
(g21
g22
(dp927
NI18
stRp928
(dp929
g19
I18
sg26
Nsg27
Nsg28
Nsbsg29
I2
sg30
F19
sbs(g10
S'contains(bang)'
p930
tp931
g1
(g15
g3
NtRp932
(dp933
g18
F0.5
sg19
I18
sg20
g1
(g21
g22
(dp934
NI18
stRp935
(dp936
g19
I18
sg26
Nsg27
Nsg28
Nsbsg29
I2
sg30
F19
sbs(g8
S'contains(:)'
p937
tp938
g1
(g15
g3
NtRp939
(dp940
g18
F0.5
sg19
I60
sg20
g1
(g21
g22
(dp941
NI60
stRp942
(dp943
g19
I60
sg26
Nsg27
Nsg28
Nsbsg29
I2
sg30
F61
sbs(S'Meaning'
g354
tp944
g1
(g15
g3
NtRp945
(dp946
g18
F0.5
sg19
I60
sg20
g1
(g21
g22
(dp947
NI59
sI01
I1
stRp948
(dp949
g19
I60
sg26
Nsg27
Nsg28
Nsbsg29
I2
sg30
F61
sbs(g9
S'contains(badass)'
p950
tp951
g1
(g15
g3
NtRp952
(dp953
g18
F0.5
sg19
I23
sg20
g1
(g21
g22
(dp954
NI23
stRp955
(dp956
g19
I23
sg26
Nsg27
Nsg28
Nsbsg29
I2
sg30
F24
sbs(g8
S'contains(what)'
tp957
g1
(g15
g3
NtRp958
(dp959
g18
F0.5
sg19
I60
sg20
g1
(g21
g22
(dp960
NI12
sI01
I48
stRp961
(dp962
g19
I60
sg26
Nsg27
Nsg28
Nsbsg29
I2
sg30
F61
sbs(g10
g388
tp963
g1
(g15
g3
NtRp964
(dp965
g18
F0.5
sg19
I18
sg20
g1
(g21
g22
(dp966
NI18
stRp967
(dp968
g19
I18
sg26
Nsg27
Nsg28
Nsbsg29
I2
sg30
F19
sbs(S'Meaning'
g442
tp969
g1
(g15
g3
NtRp970
(dp971
g18
F0.5
sg19
I60
sg20
g1
(g21
g22
(dp972
NI59
sI01
I1
stRp973
(dp974
g19
I60
sg26
Nsg27
Nsg28
Nsbsg29
I2
sg30
F61
sbs(S'Abbreviation'
p975
S'contains(o)'
p976
tp977
g1
(g15
g3
NtRp978
(dp979
g18
F0.5
sg19
I18
sg20
g1
(g21
g22
(dp980
NI16
sI01
I2
stRp981
(dp982
g19
I18
sg26
Nsg27
Nsg28
Nsbsg29
I2
sg30
F19
sbs(g10
g408
tp983
g1
(g15
g3
NtRp984
(dp985
g18
F0.5
sg19
I18
sg20
g1
(g21
g22
(dp986
NI18
stRp987
(dp988
g19
I18
sg26
Nsg27
Nsg28
Nsbsg29
I2
sg30
F19
sbs(S'Meaning'
S'contains(tidy)'
p989
tp990
g1
(g15
g3
NtRp991
(dp992
g18
F0.5
sg19
I60
sg20
g1
(g21
g22
(dp993
NI59
sI01
I1
stRp994
(dp995
g19
I60
sg26
Nsg27
Nsg28
Nsbsg29
I2
sg30
F61
sbs(g9
g937
tp996
g1
(g15
g3
NtRp997
(dp998
g18
F0.5
sg19
I23
sg20
g1
(g21
g22
(dp999
NI23
stRp1000
(dp1001
g19
I23
sg26
Nsg27
Nsg28
Nsbsg29
I2
sg30
F24
sbs(S'Abbreviation'
g676
tp1002
g1
(g15
g3
NtRp1003
(dp1004
g18
F0.5
sg19
I18
sg20
g1
(g21
g22
(dp1005
NI17
sI01
I1
stRp1006
(dp1007
g19
I18
sg26
Nsg27
Nsg28
Nsbsg29
I2
sg30
F19
sbs(g9
S'contains(on)'
p1008
tp1009
g1
(g15
g3
NtRp1010
(dp1011
g18
F0.5
sg19
I23
sg20
g1
(g21
g22
(dp1012
NI23
stRp1013
(dp1014
g19
I23
sg26
Nsg27
Nsg28
Nsbsg29
I2
sg30
F24
sbs(S'Meaning'
g853
tp1015
g1
(g15
g3
NtRp1016
(dp1017
g18
F0.5
sg19
I60
sg20
g1
(g21
g22
(dp1018
NI59
sI01
I1
stRp1019
(dp1020
g19
I60
sg26
Nsg27
Nsg28
Nsbsg29
I2
sg30
F61
sbs(g10
S'contains(pen)'
p1021
tp1022
g1
(g15
g3
NtRp1023
(dp1024
g18
F0.5
sg19
I18
sg20
g1
(g21
g22
(dp1025
NI18
stRp1026
(dp1027
g19
I18
sg26
Nsg27
Nsg28
Nsbsg29
I2
sg30
F19
sbs(S'Meaning'
g705
tp1028
g1
(g15
g3
NtRp1029
(dp1030
g18
F0.5
sg19
I60
sg20
g1
(g21
g22
(dp1031
NI59
sI01
I1
stRp1032
(dp1033
g19
I60
sg26
Nsg27
Nsg28
Nsbsg29
I2
sg30
F61
sbs(g9
g543
tp1034
g1
(g15
g3
NtRp1035
(dp1036
g18
F0.5
sg19
I23
sg20
g1
(g21
g22
(dp1037
NI23
stRp1038
(dp1039
g19
I23
sg26
Nsg27
Nsg28
Nsbsg29
I2
sg30
F24
sbs(g8
S'contains(nn)'
p1040
tp1041
g1
(g15
g3
NtRp1042
(dp1043
g18
F0.5
sg19
I60
sg20
g1
(g21
g22
(dp1044
NI60
stRp1045
(dp1046
g19
I60
sg26
Nsg27
Nsg28
Nsbsg29
I2
sg30
F61
sbs(g557
g277
tp1047
g1
(g15
g3
NtRp1048
(dp1049
g18
F0.5
sg19
I18
sg20
g1
(g21
g22
(dp1050
NI6
sI01
I12
stRp1051
(dp1052
g19
I18
sg26
Nsg27
Nsg28
Nsbsg29
I2
sg30
F19
sbs(g9
g976
tp1053
g1
(g15
g3
NtRp1054
(dp1055
g18
F0.5
sg19
I23
sg20
g1
(g21
g22
(dp1056
NI23
stRp1057
(dp1058
g19
I23
sg26
Nsg27
Nsg28
Nsbsg29
I2
sg30
F24
sbs(g9
g335
tp1059
g1
(g15
g3
NtRp1060
(dp1061
g18
F0.5
sg19
I23
sg20
g1
(g21
g22
(dp1062
NI23
stRp1063
(dp1064
g19
I23
sg26
Nsg27
Nsg28
Nsbsg29
I2
sg30
F24
sbs(g8
S'contains(,)'
p1065
tp1066
g1
(g15
g3
NtRp1067
(dp1068
g18
F0.5
sg19
I60
sg20
g1
(g21
g22
(dp1069
NI60
stRp1070
(dp1071
g19
I60
sg26
Nsg27
Nsg28
Nsbsg29
I2
sg30
F61
sbs(S'Meaning'
S'contains(chicken)'
p1072
tp1073
g1
(g15
g3
NtRp1074
(dp1075
g18
F0.5
sg19
I60
sg20
g1
(g21
g22
(dp1076
NI59
sI01
I1
stRp1077
(dp1078
g19
I60
sg26
Nsg27
Nsg28
Nsbsg29
I2
sg30
F61
sbs(g10
g243
tp1079
g1
(g15
g3
NtRp1080
(dp1081
g18
F0.5
sg19
I18
sg20
g1
(g21
g22
(dp1082
NI18
stRp1083
(dp1084
g19
I18
sg26
Nsg27
Nsg28
Nsbsg29
I2
sg30
F19
sbs(g10
S'contains(?)'
tp1085
g1
(g15
g3
NtRp1086
(dp1087
g18
F0.5
sg19
I18
sg20
g1
(g21
g22
(dp1088
I01
I18
stRp1089
(dp1090
g19
I18
sg26
Nsg27
Nsg28
Nsbsg29
I2
sg30
F19
sbs(g10
g374
tp1091
g1
(g15
g3
NtRp1092
(dp1093
g18
F0.5
sg19
I18
sg20
g1
(g21
g22
(dp1094
NI18
stRp1095
(dp1096
g19
I18
sg26
Nsg27
Nsg28
Nsbsg29
I2
sg30
F19
sbs(g8
S'contains(jacket)'
p1097
tp1098
g1
(g15
g3
NtRp1099
(dp1100
g18
F0.5
sg19
I60
sg20
g1
(g21
g22
(dp1101
NI60
stRp1102
(dp1103
g19
I60
sg26
Nsg27
Nsg28
Nsbsg29
I2
sg30
F61
sbs(S'Meaning'
g577
tp1104
g1
(g15
g3
NtRp1105
(dp1106
g18
F0.5
sg19
I60
sg20
g1
(g21
g22
(dp1107
NI59
sI01
I1
stRp1108
(dp1109
g19
I60
sg26
Nsg27
Nsg28
Nsbsg29
I2
sg30
F61
sbs(g10
S'contains(what)'
tp1110
g1
(g15
g3
NtRp1111
(dp1112
g18
F0.5
sg19
I18
sg20
g1
(g21
g22
(dp1113
I01
I18
stRp1114
(dp1115
g19
I18
sg26
Nsg27
Nsg28
Nsbsg29
I2
sg30
F19
sbs(S'Abbreviation'
g221
tp1116
g1
(g15
g3
NtRp1117
(dp1118
g18
F0.5
sg19
I18
sg20
g1
(g21
g22
(dp1119
NI17
sI01
I1
stRp1120
(dp1121
g19
I18
sg26
Nsg27
Nsg28
Nsbsg29
I2
sg30
F19
sbs(g10
g138
tp1122
g1
(g15
g3
NtRp1123
(dp1124
g18
F0.5
sg19
I18
sg20
g1
(g21
g22
(dp1125
NI18
stRp1126
(dp1127
g19
I18
sg26
Nsg27
Nsg28
Nsbsg29
I2
sg30
F19
sbs(g739
S'contains(the)'
tp1128
g1
(g15
g3
NtRp1129
(dp1130
g18
F0.5
sg19
I60
sg20
g1
(g21
g22
(dp1131
NI40
sI01
I20
stRp1132
(dp1133
g19
I60
sg26
Nsg27
Nsg28
Nsbsg29
I2
sg30
F61
sbs(S'Meaning'
S'contains(elephant)'
p1134
tp1135
g1
(g15
g3
NtRp1136
(dp1137
g18
F0.5
sg19
I60
sg20
g1
(g21
g22
(dp1138
NI59
sI01
I1
stRp1139
(dp1140
g19
I60
sg26
Nsg27
Nsg28
Nsbsg29
I2
sg30
F61
sbs(g9
g110
tp1141
g1
(g15
g3
NtRp1142
(dp1143
g18
F0.5
sg19
I23
sg20
g1
(g21
g22
(dp1144
NI23
stRp1145
(dp1146
g19
I23
sg26
Nsg27
Nsg28
Nsbsg29
I2
sg30
F24
sbs(g10
g950
tp1147
g1
(g15
g3
NtRp1148
(dp1149
g18
F0.5
sg19
I18
sg20
g1
(g21
g22
(dp1150
NI18
stRp1151
(dp1152
g19
I18
sg26
Nsg27
Nsg28
Nsbsg29
I2
sg30
F19
sbs(S'Composition'
g421
tp1153
g1
(g15
g3
NtRp1154
(dp1155
g18
F0.5
sg19
I23
sg20
g1
(g21
g22
(dp1156
NI22
sI01
I1
stRp1157
(dp1158
g19
I23
sg26
Nsg27
Nsg28
Nsbsg29
I2
sg30
F24
sbs(g9
g930
tp1159
g1
(g15
g3
NtRp1160
(dp1161
g18
F0.5
sg19
I23
sg20
g1
(g21
g22
(dp1162
NI23
stRp1163
(dp1164
g19
I23
sg26
Nsg27
Nsg28
Nsbsg29
I2
sg30
F24
sbs(g8
g860
tp1165
g1
(g15
g3
NtRp1166
(dp1167
g18
F0.5
sg19
I60
sg20
g1
(g21
g22
(dp1168
NI60
stRp1169
(dp1170
g19
I60
sg26
Nsg27
Nsg28
Nsbsg29
I2
sg30
F61
sbs(S'Meaning'
S'contains(street)'
p1171
tp1172
g1
(g15
g3
NtRp1173
(dp1174
g18
F0.5
sg19
I60
sg20
g1
(g21
g22
(dp1175
NI59
sI01
I1
stRp1176
(dp1177
g19
I60
sg26
Nsg27
Nsg28
Nsbsg29
I2
sg30
F61
sbs(g10
g157
tp1178
g1
(g15
g3
NtRp1179
(dp1180
g18
F0.5
sg19
I18
sg20
g1
(g21
g22
(dp1181
NI18
stRp1182
(dp1183
g19
I18
sg26
Nsg27
Nsg28
Nsbsg29
I2
sg30
F19
sbs(g8
S'contains(irish)'
p1184
tp1185
g1
(g15
g3
NtRp1186
(dp1187
g18
F0.5
sg19
I60
sg20
g1
(g21
g22
(dp1188
NI60
stRp1189
(dp1190
g19
I60
sg26
Nsg27
Nsg28
Nsbsg29
I2
sg30
F61
sbs(g9
g853
tp1191
g1
(g15
g3
NtRp1192
(dp1193
g18
F0.5
sg19
I23
sg20
g1
(g21
g22
(dp1194
NI23
stRp1195
(dp1196
g19
I23
sg26
Nsg27
Nsg28
Nsbsg29
I2
sg30
F24
sbs(g8
S'contains(psi)'
p1197
tp1198
g1
(g15
g3
NtRp1199
(dp1200
g18
F0.5
sg19
I60
sg20
g1
(g21
g22
(dp1201
NI60
stRp1202
(dp1203
g19
I60
sg26
Nsg27
Nsg28
Nsbsg29
I2
sg30
F61
sbs(g10
g1072
tp1204
g1
(g15
g3
NtRp1205
(dp1206
g18
F0.5
sg19
I18
sg20
g1
(g21
g22
(dp1207
NI18
stRp1208
(dp1209
g19
I18
sg26
Nsg27
Nsg28
Nsbsg29
I2
sg30
F19
sbs(g298
S'contains(jesus)'
p1210
tp1211
g1
(g15
g3
NtRp1212
(dp1213
g18
F0.5
sg19
I18
sg20
g1
(g21
g22
(dp1214
NI17
sI01
I1
stRp1215
(dp1216
g19
I18
sg26
Nsg27
Nsg28
Nsbsg29
I2
sg30
F19
sbs(g10
g31
tp1217
g1
(g15
g3
NtRp1218
(dp1219
g18
F0.5
sg19
I18
sg20
g1
(g21
g22
(dp1220
NI18
stRp1221
(dp1222
g19
I18
sg26
Nsg27
Nsg28
Nsbsg29
I2
sg30
F19
sbs(g8
g1210
tp1223
g1
(g15
g3
NtRp1224
(dp1225
g18
F0.5
sg19
I60
sg20
g1
(g21
g22
(dp1226
NI60
stRp1227
(dp1228
g19
I60
sg26
Nsg27
Nsg28
Nsbsg29
I2
sg30
F61
sbs(g9
S'contains(plo)'
p1229
tp1230
g1
(g15
g3
NtRp1231
(dp1232
g18
F0.5
sg19
I23
sg20
g1
(g21
g22
(dp1233
NI23
stRp1234
(dp1235
g19
I23
sg26
Nsg27
Nsg28
Nsbsg29
I2
sg30
F24
sbs(g9
g800
tp1236
g1
(g15
g3
NtRp1237
(dp1238
g18
F0.5
sg19
I23
sg20
g1
(g21
g22
(dp1239
NI23
stRp1240
(dp1241
g19
I23
sg26
Nsg27
Nsg28
Nsbsg29
I2
sg30
F24
sbs(g9
g1171
tp1242
g1
(g15
g3
NtRp1243
(dp1244
g18
F0.5
sg19
I23
sg20
g1
(g21
g22
(dp1245
NI23
stRp1246
(dp1247
g19
I23
sg26
Nsg27
Nsg28
Nsbsg29
I2
sg30
F24
sbs(g88
S'contains(name)'
p1248
tp1249
g1
(g15
g3
NtRp1250
(dp1251
g18
F0.5
sg19
I18
sg20
g1
(g21
g22
(dp1252
NI16
sI01
I2
stRp1253
(dp1254
g19
I18
sg26
Nsg27
Nsg28
Nsbsg29
I2
sg30
F19
sbs(g8
g185
tp1255
g1
(g15
g3
NtRp1256
(dp1257
g18
F0.5
sg19
I60
sg20
g1
(g21
g22
(dp1258
NI60
stRp1259
(dp1260
g19
I60
sg26
Nsg27
Nsg28
Nsbsg29
I2
sg30
F61
sbs(g622
g550
tp1261
g1
(g15
g3
NtRp1262
(dp1263
g18
F0.5
sg19
I60
sg20
g1
(g21
g22
(dp1264
NI59
sI01
I1
stRp1265
(dp1266
g19
I60
sg26
Nsg27
Nsg28
Nsbsg29
I2
sg30
F61
sbs(g9
g354
tp1267
g1
(g15
g3
NtRp1268
(dp1269
g18
F0.5
sg19
I23
sg20
g1
(g21
g22
(dp1270
NI23
stRp1271
(dp1272
g19
I23
sg26
Nsg27
Nsg28
Nsbsg29
I2
sg30
F24
sbs(g298
g774
tp1273
g1
(g15
g3
NtRp1274
(dp1275
g18
F0.5
sg19
I18
sg20
g1
(g21
g22
(dp1276
NI17
sI01
I1
stRp1277
(dp1278
g19
I18
sg26
Nsg27
Nsg28
Nsbsg29
I2
sg30
F19
sbs(g8
S'contains(.)'
p1279
tp1280
g1
(g15
g3
NtRp1281
(dp1282
g18
F0.5
sg19
I60
sg20
g1
(g21
g22
(dp1283
NI60
stRp1284
(dp1285
g19
I60
sg26
Nsg27
Nsg28
Nsbsg29
I2
sg30
F61
sbs(g8
g754
tp1286
g1
(g15
g3
NtRp1287
(dp1288
g18
F0.5
sg19
I60
sg20
g1
(g21
g22
(dp1289
NI60
stRp1290
(dp1291
g19
I60
sg26
Nsg27
Nsg28
Nsbsg29
I2
sg30
F61
sbs(S'Meaning'
g257
tp1292
g1
(g15
g3
NtRp1293
(dp1294
g18
F0.5
sg19
I60
sg20
g1
(g21
g22
(dp1295
NI59
sI01
I1
stRp1296
(dp1297
g19
I60
sg26
Nsg27
Nsg28
Nsbsg29
I2
sg30
F61
sbs(S'Meaning'
g840
tp1298
g1
(g15
g3
NtRp1299
(dp1300
g18
F0.5
sg19
I60
sg20
g1
(g21
g22
(dp1301
NI59
sI01
I1
stRp1302
(dp1303
g19
I60
sg26
Nsg27
Nsg28
Nsbsg29
I2
sg30
F61
sbs(g8
g800
tp1304
g1
(g15
g3
NtRp1305
(dp1306
g18
F0.5
sg19
I60
sg20
g1
(g21
g22
(dp1307
NI60
stRp1308
(dp1309
g19
I60
sg26
Nsg27
Nsg28
Nsbsg29
I2
sg30
F61
sbs(g8
g1229
tp1310
g1
(g15
g3
NtRp1311
(dp1312
g18
F0.5
sg19
I60
sg20
g1
(g21
g22
(dp1313
NI60
stRp1314
(dp1315
g19
I60
sg26
Nsg27
Nsg28
Nsbsg29
I2
sg30
F61
sbs(g10
g989
tp1316
g1
(g15
g3
NtRp1317
(dp1318
g18
F0.5
sg19
I18
sg20
g1
(g21
g22
(dp1319
NI18
stRp1320
(dp1321
g19
I18
sg26
Nsg27
Nsg28
Nsbsg29
I2
sg30
F19
sbs(g291
S'contains(laser)'
p1322
tp1323
g1
(g15
g3
NtRp1324
(dp1325
g18
F0.5
sg19
I18
sg20
g1
(g21
g22
(dp1326
NI17
sI01
I1
stRp1327
(dp1328
g19
I18
sg26
Nsg27
Nsg28
Nsbsg29
I2
sg30
F19
sbs(g10
S'contains(ear)'
p1329
tp1330
g1
(g15
g3
NtRp1331
(dp1332
g18
F0.5
sg19
I18
sg20
g1
(g21
g22
(dp1333
NI18
stRp1334
(dp1335
g19
I18
sg26
Nsg27
Nsg28
Nsbsg29
I2
sg30
F19
sbs(g557
g81
tp1336
g1
(g15
g3
NtRp1337
(dp1338
g18
F0.5
sg19
I18
sg20
g1
(g21
g22
(dp1339
NI17
sI01
I1
stRp1340
(dp1341
g19
I18
sg26
Nsg27
Nsg28
Nsbsg29
I2
sg30
F19
sbs(g495
g321
tp1342
g1
(g15
g3
NtRp1343
(dp1344
g18
F0.5
sg19
I18
sg20
g1
(g21
g22
(dp1345
NI17
sI01
I1
stRp1346
(dp1347
g19
I18
sg26
Nsg27
Nsg28
Nsbsg29
I2
sg30
F19
sbs(g9
g754
tp1348
g1
(g15
g3
NtRp1349
(dp1350
g18
F0.5
sg19
I23
sg20
g1
(g21
g22
(dp1351
NI23
stRp1352
(dp1353
g19
I23
sg26
Nsg27
Nsg28
Nsbsg29
I2
sg30
F24
sbs(g8
g712
tp1354
g1
(g15
g3
NtRp1355
(dp1356
g18
F0.5
sg19
I60
sg20
g1
(g21
g22
(dp1357
NI60
stRp1358
(dp1359
g19
I60
sg26
Nsg27
Nsg28
Nsbsg29
I2
sg30
F61
sbs(g10
S'contains(earth)'
p1360
tp1361
g1
(g15
g3
NtRp1362
(dp1363
g18
F0.5
sg19
I18
sg20
g1
(g21
g22
(dp1364
NI18
stRp1365
(dp1366
g19
I18
sg26
Nsg27
Nsg28
Nsbsg29
I2
sg30
F19
sbs(g10
g669
tp1367
g1
(g15
g3
NtRp1368
(dp1369
g18
F0.5
sg19
I18
sg20
g1
(g21
g22
(dp1370
NI18
stRp1371
(dp1372
g19
I18
sg26
Nsg27
Nsg28
Nsbsg29
I2
sg30
F19
sbs(g9
g321
tp1373
g1
(g15
g3
NtRp1374
(dp1375
g18
F0.5
sg19
I23
sg20
g1
(g21
g22
(dp1376
NI23
stRp1377
(dp1378
g19
I23
sg26
Nsg27
Nsg28
Nsbsg29
I2
sg30
F24
sbs(g683
g1065
tp1379
g1
(g15
g3
NtRp1380
(dp1381
g18
F0.5
sg19
I18
sg20
g1
(g21
g22
(dp1382
NI17
sI01
I1
stRp1383
(dp1384
g19
I18
sg26
Nsg27
Nsg28
Nsbsg29
I2
sg30
F19
sbs(g9
g1322
tp1385
g1
(g15
g3
NtRp1386
(dp1387
g18
F0.5
sg19
I23
sg20
g1
(g21
g22
(dp1388
NI23
stRp1389
(dp1390
g19
I23
sg26
Nsg27
Nsg28
Nsbsg29
I2
sg30
F24
sbs(g8
g827
tp1391
g1
(g15
g3
NtRp1392
(dp1393
g18
F0.5
sg19
I60
sg20
g1
(g21
g22
(dp1394
NI60
stRp1395
(dp1396
g19
I60
sg26
Nsg27
Nsg28
Nsbsg29
I2
sg30
F61
sbs(g683
g206
tp1397
g1
(g15
g3
NtRp1398
(dp1399
g18
F0.5
sg19
I18
sg20
g1
(g21
g22
(dp1400
NI17
sI01
I1
stRp1401
(dp1402
g19
I18
sg26
Nsg27
Nsg28
Nsbsg29
I2
sg30
F19
sbs(S'Meaning'
g584
tp1403
g1
(g15
g3
NtRp1404
(dp1405
g18
F0.5
sg19
I60
sg20
g1
(g21
g22
(dp1406
NI59
sI01
I1
stRp1407
(dp1408
g19
I60
sg26
Nsg27
Nsg28
Nsbsg29
I2
sg30
F61
sbs(g8
g1248
tp1409
g1
(g15
g3
NtRp1410
(dp1411
g18
F0.5
sg19
I60
sg20
g1
(g21
g22
(dp1412
NI60
stRp1413
(dp1414
g19
I60
sg26
Nsg27
Nsg28
Nsbsg29
I2
sg30
F61
sbs(g9
g81
tp1415
g1
(g15
g3
NtRp1416
(dp1417
g18
F0.5
sg19
I23
sg20
g1
(g21
g22
(dp1418
NI23
stRp1419
(dp1420
g19
I23
sg26
Nsg27
Nsg28
Nsbsg29
I2
sg30
F24
sbs(g9
g989
tp1421
g1
(g15
g3
NtRp1422
(dp1423
g18
F0.5
sg19
I23
sg20
g1
(g21
g22
(dp1424
NI23
stRp1425
(dp1426
g19
I23
sg26
Nsg27
Nsg28
Nsbsg29
I2
sg30
F24
sbs(g9
g550
tp1427
g1
(g15
g3
NtRp1428
(dp1429
g18
F0.5
sg19
I23
sg20
g1
(g21
g22
(dp1430
NI23
stRp1431
(dp1432
g19
I23
sg26
Nsg27
Nsg28
Nsbsg29
I2
sg30
F24
sbs(g9
g89
tp1433
g1
(g15
g3
NtRp1434
(dp1435
g18
F0.5
sg19
I23
sg20
g1
(g21
g22
(dp1436
NI23
stRp1437
(dp1438
g19
I23
sg26
Nsg27
Nsg28
Nsbsg29
I2
sg30
F24
sbs(g10
S'contains(the)'
tp1439
g1
(g15
g3
NtRp1440
(dp1441
g18
F0.5
sg19
I18
sg20
g1
(g21
g22
(dp1442
NI10
sI01
I8
stRp1443
(dp1444
g19
I18
sg26
Nsg27
Nsg28
Nsbsg29
I2
sg30
F19
sbs(g9
g584
tp1445
g1
(g15
g3
NtRp1446
(dp1447
g18
F0.5
sg19
I23
sg20
g1
(g21
g22
(dp1448
NI23
stRp1449
(dp1450
g19
I23
sg26
Nsg27
Nsg28
Nsbsg29
I2
sg30
F24
sbs(g10
g1171
tp1451
g1
(g15
g3
NtRp1452
(dp1453
g18
F0.5
sg19
I18
sg20
g1
(g21
g22
(dp1454
NI18
stRp1455
(dp1456
g19
I18
sg26
Nsg27
Nsg28
Nsbsg29
I2
sg30
F19
sbs(g8
g496
tp1457
g1
(g15
g3
NtRp1458
(dp1459
g18
F0.5
sg19
I60
sg20
g1
(g21
g22
(dp1460
NI60
stRp1461
(dp1462
g19
I60
sg26
Nsg27
Nsg28
Nsbsg29
I2
sg30
F61
sbs(g8
g299
tp1463
g1
(g15
g3
NtRp1464
(dp1465
g18
F0.5
sg19
I60
sg20
g1
(g21
g22
(dp1466
NI60
stRp1467
(dp1468
g19
I60
sg26
Nsg27
Nsg28
Nsbsg29
I2
sg30
F61
sbs(g9
S'contains(claus)'
p1469
tp1470
g1
(g15
g3
NtRp1471
(dp1472
g18
F0.5
sg19
I23
sg20
g1
(g21
g22
(dp1473
NI23
stRp1474
(dp1475
g19
I23
sg26
Nsg27
Nsg28
Nsbsg29
I2
sg30
F24
sbs(g9
S'contains(company)'
p1476
tp1477
g1
(g15
g3
NtRp1478
(dp1479
g18
F0.5
sg19
I23
sg20
g1
(g21
g22
(dp1480
NI23
stRp1481
(dp1482
g19
I23
sg26
Nsg27
Nsg28
Nsbsg29
I2
sg30
F24
sbs(S'Meaning'
g669
tp1483
g1
(g15
g3
NtRp1484
(dp1485
g18
F0.5
sg19
I60
sg20
g1
(g21
g22
(dp1486
NI59
sI01
I1
stRp1487
(dp1488
g19
I60
sg26
Nsg27
Nsg28
Nsbsg29
I2
sg30
F61
sbs(g10
S'contains(pretty)'
p1489
tp1490
g1
(g15
g3
NtRp1491
(dp1492
g18
F0.5
sg19
I18
sg20
g1
(g21
g22
(dp1493
NI18
stRp1494
(dp1495
g19
I18
sg26
Nsg27
Nsg28
Nsbsg29
I2
sg30
F19
sbs(S'Meaning'
g367
tp1496
g1
(g15
g3
NtRp1497
(dp1498
g18
F0.5
sg19
I60
sg20
g1
(g21
g22
(dp1499
NI59
sI01
I1
stRp1500
(dp1501
g19
I60
sg26
Nsg27
Nsg28
Nsbsg29
I2
sg30
F61
sbs(g8
g38
tp1502
g1
(g15
g3
NtRp1503
(dp1504
g18
F0.5
sg19
I60
sg20
g1
(g21
g22
(dp1505
NI60
stRp1506
(dp1507
g19
I60
sg26
Nsg27
Nsg28
Nsbsg29
I2
sg30
F61
sbs(g9
g1072
tp1508
g1
(g15
g3
NtRp1509
(dp1510
g18
F0.5
sg19
I23
sg20
g1
(g21
g22
(dp1511
NI23
stRp1512
(dp1513
g19
I23
sg26
Nsg27
Nsg28
Nsbsg29
I2
sg30
F24
sbs(g10
S'contains(rubber)'
p1514
tp1515
g1
(g15
g3
NtRp1516
(dp1517
g18
F0.5
sg19
I18
sg20
g1
(g21
g22
(dp1518
NI18
stRp1519
(dp1520
g19
I18
sg26
Nsg27
Nsg28
Nsbsg29
I2
sg30
F19
sbs(g9
g1184
tp1521
g1
(g15
g3
NtRp1522
(dp1523
g18
F0.5
sg19
I23
sg20
g1
(g21
g22
(dp1524
NI23
stRp1525
(dp1526
g19
I23
sg26
Nsg27
Nsg28
Nsbsg29
I2
sg30
F24
sbs(g9
S'contains(avenue)'
p1527
tp1528
g1
(g15
g3
NtRp1529
(dp1530
g18
F0.5
sg19
I23
sg20
g1
(g21
g22
(dp1531
NI23
stRp1532
(dp1533
g19
I23
sg26
Nsg27
Nsg28
Nsbsg29
I2
sg30
F24
sbs(g9
g442
tp1534
g1
(g15
g3
NtRp1535
(dp1536
g18
F0.5
sg19
I23
sg20
g1
(g21
g22
(dp1537
NI23
stRp1538
(dp1539
g19
I23
sg26
Nsg27
Nsg28
Nsbsg29
I2
sg30
F24
sbs(g10
S'contains(mellon)'
p1540
tp1541
g1
(g15
g3
NtRp1542
(dp1543
g18
F0.5
sg19
I18
sg20
g1
(g21
g22
(dp1544
NI18
stRp1545
(dp1546
g19
I18
sg26
Nsg27
Nsg28
Nsbsg29
I2
sg30
F19
sbs(S'Meaning'
S'contains(haircut)'
p1547
tp1548
g1
(g15
g3
NtRp1549
(dp1550
g18
F0.5
sg19
I60
sg20
g1
(g21
g22
(dp1551
NI59
sI01
I1
stRp1552
(dp1553
g19
I60
sg26
Nsg27
Nsg28
Nsbsg29
I2
sg30
F61
sbs(g213
g103
tp1554
g1
(g15
g3
NtRp1555
(dp1556
g18
F0.5
sg19
I23
sg20
g1
(g21
g22
(dp1557
NI22
sI01
I1
stRp1558
(dp1559
g19
I23
sg26
Nsg27
Nsg28
Nsbsg29
I2
sg30
F24
sbs(g683
S'contains(reading)'
p1560
tp1561
g1
(g15
g3
NtRp1562
(dp1563
g18
F0.5
sg19
I18
sg20
g1
(g21
g22
(dp1564
NI17
sI01
I1
stRp1565
(dp1566
g19
I18
sg26
Nsg27
Nsg28
Nsbsg29
I2
sg30
F19
sbs(g10
g421
tp1567
g1
(g15
g3
NtRp1568
(dp1569
g18
F0.5
sg19
I18
sg20
g1
(g21
g22
(dp1570
NI18
stRp1571
(dp1572
g19
I18
sg26
Nsg27
Nsg28
Nsbsg29
I2
sg30
F19
sbs(g10
g103
tp1573
g1
(g15
g3
NtRp1574
(dp1575
g18
F0.5
sg19
I18
sg20
g1
(g21
g22
(dp1576
NI18
stRp1577
(dp1578
g19
I18
sg26
Nsg27
Nsg28
Nsbsg29
I2
sg30
F19
sbs(g8
S'contains(as)'
p1579
tp1580
g1
(g15
g3
NtRp1581
(dp1582
g18
F0.5
sg19
I60
sg20
g1
(g21
g22
(dp1583
NI60
stRp1584
(dp1585
g19
I60
sg26
Nsg27
Nsg28
Nsbsg29
I2
sg30
F61
sbs(g9
S'contains(?)'
tp1586
g1
(g15
g3
NtRp1587
(dp1588
g18
F0.5
sg19
I23
sg20
g1
(g21
g22
(dp1589
I01
I23
stRp1590
(dp1591
g19
I23
sg26
Nsg27
Nsg28
Nsbsg29
I2
sg30
F24
sbs(g313
g381
tp1592
g1
(g15
g3
NtRp1593
(dp1594
g18
F0.5
sg19
I18
sg20
g1
(g21
g22
(dp1595
NI17
sI01
I1
stRp1596
(dp1597
g19
I18
sg26
Nsg27
Nsg28
Nsbsg29
I2
sg30
F19
sbs(g10
g449
tp1598
g1
(g15
g3
NtRp1599
(dp1600
g18
F0.5
sg19
I18
sg20
g1
(g21
g22
(dp1601
NI18
stRp1602
(dp1603
g19
I18
sg26
Nsg27
Nsg28
Nsbsg29
I2
sg30
F19
sbs(g9
S'contains(ads)'
p1604
tp1605
g1
(g15
g3
NtRp1606
(dp1607
g18
F0.5
sg19
I23
sg20
g1
(g21
g22
(dp1608
NI23
stRp1609
(dp1610
g19
I23
sg26
Nsg27
Nsg28
Nsbsg29
I2
sg30
F24
sbs(g8
g976
tp1611
g1
(g15
g3
NtRp1612
(dp1613
g18
F0.5
sg19
I60
sg20
g1
(g21
g22
(dp1614
NI60
stRp1615
(dp1616
g19
I60
sg26
Nsg27
Nsg28
Nsbsg29
I2
sg30
F61
sbs(g8
g214
tp1617
g1
(g15
g3
NtRp1618
(dp1619
g18
F0.5
sg19
I60
sg20
g1
(g21
g22
(dp1620
NI60
stRp1621
(dp1622
g19
I60
sg26
Nsg27
Nsg28
Nsbsg29
I2
sg30
F61
sbs(g9
g328
tp1623
g1
(g15
g3
NtRp1624
(dp1625
g18
F0.5
sg19
I23
sg20
g1
(g21
g22
(dp1626
NI23
stRp1627
(dp1628
g19
I23
sg26
Nsg27
Nsg28
Nsbsg29
I2
sg30
F24
sbs(g9
S'contains(what)'
tp1629
g1
(g15
g3
NtRp1630
(dp1631
g18
F0.5
sg19
I23
sg20
g1
(g21
g22
(dp1632
I01
I23
stRp1633
(dp1634
g19
I23
sg26
Nsg27
Nsg28
Nsbsg29
I2
sg30
F24
sbs(g9
g1547
tp1635
g1
(g15
g3
NtRp1636
(dp1637
g18
F0.5
sg19
I23
sg20
g1
(g21
g22
(dp1638
NI23
stRp1639
(dp1640
g19
I23
sg26
Nsg27
Nsg28
Nsbsg29
I2
sg30
F24
sbs(g8
S'contains(form)'
p1641
tp1642
g1
(g15
g3
NtRp1643
(dp1644
g18
F0.5
sg19
I60
sg20
g1
(g21
g22
(dp1645
NI60
stRp1646
(dp1647
g19
I60
sg26
Nsg27
Nsg28
Nsbsg29
I2
sg30
F61
sbs(g8
g1360
tp1648
g1
(g15
g3
NtRp1649
(dp1650
g18
F0.5
sg19
I60
sg20
g1
(g21
g22
(dp1651
NI60
stRp1652
(dp1653
g19
I60
sg26
Nsg27
Nsg28
Nsbsg29
I2
sg30
F61
sbs(g10
S'contains(happy)'
p1654
tp1655
g1
(g15
g3
NtRp1656
(dp1657
g18
F0.5
sg19
I18
sg20
g1
(g21
g22
(dp1658
NI18
stRp1659
(dp1660
g19
I18
sg26
Nsg27
Nsg28
Nsbsg29
I2
sg30
F19
sbs(g8
g314
tp1661
g1
(g15
g3
NtRp1662
(dp1663
g18
F0.5
sg19
I60
sg20
g1
(g21
g22
(dp1664
NI60
stRp1665
(dp1666
g19
I60
sg26
Nsg27
Nsg28
Nsbsg29
I2
sg30
F61
sbs(g10
g306
tp1667
g1
(g15
g3
NtRp1668
(dp1669
g18
F0.5
sg19
I18
sg20
g1
(g21
g22
(dp1670
NI18
stRp1671
(dp1672
g19
I18
sg26
Nsg27
Nsg28
Nsbsg29
I2
sg30
F19
sbs(g9
g299
tp1673
g1
(g15
g3
NtRp1674
(dp1675
g18
F0.5
sg19
I23
sg20
g1
(g21
g22
(dp1676
NI23
stRp1677
(dp1678
g19
I23
sg26
Nsg27
Nsg28
Nsbsg29
I2
sg30
F24
sbs(g9
g740
tp1679
g1
(g15
g3
NtRp1680
(dp1681
g18
F0.5
sg19
I23
sg20
g1
(g21
g22
(dp1682
NI23
stRp1683
(dp1684
g19
I23
sg26
Nsg27
Nsg28
Nsbsg29
I2
sg30
F24
sbs(g228
g543
tp1685
g1
(g15
g3
NtRp1686
(dp1687
g18
F0.5
sg19
I18
sg20
g1
(g21
g22
(dp1688
NI17
sI01
I1
stRp1689
(dp1690
g19
I18
sg26
Nsg27
Nsg28
Nsbsg29
I2
sg30
F19
sbs(g9
g284
tp1691
g1
(g15
g3
NtRp1692
(dp1693
g18
F0.5
sg19
I23
sg20
g1
(g21
g22
(dp1694
NI23
stRp1695
(dp1696
g19
I23
sg26
Nsg27
Nsg28
Nsbsg29
I2
sg30
F24
sbs(S'Meaning'
p1697
S'contains(santa)'
p1698
tp1699
g1
(g15
g3
NtRp1700
(dp1701
g18
F0.5
sg19
I60
sg20
g1
(g21
g22
(dp1702
NI59
sI01
I1
stRp1703
(dp1704
g19
I60
sg26
Nsg27
Nsg28
Nsbsg29
I2
sg30
F61
sbs(g10
g740
tp1705
g1
(g15
g3
NtRp1706
(dp1707
g18
F0.5
sg19
I18
sg20
g1
(g21
g22
(dp1708
NI18
stRp1709
(dp1710
g19
I18
sg26
Nsg27
Nsg28
Nsbsg29
I2
sg30
F19
sbs(S'Meaning'
g1540
tp1711
g1
(g15
g3
NtRp1712
(dp1713
g18
F0.5
sg19
I60
sg20
g1
(g21
g22
(dp1714
NI59
sI01
I1
stRp1715
(dp1716
g19
I60
sg26
Nsg27
Nsg28
Nsbsg29
I2
sg30
F61
sbs(g9
S'contains(when)'
p1717
tp1718
g1
(g15
g3
NtRp1719
(dp1720
g18
F0.5
sg19
I23
sg20
g1
(g21
g22
(dp1721
NI23
stRp1722
(dp1723
g19
I23
sg26
Nsg27
Nsg28
Nsbsg29
I2
sg30
F24
sbs(g8
g1008
tp1724
g1
(g15
g3
NtRp1725
(dp1726
g18
F0.5
sg19
I60
sg20
g1
(g21
g22
(dp1727
NI60
stRp1728
(dp1729
g19
I60
sg26
Nsg27
Nsg28
Nsbsg29
I2
sg30
F61
sbs(g9
g1021
tp1730
g1
(g15
g3
NtRp1731
(dp1732
g18
F0.5
sg19
I23
sg20
g1
(g21
g22
(dp1733
NI23
stRp1734
(dp1735
g19
I23
sg26
Nsg27
Nsg28
Nsbsg29
I2
sg30
F24
sbs(g8
g910
tp1736
g1
(g15
g3
NtRp1737
(dp1738
g18
F0.5
sg19
I60
sg20
g1
(g21
g22
(dp1739
NI60
stRp1740
(dp1741
g19
I60
sg26
Nsg27
Nsg28
Nsbsg29
I2
sg30
F61
sbs(g10
g250
tp1742
g1
(g15
g3
NtRp1743
(dp1744
g18
F0.5
sg19
I18
sg20
g1
(g21
g22
(dp1745
NI18
stRp1746
(dp1747
g19
I18
sg26
Nsg27
Nsg28
Nsbsg29
I2
sg30
F19
sbs(g10
g509
tp1748
g1
(g15
g3
NtRp1749
(dp1750
g18
F0.5
sg19
I18
sg20
g1
(g21
g22
(dp1751
NI18
stRp1752
(dp1753
g19
I18
sg26
Nsg27
Nsg28
Nsbsg29
I2
sg30
F19
sbs(g9
g1197
tp1754
g1
(g15
g3
NtRp1755
(dp1756
g18
F0.5
sg19
I23
sg20
g1
(g21
g22
(dp1757
NI23
stRp1758
(dp1759
g19
I23
sg26
Nsg27
Nsg28
Nsbsg29
I2
sg30
F24
sbs(g8
g229
tp1760
g1
(g15
g3
NtRp1761
(dp1762
g18
F0.5
sg19
I60
sg20
g1
(g21
g22
(dp1763
NI60
stRp1764
(dp1765
g19
I60
sg26
Nsg27
Nsg28
Nsbsg29
I2
sg30
F61
sbs(g10
g1279
tp1766
g1
(g15
g3
NtRp1767
(dp1768
g18
F0.5
sg19
I18
sg20
g1
(g21
g22
(dp1769
NI15
sI01
I3
stRp1770
(dp1771
g19
I18
sg26
Nsg27
Nsg28
Nsbsg29
I2
sg30
F19
sbs(g683
g937
tp1772
g1
(g15
g3
NtRp1773
(dp1774
g18
F0.5
sg19
I18
sg20
g1
(g21
g22
(dp1775
NI17
sI01
I1
stRp1776
(dp1777
g19
I18
sg26
Nsg27
Nsg28
Nsbsg29
I2
sg30
F19
sbs(g88
g185
tp1778
g1
(g15
g3
NtRp1779
(dp1780
g18
F0.5
sg19
I18
sg20
g1
(g21
g22
(dp1781
NI17
sI01
I1
stRp1782
(dp1783
g19
I18
sg26
Nsg27
Nsg28
Nsbsg29
I2
sg30
F19
sbs(g9
g199
tp1784
g1
(g15
g3
NtRp1785
(dp1786
g18
F0.5
sg19
I23
sg20
g1
(g21
g22
(dp1787
NI23
stRp1788
(dp1789
g19
I23
sg26
Nsg27
Nsg28
Nsbsg29
I2
sg30
F24
sbs(g683
g1604
tp1790
g1
(g15
g3
NtRp1791
(dp1792
g18
F0.5
sg19
I18
sg20
g1
(g21
g22
(dp1793
NI17
sI01
I1
stRp1794
(dp1795
g19
I18
sg26
Nsg27
Nsg28
Nsbsg29
I2
sg30
F19
sbs(g9
g910
tp1796
g1
(g15
g3
NtRp1797
(dp1798
g18
F0.5
sg19
I23
sg20
g1
(g21
g22
(dp1799
NI23
stRp1800
(dp1801
g19
I23
sg26
Nsg27
Nsg28
Nsbsg29
I2
sg30
F24
sbs(g8
S'contains(other)'
p1802
tp1803
g1
(g15
g3
NtRp1804
(dp1805
g18
F0.5
sg19
I60
sg20
g1
(g21
g22
(dp1806
NI60
stRp1807
(dp1808
g19
I60
sg26
Nsg27
Nsg28
Nsbsg29
I2
sg30
F61
sbs(S'Composition'
g923
tp1809
g1
(g15
g3
NtRp1810
(dp1811
g18
F0.5
sg19
I23
sg20
g1
(g21
g22
(dp1812
NI22
sI01
I1
stRp1813
(dp1814
g19
I23
sg26
Nsg27
Nsg28
Nsbsg29
I2
sg30
F24
sbs(g9
g1802
tp1815
g1
(g15
g3
NtRp1816
(dp1817
g18
F0.5
sg19
I23
sg20
g1
(g21
g22
(dp1818
NI23
stRp1819
(dp1820
g19
I23
sg26
Nsg27
Nsg28
Nsbsg29
I2
sg30
F24
sbs(g10
S'contains(mellons)'
p1821
tp1822
g1
(g15
g3
NtRp1823
(dp1824
g18
F0.5
sg19
I18
sg20
g1
(g21
g22
(dp1825
NI18
stRp1826
(dp1827
g19
I18
sg26
Nsg27
Nsg28
Nsbsg29
I2
sg30
F19
sbs(g9
g192
tp1828
g1
(g15
g3
NtRp1829
(dp1830
g18
F0.5
sg19
I23
sg20
g1
(g21
g22
(dp1831
NI23
stRp1832
(dp1833
g19
I23
sg26
Nsg27
Nsg28
Nsbsg29
I2
sg30
F24
sbs(g9
g820
tp1834
g1
(g15
g3
NtRp1835
(dp1836
g18
F0.5
sg19
I23
sg20
g1
(g21
g22
(dp1837
NI23
stRp1838
(dp1839
g19
I23
sg26
Nsg27
Nsg28
Nsbsg29
I2
sg30
F24
sbs(g10
g1469
tp1840
g1
(g15
g3
NtRp1841
(dp1842
g18
F0.5
sg19
I18
sg20
g1
(g21
g22
(dp1843
NI18
stRp1844
(dp1845
g19
I18
sg26
Nsg27
Nsg28
Nsbsg29
I2
sg30
F19
sbs(g8
g564
tp1846
g1
(g15
g3
NtRp1847
(dp1848
g18
F0.5
sg19
I60
sg20
g1
(g21
g22
(dp1849
NI60
stRp1850
(dp1851
g19
I60
sg26
Nsg27
Nsg28
Nsbsg29
I2
sg30
F61
sbs(g10
S'contains(backpacks)'
p1852
tp1853
g1
(g15
g3
NtRp1854
(dp1855
g18
F0.5
sg19
I18
sg20
g1
(g21
g22
(dp1856
NI18
stRp1857
(dp1858
g19
I18
sg26
Nsg27
Nsg28
Nsbsg29
I2
sg30
F19
sbs(g8
S'contains(made)'
p1859
tp1860
g1
(g15
g3
NtRp1861
(dp1862
g18
F0.5
sg19
I60
sg20
g1
(g21
g22
(dp1863
NI60
stRp1864
(dp1865
g19
I60
sg26
Nsg27
Nsg28
Nsbsg29
I2
sg30
F61
sbs(g9
g164
tp1866
g1
(g15
g3
NtRp1867
(dp1868
g18
F0.5
sg19
I23
sg20
g1
(g21
g22
(dp1869
NI23
stRp1870
(dp1871
g19
I23
sg26
Nsg27
Nsg28
Nsbsg29
I2
sg30
F24
sbs(g10
g1527
tp1872
g1
(g15
g3
NtRp1873
(dp1874
g18
F0.5
sg19
I18
sg20
g1
(g21
g22
(dp1875
NI18
stRp1876
(dp1877
g19
I18
sg26
Nsg27
Nsg28
Nsbsg29
I2
sg30
F19
sbs(g10
g860
tp1878
g1
(g15
g3
NtRp1879
(dp1880
g18
F0.5
sg19
I18
sg20
g1
(g21
g22
(dp1881
NI18
stRp1882
(dp1883
g19
I18
sg26
Nsg27
Nsg28
Nsbsg29
I2
sg30
F19
sbs(g10
g67
tp1884
g1
(g15
g3
NtRp1885
(dp1886
g18
F0.5
sg19
I18
sg20
g1
(g21
g22
(dp1887
NI18
stRp1888
(dp1889
g19
I18
sg26
Nsg27
Nsg28
Nsbsg29
I2
sg30
F19
sbs(S'Meaning'
p1890
g1527
tp1891
g1
(g15
g3
NtRp1892
(dp1893
g18
F0.5
sg19
I60
sg20
g1
(g21
g22
(dp1894
NI59
sI01
I1
stRp1895
(dp1896
g19
I60
sg26
Nsg27
Nsg28
Nsbsg29
I2
sg30
F61
sbs(S'Composition'
g1514
tp1897
g1
(g15
g3
NtRp1898
(dp1899
g18
F0.5
sg19
I23
sg20
g1
(g21
g22
(dp1900
NI22
sI01
I1
stRp1901
(dp1902
g19
I23
sg26
Nsg27
Nsg28
Nsbsg29
I2
sg30
F24
sbs(g9
g1134
tp1903
g1
(g15
g3
NtRp1904
(dp1905
g18
F0.5
sg19
I23
sg20
g1
(g21
g22
(dp1906
NI23
stRp1907
(dp1908
g19
I23
sg26
Nsg27
Nsg28
Nsbsg29
I2
sg30
F24
sbs(g228
g827
tp1909
g1
(g15
g3
NtRp1910
(dp1911
g18
F0.5
sg19
I18
sg20
g1
(g21
g22
(dp1912
NI17
sI01
I1
stRp1913
(dp1914
g19
I18
sg26
Nsg27
Nsg28
Nsbsg29
I2
sg30
F19
sbs(g8
g117
tp1915
g1
(g15
g3
NtRp1916
(dp1917
g18
F0.5
sg19
I60
sg20
g1
(g21
g22
(dp1918
NI60
stRp1919
(dp1920
g19
I60
sg26
Nsg27
Nsg28
Nsbsg29
I2
sg30
F61
sbs(S'Composition'
p1921
g813
tp1922
g1
(g15
g3
NtRp1923
(dp1924
g18
F0.5
sg19
I23
sg20
g1
(g21
g22
(dp1925
NI21
sI01
I2
stRp1926
(dp1927
g19
I23
sg26
Nsg27
Nsg28
Nsbsg29
I2
sg30
F24
sbs(g8
g488
tp1928
g1
(g15
g3
NtRp1929
(dp1930
g18
F0.5
sg19
I60
sg20
g1
(g21
g22
(dp1931
NI48
sI01
I12
stRp1932
(dp1933
g19
I60
sg26
Nsg27
Nsg28
Nsbsg29
I2
sg30
F61
sbs(S'Meaning'
g820
tp1934
g1
(g15
g3
NtRp1935
(dp1936
g18
F0.5
sg19
I60
sg20
g1
(g21
g22
(dp1937
NI59
sI01
I1
stRp1938
(dp1939
g19
I60
sg26
Nsg27
Nsg28
Nsbsg29
I2
sg30
F61
sbs(g495
S'contains(bureau)'
p1940
tp1941
g1
(g15
g3
NtRp1942
(dp1943
g18
F0.5
sg19
I18
sg20
g1
(g21
g22
(dp1944
NI17
sI01
I1
stRp1945
(dp1946
g19
I18
sg26
Nsg27
Nsg28
Nsbsg29
I2
sg30
F19
sbs(S'Meaning'
S'contains(atm)'
p1947
tp1948
g1
(g15
g3
NtRp1949
(dp1950
g18
F0.5
sg19
I60
sg20
g1
(g21
g22
(dp1951
NI59
sI01
I1
stRp1952
(dp1953
g19
I60
sg26
Nsg27
Nsg28
Nsbsg29
I2
sg30
F61
sbs(g10
g698
tp1954
g1
(g15
g3
NtRp1955
(dp1956
g18
F0.5
sg19
I18
sg20
g1
(g21
g22
(dp1957
NI18
stRp1958
(dp1959
g19
I18
sg26
Nsg27
Nsg28
Nsbsg29
I2
sg30
F19
sbs(g10
S'contains(mouse)'
p1960
tp1961
g1
(g15
g3
NtRp1962
(dp1963
g18
F0.5
sg19
I18
sg20
g1
(g21
g22
(dp1964
NI18
stRp1965
(dp1966
g19
I18
sg26
Nsg27
Nsg28
Nsbsg29
I2
sg30
F19
sbs(g9
S'contains(word)'
p1967
tp1968
g1
(g15
g3
NtRp1969
(dp1970
g18
F0.5
sg19
I23
sg20
g1
(g21
g22
(dp1971
NI23
stRp1972
(dp1973
g19
I23
sg26
Nsg27
Nsg28
Nsbsg29
I2
sg30
F24
sbs(g10
g59
tp1974
g1
(g15
g3
NtRp1975
(dp1976
g18
F0.5
sg19
I18
sg20
g1
(g21
g22
(dp1977
NI18
stRp1978
(dp1979
g19
I18
sg26
Nsg27
Nsg28
Nsbsg29
I2
sg30
F19
sbs(g8
g221
tp1980
g1
(g15
g3
NtRp1981
(dp1982
g18
F0.5
sg19
I60
sg20
g1
(g21
g22
(dp1983
NI60
stRp1984
(dp1985
g19
I60
sg26
Nsg27
Nsg28
Nsbsg29
I2
sg30
F61
sbs(g8
g523
tp1986
g1
(g15
g3
NtRp1987
(dp1988
g18
F0.5
sg19
I60
sg20
g1
(g21
g22
(dp1989
NI60
stRp1990
(dp1991
g19
I60
sg26
Nsg27
Nsg28
Nsbsg29
I2
sg30
F61
sbs(g1921
g867
tp1992
g1
(g15
g3
NtRp1993
(dp1994
g18
F0.5
sg19
I23
sg20
g1
(g21
g22
(dp1995
NI18
sI01
I5
stRp1996
(dp1997
g19
I23
sg26
Nsg27
Nsg28
Nsbsg29
I2
sg30
F24
sbs(S'Meaning'
g59
tp1998
g1
(g15
g3
NtRp1999
(dp2000
g18
F0.5
sg19
I60
sg20
g1
(g21
g22
(dp2001
NI59
sI01
I1
stRp2002
(dp2003
g19
I60
sg26
Nsg27
Nsg28
Nsbsg29
I2
sg30
F61
sbs(g739
g1967
tp2004
g1
(g15
g3
NtRp2005
(dp2006
g18
F0.5
sg19
I60
sg20
g1
(g21
g22
(dp2007
NI55
sI01
I5
stRp2008
(dp2009
g19
I60
sg26
Nsg27
Nsg28
Nsbsg29
I2
sg30
F61
sbs(g9
g435
tp2010
g1
(g15
g3
NtRp2011
(dp2012
g18
F0.5
sg19
I23
sg20
g1
(g21
g22
(dp2013
NI23
stRp2014
(dp2015
g19
I23
sg26
Nsg27
Nsg28
Nsbsg29
I2
sg30
F24
sbs(S'Meaning'
g1329
tp2016
g1
(g15
g3
NtRp2017
(dp2018
g18
F0.5
sg19
I60
sg20
g1
(g21
g22
(dp2019
NI59
sI01
I1
stRp2020
(dp2021
g19
I60
sg26
Nsg27
Nsg28
Nsbsg29
I2
sg30
F61
sbs(g10
g732
tp2022
g1
(g15
g3
NtRp2023
(dp2024
g18
F0.5
sg19
I18
sg20
g1
(g21
g22
(dp2025
NI18
stRp2026
(dp2027
g19
I18
sg26
Nsg27
Nsg28
Nsbsg29
I2
sg30
F19
sbs(g10
S'contains(protective)'
p2028
tp2029
g1
(g15
g3
NtRp2030
(dp2031
g18
F0.5
sg19
I18
sg20
g1
(g21
g22
(dp2032
NI18
stRp2033
(dp2034
g19
I18
sg26
Nsg27
Nsg28
Nsbsg29
I2
sg30
F19
sbs(g10
S'contains(broke)'
p2035
tp2036
g1
(g15
g3
NtRp2037
(dp2038
g18
F0.5
sg19
I18
sg20
g1
(g21
g22
(dp2039
NI18
stRp2040
(dp2041
g19
I18
sg26
Nsg27
Nsg28
Nsbsg29
I2
sg30
F19
sbs(g10
g705
tp2042
g1
(g15
g3
NtRp2043
(dp2044
g18
F0.5
sg19
I18
sg20
g1
(g21
g22
(dp2045
NI18
stRp2046
(dp2047
g19
I18
sg26
Nsg27
Nsg28
Nsbsg29
I2
sg30
F19
sbs(S'Meaning'
g509
tp2048
g1
(g15
g3
NtRp2049
(dp2050
g18
F0.5
sg19
I60
sg20
g1
(g21
g22
(dp2051
NI59
sI01
I1
stRp2052
(dp2053
g19
I60
sg26
Nsg27
Nsg28
Nsbsg29
I2
sg30
F61
sbs(g10
g691
tp2054
g1
(g15
g3
NtRp2055
(dp2056
g18
F0.5
sg19
I18
sg20
g1
(g21
g22
(dp2057
NI18
stRp2058
(dp2059
g19
I18
sg26
Nsg27
Nsg28
Nsbsg29
I2
sg30
F19
sbs(g10
g1698
tp2060
g1
(g15
g3
NtRp2061
(dp2062
g18
F0.5
sg19
I18
sg20
g1
(g21
g22
(dp2063
NI18
stRp2064
(dp2065
g19
I18
sg26
Nsg27
Nsg28
Nsbsg29
I2
sg30
F19
sbs(g8
g250
tp2066
g1
(g15
g3
NtRp2067
(dp2068
g18
F0.5
sg19
I60
sg20
g1
(g21
g22
(dp2069
NI60
stRp2070
(dp2071
g19
I60
sg26
Nsg27
Nsg28
Nsbsg29
I2
sg30
F61
sbs(S'Composition'
S'contains(battery)'
p2072
tp2073
g1
(g15
g3
NtRp2074
(dp2075
g18
F0.5
sg19
I23
sg20
g1
(g21
g22
(dp2076
NI22
sI01
I1
stRp2077
(dp2078
g19
I23
sg26
Nsg27
Nsg28
Nsbsg29
I2
sg30
F24
sbs(g557
g641
tp2079
g1
(g15
g3
NtRp2080
(dp2081
g18
F0.5
sg19
I18
sg20
g1
(g21
g22
(dp2082
NI14
sI01
I4
stRp2083
(dp2084
g19
I18
sg26
Nsg27
Nsg28
Nsbsg29
I2
sg30
F19
sbs(g10
g1859
tp2085
g1
(g15
g3
NtRp2086
(dp2087
g18
F0.5
sg19
I18
sg20
g1
(g21
g22
(dp2088
NI18
stRp2089
(dp2090
g19
I18
sg26
Nsg27
Nsg28
Nsbsg29
I2
sg30
F19
sbs(g9
g1329
tp2091
g1
(g15
g3
NtRp2092
(dp2093
g18
F0.5
sg19
I23
sg20
g1
(g21
g22
(dp2094
NI23
stRp2095
(dp2096
g19
I23
sg26
Nsg27
Nsg28
Nsbsg29
I2
sg30
F24
sbs(g9
g655
tp2097
g1
(g15
g3
NtRp2098
(dp2099
g18
F0.5
sg19
I23
sg20
g1
(g21
g22
(dp2100
NI23
stRp2101
(dp2102
g19
I23
sg26
Nsg27
Nsg28
Nsbsg29
I2
sg30
F24
sbs(g9
g676
tp2103
g1
(g15
g3
NtRp2104
(dp2105
g18
F0.5
sg19
I23
sg20
g1
(g21
g22
(dp2106
NI23
stRp2107
(dp2108
g19
I23
sg26
Nsg27
Nsg28
Nsbsg29
I2
sg30
F24
sbs(g9
g1698
tp2109
g1
(g15
g3
NtRp2110
(dp2111
g18
F0.5
sg19
I23
sg20
g1
(g21
g22
(dp2112
NI23
stRp2113
(dp2114
g19
I23
sg26
Nsg27
Nsg28
Nsbsg29
I2
sg30
F24
sbs(g9
g691
tp2115
g1
(g15
g3
NtRp2116
(dp2117
g18
F0.5
sg19
I23
sg20
g1
(g21
g22
(dp2118
NI23
stRp2119
(dp2120
g19
I23
sg26
Nsg27
Nsg28
Nsbsg29
I2
sg30
F24
sbs(g8
g31
tp2121
g1
(g15
g3
NtRp2122
(dp2123
g18
F0.5
sg19
I60
sg20
g1
(g21
g22
(dp2124
NI60
stRp2125
(dp2126
g19
I60
sg26
Nsg27
Nsg28
Nsbsg29
I2
sg30
F61
sbs(g8
g13
tp2127
g1
(g15
g3
NtRp2128
(dp2129
g18
F0.5
sg19
I60
sg20
g1
(g21
g22
(dp2130
NI60
stRp2131
(dp2132
g19
I60
sg26
Nsg27
Nsg28
Nsbsg29
I2
sg30
F61
sbs(g9
g2035
tp2133
g1
(g15
g3
NtRp2134
(dp2135
g18
F0.5
sg19
I23
sg20
g1
(g21
g22
(dp2136
NI23
stRp2137
(dp2138
g19
I23
sg26
Nsg27
Nsg28
Nsbsg29
I2
sg30
F24
sbs(S'Meaning'
g591
tp2139
g1
(g15
g3
NtRp2140
(dp2141
g18
F0.5
sg19
I60
sg20
g1
(g21
g22
(dp2142
NI59
sI01
I1
stRp2143
(dp2144
g19
I60
sg26
Nsg27
Nsg28
Nsbsg29
I2
sg30
F61
sbs(S'Meaning'
g388
tp2145
g1
(g15
g3
NtRp2146
(dp2147
g18
F0.5
sg19
I60
sg20
g1
(g21
g22
(dp2148
NI59
sI01
I1
stRp2149
(dp2150
g19
I60
sg26
Nsg27
Nsg28
Nsbsg29
I2
sg30
F61
sbs(g516
g698
tp2151
g1
(g15
g3
NtRp2152
(dp2153
g18
F0.5
sg19
I23
sg20
g1
(g21
g22
(dp2154
NI22
sI01
I1
stRp2155
(dp2156
g19
I23
sg26
Nsg27
Nsg28
Nsbsg29
I2
sg30
F24
sbs(g313
S'contains(a)'
tp2157
g1
(g15
g3
NtRp2158
(dp2159
g18
F0.5
sg19
I18
sg20
g1
(g21
g22
(dp2160
NI17
sI01
I1
stRp2161
(dp2162
g19
I18
sg26
Nsg27
Nsg28
Nsbsg29
I2
sg30
F19
sbs(g8
g1604
tp2163
g1
(g15
g3
NtRp2164
(dp2165
g18
F0.5
sg19
I60
sg20
g1
(g21
g22
(dp2166
NI60
stRp2167
(dp2168
g19
I60
sg26
Nsg27
Nsg28
Nsbsg29
I2
sg30
F61
sbs(g9
g1947
tp2169
g1
(g15
g3
NtRp2170
(dp2171
g18
F0.5
sg19
I23
sg20
g1
(g21
g22
(dp2172
NI23
stRp2173
(dp2174
g19
I23
sg26
Nsg27
Nsg28
Nsbsg29
I2
sg30
F24
sbs(g313
g1579
tp2175
g1
(g15
g3
NtRp2176
(dp2177
g18
F0.5
sg19
I18
sg20
g1
(g21
g22
(dp2178
NI17
sI01
I1
stRp2179
(dp2180
g19
I18
sg26
Nsg27
Nsg28
Nsbsg29
I2
sg30
F19
sbs(g10
g264
tp2181
g1
(g15
g3
NtRp2182
(dp2183
g18
F0.5
sg19
I18
sg20
g1
(g21
g22
(dp2184
NI18
stRp2185
(dp2186
g19
I18
sg26
Nsg27
Nsg28
Nsbsg29
I2
sg30
F19
sbs(S'Meaning'
g481
tp2187
g1
(g15
g3
NtRp2188
(dp2189
g18
F0.5
sg19
I60
sg20
g1
(g21
g22
(dp2190
NI59
sI01
I1
stRp2191
(dp2192
g19
I60
sg26
Nsg27
Nsg28
Nsbsg29
I2
sg30
F61
sbs(g10
g523
tp2193
g1
(g15
g3
NtRp2194
(dp2195
g18
F0.5
sg19
I18
sg20
g1
(g21
g22
(dp2196
NI18
stRp2197
(dp2198
g19
I18
sg26
Nsg27
Nsg28
Nsbsg29
I2
sg30
F19
sbs(g10
g1134
tp2199
g1
(g15
g3
NtRp2200
(dp2201
g18
F0.5
sg19
I18
sg20
g1
(g21
g22
(dp2202
NI18
stRp2203
(dp2204
g19
I18
sg26
Nsg27
Nsg28
Nsbsg29
I2
sg30
F19
sbs(g9
g462
tp2205
g1
(g15
g3
NtRp2206
(dp2207
g18
F0.5
sg19
I23
sg20
g1
(g21
g22
(dp2208
NI23
stRp2209
(dp2210
g19
I23
sg26
Nsg27
Nsg28
Nsbsg29
I2
sg30
F24
sbs(S'Meaning'
p2211
g719
tp2212
g1
(g15
g3
NtRp2213
(dp2214
g18
F0.5
sg19
I60
sg20
g1
(g21
g22
(dp2215
NI48
sI01
I12
stRp2216
(dp2217
g19
I60
sg26
Nsg27
Nsg28
Nsbsg29
I2
sg30
F61
sbs(g9
g591
tp2218
g1
(g15
g3
NtRp2219
(dp2220
g18
F0.5
sg19
I23
sg20
g1
(g21
g22
(dp2221
NI23
stRp2222
(dp2223
g19
I23
sg26
Nsg27
Nsg28
Nsbsg29
I2
sg30
F24
sbs(g9
g1852
tp2224
g1
(g15
g3
NtRp2225
(dp2226
g18
F0.5
sg19
I23
sg20
g1
(g21
g22
(dp2227
NI23
stRp2228
(dp2229
g19
I23
sg26
Nsg27
Nsg28
Nsbsg29
I2
sg30
F24
sbs(g9
g229
tp2230
g1
(g15
g3
NtRp2231
(dp2232
g18
F0.5
sg19
I23
sg20
g1
(g21
g22
(dp2233
NI23
stRp2234
(dp2235
g19
I23
sg26
Nsg27
Nsg28
Nsbsg29
I2
sg30
F24
sbs(g8
g1514
tp2236
g1
(g15
g3
NtRp2237
(dp2238
g18
F0.5
sg19
I60
sg20
g1
(g21
g22
(dp2239
NI60
stRp2240
(dp2241
g19
I60
sg26
Nsg27
Nsg28
Nsbsg29
I2
sg30
F61
sbs(g9
g1210
tp2242
g1
(g15
g3
NtRp2243
(dp2244
g18
F0.5
sg19
I23
sg20
g1
(g21
g22
(dp2245
NI23
stRp2246
(dp2247
g19
I23
sg26
Nsg27
Nsg28
Nsbsg29
I2
sg30
F24
sbs(S'Meaning'
p2248
g164
tp2249
g1
(g15
g3
NtRp2250
(dp2251
g18
F0.5
sg19
I60
sg20
g1
(g21
g22
(dp2252
NI59
sI01
I1
stRp2253
(dp2254
g19
I60
sg26
Nsg27
Nsg28
Nsbsg29
I2
sg30
F61
sbs(S'Meaning'
g1489
tp2255
g1
(g15
g3
NtRp2256
(dp2257
g18
F0.5
sg19
I60
sg20
g1
(g21
g22
(dp2258
NI59
sI01
I1
stRp2259
(dp2260
g19
I60
sg26
Nsg27
Nsg28
Nsbsg29
I2
sg30
F61
sbs(g8
g243
tp2261
g1
(g15
g3
NtRp2262
(dp2263
g18
F0.5
sg19
I60
sg20
g1
(g21
g22
(dp2264
NI60
stRp2265
(dp2266
g19
I60
sg26
Nsg27
Nsg28
Nsbsg29
I2
sg30
F61
sbs(g9
S'contains(of)'
tp2267
g1
(g15
g3
NtRp2268
(dp2269
g18
F0.5
sg19
I23
sg20
g1
(g21
g22
(dp2270
I01
I23
stRp2271
(dp2272
g19
I23
sg26
Nsg27
Nsg28
Nsbsg29
I2
sg30
F24
sbs(g9
g496
tp2273
g1
(g15
g3
NtRp2274
(dp2275
g18
F0.5
sg19
I23
sg20
g1
(g21
g22
(dp2276
NI23
stRp2277
(dp2278
g19
I23
sg26
Nsg27
Nsg28
Nsbsg29
I2
sg30
F24
sbs(g8
S'contains(does)'
p2279
tp2280
g1
(g15
g3
NtRp2281
(dp2282
g18
F0.5
sg19
I60
sg20
g1
(g21
g22
(dp2283
NI48
sI01
I12
stRp2284
(dp2285
g19
I60
sg26
Nsg27
Nsg28
Nsbsg29
I2
sg30
F61
sbs(g9
g138
tp2286
g1
(g15
g3
NtRp2287
(dp2288
g18
F0.5
sg19
I23
sg20
g1
(g21
g22
(dp2289
NI22
sI01
I1
stRp2290
(dp2291
g19
I23
sg26
Nsg27
Nsg28
Nsbsg29
I2
sg30
F24
sbs(g291
S'contains(mean)'
tp2292
g1
(g15
g3
NtRp2293
(dp2294
g18
F0.5
sg19
I18
sg20
g1
(g21
g22
(dp2295
NI16
sI01
I2
stRp2296
(dp2297
g19
I18
sg26
Nsg27
Nsg28
Nsbsg29
I2
sg30
F19
sbs(g9
g1821
tp2298
g1
(g15
g3
NtRp2299
(dp2300
g18
F0.5
sg19
I23
sg20
g1
(g21
g22
(dp2301
NI23
stRp2302
(dp2303
g19
I23
sg26
Nsg27
Nsg28
Nsbsg29
I2
sg30
F24
sbs(g10
g214
tp2304
g1
(g15
g3
NtRp2305
(dp2306
g18
F0.5
sg19
I18
sg20
g1
(g21
g22
(dp2307
NI18
stRp2308
(dp2309
g19
I18
sg26
Nsg27
Nsg28
Nsbsg29
I2
sg30
F19
sbs(g9
g1279
tp2310
g1
(g15
g3
NtRp2311
(dp2312
g18
F0.5
sg19
I23
sg20
g1
(g21
g22
(dp2313
NI23
stRp2314
(dp2315
g19
I23
sg26
Nsg27
Nsg28
Nsbsg29
I2
sg30
F24
sbs(g557
S'contains(does)'
tp2316
g1
(g15
g3
NtRp2317
(dp2318
g18
F0.5
sg19
I18
sg20
g1
(g21
g22
(dp2319
NI7
sI01
I11
stRp2320
(dp2321
g19
I18
sg26
Nsg27
Nsg28
Nsbsg29
I2
sg30
F19
sbs(g9
g1065
tp2322
g1
(g15
g3
NtRp2323
(dp2324
g18
F0.5
sg19
I23
sg20
g1
(g21
g22
(dp2325
NI23
stRp2326
(dp2327
g19
I23
sg26
Nsg27
Nsg28
Nsbsg29
I2
sg30
F24
sbs(S'Meaning'
g767
tp2328
g1
(g15
g3
NtRp2329
(dp2330
g18
F0.5
sg19
I60
sg20
g1
(g21
g22
(dp2331
NI59
sI01
I1
stRp2332
(dp2333
g19
I60
sg26
Nsg27
Nsg28
Nsbsg29
I2
sg30
F61
sbs(g10
S'contains(are)'
p2334
tp2335
g1
(g15
g3
NtRp2336
(dp2337
g18
F0.5
sg19
I18
sg20
g1
(g21
g22
(dp2338
NI18
stRp2339
(dp2340
g19
I18
sg26
Nsg27
Nsg28
Nsbsg29
I2
sg30
F19
sbs(g8
g171
tp2341
g1
(g15
g3
NtRp2342
(dp2343
g18
F0.5
sg19
I60
sg20
g1
(g21
g22
(dp2344
NI60
stRp2345
(dp2346
g19
I60
sg26
Nsg27
Nsg28
Nsbsg29
I2
sg30
F61
sbs(g45
g1821
tp2347
g1
(g15
g3
NtRp2348
(dp2349
g18
F0.5
sg19
I60
sg20
g1
(g21
g22
(dp2350
NI59
sI01
I1
stRp2351
(dp2352
g19
I60
sg26
Nsg27
Nsg28
Nsbsg29
I2
sg30
F61
sbs(g8
g1476
tp2353
g1
(g15
g3
NtRp2354
(dp2355
g18
F0.5
sg19
I60
sg20
g1
(g21
g22
(dp2356
NI60
stRp2357
(dp2358
g19
I60
sg26
Nsg27
Nsg28
Nsbsg29
I2
sg30
F61
sbs(S'Meaning'
g284
tp2359
g1
(g15
g3
NtRp2360
(dp2361
g18
F0.5
sg19
I60
sg20
g1
(g21
g22
(dp2362
NI59
sI01
I1
stRp2363
(dp2364
g19
I60
sg26
Nsg27
Nsg28
Nsbsg29
I2
sg30
F61
sbs(S'Meaning'
g950
tp2365
g1
(g15
g3
NtRp2366
(dp2367
g18
F0.5
sg19
I60
sg20
g1
(g21
g22
(dp2368
NI59
sI01
I1
stRp2369
(dp2370
g19
I60
sg26
Nsg27
Nsg28
Nsbsg29
I2
sg30
F61
sbs(g9
S'contains(is)'
tp2371
g1
(g15
g3
NtRp2372
(dp2373
g18
F0.5
sg19
I23
sg20
g1
(g21
g22
(dp2374
NI7
sI01
I16
stRp2375
(dp2376
g19
I23
sg26
Nsg27
Nsg28
Nsbsg29
I2
sg30
F24
sbs(g683
g1802
tp2377
g1
(g15
g3
NtRp2378
(dp2379
g18
F0.5
sg19
I18
sg20
g1
(g21
g22
(dp2380
NI17
sI01
I1
stRp2381
(dp2382
g19
I18
sg26
Nsg27
Nsg28
Nsbsg29
I2
sg30
F19
sbs(g8
g1717
tp2383
g1
(g15
g3
NtRp2384
(dp2385
g18
F0.5
sg19
I60
sg20
g1
(g21
g22
(dp2386
NI60
stRp2387
(dp2388
g19
I60
sg26
Nsg27
Nsg28
Nsbsg29
I2
sg30
F61
sbs(g787
g662
tp2389
g1
(g15
g3
NtRp2390
(dp2391
g18
F0.5
sg19
I60
sg20
g1
(g21
g22
(dp2392
NI59
sI01
I1
stRp2393
(dp2394
g19
I60
sg26
Nsg27
Nsg28
Nsbsg29
I2
sg30
F61
sbs(g9
g374
tp2395
g1
(g15
g3
NtRp2396
(dp2397
g18
F0.5
sg19
I23
sg20
g1
(g21
g22
(dp2398
NI23
stRp2399
(dp2400
g19
I23
sg26
Nsg27
Nsg28
Nsbsg29
I2
sg30
F24
sbs(S'Abbreviation'
g1197
tp2401
g1
(g15
g3
NtRp2402
(dp2403
g18
F0.5
sg19
I18
sg20
g1
(g21
g22
(dp2404
NI17
sI01
I1
stRp2405
(dp2406
g19
I18
sg26
Nsg27
Nsg28
Nsbsg29
I2
sg30
F19
sbs(S'Composition'
g1097
tp2407
g1
(g15
g3
NtRp2408
(dp2409
g18
F0.5
sg19
I23
sg20
g1
(g21
g22
(dp2410
NI22
sI01
I1
stRp2411
(dp2412
g19
I23
sg26
Nsg27
Nsg28
Nsbsg29
I2
sg30
F24
sbs(g298
g1717
tp2413
g1
(g15
g3
NtRp2414
(dp2415
g18
F0.5
sg19
I18
sg20
g1
(g21
g22
(dp2416
NI15
sI01
I3
stRp2417
(dp2418
g19
I18
sg26
Nsg27
Nsg28
Nsbsg29
I2
sg30
F19
sbs(g10
g367
tp2419
g1
(g15
g3
NtRp2420
(dp2421
g18
F0.5
sg19
I18
sg20
g1
(g21
g22
(dp2422
NI18
stRp2423
(dp2424
g19
I18
sg26
Nsg27
Nsg28
Nsbsg29
I2
sg30
F19
sbs(S'Meaning'
g306
tp2425
g1
(g15
g3
NtRp2426
(dp2427
g18
F0.5
sg19
I60
sg20
g1
(g21
g22
(dp2428
NI59
sI01
I1
stRp2429
(dp2430
g19
I60
sg26
Nsg27
Nsg28
Nsbsg29
I2
sg30
F61
sbs(S'Meaning'
g1654
tp2431
g1
(g15
g3
NtRp2432
(dp2433
g18
F0.5
sg19
I60
sg20
g1
(g21
g22
(dp2434
NI58
sI01
I2
stRp2435
(dp2436
g19
I60
sg26
Nsg27
Nsg28
Nsbsg29
I2
sg30
F61
sbs(g10
g1097
tp2437
g1
(g15
g3
NtRp2438
(dp2439
g18
F0.5
sg19
I18
sg20
g1
(g21
g22
(dp2440
NI18
stRp2441
(dp2442
g19
I18
sg26
Nsg27
Nsg28
Nsbsg29
I2
sg30
F19
sbs(g8
g1960
tp2443
g1
(g15
g3
NtRp2444
(dp2445
g18
F0.5
sg19
I60
sg20
g1
(g21
g22
(dp2446
NI60
stRp2447
(dp2448
g19
I60
sg26
Nsg27
Nsg28
Nsbsg29
I2
sg30
F61
sbs(g298
g1008
tp2449
g1
(g15
g3
NtRp2450
(dp2451
g18
F0.5
sg19
I18
sg20
g1
(g21
g22
(dp2452
NI17
sI01
I1
stRp2453
(dp2454
g19
I18
sg26
Nsg27
Nsg28
Nsbsg29
I2
sg30
F19
sbs(S'Meaning'
S'contains(pencil)'
tp2455
g1
(g15
g3
NtRp2456
(dp2457
g18
F0.5
sg19
I60
sg20
g1
(g21
g22
(dp2458
NI59
sI01
I1
stRp2459
(dp2460
g19
I60
sg26
Nsg27
Nsg28
Nsbsg29
I2
sg30
F61
sbs(g8
g1940
tp2461
g1
(g15
g3
NtRp2462
(dp2463
g18
F0.5
sg19
I60
sg20
g1
(g21
g22
(dp2464
NI60
stRp2465
(dp2466
g19
I60
sg26
Nsg27
Nsg28
Nsbsg29
I2
sg30
F61
sbs(g9
g2279
tp2467
g1
(g15
g3
NtRp2468
(dp2469
g18
F0.5
sg19
I23
sg20
g1
(g21
g22
(dp2470
NI23
stRp2471
(dp2472
g19
I23
sg26
Nsg27
Nsg28
Nsbsg29
I2
sg30
F24
sbs(g2248
g192
tp2473
g1
(g15
g3
NtRp2474
(dp2475
g18
F0.5
sg19
I60
sg20
g1
(g21
g22
(dp2476
NI59
sI01
I1
stRp2477
(dp2478
g19
I60
sg26
Nsg27
Nsg28
Nsbsg29
I2
sg30
F61
sbs(g9
g1248
tp2479
g1
(g15
g3
NtRp2480
(dp2481
g18
F0.5
sg19
I23
sg20
g1
(g21
g22
(dp2482
NI23
stRp2483
(dp2484
g19
I23
sg26
Nsg27
Nsg28
Nsbsg29
I2
sg30
F24
sbs(g9
g1540
tp2485
g1
(g15
g3
NtRp2486
(dp2487
g18
F0.5
sg19
I23
sg20
g1
(g21
g22
(dp2488
NI23
stRp2489
(dp2490
g19
I23
sg26
Nsg27
Nsg28
Nsbsg29
I2
sg30
F24
sbs(g10
g171
tp2491
g1
(g15
g3
NtRp2492
(dp2493
g18
F0.5
sg19
I18
sg20
g1
(g21
g22
(dp2494
NI18
stRp2495
(dp2496
g19
I18
sg26
Nsg27
Nsg28
Nsbsg29
I2
sg30
F19
sbs(g66
g2334
tp2497
g1
(g15
g3
NtRp2498
(dp2499
g18
F0.5
sg19
I23
sg20
g1
(g21
g22
(dp2500
NI16
sI01
I7
stRp2501
(dp2502
g19
I23
sg26
Nsg27
Nsg28
Nsbsg29
I2
sg30
F24
sbs(g622
g236
tp2503
g1
(g15
g3
NtRp2504
(dp2505
g18
F0.5
sg19
I60
sg20
g1
(g21
g22
(dp2506
NI45
sI01
I15
stRp2507
(dp2508
g19
I60
sg26
Nsg27
Nsg28
Nsbsg29
I2
sg30
F61
sbs(g8
g74
tp2509
g1
(g15
g3
NtRp2510
(dp2511
g18
F0.5
sg19
I60
sg20
g1
(g21
g22
(dp2512
NI60
stRp2513
(dp2514
g19
I60
sg26
Nsg27
Nsg28
Nsbsg29
I2
sg30
F61
sbs(g10
g236
tp2515
g1
(g15
g3
NtRp2516
(dp2517
g18
F0.5
sg19
I18
sg20
g1
(g21
g22
(dp2518
NI18
stRp2519
(dp2520
g19
I18
sg26
Nsg27
Nsg28
Nsbsg29
I2
sg30
F19
sbs(g10
g257
tp2521
g1
(g15
g3
NtRp2522
(dp2523
g18
F0.5
sg19
I18
sg20
g1
(g21
g22
(dp2524
NI18
stRp2525
(dp2526
g19
I18
sg26
Nsg27
Nsg28
Nsbsg29
I2
sg30
F19
sbs(g9
g131
tp2527
g1
(g15
g3
NtRp2528
(dp2529
g18
F0.5
sg19
I23
sg20
g1
(g21
g22
(dp2530
NI23
stRp2531
(dp2532
g19
I23
sg26
Nsg27
Nsg28
Nsbsg29
I2
sg30
F24
sbs(g8
g813
tp2533
g1
(g15
g3
NtRp2534
(dp2535
g18
F0.5
sg19
I60
sg20
g1
(g21
g22
(dp2536
NI60
stRp2537
(dp2538
g19
I60
sg26
Nsg27
Nsg28
Nsbsg29
I2
sg30
F61
sbs(S'Meaning'
g1852
tp2539
g1
(g15
g3
NtRp2540
(dp2541
g18
F0.5
sg19
I60
sg20
g1
(g21
g22
(dp2542
NI59
sI01
I1
stRp2543
(dp2544
g19
I60
sg26
Nsg27
Nsg28
Nsbsg29
I2
sg30
F61
sbs(g9
g117
tp2545
g1
(g15
g3
NtRp2546
(dp2547
g18
F0.5
sg19
I23
sg20
g1
(g21
g22
(dp2548
NI23
stRp2549
(dp2550
g19
I23
sg26
Nsg27
Nsg28
Nsbsg29
I2
sg30
F24
sbs(g9
g1560
tp2551
g1
(g15
g3
NtRp2552
(dp2553
g18
F0.5
sg19
I23
sg20
g1
(g21
g22
(dp2554
NI23
stRp2555
(dp2556
g19
I23
sg26
Nsg27
Nsg28
Nsbsg29
I2
sg30
F24
sbs(S'Meaning'
g2028
tp2557
g1
(g15
g3
NtRp2558
(dp2559
g18
F0.5
sg19
I60
sg20
g1
(g21
g22
(dp2560
NI59
sI01
I1
stRp2561
(dp2562
g19
I60
sg26
Nsg27
Nsg28
Nsbsg29
I2
sg30
F61
sbs(g88
g1476
tp2563
g1
(g15
g3
NtRp2564
(dp2565
g18
F0.5
sg19
I18
sg20
g1
(g21
g22
(dp2566
NI17
sI01
I1
stRp2567
(dp2568
g19
I18
sg26
Nsg27
Nsg28
Nsbsg29
I2
sg30
F19
sbs(S'Meaning'
g732
tp2569
g1
(g15
g3
NtRp2570
(dp2571
g18
F0.5
sg19
I60
sg20
g1
(g21
g22
(dp2572
NI59
sI01
I1
stRp2573
(dp2574
g19
I60
sg26
Nsg27
Nsg28
Nsbsg29
I2
sg30
F61
sbs(g622
S'contains(is)'
tp2575
g1
(g15
g3
NtRp2576
(dp2577
g18
F0.5
sg19
I60
sg20
g1
(g21
g22
(dp2578
NI33
sI01
I27
stRp2579
(dp2580
g19
I60
sg26
Nsg27
Nsg28
Nsbsg29
I2
sg30
F61
sbs(g313
g1184
tp2581
g1
(g15
g3
NtRp2582
(dp2583
g18
F0.5
sg19
I18
sg20
g1
(g21
g22
(dp2584
NI17
sI01
I1
stRp2585
(dp2586
g19
I18
sg26
Nsg27
Nsg28
Nsbsg29
I2
sg30
F19
sbs(g8
g124
tp2587
g1
(g15
g3
NtRp2588
(dp2589
g18
F0.5
sg19
I60
sg20
g1
(g21
g22
(dp2590
NI59
sI01
I1
stRp2591
(dp2592
g19
I60
sg26
Nsg27
Nsg28
Nsbsg29
I2
sg30
F61
sbs(g975
g38
tp2593
g1
(g15
g3
NtRp2594
(dp2595
g18
F0.5
sg19
I18
sg20
g1
(g21
g22
(dp2596
NI17
sI01
I1
stRp2597
(dp2598
g19
I18
sg26
Nsg27
Nsg28
Nsbsg29
I2
sg30
F19
sbs(g10
g124
tp2599
g1
(g15
g3
NtRp2600
(dp2601
g18
F0.5
sg19
I18
sg20
g1
(g21
g22
(dp2602
NI18
stRp2603
(dp2604
g19
I18
sg26
Nsg27
Nsg28
Nsbsg29
I2
sg30
F19
sbs(g8
g1560
tp2605
g1
(g15
g3
NtRp2606
(dp2607
g18
F0.5
sg19
I60
sg20
g1
(g21
g22
(dp2608
NI60
stRp2609
(dp2610
g19
I60
sg26
Nsg27
Nsg28
Nsbsg29
I2
sg30
F61
sbs(g9
g1489
tp2611
g1
(g15
g3
NtRp2612
(dp2613
g18
F0.5
sg19
I23
sg20
g1
(g21
g22
(dp2614
NI23
stRp2615
(dp2616
g19
I23
sg26
Nsg27
Nsg28
Nsbsg29
I2
sg30
F24
sbs(S'Meaning'
g930
tp2617
g1
(g15
g3
NtRp2618
(dp2619
g18
F0.5
sg19
I60
sg20
g1
(g21
g22
(dp2620
NI59
sI01
I1
stRp2621
(dp2622
g19
I60
sg26
Nsg27
Nsg28
Nsbsg29
I2
sg30
F61
sbs(g10
g1947
tp2623
g1
(g15
g3
NtRp2624
(dp2625
g18
F0.5
sg19
I18
sg20
g1
(g21
g22
(dp2626
NI18
stRp2627
(dp2628
g19
I18
sg26
Nsg27
Nsg28
Nsbsg29
I2
sg30
F19
sbs(S'Meaning'
g648
tp2629
g1
(g15
g3
NtRp2630
(dp2631
g18
F0.5
sg19
I60
sg20
g1
(g21
g22
(dp2632
NI59
sI01
I1
stRp2633
(dp2634
g19
I60
sg26
Nsg27
Nsg28
Nsbsg29
I2
sg30
F61
sbs(g9
g767
tp2635
g1
(g15
g3
NtRp2636
(dp2637
g18
F0.5
sg19
I23
sg20
g1
(g21
g22
(dp2638
NI23
stRp2639
(dp2640
g19
I23
sg26
Nsg27
Nsg28
Nsbsg29
I2
sg30
F24
sbs(g10
g840
tp2641
g1
(g15
g3
NtRp2642
(dp2643
g18
F0.5
sg19
I18
sg20
g1
(g21
g22
(dp2644
NI18
stRp2645
(dp2646
g19
I18
sg26
Nsg27
Nsg28
Nsbsg29
I2
sg30
F19
sbs(g9
g264
tp2647
g1
(g15
g3
NtRp2648
(dp2649
g18
F0.5
sg19
I23
sg20
g1
(g21
g22
(dp2650
NI23
stRp2651
(dp2652
g19
I23
sg26
Nsg27
Nsg28
Nsbsg29
I2
sg30
F24
sbs(g9
g1579
tp2653
g1
(g15
g3
NtRp2654
(dp2655
g18
F0.5
sg19
I23
sg20
g1
(g21
g22
(dp2656
NI23
stRp2657
(dp2658
g19
I23
sg26
Nsg27
Nsg28
Nsbsg29
I2
sg30
F24
sbs(g10
g655
tp2659
g1
(g15
g3
NtRp2660
(dp2661
g18
F0.5
sg19
I18
sg20
g1
(g21
g22
(dp2662
NI18
stRp2663
(dp2664
g19
I18
sg26
Nsg27
Nsg28
Nsbsg29
I2
sg30
F19
sbs(g8
g2072
tp2665
g1
(g15
g3
NtRp2666
(dp2667
g18
F0.5
sg19
I60
sg20
g1
(g21
g22
(dp2668
NI60
stRp2669
(dp2670
g19
I60
sg26
Nsg27
Nsg28
Nsbsg29
I2
sg30
F61
sbs(g10
S'contains(of)'
tp2671
g1
(g15
g3
NtRp2672
(dp2673
g18
F0.5
sg19
I18
sg20
g1
(g21
g22
(dp2674
NI14
sI01
I4
stRp2675
(dp2676
g19
I18
sg26
Nsg27
Nsg28
Nsbsg29
I2
sg30
F19
sbs(g1697
g1469
tp2677
g1
(g15
g3
NtRp2678
(dp2679
g18
F0.5
sg19
I60
sg20
g1
(g21
g22
(dp2680
NI59
sI01
I1
stRp2681
(dp2682
g19
I60
sg26
Nsg27
Nsg28
Nsbsg29
I2
sg30
F61
sbs(g10
g1641
tp2683
g1
(g15
g3
NtRp2684
(dp2685
g18
F0.5
sg19
I18
sg20
g1
(g21
g22
(dp2686
NI17
sI01
I1
stRp2687
(dp2688
g19
I18
sg26
Nsg27
Nsg28
Nsbsg29
I2
sg30
F19
sbs(g10
g2072
tp2689
g1
(g15
g3
NtRp2690
(dp2691
g18
F0.5
sg19
I18
sg20
g1
(g21
g22
(dp2692
NI18
stRp2693
(dp2694
g19
I18
sg26
Nsg27
Nsg28
Nsbsg29
I2
sg30
F19
sbs(S'Composition'
g1360
tp2695
g1
(g15
g3
NtRp2696
(dp2697
g18
F0.5
sg19
I23
sg20
g1
(g21
g22
(dp2698
NI22
sI01
I1
stRp2699
(dp2700
g19
I23
sg26
Nsg27
Nsg28
Nsbsg29
I2
sg30
F24
sbs(S'Meaning'
p2701
g131
tp2702
g1
(g15
g3
NtRp2703
(dp2704
g18
F0.5
sg19
I60
sg20
g1
(g21
g22
(dp2705
NI59
sI01
I1
stRp2706
(dp2707
g19
I60
sg26
Nsg27
Nsg28
Nsbsg29
I2
sg30
F61
sbs(g9
g747
tp2708
g1
(g15
g3
NtRp2709
(dp2710
g18
F0.5
sg19
I23
sg20
g1
(g21
g22
(dp2711
NI23
stRp2712
(dp2713
g19
I23
sg26
Nsg27
Nsg28
Nsbsg29
I2
sg30
F24
sbs(S'Meaning'
g328
tp2714
g1
(g15
g3
NtRp2715
(dp2716
g18
F0.5
sg19
I60
sg20
g1
(g21
g22
(dp2717
NI59
sI01
I1
stRp2718
(dp2719
g19
I60
sg26
Nsg27
Nsg28
Nsbsg29
I2
sg30
F61
sbs(g2701
g110
tp2720
g1
(g15
g3
NtRp2721
(dp2722
g18
F0.5
sg19
I60
sg20
g1
(g21
g22
(dp2723
NI59
sI01
I1
stRp2724
(dp2725
g19
I60
sg26
Nsg27
Nsg28
Nsbsg29
I2
sg30
F61
sbs(g313
g1040
tp2726
g1
(g15
g3
NtRp2727
(dp2728
g18
F0.5
sg19
I18
sg20
g1
(g21
g22
(dp2729
NI17
sI01
I1
stRp2730
(dp2731
g19
I18
sg26
Nsg27
Nsg28
Nsbsg29
I2
sg30
F19
sbs(g2211
g2035
tp2732
g1
(g15
g3
NtRp2733
(dp2734
g18
F0.5
sg19
I60
sg20
g1
(g21
g22
(dp2735
NI59
sI01
I1
stRp2736
(dp2737
g19
I60
sg26
Nsg27
Nsg28
Nsbsg29
I2
sg30
F61
sbs(g9
g2028
tp2738
g1
(g15
g3
NtRp2739
(dp2740
g18
F0.5
sg19
I23
sg20
g1
(g21
g22
(dp2741
NI23
stRp2742
(dp2743
g19
I23
sg26
Nsg27
Nsg28
Nsbsg29
I2
sg30
F24
sbs(g9
g1641
tp2744
g1
(g15
g3
NtRp2745
(dp2746
g18
F0.5
sg19
I23
sg20
g1
(g21
g22
(dp2747
NI23
stRp2748
(dp2749
g19
I23
sg26
Nsg27
Nsg28
Nsbsg29
I2
sg30
F24
sbs(g1890
g157
tp2750
g1
(g15
g3
NtRp2751
(dp2752
g18
F0.5
sg19
I60
sg20
g1
(g21
g22
(dp2753
NI55
sI01
I5
stRp2754
(dp2755
g19
I60
sg26
Nsg27
Nsg28
Nsbsg29
I2
sg30
F61
sbs(g10
g199
tp2756
g1
(g15
g3
NtRp2757
(dp2758
g18
F0.5
sg19
I18
sg20
g1
(g21
g22
(dp2759
NI18
stRp2760
(dp2761
g19
I18
sg26
Nsg27
Nsg28
Nsbsg29
I2
sg30
F19
sbs(g9
g1859
tp2762
g1
(g15
g3
NtRp2763
(dp2764
g18
F0.5
sg19
I23
sg20
g1
(g21
g22
(dp2765
I01
I23
stRp2766
(dp2767
g19
I23
sg26
Nsg27
Nsg28
Nsbsg29
I2
sg30
F24
sbs(S'Meaning'
g1021
tp2768
g1
(g15
g3
NtRp2769
(dp2770
g18
F0.5
sg19
I60
sg20
g1
(g21
g22
(dp2771
NI59
sI01
I1
stRp2772
(dp2773
g19
I60
sg26
Nsg27
Nsg28
Nsbsg29
I2
sg30
F61
sbs(g8
g867
tp2774
g1
(g15
g3
NtRp2775
(dp2776
g18
F0.5
sg19
I60
sg20
g1
(g21
g22
(dp2777
NI60
stRp2778
(dp2779
g19
I60
sg26
Nsg27
Nsg28
Nsbsg29
I2
sg30
F61
sbs(g10
g1547
tp2780
g1
(g15
g3
NtRp2781
(dp2782
g18
F0.5
sg19
I18
sg20
g1
(g21
g22
(dp2783
NI18
stRp2784
(dp2785
g19
I18
sg26
Nsg27
Nsg28
Nsbsg29
I2
sg30
F19
sbs(g9
g712
tp2786
g1
(g15
g3
NtRp2787
(dp2788
g18
F0.5
sg19
I23
sg20
g1
(g21
g22
(dp2789
NI23
stRp2790
(dp2791
g19
I23
sg26
Nsg27
Nsg28
Nsbsg29
I2
sg30
F24
sbs(g9
g1040
tp2792
g1
(g15
g3
NtRp2793
(dp2794
g18
F0.5
sg19
I23
sg20
g1
(g21
g22
(dp2795
NI23
stRp2796
(dp2797
g19
I23
sg26
Nsg27
Nsg28
Nsbsg29
I2
sg30
F24
sbs(g10
g747
tp2798
g1
(g15
g3
NtRp2799
(dp2800
g18
F0.5
sg19
I18
sg20
g1
(g21
g22
(dp2801
NI18
stRp2802
(dp2803
g19
I18
sg26
Nsg27
Nsg28
Nsbsg29
I2
sg30
F19
sbs(g9
g684
tp2804
g1
(g15
g3
NtRp2805
(dp2806
g18
F0.5
sg19
I23
sg20
g1
(g21
g22
(dp2807
NI23
stRp2808
(dp2809
g19
I23
sg26
Nsg27
Nsg28
Nsbsg29
I2
sg30
F24
sbs(S'Composition'
g1960
tp2810
g1
(g15
g3
NtRp2811
(dp2812
g18
F0.5
sg19
I23
sg20
g1
(g21
g22
(dp2813
NI22
sI01
I1
stRp2814
(dp2815
g19
I23
sg26
Nsg27
Nsg28
Nsbsg29
I2
sg30
F24
sbs(g10
g648
tp2816
g1
(g15
g3
NtRp2817
(dp2818
g18
F0.5
sg19
I18
sg20
g1
(g21
g22
(dp2819
NI18
stRp2820
(dp2821
g19
I18
sg26
Nsg27
Nsg28
Nsbsg29
I2
sg30
F19
sbs(g9
g577
tp2822
g1
(g15
g3
NtRp2823
(dp2824
g18
F0.5
sg19
I23
sg20
g1
(g21
g22
(dp2825
NI23
stRp2826
(dp2827
g19
I23
sg26
Nsg27
Nsg28
Nsbsg29
I2
sg30
F24
sbs(g9
g1940
tp2828
g1
(g15
g3
NtRp2829
(dp2830
g18
F0.5
sg19
I23
sg20
g1
(g21
g22
(dp2831
NI23
stRp2832
(dp2833
g19
I23
sg26
Nsg27
Nsg28
Nsbsg29
I2
sg30
F24
sbs(g8
g1322
tp2834
g1
(g15
g3
NtRp2835
(dp2836
g18
F0.5
sg19
I60
sg20
g1
(g21
g22
(dp2837
NI60
stRp2838
(dp2839
g19
I60
sg26
Nsg27
Nsg28
Nsbsg29
I2
sg30
F61
sbs(S'Abbreviation'
g1229
tp2840
g1
(g15
g3
NtRp2841
(dp2842
g18
F0.5
sg19
I18
sg20
g1
(g21
g22
(dp2843
NI17
sI01
I1
stRp2844
(dp2845
g19
I18
sg26
Nsg27
Nsg28
Nsbsg29
I2
sg30
F19
sbs(g9
g1654
tp2846
g1
(g15
g3
NtRp2847
(dp2848
g18
F0.5
sg19
I23
sg20
g1
(g21
g22
(dp2849
NI23
stRp2850
(dp2851
g19
I23
sg26
Nsg27
Nsg28
Nsbsg29
I2
sg30
F24
sbssS'_label_probdist'
p2852
g1
(g15
g3
NtRp2853
(dp2854
g18
F0.5
sg19
I101
sg20
g1
(g21
g22
(dp2855
g10
I18
sg8
I60
sg9
I23
stRp2856
(dp2857
g19
I101
sg26
Nsg27
(lp2858
(g8
I60
tp2859
a(g9
I23
tp2860
a(g10
I18
tp2861
asg28
Nsbsg29
I3
sg30
F102.5
sbsb.