ccopy_reg
_reconstructor
p1
(cnltk.classify.naivebayes
NaiveBayesClassifier
p2
c__builtin__
object
p3
NtRp4
(dp5
S'_labels'
p6
(lp7
S'Abbreviation'
p8
aS'Meaning'
p9
aS'Composition'
p10
asS'_feature_probdist'
p11
(dp12
(S'Composition'
S'contains(batteries)'
p13
tp14
g1
(cnltk.probability
ELEProbDist
p15
g3
NtRp16
(dp17
S'_gamma'
p18
F0.5
sS'_N'
p19
I15
sS'_freqdist'
p20
cnltk.probability
FreqDist
p21
((dp22
I01
I1
sNI14
stRp23
sS'_bins'
p24
I2
sS'_divisor'
p25
F16
sbs(g9
S'contains(db)'
p26
tp27
g1
(g15
g3
NtRp28
(dp29
g18
F0.5
sg19
I92
sg20
g21
((dp30
NI92
stRp31
sg24
I2
sg25
F93
sbs(S'Meaning'
p32
S'contains(are)'
tp33
g1
(g15
g3
NtRp34
(dp35
g18
F0.5
sg19
I92
sg20
g21
((dp36
I01
I9
sNI83
stRp37
sg24
I2
sg25
F93
sbs(S'Meaning'
S'contains(ground)'
p38
tp39
g1
(g15
g3
NtRp40
(dp41
g18
F0.5
sg19
I92
sg20
g21
((dp42
I01
I1
sNI91
stRp43
sg24
I2
sg25
F93
sbs(g10
S'contains(dogs)'
p44
tp45
g1
(g15
g3
NtRp46
(dp47
g18
F0.5
sg19
I15
sg20
g21
((dp48
NI15
stRp49
sg24
I2
sg25
F16
sbs(S'Abbreviation'
S'contains(png)'
p50
tp51
g1
(g15
g3
NtRp52
(dp53
g18
F0.5
sg19
I51
sg20
g21
((dp54
I01
I1
sNI50
stRp55
sg24
I2
sg25
F52
sbs(S'Meaning'
S'contains(joker)'
p56
tp57
g1
(g15
g3
NtRp58
(dp59
g18
F0.5
sg19
I92
sg20
g21
((dp60
I01
I1
sNI91
stRp61
sg24
I2
sg25
F93
sbs(g8
S'contains(lockers)'
p62
tp63
g1
(g15
g3
NtRp64
(dp65
g18
F0.5
sg19
I51
sg20
g21
((dp66
NI51
stRp67
sg24
I2
sg25
F52
sbs(S'Abbreviation'
S'contains(ip)'
p68
tp69
g1
(g15
g3
NtRp70
(dp71
g18
F0.5
sg19
I51
sg20
g21
((dp72
I01
I1
sNI50
stRp73
sg24
I2
sg25
F52
sbs(g9
S'contains(aids)'
p74
tp75
g1
(g15
g3
NtRp76
(dp77
g18
F0.5
sg19
I92
sg20
g21
((dp78
NI92
stRp79
sg24
I2
sg25
F93
sbs(S'Abbreviation'
p80
S'contains(motors)'
p81
tp82
g1
(g15
g3
NtRp83
(dp84
g18
F0.5
sg19
I51
sg20
g21
((dp85
I01
I1
sNI50
stRp86
sg24
I2
sg25
F52
sbs(S'Composition'
p87
S'contains(a)'
tp88
g1
(g15
g3
NtRp89
(dp90
g18
F0.5
sg19
I15
sg20
g21
((dp91
I01
I1
sNI14
stRp92
sg24
I2
sg25
F16
sbs(g10
S'contains(stand)'
p93
tp94
g1
(g15
g3
NtRp95
(dp96
g18
F0.5
sg19
I15
sg20
g21
((dp97
NI15
stRp98
sg24
I2
sg25
F16
sbs(g8
S'contains(broke)'
p99
tp100
g1
(g15
g3
NtRp101
(dp102
g18
F0.5
sg19
I51
sg20
g21
((dp103
NI51
stRp104
sg24
I2
sg25
F52
sbs(S'Meaning'
S'contains(paper)'
p105
tp106
g1
(g15
g3
NtRp107
(dp108
g18
F0.5
sg19
I92
sg20
g21
((dp109
I01
I1
sNI91
stRp110
sg24
I2
sg25
F93
sbs(g10
S'contains(fifo)'
p111
tp112
g1
(g15
g3
NtRp113
(dp114
g18
F0.5
sg19
I15
sg20
g21
((dp115
NI15
stRp116
sg24
I2
sg25
F16
sbs(g8
S'contains(bad)'
p117
tp118
g1
(g15
g3
NtRp119
(dp120
g18
F0.5
sg19
I51
sg20
g21
((dp121
NI51
stRp122
sg24
I2
sg25
F52
sbs(g10
g26
tp123
g1
(g15
g3
NtRp124
(dp125
g18
F0.5
sg19
I15
sg20
g21
((dp126
NI15
stRp127
sg24
I2
sg25
F16
sbs(g10
S'contains(war)'
p128
tp129
g1
(g15
g3
NtRp130
(dp131
g18
F0.5
sg19
I15
sg20
g21
((dp132
NI15
stRp133
sg24
I2
sg25
F16
sbs(g8
S'contains(ass)'
p134
tp135
g1
(g15
g3
NtRp136
(dp137
g18
F0.5
sg19
I51
sg20
g21
((dp138
NI51
stRp139
sg24
I2
sg25
F52
sbs(S'Abbreviation'
S'contains(nsa)'
p140
tp141
g1
(g15
g3
NtRp142
(dp143
g18
F0.5
sg19
I51
sg20
g21
((dp144
I01
I1
sNI50
stRp145
sg24
I2
sg25
F52
sbs(g10
g38
tp146
g1
(g15
g3
NtRp147
(dp148
g18
F0.5
sg19
I15
sg20
g21
((dp149
NI15
stRp150
sg24
I2
sg25
F16
sbs(g10
S'contains(an)'
p151
tp152
g1
(g15
g3
NtRp153
(dp154
g18
F0.5
sg19
I15
sg20
g21
((dp155
NI15
stRp156
sg24
I2
sg25
F16
sbs(g8
S'contains(dunkin)'
p157
tp158
g1
(g15
g3
NtRp159
(dp160
g18
F0.5
sg19
I51
sg20
g21
((dp161
NI51
stRp162
sg24
I2
sg25
F52
sbs(S'Composition'
S'contains(plastic)'
p163
tp164
g1
(g15
g3
NtRp165
(dp166
g18
F0.5
sg19
I15
sg20
g21
((dp167
I01
I1
sNI14
stRp168
sg24
I2
sg25
F16
sbs(S'Meaning'
S'contains(cars)'
p169
tp170
g1
(g15
g3
NtRp171
(dp172
g18
F0.5
sg19
I92
sg20
g21
((dp173
I01
I1
sNI91
stRp174
sg24
I2
sg25
F93
sbs(g8
S'contains(gratinate)'
p175
tp176
g1
(g15
g3
NtRp177
(dp178
g18
F0.5
sg19
I51
sg20
g21
((dp179
NI51
stRp180
sg24
I2
sg25
F52
sbs(g8
S'contains(donuts)'
p181
tp182
g1
(g15
g3
NtRp183
(dp184
g18
F0.5
sg19
I51
sg20
g21
((dp185
NI51
stRp186
sg24
I2
sg25
F52
sbs(S'Abbreviation'
S'contains(dl)'
p187
tp188
g1
(g15
g3
NtRp189
(dp190
g18
F0.5
sg19
I51
sg20
g21
((dp191
I01
I1
sNI50
stRp192
sg24
I2
sg25
F52
sbs(S'Meaning'
S'contains(wtf)'
p193
tp194
g1
(g15
g3
NtRp195
(dp196
g18
F0.5
sg19
I92
sg20
g21
((dp197
I01
I1
sNI91
stRp198
sg24
I2
sg25
F93
sbs(g9
S'contains(eenty)'
p199
tp200
g1
(g15
g3
NtRp201
(dp202
g18
F0.5
sg19
I92
sg20
g21
((dp203
NI92
stRp204
sg24
I2
sg25
F93
sbs(g8
S'contains(pencil)'
p205
tp206
g1
(g15
g3
NtRp207
(dp208
g18
F0.5
sg19
I51
sg20
g21
((dp209
NI51
stRp210
sg24
I2
sg25
F52
sbs(g10
S'contains(micro)'
p211
tp212
g1
(g15
g3
NtRp213
(dp214
g18
F0.5
sg19
I15
sg20
g21
((dp215
NI15
stRp216
sg24
I2
sg25
F16
sbs(S'Abbreviation'
p217
S'contains(m)'
p218
tp219
g1
(g15
g3
NtRp220
(dp221
g18
F0.5
sg19
I51
sg20
g21
((dp222
I01
I1
sNI50
stRp223
sg24
I2
sg25
F52
sbs(g10
S'contains(meaning)'
p224
tp225
g1
(g15
g3
NtRp226
(dp227
g18
F0.5
sg19
I15
sg20
g21
((dp228
NI15
stRp229
sg24
I2
sg25
F16
sbs(g10
S'contains(yolo)'
p230
tp231
g1
(g15
g3
NtRp232
(dp233
g18
F0.5
sg19
I15
sg20
g21
((dp234
NI15
stRp235
sg24
I2
sg25
F16
sbs(g10
S'contains(doors)'
p236
tp237
g1
(g15
g3
NtRp238
(dp239
g18
F0.5
sg19
I15
sg20
g21
((dp240
NI15
stRp241
sg24
I2
sg25
F16
sbs(S'Meaning'
S'contains(rock)'
p242
tp243
g1
(g15
g3
NtRp244
(dp245
g18
F0.5
sg19
I92
sg20
g21
((dp246
I01
I1
sNI91
stRp247
sg24
I2
sg25
F93
sbs(g10
g169
tp248
g1
(g15
g3
NtRp249
(dp250
g18
F0.5
sg19
I15
sg20
g21
((dp251
NI15
stRp252
sg24
I2
sg25
F16
sbs(g10
S'contains(for)'
p253
tp254
g1
(g15
g3
NtRp255
(dp256
g18
F0.5
sg19
I15
sg20
g21
((dp257
NI15
stRp258
sg24
I2
sg25
F16
sbs(g8
S'contains(purse)'
p259
tp260
g1
(g15
g3
NtRp261
(dp262
g18
F0.5
sg19
I51
sg20
g21
((dp263
NI51
stRp264
sg24
I2
sg25
F52
sbs(S'Abbreviation'
p265
S'contains(word)'
tp266
g1
(g15
g3
NtRp267
(dp268
g18
F0.5
sg19
I51
sg20
g21
((dp269
I01
I2
sNI49
stRp270
sg24
I2
sg25
F52
sbs(S'Abbreviation'
p271
S'contains(cross)'
p272
tp273
g1
(g15
g3
NtRp274
(dp275
g18
F0.5
sg19
I51
sg20
g21
((dp276
I01
I1
sNI50
stRp277
sg24
I2
sg25
F52
sbs(g10
S'contains(girl)'
p278
tp279
g1
(g15
g3
NtRp280
(dp281
g18
F0.5
sg19
I15
sg20
g21
((dp282
NI15
stRp283
sg24
I2
sg25
F16
sbs(g10
S'contains(clarity)'
p284
tp285
g1
(g15
g3
NtRp286
(dp287
g18
F0.5
sg19
I15
sg20
g21
((dp288
NI15
stRp289
sg24
I2
sg25
F16
sbs(S'Abbreviation'
p290
S'contains(surnames)'
p291
tp292
g1
(g15
g3
NtRp293
(dp294
g18
F0.5
sg19
I51
sg20
g21
((dp295
I01
I1
sNI50
stRp296
sg24
I2
sg25
F52
sbs(g9
S'contains(abbreviated)'
p297
tp298
g1
(g15
g3
NtRp299
(dp300
g18
F0.5
sg19
I92
sg20
g21
((dp301
NI92
stRp302
sg24
I2
sg25
F93
sbs(g8
S'contains(street)'
p303
tp304
g1
(g15
g3
NtRp305
(dp306
g18
F0.5
sg19
I51
sg20
g21
((dp307
NI51
stRp308
sg24
I2
sg25
F52
sbs(g8
S'contains(hog)'
p309
tp310
g1
(g15
g3
NtRp311
(dp312
g18
F0.5
sg19
I51
sg20
g21
((dp313
NI51
stRp314
sg24
I2
sg25
F52
sbs(S'Abbreviation'
S'contains(sids)'
p315
tp316
g1
(g15
g3
NtRp317
(dp318
g18
F0.5
sg19
I51
sg20
g21
((dp319
I01
I1
sNI50
stRp320
sg24
I2
sg25
F52
sbs(g8
S'contains(is)'
tp321
g1
(g15
g3
NtRp322
(dp323
g18
F0.5
sg19
I51
sg20
g21
((dp324
I01
I24
sNI27
stRp325
sg24
I2
sg25
F52
sbs(g8
g284
tp326
g1
(g15
g3
NtRp327
(dp328
g18
F0.5
sg19
I51
sg20
g21
((dp329
NI51
stRp330
sg24
I2
sg25
F52
sbs(g9
g253
tp331
g1
(g15
g3
NtRp332
(dp333
g18
F0.5
sg19
I92
sg20
g21
((dp334
NI92
stRp335
sg24
I2
sg25
F93
sbs(g8
g169
tp336
g1
(g15
g3
NtRp337
(dp338
g18
F0.5
sg19
I51
sg20
g21
((dp339
NI51
stRp340
sg24
I2
sg25
F52
sbs(S'Meaning'
S'contains(chicken)'
p341
tp342
g1
(g15
g3
NtRp343
(dp344
g18
F0.5
sg19
I92
sg20
g21
((dp345
I01
I1
sNI91
stRp346
sg24
I2
sg25
F93
sbs(g10
S'contains(stupid)'
p347
tp348
g1
(g15
g3
NtRp349
(dp350
g18
F0.5
sg19
I15
sg20
g21
((dp351
NI15
stRp352
sg24
I2
sg25
F16
sbs(S'Meaning'
S'contains(player)'
p353
tp354
g1
(g15
g3
NtRp355
(dp356
g18
F0.5
sg19
I92
sg20
g21
((dp357
I01
I1
sNI91
stRp358
sg24
I2
sg25
F93
sbs(g10
S'contains(in)'
p359
tp360
g1
(g15
g3
NtRp361
(dp362
g18
F0.5
sg19
I15
sg20
g21
((dp363
NI15
stRp364
sg24
I2
sg25
F16
sbs(g9
S'contains(dsn)'
p365
tp366
g1
(g15
g3
NtRp367
(dp368
g18
F0.5
sg19
I92
sg20
g21
((dp369
NI92
stRp370
sg24
I2
sg25
F93
sbs(g10
S'contains(4g)'
p371
tp372
g1
(g15
g3
NtRp373
(dp374
g18
F0.5
sg19
I15
sg20
g21
((dp375
NI15
stRp376
sg24
I2
sg25
F16
sbs(g10
g291
tp377
g1
(g15
g3
NtRp378
(dp379
g18
F0.5
sg19
I15
sg20
g21
((dp380
NI15
stRp381
sg24
I2
sg25
F16
sbs(S'Meaning'
S'contains(eye)'
p382
tp383
g1
(g15
g3
NtRp384
(dp385
g18
F0.5
sg19
I92
sg20
g21
((dp386
I01
I1
sNI91
stRp387
sg24
I2
sg25
F93
sbs(g9
S'contains(full)'
p388
tp389
g1
(g15
g3
NtRp390
(dp391
g18
F0.5
sg19
I92
sg20
g21
((dp392
NI92
stRp393
sg24
I2
sg25
F93
sbs(g9
S'contains(mouse)'
p394
tp395
g1
(g15
g3
NtRp396
(dp397
g18
F0.5
sg19
I92
sg20
g21
((dp398
NI92
stRp399
sg24
I2
sg25
F93
sbs(g9
S'contains(locks)'
p400
tp401
g1
(g15
g3
NtRp402
(dp403
g18
F0.5
sg19
I92
sg20
g21
((dp404
NI92
stRp405
sg24
I2
sg25
F93
sbs(g9
S'contains(investigation)'
p406
tp407
g1
(g15
g3
NtRp408
(dp409
g18
F0.5
sg19
I92
sg20
g21
((dp410
NI92
stRp411
sg24
I2
sg25
F93
sbs(g8
S'contains(homogeneous)'
p412
tp413
g1
(g15
g3
NtRp414
(dp415
g18
F0.5
sg19
I51
sg20
g21
((dp416
NI51
stRp417
sg24
I2
sg25
F52
sbs(g10
S'contains(animal)'
p418
tp419
g1
(g15
g3
NtRp420
(dp421
g18
F0.5
sg19
I15
sg20
g21
((dp422
NI15
stRp423
sg24
I2
sg25
F16
sbs(g9
g359
tp424
g1
(g15
g3
NtRp425
(dp426
g18
F0.5
sg19
I92
sg20
g21
((dp427
NI92
stRp428
sg24
I2
sg25
F93
sbs(g9
S'contains(nasdaq)'
p429
tp430
g1
(g15
g3
NtRp431
(dp432
g18
F0.5
sg19
I92
sg20
g21
((dp433
NI92
stRp434
sg24
I2
sg25
F93
sbs(g9
S'contains(chap)'
p435
tp436
g1
(g15
g3
NtRp437
(dp438
g18
F0.5
sg19
I92
sg20
g21
((dp439
NI92
stRp440
sg24
I2
sg25
F93
sbs(g8
g38
tp441
g1
(g15
g3
NtRp442
(dp443
g18
F0.5
sg19
I51
sg20
g21
((dp444
NI51
stRp445
sg24
I2
sg25
F52
sbs(g10
g382
tp446
g1
(g15
g3
NtRp447
(dp448
g18
F0.5
sg19
I15
sg20
g21
((dp449
NI15
stRp450
sg24
I2
sg25
F16
sbs(g8
S'contains(cards)'
p451
tp452
g1
(g15
g3
NtRp453
(dp454
g18
F0.5
sg19
I51
sg20
g21
((dp455
NI51
stRp456
sg24
I2
sg25
F52
sbs(S'Meaning'
S'contains(inflamable)'
p457
tp458
g1
(g15
g3
NtRp459
(dp460
g18
F0.5
sg19
I92
sg20
g21
((dp461
I01
I1
sNI91
stRp462
sg24
I2
sg25
F93
sbs(g10
S'contains(witchery)'
p463
tp464
g1
(g15
g3
NtRp465
(dp466
g18
F0.5
sg19
I15
sg20
g21
((dp467
NI15
stRp468
sg24
I2
sg25
F16
sbs(g10
S'contains(esa)'
p469
tp470
g1
(g15
g3
NtRp471
(dp472
g18
F0.5
sg19
I15
sg20
g21
((dp473
NI15
stRp474
sg24
I2
sg25
F16
sbs(S'Abbreviation'
S'contains(bph)'
p475
tp476
g1
(g15
g3
NtRp477
(dp478
g18
F0.5
sg19
I51
sg20
g21
((dp479
I01
I1
sNI50
stRp480
sg24
I2
sg25
F52
sbs(g10
S'contains(mean)'
p481
tp482
g1
(g15
g3
NtRp483
(dp484
g18
F0.5
sg19
I15
sg20
g21
((dp485
NI15
stRp486
sg24
I2
sg25
F16
sbs(g9
S'contains(ctl)'
p487
tp488
g1
(g15
g3
NtRp489
(dp490
g18
F0.5
sg19
I92
sg20
g21
((dp491
NI92
stRp492
sg24
I2
sg25
F93
sbs(S'Composition'
S'contains(tapes)'
p493
tp494
g1
(g15
g3
NtRp495
(dp496
g18
F0.5
sg19
I15
sg20
g21
((dp497
I01
I1
sNI14
stRp498
sg24
I2
sg25
F16
sbs(S'Abbreviation'
p499
S'contains(national)'
p500
tp501
g1
(g15
g3
NtRp502
(dp503
g18
F0.5
sg19
I51
sg20
g21
((dp504
I01
I1
sNI50
stRp505
sg24
I2
sg25
F52
sbs(S'Composition'
g62
tp506
g1
(g15
g3
NtRp507
(dp508
g18
F0.5
sg19
I15
sg20
g21
((dp509
I01
I1
sNI14
stRp510
sg24
I2
sg25
F16
sbs(g10
S'contains(selfish)'
p511
tp512
g1
(g15
g3
NtRp513
(dp514
g18
F0.5
sg19
I15
sg20
g21
((dp515
NI15
stRp516
sg24
I2
sg25
F16
sbs(g10
S'contains(the)'
p517
tp518
g1
(g15
g3
NtRp519
(dp520
g18
F0.5
sg19
I15
sg20
g21
((dp521
NI15
stRp522
sg24
I2
sg25
F16
sbs(g8
S'contains(children)'
p523
tp524
g1
(g15
g3
NtRp525
(dp526
g18
F0.5
sg19
I51
sg20
g21
((dp527
NI51
stRp528
sg24
I2
sg25
F52
sbs(S'Meaning'
S'contains(ear)'
p529
tp530
g1
(g15
g3
NtRp531
(dp532
g18
F0.5
sg19
I92
sg20
g21
((dp533
I01
I1
sNI91
stRp534
sg24
I2
sg25
F93
sbs(S'Composition'
S'contains(metal)'
p535
tp536
g1
(g15
g3
NtRp537
(dp538
g18
F0.5
sg19
I15
sg20
g21
((dp539
I01
I1
sNI14
stRp540
sg24
I2
sg25
F16
sbs(g8
g13
tp541
g1
(g15
g3
NtRp542
(dp543
g18
F0.5
sg19
I51
sg20
g21
((dp544
NI51
stRp545
sg24
I2
sg25
F52
sbs(g10
S'contains(does)'
p546
tp547
g1
(g15
g3
NtRp548
(dp549
g18
F0.5
sg19
I15
sg20
g21
((dp550
NI15
stRp551
sg24
I2
sg25
F16
sbs(g8
g193
tp552
g1
(g15
g3
NtRp553
(dp554
g18
F0.5
sg19
I51
sg20
g21
((dp555
NI51
stRp556
sg24
I2
sg25
F52
sbs(g9
S'contains(g)'
p557
tp558
g1
(g15
g3
NtRp559
(dp560
g18
F0.5
sg19
I92
sg20
g21
((dp561
NI92
stRp562
sg24
I2
sg25
F93
sbs(g8
S'contains(juice)'
p563
tp564
g1
(g15
g3
NtRp565
(dp566
g18
F0.5
sg19
I51
sg20
g21
((dp567
NI51
stRp568
sg24
I2
sg25
F52
sbs(g10
g341
tp569
g1
(g15
g3
NtRp570
(dp571
g18
F0.5
sg19
I15
sg20
g21
((dp572
NI15
stRp573
sg24
I2
sg25
F16
sbs(S'Abbreviation'
p574
g93
tp575
g1
(g15
g3
NtRp576
(dp577
g18
F0.5
sg19
I51
sg20
g21
((dp578
I01
I26
sNI25
stRp579
sg24
I2
sg25
F52
sbs(g10
S'contains(happy)'
p580
tp581
g1
(g15
g3
NtRp582
(dp583
g18
F0.5
sg19
I15
sg20
g21
((dp584
NI15
stRp585
sg24
I2
sg25
F16
sbs(S'Meaning'
S'contains(pride)'
p586
tp587
g1
(g15
g3
NtRp588
(dp589
g18
F0.5
sg19
I92
sg20
g21
((dp590
I01
I1
sNI91
stRp591
sg24
I2
sg25
F93
sbs(S'Meaning'
S'contains(heater)'
p592
tp593
g1
(g15
g3
NtRp594
(dp595
g18
F0.5
sg19
I92
sg20
g21
((dp596
I01
I1
sNI91
stRp597
sg24
I2
sg25
F93
sbs(g8
S'contains(trees)'
p598
tp599
g1
(g15
g3
NtRp600
(dp601
g18
F0.5
sg19
I51
sg20
g21
((dp602
NI51
stRp603
sg24
I2
sg25
F52
sbs(g8
S'contains(plug)'
p604
tp605
g1
(g15
g3
NtRp606
(dp607
g18
F0.5
sg19
I51
sg20
g21
((dp608
NI51
stRp609
sg24
I2
sg25
F52
sbs(g8
S'contains(milk)'
p610
tp611
g1
(g15
g3
NtRp612
(dp613
g18
F0.5
sg19
I51
sg20
g21
((dp614
NI51
stRp615
sg24
I2
sg25
F52
sbs(g9
S'contains(?)'
tp616
g1
(g15
g3
NtRp617
(dp618
g18
F0.5
sg19
I92
sg20
g21
((dp619
I01
I92
stRp620
sg24
I1
sg25
F92.5
sbs(S'Abbreviation'
g429
tp621
g1
(g15
g3
NtRp622
(dp623
g18
F0.5
sg19
I51
sg20
g21
((dp624
I01
I1
sNI50
stRp625
sg24
I2
sg25
F52
sbs(g10
g199
tp626
g1
(g15
g3
NtRp627
(dp628
g18
F0.5
sg19
I15
sg20
g21
((dp629
NI15
stRp630
sg24
I2
sg25
F16
sbs(g9
S'contains(9d)'
p631
tp632
g1
(g15
g3
NtRp633
(dp634
g18
F0.5
sg19
I92
sg20
g21
((dp635
NI92
stRp636
sg24
I2
sg25
F93
sbs(S'Abbreviation'
S'contains(jpg)'
p637
tp638
g1
(g15
g3
NtRp639
(dp640
g18
F0.5
sg19
I51
sg20
g21
((dp641
I01
I1
sNI50
stRp642
sg24
I2
sg25
F52
sbs(S'Abbreviation'
g631
tp643
g1
(g15
g3
NtRp644
(dp645
g18
F0.5
sg19
I51
sg20
g21
((dp646
I01
I1
sNI50
stRp647
sg24
I2
sg25
F52
sbs(S'Abbreviation'
S'contains(dvr)'
p648
tp649
g1
(g15
g3
NtRp650
(dp651
g18
F0.5
sg19
I51
sg20
g21
((dp652
I01
I1
sNI50
stRp653
sg24
I2
sg25
F52
sbs(S'Composition'
p654
g400
tp655
g1
(g15
g3
NtRp656
(dp657
g18
F0.5
sg19
I15
sg20
g21
((dp658
I01
I1
sNI14
stRp659
sg24
I2
sg25
F16
sbs(g10
S'contains(bribery)'
p660
tp661
g1
(g15
g3
NtRp662
(dp663
g18
F0.5
sg19
I15
sg20
g21
((dp664
NI15
stRp665
sg24
I2
sg25
F16
sbs(S'Meaning'
p666
S'contains(of)'
tp667
g1
(g15
g3
NtRp668
(dp669
g18
F0.5
sg19
I92
sg20
g21
((dp670
I01
I28
sNI64
stRp671
sg24
I2
sg25
F93
sbs(g9
g81
tp672
g1
(g15
g3
NtRp673
(dp674
g18
F0.5
sg19
I92
sg20
g21
((dp675
NI92
stRp676
sg24
I2
sg25
F93
sbs(S'Meaning'
g418
tp677
g1
(g15
g3
NtRp678
(dp679
g18
F0.5
sg19
I92
sg20
g21
((dp680
I01
I1
sNI91
stRp681
sg24
I2
sg25
F93
sbs(g10
S'contains(abbreviation)'
p682
tp683
g1
(g15
g3
NtRp684
(dp685
g18
F0.5
sg19
I15
sg20
g21
((dp686
NI15
stRp687
sg24
I2
sg25
F16
sbs(g10
S'contains(mad)'
p688
tp689
g1
(g15
g3
NtRp690
(dp691
g18
F0.5
sg19
I15
sg20
g21
((dp692
NI15
stRp693
sg24
I2
sg25
F16
sbs(S'Meaning'
S'contains(thief)'
p694
tp695
g1
(g15
g3
NtRp696
(dp697
g18
F0.5
sg19
I92
sg20
g21
((dp698
I01
I1
sNI91
stRp699
sg24
I2
sg25
F93
sbs(g10
S'contains(duck)'
p700
tp701
g1
(g15
g3
NtRp702
(dp703
g18
F0.5
sg19
I15
sg20
g21
((dp704
NI15
stRp705
sg24
I2
sg25
F16
sbs(g10
S'contains(slut)'
p706
tp707
g1
(g15
g3
NtRp708
(dp709
g18
F0.5
sg19
I15
sg20
g21
((dp710
NI15
stRp711
sg24
I2
sg25
F16
sbs(g8
S'contains(caution)'
p712
tp713
g1
(g15
g3
NtRp714
(dp715
g18
F0.5
sg19
I51
sg20
g21
((dp716
NI51
stRp717
sg24
I2
sg25
F52
sbs(S'Abbreviation'
p718
S'contains(classified)'
p719
tp720
g1
(g15
g3
NtRp721
(dp722
g18
F0.5
sg19
I51
sg20
g21
((dp723
I01
I1
sNI50
stRp724
sg24
I2
sg25
F52
sbs(g8
S'contains(bugs)'
p725
tp726
g1
(g15
g3
NtRp727
(dp728
g18
F0.5
sg19
I51
sg20
g21
((dp729
NI51
stRp730
sg24
I2
sg25
F52
sbs(S'Meaning'
S'contains(miscellaneous)'
p731
tp732
g1
(g15
g3
NtRp733
(dp734
g18
F0.5
sg19
I92
sg20
g21
((dp735
I01
I1
sNI91
stRp736
sg24
I2
sg25
F93
sbs(g10
S'contains(starbucks)'
p737
tp738
g1
(g15
g3
NtRp739
(dp740
g18
F0.5
sg19
I15
sg20
g21
((dp741
NI15
stRp742
sg24
I2
sg25
F16
sbs(S'Abbreviation'
S'contains(dvi)'
p743
tp744
g1
(g15
g3
NtRp745
(dp746
g18
F0.5
sg19
I51
sg20
g21
((dp747
I01
I1
sNI50
stRp748
sg24
I2
sg25
F52
sbs(S'Abbreviation'
S'contains(html)'
p749
tp750
g1
(g15
g3
NtRp751
(dp752
g18
F0.5
sg19
I51
sg20
g21
((dp753
I01
I1
sNI50
stRp754
sg24
I2
sg25
F52
sbs(g8
S'contains(party)'
p755
tp756
g1
(g15
g3
NtRp757
(dp758
g18
F0.5
sg19
I51
sg20
g21
((dp759
NI51
stRp760
sg24
I2
sg25
F52
sbs(g499
S'contains(expression)'
p761
tp762
g1
(g15
g3
NtRp763
(dp764
g18
F0.5
sg19
I51
sg20
g21
((dp765
I01
I1
sNI50
stRp766
sg24
I2
sg25
F52
sbs(g8
g700
tp767
g1
(g15
g3
NtRp768
(dp769
g18
F0.5
sg19
I51
sg20
g21
((dp770
NI51
stRp771
sg24
I2
sg25
F52
sbs(g10
S'contains(car)'
p772
tp773
g1
(g15
g3
NtRp774
(dp775
g18
F0.5
sg19
I15
sg20
g21
((dp776
NI15
stRp777
sg24
I2
sg25
F16
sbs(g10
S'contains(tragedy)'
p778
tp779
g1
(g15
g3
NtRp780
(dp781
g18
F0.5
sg19
I15
sg20
g21
((dp782
NI15
stRp783
sg24
I2
sg25
F16
sbs(S'Meaning'
p784
S'contains(clever)'
p785
tp786
g1
(g15
g3
NtRp787
(dp788
g18
F0.5
sg19
I92
sg20
g21
((dp789
I01
I1
sNI91
stRp790
sg24
I2
sg25
F93
sbs(S'Meaning'
S'contains(dauntless)'
p791
tp792
g1
(g15
g3
NtRp793
(dp794
g18
F0.5
sg19
I92
sg20
g21
((dp795
I01
I1
sNI91
stRp796
sg24
I2
sg25
F93
sbs(g10
g457
tp797
g1
(g15
g3
NtRp798
(dp799
g18
F0.5
sg19
I15
sg20
g21
((dp800
NI15
stRp801
sg24
I2
sg25
F16
sbs(S'Meaning'
S'contains(booger)'
p802
tp803
g1
(g15
g3
NtRp804
(dp805
g18
F0.5
sg19
I92
sg20
g21
((dp806
I01
I1
sNI91
stRp807
sg24
I2
sg25
F93
sbs(g290
S'contains(prefix)'
p808
tp809
g1
(g15
g3
NtRp810
(dp811
g18
F0.5
sg19
I51
sg20
g21
((dp812
I01
I1
sNI50
stRp813
sg24
I2
sg25
F52
sbs(g8
S'contains(planets)'
p814
tp815
g1
(g15
g3
NtRp816
(dp817
g18
F0.5
sg19
I51
sg20
g21
((dp818
NI51
stRp819
sg24
I2
sg25
F52
sbs(g9
S'contains(psi)'
p820
tp821
g1
(g15
g3
NtRp822
(dp823
g18
F0.5
sg19
I92
sg20
g21
((dp824
NI92
stRp825
sg24
I2
sg25
F93
sbs(g9
S'contains(inri)'
p826
tp827
g1
(g15
g3
NtRp828
(dp829
g18
F0.5
sg19
I92
sg20
g21
((dp830
NI92
stRp831
sg24
I2
sg25
F93
sbs(g9
g371
tp832
g1
(g15
g3
NtRp833
(dp834
g18
F0.5
sg19
I92
sg20
g21
((dp835
NI92
stRp836
sg24
I2
sg25
F93
sbs(g10
S'contains(general)'
p837
tp838
g1
(g15
g3
NtRp839
(dp840
g18
F0.5
sg19
I15
sg20
g21
((dp841
NI15
stRp842
sg24
I2
sg25
F16
sbs(g9
g469
tp843
g1
(g15
g3
NtRp844
(dp845
g18
F0.5
sg19
I92
sg20
g21
((dp846
NI92
stRp847
sg24
I2
sg25
F93
sbs(g499
g406
tp848
g1
(g15
g3
NtRp849
(dp850
g18
F0.5
sg19
I51
sg20
g21
((dp851
I01
I1
sNI50
stRp852
sg24
I2
sg25
F52
sbs(g10
g586
tp853
g1
(g15
g3
NtRp854
(dp855
g18
F0.5
sg19
I15
sg20
g21
((dp856
NI15
stRp857
sg24
I2
sg25
F16
sbs(g8
S'contains(plagiarism)'
p858
tp859
g1
(g15
g3
NtRp860
(dp861
g18
F0.5
sg19
I51
sg20
g21
((dp862
NI51
stRp863
sg24
I2
sg25
F52
sbs(g8
g400
tp864
g1
(g15
g3
NtRp865
(dp866
g18
F0.5
sg19
I51
sg20
g21
((dp867
NI51
stRp868
sg24
I2
sg25
F52
sbs(g271
S'contains(used)'
p869
tp870
g1
(g15
g3
NtRp871
(dp872
g18
F0.5
sg19
I51
sg20
g21
((dp873
I01
I2
sNI49
stRp874
sg24
I2
sg25
F52
sbs(g8
g388
tp875
g1
(g15
g3
NtRp876
(dp877
g18
F0.5
sg19
I51
sg20
g21
((dp878
I01
I14
sNI37
stRp879
sg24
I2
sg25
F52
sbs(g8
S'contains(bag)'
p880
tp881
g1
(g15
g3
NtRp882
(dp883
g18
F0.5
sg19
I51
sg20
g21
((dp884
NI51
stRp885
sg24
I2
sg25
F52
sbs(g9
g637
tp886
g1
(g15
g3
NtRp887
(dp888
g18
F0.5
sg19
I92
sg20
g21
((dp889
NI92
stRp890
sg24
I2
sg25
F93
sbs(g9
g719
tp891
g1
(g15
g3
NtRp892
(dp893
g18
F0.5
sg19
I92
sg20
g21
((dp894
NI92
stRp895
sg24
I2
sg25
F93
sbs(g10
S'contains(http)'
p896
tp897
g1
(g15
g3
NtRp898
(dp899
g18
F0.5
sg19
I15
sg20
g21
((dp900
NI15
stRp901
sg24
I2
sg25
F16
sbs(g10
S'contains(brain)'
p902
tp903
g1
(g15
g3
NtRp904
(dp905
g18
F0.5
sg19
I15
sg20
g21
((dp906
NI15
stRp907
sg24
I2
sg25
F16
sbs(g10
g826
tp908
g1
(g15
g3
NtRp909
(dp910
g18
F0.5
sg19
I15
sg20
g21
((dp911
NI15
stRp912
sg24
I2
sg25
F16
sbs(g10
S'contains(2d)'
p913
tp914
g1
(g15
g3
NtRp915
(dp916
g18
F0.5
sg19
I15
sg20
g21
((dp917
NI15
stRp918
sg24
I2
sg25
F16
sbs(S'Meaning'
S'contains(candle)'
p919
tp920
g1
(g15
g3
NtRp921
(dp922
g18
F0.5
sg19
I92
sg20
g21
((dp923
I01
I1
sNI91
stRp924
sg24
I2
sg25
F93
sbs(S'Composition'
S'contains(beverage)'
p925
tp926
g1
(g15
g3
NtRp927
(dp928
g18
F0.5
sg19
I15
sg20
g21
((dp929
I01
I1
sNI14
stRp930
sg24
I2
sg25
F16
sbs(g10
S'contains(cpa)'
p931
tp932
g1
(g15
g3
NtRp933
(dp934
g18
F0.5
sg19
I15
sg20
g21
((dp935
NI15
stRp936
sg24
I2
sg25
F16
sbs(g8
S'contains(your)'
p937
tp938
g1
(g15
g3
NtRp939
(dp940
g18
F0.5
sg19
I51
sg20
g21
((dp941
NI51
stRp942
sg24
I2
sg25
F52
sbs(g9
S'contains(fdma)'
p943
tp944
g1
(g15
g3
NtRp945
(dp946
g18
F0.5
sg19
I92
sg20
g21
((dp947
NI92
stRp948
sg24
I2
sg25
F93
sbs(S'Abbreviation'
S'contains(nafta)'
p949
tp950
g1
(g15
g3
NtRp951
(dp952
g18
F0.5
sg19
I51
sg20
g21
((dp953
I01
I1
sNI50
stRp954
sg24
I2
sg25
F52
sbs(S'Meaning'
p955
S'contains(king)'
p956
tp957
g1
(g15
g3
NtRp958
(dp959
g18
F0.5
sg19
I92
sg20
g21
((dp960
I01
I1
sNI91
stRp961
sg24
I2
sg25
F93
sbs(g9
g682
tp962
g1
(g15
g3
NtRp963
(dp964
g18
F0.5
sg19
I92
sg20
g21
((dp965
NI92
stRp966
sg24
I2
sg25
F93
sbs(S'Meaning'
S'contains(asshole)'
p967
tp968
g1
(g15
g3
NtRp969
(dp970
g18
F0.5
sg19
I92
sg20
g21
((dp971
I01
I1
sNI91
stRp972
sg24
I2
sg25
F93
sbs(g10
g967
tp973
g1
(g15
g3
NtRp974
(dp975
g18
F0.5
sg19
I15
sg20
g21
((dp976
NI15
stRp977
sg24
I2
sg25
F16
sbs(g10
g487
tp978
g1
(g15
g3
NtRp979
(dp980
g18
F0.5
sg19
I15
sg20
g21
((dp981
NI15
stRp982
sg24
I2
sg25
F16
sbs(g10
g140
tp983
g1
(g15
g3
NtRp984
(dp985
g18
F0.5
sg19
I15
sg20
g21
((dp986
NI15
stRp987
sg24
I2
sg25
F16
sbs(S'Abbreviation'
S'contains(ctm)'
p988
tp989
g1
(g15
g3
NtRp990
(dp991
g18
F0.5
sg19
I51
sg20
g21
((dp992
I01
I1
sNI50
stRp993
sg24
I2
sg25
F52
sbs(g9
g315
tp994
g1
(g15
g3
NtRp995
(dp996
g18
F0.5
sg19
I92
sg20
g21
((dp997
NI92
stRp998
sg24
I2
sg25
F93
sbs(g10
g451
tp999
g1
(g15
g3
NtRp1000
(dp1001
g18
F0.5
sg19
I15
sg20
g21
((dp1002
NI15
stRp1003
sg24
I2
sg25
F16
sbs(g9
g931
tp1004
g1
(g15
g3
NtRp1005
(dp1006
g18
F0.5
sg19
I92
sg20
g21
((dp1007
NI92
stRp1008
sg24
I2
sg25
F93
sbs(g10
g919
tp1009
g1
(g15
g3
NtRp1010
(dp1011
g18
F0.5
sg19
I15
sg20
g21
((dp1012
NI15
stRp1013
sg24
I2
sg25
F16
sbs(g8
S'contains(com)'
p1014
tp1015
g1
(g15
g3
NtRp1016
(dp1017
g18
F0.5
sg19
I51
sg20
g21
((dp1018
I01
I1
sNI50
stRp1019
sg24
I2
sg25
F52
sbs(g8
S'contains(childhood)'
p1020
tp1021
g1
(g15
g3
NtRp1022
(dp1023
g18
F0.5
sg19
I51
sg20
g21
((dp1024
NI51
stRp1025
sg24
I2
sg25
F52
sbs(g9
g93
tp1026
g1
(g15
g3
NtRp1027
(dp1028
g18
F0.5
sg19
I92
sg20
g21
((dp1029
NI92
stRp1030
sg24
I2
sg25
F93
sbs(g8
S'contains(made)'
p1031
tp1032
g1
(g15
g3
NtRp1033
(dp1034
g18
F0.5
sg19
I51
sg20
g21
((dp1035
NI51
stRp1036
sg24
I2
sg25
F52
sbs(g8
S'contains(bang)'
p1037
tp1038
g1
(g15
g3
NtRp1039
(dp1040
g18
F0.5
sg19
I51
sg20
g21
((dp1041
NI51
stRp1042
sg24
I2
sg25
F52
sbs(g9
S'contains(:)'
p1043
tp1044
g1
(g15
g3
NtRp1045
(dp1046
g18
F0.5
sg19
I92
sg20
g21
((dp1047
NI92
stRp1048
sg24
I2
sg25
F93
sbs(S'Meaning'
g814
tp1049
g1
(g15
g3
NtRp1050
(dp1051
g18
F0.5
sg19
I92
sg20
g21
((dp1052
I01
I1
sNI91
stRp1053
sg24
I2
sg25
F93
sbs(g9
g111
tp1054
g1
(g15
g3
NtRp1055
(dp1056
g18
F0.5
sg19
I92
sg20
g21
((dp1057
NI92
stRp1058
sg24
I2
sg25
F93
sbs(g10
S'contains(badass)'
p1059
tp1060
g1
(g15
g3
NtRp1061
(dp1062
g18
F0.5
sg19
I15
sg20
g21
((dp1063
NI15
stRp1064
sg24
I2
sg25
F16
sbs(g9
S'contains(what)'
tp1065
g1
(g15
g3
NtRp1066
(dp1067
g18
F0.5
sg19
I92
sg20
g21
((dp1068
I01
I72
sNI20
stRp1069
sg24
I2
sg25
F93
sbs(g9
S'contains(emacs)'
p1070
tp1071
g1
(g15
g3
NtRp1072
(dp1073
g18
F0.5
sg19
I92
sg20
g21
((dp1074
NI92
stRp1075
sg24
I2
sg25
F93
sbs(S'Meaning'
S'contains(cataclysm)'
p1076
tp1077
g1
(g15
g3
NtRp1078
(dp1079
g18
F0.5
sg19
I92
sg20
g21
((dp1080
I01
I1
sNI91
stRp1081
sg24
I2
sg25
F93
sbs(g8
S'contains(signs)'
p1082
tp1083
g1
(g15
g3
NtRp1084
(dp1085
g18
F0.5
sg19
I51
sg20
g21
((dp1086
NI51
stRp1087
sg24
I2
sg25
F52
sbs(S'Abbreviation'
g435
tp1088
g1
(g15
g3
NtRp1089
(dp1090
g18
F0.5
sg19
I51
sg20
g21
((dp1091
I01
I1
sNI50
stRp1092
sg24
I2
sg25
F52
sbs(S'Abbreviation'
g26
tp1093
g1
(g15
g3
NtRp1094
(dp1095
g18
F0.5
sg19
I51
sg20
g21
((dp1096
I01
I1
sNI50
stRp1097
sg24
I2
sg25
F52
sbs(g9
g725
tp1098
g1
(g15
g3
NtRp1099
(dp1100
g18
F0.5
sg19
I92
sg20
g21
((dp1101
NI92
stRp1102
sg24
I2
sg25
F93
sbs(S'Meaning'
g858
tp1103
g1
(g15
g3
NtRp1104
(dp1105
g18
F0.5
sg19
I92
sg20
g21
((dp1106
I01
I1
sNI91
stRp1107
sg24
I2
sg25
F93
sbs(S'Meaning'
g412
tp1108
g1
(g15
g3
NtRp1109
(dp1110
g18
F0.5
sg19
I92
sg20
g21
((dp1111
I01
I1
sNI91
stRp1112
sg24
I2
sg25
F93
sbs(g8
g236
tp1113
g1
(g15
g3
NtRp1114
(dp1115
g18
F0.5
sg19
I51
sg20
g21
((dp1116
NI51
stRp1117
sg24
I2
sg25
F52
sbs(g8
g382
tp1118
g1
(g15
g3
NtRp1119
(dp1120
g18
F0.5
sg19
I51
sg20
g21
((dp1121
NI51
stRp1122
sg24
I2
sg25
F52
sbs(S'Meaning'
S'contains(tidy)'
p1123
tp1124
g1
(g15
g3
NtRp1125
(dp1126
g18
F0.5
sg19
I92
sg20
g21
((dp1127
I01
I1
sNI91
stRp1128
sg24
I2
sg25
F93
sbs(g10
g1043
tp1129
g1
(g15
g3
NtRp1130
(dp1131
g18
F0.5
sg19
I15
sg20
g21
((dp1132
NI15
stRp1133
sg24
I2
sg25
F16
sbs(S'Abbreviation'
S'contains(cnn)'
p1134
tp1135
g1
(g15
g3
NtRp1136
(dp1137
g18
F0.5
sg19
I51
sg20
g21
((dp1138
I01
I1
sNI50
stRp1139
sg24
I2
sg25
F52
sbs(g8
g956
tp1140
g1
(g15
g3
NtRp1141
(dp1142
g18
F0.5
sg19
I51
sg20
g21
((dp1143
NI51
stRp1144
sg24
I2
sg25
F52
sbs(g10
S'contains(slaughter)'
p1145
tp1146
g1
(g15
g3
NtRp1147
(dp1148
g18
F0.5
sg19
I15
sg20
g21
((dp1149
NI15
stRp1150
sg24
I2
sg25
F16
sbs(S'Meaning'
g712
tp1151
g1
(g15
g3
NtRp1152
(dp1153
g18
F0.5
sg19
I92
sg20
g21
((dp1154
I01
I1
sNI91
stRp1155
sg24
I2
sg25
F93
sbs(S'Meaning'
S'contains(pen)'
p1156
tp1157
g1
(g15
g3
NtRp1158
(dp1159
g18
F0.5
sg19
I92
sg20
g21
((dp1160
I01
I1
sNI91
stRp1161
sg24
I2
sg25
F93
sbs(S'Meaning'
g523
tp1162
g1
(g15
g3
NtRp1163
(dp1164
g18
F0.5
sg19
I92
sg20
g21
((dp1165
I01
I1
sNI91
stRp1166
sg24
I2
sg25
F93
sbs(g8
g1156
tp1167
g1
(g15
g3
NtRp1168
(dp1169
g18
F0.5
sg19
I51
sg20
g21
((dp1170
NI51
stRp1171
sg24
I2
sg25
F52
sbs(S'Meaning'
g737
tp1172
g1
(g15
g3
NtRp1173
(dp1174
g18
F0.5
sg19
I92
sg20
g21
((dp1175
I01
I1
sNI91
stRp1176
sg24
I2
sg25
F93
sbs(g10
g557
tp1177
g1
(g15
g3
NtRp1178
(dp1179
g18
F0.5
sg19
I15
sg20
g21
((dp1180
NI15
stRp1181
sg24
I2
sg25
F16
sbs(g9
S'contains(nn)'
p1182
tp1183
g1
(g15
g3
NtRp1184
(dp1185
g18
F0.5
sg19
I92
sg20
g21
((dp1186
NI92
stRp1187
sg24
I2
sg25
F93
sbs(g574
g253
tp1188
g1
(g15
g3
NtRp1189
(dp1190
g18
F0.5
sg19
I51
sg20
g21
((dp1191
I01
I34
sNI17
stRp1192
sg24
I2
sg25
F52
sbs(g8
S'contains(superiority)'
p1193
tp1194
g1
(g15
g3
NtRp1195
(dp1196
g18
F0.5
sg19
I51
sg20
g21
((dp1197
NI51
stRp1198
sg24
I2
sg25
F52
sbs(g10
S'contains(o)'
p1199
tp1200
g1
(g15
g3
NtRp1201
(dp1202
g18
F0.5
sg19
I15
sg20
g21
((dp1203
NI15
stRp1204
sg24
I2
sg25
F16
sbs(g10
g315
tp1205
g1
(g15
g3
NtRp1206
(dp1207
g18
F0.5
sg19
I15
sg20
g21
((dp1208
NI15
stRp1209
sg24
I2
sg25
F16
sbs(g9
S'contains(,)'
p1210
tp1211
g1
(g15
g3
NtRp1212
(dp1213
g18
F0.5
sg19
I92
sg20
g21
((dp1214
NI92
stRp1215
sg24
I2
sg25
F93
sbs(S'Meaning'
S'contains(clerk)'
p1216
tp1217
g1
(g15
g3
NtRp1218
(dp1219
g18
F0.5
sg19
I92
sg20
g21
((dp1220
I01
I1
sNI91
stRp1221
sg24
I2
sg25
F93
sbs(g8
S'contains(tulips)'
p1222
tp1223
g1
(g15
g3
NtRp1224
(dp1225
g18
F0.5
sg19
I51
sg20
g21
((dp1226
NI51
stRp1227
sg24
I2
sg25
F52
sbs(g8
g230
tp1228
g1
(g15
g3
NtRp1229
(dp1230
g18
F0.5
sg19
I51
sg20
g21
((dp1231
NI51
stRp1232
sg24
I2
sg25
F52
sbs(g8
S'contains(?)'
tp1233
g1
(g15
g3
NtRp1234
(dp1235
g18
F0.5
sg19
I51
sg20
g21
((dp1236
I01
I51
stRp1237
sg24
I1
sg25
F51.5
sbs(g8
g353
tp1238
g1
(g15
g3
NtRp1239
(dp1240
g18
F0.5
sg19
I51
sg20
g21
((dp1241
NI51
stRp1242
sg24
I2
sg25
F52
sbs(S'Meaning'
g598
tp1243
g1
(g15
g3
NtRp1244
(dp1245
g18
F0.5
sg19
I92
sg20
g21
((dp1246
I01
I1
sNI91
stRp1247
sg24
I2
sg25
F93
sbs(g8
S'contains(what)'
tp1248
g1
(g15
g3
NtRp1249
(dp1250
g18
F0.5
sg19
I51
sg20
g21
((dp1251
I01
I51
stRp1252
sg24
I2
sg25
F52
sbs(S'Abbreviation'
g211
tp1253
g1
(g15
g3
NtRp1254
(dp1255
g18
F0.5
sg19
I51
sg20
g21
((dp1256
I01
I1
sNI50
stRp1257
sg24
I2
sg25
F52
sbs(S'Meaning'
S'contains(theft)'
p1258
tp1259
g1
(g15
g3
NtRp1260
(dp1261
g18
F0.5
sg19
I92
sg20
g21
((dp1262
I01
I1
sNI91
stRp1263
sg24
I2
sg25
F93
sbs(g10
S'contains(seldom)'
p1264
tp1265
g1
(g15
g3
NtRp1266
(dp1267
g18
F0.5
sg19
I15
sg20
g21
((dp1268
NI15
stRp1269
sg24
I2
sg25
F16
sbs(S'Abbreviation'
S'contains(lol)'
p1270
tp1271
g1
(g15
g3
NtRp1272
(dp1273
g18
F0.5
sg19
I51
sg20
g21
((dp1274
I01
I1
sNI50
stRp1275
sg24
I2
sg25
F52
sbs(g784
g517
tp1276
g1
(g15
g3
NtRp1277
(dp1278
g18
F0.5
sg19
I92
sg20
g21
((dp1279
I01
I42
sNI50
stRp1280
sg24
I2
sg25
F93
sbs(S'Meaning'
S'contains(elephant)'
p1281
tp1282
g1
(g15
g3
NtRp1283
(dp1284
g18
F0.5
sg19
I92
sg20
g21
((dp1285
I01
I1
sNI91
stRp1286
sg24
I2
sg25
F93
sbs(g10
g117
tp1287
g1
(g15
g3
NtRp1288
(dp1289
g18
F0.5
sg19
I15
sg20
g21
((dp1290
NI15
stRp1291
sg24
I2
sg25
F16
sbs(g8
g1059
tp1292
g1
(g15
g3
NtRp1293
(dp1294
g18
F0.5
sg19
I51
sg20
g21
((dp1295
NI51
stRp1296
sg24
I2
sg25
F52
sbs(S'Abbreviation'
g487
tp1297
g1
(g15
g3
NtRp1298
(dp1299
g18
F0.5
sg19
I51
sg20
g21
((dp1300
I01
I1
sNI50
stRp1301
sg24
I2
sg25
F52
sbs(g10
g1037
tp1302
g1
(g15
g3
NtRp1303
(dp1304
g18
F0.5
sg19
I15
sg20
g21
((dp1305
NI15
stRp1306
sg24
I2
sg25
F16
sbs(g9
g925
tp1307
g1
(g15
g3
NtRp1308
(dp1309
g18
F0.5
sg19
I92
sg20
g21
((dp1310
NI92
stRp1311
sg24
I2
sg25
F93
sbs(g10
S'contains(slavery)'
p1312
tp1313
g1
(g15
g3
NtRp1314
(dp1315
g18
F0.5
sg19
I15
sg20
g21
((dp1316
NI15
stRp1317
sg24
I2
sg25
F16
sbs(S'Meaning'
g303
tp1318
g1
(g15
g3
NtRp1319
(dp1320
g18
F0.5
sg19
I92
sg20
g21
((dp1321
I01
I1
sNI91
stRp1322
sg24
I2
sg25
F93
sbs(S'Abbreviation'
g943
tp1323
g1
(g15
g3
NtRp1324
(dp1325
g18
F0.5
sg19
I51
sg20
g21
((dp1326
I01
I1
sNI50
stRp1327
sg24
I2
sg25
F52
sbs(g8
g151
tp1328
g1
(g15
g3
NtRp1329
(dp1330
g18
F0.5
sg19
I51
sg20
g21
((dp1331
NI51
stRp1332
sg24
I2
sg25
F52
sbs(S'Abbreviation'
g931
tp1333
g1
(g15
g3
NtRp1334
(dp1335
g18
F0.5
sg19
I51
sg20
g21
((dp1336
I01
I1
sNI50
stRp1337
sg24
I2
sg25
F52
sbs(g9
S'contains(irish)'
p1338
tp1339
g1
(g15
g3
NtRp1340
(dp1341
g18
F0.5
sg19
I92
sg20
g21
((dp1342
NI92
stRp1343
sg24
I2
sg25
F93
sbs(g10
S'contains(nasa)'
p1344
tp1345
g1
(g15
g3
NtRp1346
(dp1347
g18
F0.5
sg19
I15
sg20
g21
((dp1348
NI15
stRp1349
sg24
I2
sg25
F16
sbs(S'Abbreviation'
g913
tp1350
g1
(g15
g3
NtRp1351
(dp1352
g18
F0.5
sg19
I51
sg20
g21
((dp1353
I01
I1
sNI50
stRp1354
sg24
I2
sg25
F52
sbs(g8
S'contains(cloak)'
p1355
tp1356
g1
(g15
g3
NtRp1357
(dp1358
g18
F0.5
sg19
I51
sg20
g21
((dp1359
NI51
stRp1360
sg24
I2
sg25
F52
sbs(g8
g1216
tp1361
g1
(g15
g3
NtRp1362
(dp1363
g18
F0.5
sg19
I51
sg20
g21
((dp1364
NI51
stRp1365
sg24
I2
sg25
F52
sbs(g271
S'contains(jesus)'
p1366
tp1367
g1
(g15
g3
NtRp1368
(dp1369
g18
F0.5
sg19
I51
sg20
g21
((dp1370
I01
I1
sNI50
stRp1371
sg24
I2
sg25
F52
sbs(S'Meaning'
g463
tp1372
g1
(g15
g3
NtRp1373
(dp1374
g18
F0.5
sg19
I92
sg20
g21
((dp1375
I01
I1
sNI91
stRp1376
sg24
I2
sg25
F93
sbs(g10
S'contains(prejudice)'
p1377
tp1378
g1
(g15
g3
NtRp1379
(dp1380
g18
F0.5
sg19
I15
sg20
g21
((dp1381
NI15
stRp1382
sg24
I2
sg25
F16
sbs(S'Meaning'
g1193
tp1383
g1
(g15
g3
NtRp1384
(dp1385
g18
F0.5
sg19
I92
sg20
g21
((dp1386
I01
I1
sNI91
stRp1387
sg24
I2
sg25
F93
sbs(g10
S'contains(plo)'
p1388
tp1389
g1
(g15
g3
NtRp1390
(dp1391
g18
F0.5
sg19
I15
sg20
g21
((dp1392
NI15
stRp1393
sg24
I2
sg25
F16
sbs(g10
g869
tp1394
g1
(g15
g3
NtRp1395
(dp1396
g18
F0.5
sg19
I15
sg20
g21
((dp1397
NI15
stRp1398
sg24
I2
sg25
F16
sbs(g8
g586
tp1399
g1
(g15
g3
NtRp1400
(dp1401
g18
F0.5
sg19
I51
sg20
g21
((dp1402
NI51
stRp1403
sg24
I2
sg25
F52
sbs(g10
g303
tp1404
g1
(g15
g3
NtRp1405
(dp1406
g18
F0.5
sg19
I15
sg20
g21
((dp1407
NI15
stRp1408
sg24
I2
sg25
F16
sbs(g80
S'contains(name)'
p1409
tp1410
g1
(g15
g3
NtRp1411
(dp1412
g18
F0.5
sg19
I51
sg20
g21
((dp1413
I01
I9
sNI42
stRp1414
sg24
I2
sg25
F52
sbs(g8
g341
tp1415
g1
(g15
g3
NtRp1416
(dp1417
g18
F0.5
sg19
I51
sg20
g21
((dp1418
NI51
stRp1419
sg24
I2
sg25
F52
sbs(g10
g68
tp1420
g1
(g15
g3
NtRp1421
(dp1422
g18
F0.5
sg19
I15
sg20
g21
((dp1423
NI15
stRp1424
sg24
I2
sg25
F16
sbs(g10
S'contains(fttp)'
p1425
tp1426
g1
(g15
g3
NtRp1427
(dp1428
g18
F0.5
sg19
I15
sg20
g21
((dp1429
NI15
stRp1430
sg24
I2
sg25
F16
sbs(g9
g837
tp1431
g1
(g15
g3
NtRp1432
(dp1433
g18
F0.5
sg19
I92
sg20
g21
((dp1434
NI92
stRp1435
sg24
I2
sg25
F93
sbs(g666
g563
tp1436
g1
(g15
g3
NtRp1437
(dp1438
g18
F0.5
sg19
I92
sg20
g21
((dp1439
I01
I1
sNI91
stRp1440
sg24
I2
sg25
F93
sbs(S'Abbreviation'
g365
tp1441
g1
(g15
g3
NtRp1442
(dp1443
g18
F0.5
sg19
I51
sg20
g21
((dp1444
I01
I1
sNI50
stRp1445
sg24
I2
sg25
F52
sbs(g10
g814
tp1446
g1
(g15
g3
NtRp1447
(dp1448
g18
F0.5
sg19
I15
sg20
g21
((dp1449
NI15
stRp1450
sg24
I2
sg25
F16
sbs(g271
g826
tp1451
g1
(g15
g3
NtRp1452
(dp1453
g18
F0.5
sg19
I51
sg20
g21
((dp1454
I01
I1
sNI50
stRp1455
sg24
I2
sg25
F52
sbs(g9
S'contains(.)'
p1456
tp1457
g1
(g15
g3
NtRp1458
(dp1459
g18
F0.5
sg19
I92
sg20
g21
((dp1460
NI92
stRp1461
sg24
I2
sg25
F93
sbs(g9
g808
tp1462
g1
(g15
g3
NtRp1463
(dp1464
g18
F0.5
sg19
I92
sg20
g21
((dp1465
NI92
stRp1466
sg24
I2
sg25
F93
sbs(g9
S'contains(chargers)'
p1467
tp1468
g1
(g15
g3
NtRp1469
(dp1470
g18
F0.5
sg19
I92
sg20
g21
((dp1471
NI92
stRp1472
sg24
I2
sg25
F93
sbs(S'Meaning'
g236
tp1473
g1
(g15
g3
NtRp1474
(dp1475
g18
F0.5
sg19
I92
sg20
g21
((dp1476
I01
I1
sNI91
stRp1477
sg24
I2
sg25
F93
sbs(S'Meaning'
g902
tp1478
g1
(g15
g3
NtRp1479
(dp1480
g18
F0.5
sg19
I92
sg20
g21
((dp1481
I01
I1
sNI91
stRp1482
sg24
I2
sg25
F93
sbs(g9
g869
tp1483
g1
(g15
g3
NtRp1484
(dp1485
g18
F0.5
sg19
I92
sg20
g21
((dp1486
NI92
stRp1487
sg24
I2
sg25
F93
sbs(g9
g1388
tp1488
g1
(g15
g3
NtRp1489
(dp1490
g18
F0.5
sg19
I92
sg20
g21
((dp1491
NI92
stRp1492
sg24
I2
sg25
F93
sbs(g8
g1123
tp1493
g1
(g15
g3
NtRp1494
(dp1495
g18
F0.5
sg19
I51
sg20
g21
((dp1496
NI51
stRp1497
sg24
I2
sg25
F52
sbs(g10
S'contains(ipod)'
p1498
tp1499
g1
(g15
g3
NtRp1500
(dp1501
g18
F0.5
sg19
I15
sg20
g21
((dp1502
NI15
stRp1503
sg24
I2
sg25
F16
sbs(g265
S'contains(laser)'
p1504
tp1505
g1
(g15
g3
NtRp1506
(dp1507
g18
F0.5
sg19
I51
sg20
g21
((dp1508
I01
I1
sNI50
stRp1509
sg24
I2
sg25
F52
sbs(g8
g529
tp1510
g1
(g15
g3
NtRp1511
(dp1512
g18
F0.5
sg19
I51
sg20
g21
((dp1513
NI51
stRp1514
sg24
I2
sg25
F52
sbs(g574
g74
tp1515
g1
(g15
g3
NtRp1516
(dp1517
g18
F0.5
sg19
I51
sg20
g21
((dp1518
I01
I1
sNI50
stRp1519
sg24
I2
sg25
F52
sbs(g9
g1366
tp1520
g1
(g15
g3
NtRp1521
(dp1522
g18
F0.5
sg19
I92
sg20
g21
((dp1523
NI92
stRp1524
sg24
I2
sg25
F93
sbs(g955
S'contains(a)'
tp1525
g1
(g15
g3
NtRp1526
(dp1527
g18
F0.5
sg19
I92
sg20
g21
((dp1528
I01
I13
sNI79
stRp1529
sg24
I2
sg25
F93
sbs(g499
g297
tp1530
g1
(g15
g3
NtRp1531
(dp1532
g18
F0.5
sg19
I51
sg20
g21
((dp1533
I01
I1
sNI50
stRp1534
sg24
I2
sg25
F52
sbs(g10
g808
tp1535
g1
(g15
g3
NtRp1536
(dp1537
g18
F0.5
sg19
I15
sg20
g21
((dp1538
NI15
stRp1539
sg24
I2
sg25
F16
sbs(g9
g761
tp1540
g1
(g15
g3
NtRp1541
(dp1542
g18
F0.5
sg19
I92
sg20
g21
((dp1543
NI92
stRp1544
sg24
I2
sg25
F93
sbs(g10
g743
tp1545
g1
(g15
g3
NtRp1546
(dp1547
g18
F0.5
sg19
I15
sg20
g21
((dp1548
NI15
stRp1549
sg24
I2
sg25
F16
sbs(g8
g457
tp1550
g1
(g15
g3
NtRp1551
(dp1552
g18
F0.5
sg19
I51
sg20
g21
((dp1553
NI51
stRp1554
sg24
I2
sg25
F52
sbs(g8
g706
tp1555
g1
(g15
g3
NtRp1556
(dp1557
g18
F0.5
sg19
I51
sg20
g21
((dp1558
NI51
stRp1559
sg24
I2
sg25
F52
sbs(g10
g297
tp1560
g1
(g15
g3
NtRp1561
(dp1562
g18
F0.5
sg19
I15
sg20
g21
((dp1563
NI15
stRp1564
sg24
I2
sg25
F16
sbs(g8
g778
tp1565
g1
(g15
g3
NtRp1566
(dp1567
g18
F0.5
sg19
I51
sg20
g21
((dp1568
NI51
stRp1569
sg24
I2
sg25
F52
sbs(g718
g1210
tp1570
g1
(g15
g3
NtRp1571
(dp1572
g18
F0.5
sg19
I51
sg20
g21
((dp1573
I01
I1
sNI50
stRp1574
sg24
I2
sg25
F52
sbs(S'Meaning'
g1082
tp1575
g1
(g15
g3
NtRp1576
(dp1577
g18
F0.5
sg19
I92
sg20
g21
((dp1578
I01
I1
sNI91
stRp1579
sg24
I2
sg25
F93
sbs(g10
g1504
tp1580
g1
(g15
g3
NtRp1581
(dp1582
g18
F0.5
sg19
I15
sg20
g21
((dp1583
NI15
stRp1584
sg24
I2
sg25
F16
sbs(S'Abbreviation'
S'contains(gif)'
p1585
tp1586
g1
(g15
g3
NtRp1587
(dp1588
g18
F0.5
sg19
I51
sg20
g21
((dp1589
I01
I1
sNI50
stRp1590
sg24
I2
sg25
F52
sbs(S'Abbreviation'
S'contains(https)'
p1591
tp1592
g1
(g15
g3
NtRp1593
(dp1594
g18
F0.5
sg19
I51
sg20
g21
((dp1595
I01
I1
sNI50
stRp1596
sg24
I2
sg25
F52
sbs(g8
S'contains(ant)'
p1597
tp1598
g1
(g15
g3
NtRp1599
(dp1600
g18
F0.5
sg19
I51
sg20
g21
((dp1601
NI51
stRp1602
sg24
I2
sg25
F52
sbs(g9
S'contains(t)'
p1603
tp1604
g1
(g15
g3
NtRp1605
(dp1606
g18
F0.5
sg19
I92
sg20
g21
((dp1607
NI92
stRp1608
sg24
I2
sg25
F93
sbs(g718
g199
tp1609
g1
(g15
g3
NtRp1610
(dp1611
g18
F0.5
sg19
I51
sg20
g21
((dp1612
I01
I1
sNI50
stRp1613
sg24
I2
sg25
F52
sbs(g10
g523
tp1614
g1
(g15
g3
NtRp1615
(dp1616
g18
F0.5
sg19
I15
sg20
g21
((dp1617
NI15
stRp1618
sg24
I2
sg25
F16
sbs(S'Meaning'
g175
tp1619
g1
(g15
g3
NtRp1620
(dp1621
g18
F0.5
sg19
I92
sg20
g21
((dp1622
I01
I1
sNI91
stRp1623
sg24
I2
sg25
F93
sbs(S'Meaning'
g604
tp1624
g1
(g15
g3
NtRp1625
(dp1626
g18
F0.5
sg19
I92
sg20
g21
((dp1627
I01
I1
sNI91
stRp1628
sg24
I2
sg25
F93
sbs(g9
g1409
tp1629
g1
(g15
g3
NtRp1630
(dp1631
g18
F0.5
sg19
I92
sg20
g21
((dp1632
NI92
stRp1633
sg24
I2
sg25
F93
sbs(g8
g242
tp1634
g1
(g15
g3
NtRp1635
(dp1636
g18
F0.5
sg19
I51
sg20
g21
((dp1637
NI51
stRp1638
sg24
I2
sg25
F52
sbs(g10
g74
tp1639
g1
(g15
g3
NtRp1640
(dp1641
g18
F0.5
sg19
I15
sg20
g21
((dp1642
NI15
stRp1643
sg24
I2
sg25
F16
sbs(g10
g1123
tp1644
g1
(g15
g3
NtRp1645
(dp1646
g18
F0.5
sg19
I15
sg20
g21
((dp1647
NI15
stRp1648
sg24
I2
sg25
F16
sbs(g10
g563
tp1649
g1
(g15
g3
NtRp1650
(dp1651
g18
F0.5
sg19
I15
sg20
g21
((dp1652
NI15
stRp1653
sg24
I2
sg25
F16
sbs(S'Abbreviation'
S'contains(lifo)'
p1654
tp1655
g1
(g15
g3
NtRp1656
(dp1657
g18
F0.5
sg19
I51
sg20
g21
((dp1658
I01
I1
sNI50
stRp1659
sg24
I2
sg25
F52
sbs(g290
g1199
tp1660
g1
(g15
g3
NtRp1661
(dp1662
g18
F0.5
sg19
I51
sg20
g21
((dp1663
I01
I1
sNI50
stRp1664
sg24
I2
sg25
F52
sbs(g9
g648
tp1665
g1
(g15
g3
NtRp1666
(dp1667
g18
F0.5
sg19
I92
sg20
g21
((dp1668
NI92
stRp1669
sg24
I2
sg25
F93
sbs(S'Composition'
g1467
tp1670
g1
(g15
g3
NtRp1671
(dp1672
g18
F0.5
sg19
I15
sg20
g21
((dp1673
I01
I1
sNI14
stRp1674
sg24
I2
sg25
F16
sbs(g10
g81
tp1675
g1
(g15
g3
NtRp1676
(dp1677
g18
F0.5
sg19
I15
sg20
g21
((dp1678
NI15
stRp1679
sg24
I2
sg25
F16
sbs(g10
S'contains(tree)'
p1680
tp1681
g1
(g15
g3
NtRp1682
(dp1683
g18
F0.5
sg19
I15
sg20
g21
((dp1684
NI15
stRp1685
sg24
I2
sg25
F16
sbs(g8
g1498
tp1686
g1
(g15
g3
NtRp1687
(dp1688
g18
F0.5
sg19
I51
sg20
g21
((dp1689
NI51
stRp1690
sg24
I2
sg25
F52
sbs(g8
S'contains(the)'
tp1691
g1
(g15
g3
NtRp1692
(dp1693
g18
F0.5
sg19
I51
sg20
g21
((dp1694
I01
I35
sNI16
stRp1695
sg24
I2
sg25
F52
sbs(S'Abbreviation'
g1344
tp1696
g1
(g15
g3
NtRp1697
(dp1698
g18
F0.5
sg19
I51
sg20
g21
((dp1699
I01
I1
sNI50
stRp1700
sg24
I2
sg25
F52
sbs(g10
g604
tp1701
g1
(g15
g3
NtRp1702
(dp1703
g18
F0.5
sg19
I15
sg20
g21
((dp1704
NI15
stRp1705
sg24
I2
sg25
F16
sbs(g10
g1603
tp1706
g1
(g15
g3
NtRp1707
(dp1708
g18
F0.5
sg19
I15
sg20
g21
((dp1709
NI15
stRp1710
sg24
I2
sg25
F16
sbs(S'Abbreviation'
g1425
tp1711
g1
(g15
g3
NtRp1712
(dp1713
g18
F0.5
sg19
I51
sg20
g21
((dp1714
I01
I1
sNI50
stRp1715
sg24
I2
sg25
F52
sbs(g10
S'contains(cert)'
p1716
tp1717
g1
(g15
g3
NtRp1718
(dp1719
g18
F0.5
sg19
I15
sg20
g21
((dp1720
NI15
stRp1721
sg24
I2
sg25
F16
sbs(g9
g1222
tp1722
g1
(g15
g3
NtRp1723
(dp1724
g18
F0.5
sg19
I92
sg20
g21
((dp1725
NI92
stRp1726
sg24
I2
sg25
F93
sbs(g9
g500
tp1727
g1
(g15
g3
NtRp1728
(dp1729
g18
F0.5
sg19
I92
sg20
g21
((dp1730
NI92
stRp1731
sg24
I2
sg25
F93
sbs(g9
g272
tp1732
g1
(g15
g3
NtRp1733
(dp1734
g18
F0.5
sg19
I92
sg20
g21
((dp1735
NI92
stRp1736
sg24
I2
sg25
F93
sbs(g10
S'contains(claus)'
p1737
tp1738
g1
(g15
g3
NtRp1739
(dp1740
g18
F0.5
sg19
I15
sg20
g21
((dp1741
NI15
stRp1742
sg24
I2
sg25
F16
sbs(g8
g56
tp1743
g1
(g15
g3
NtRp1744
(dp1745
g18
F0.5
sg19
I51
sg20
g21
((dp1746
NI51
stRp1747
sg24
I2
sg25
F52
sbs(g9
S'contains(dvd)'
p1748
tp1749
g1
(g15
g3
NtRp1750
(dp1751
g18
F0.5
sg19
I92
sg20
g21
((dp1752
NI92
stRp1753
sg24
I2
sg25
F93
sbs(S'Meaning'
g706
tp1754
g1
(g15
g3
NtRp1755
(dp1756
g18
F0.5
sg19
I92
sg20
g21
((dp1757
I01
I1
sNI91
stRp1758
sg24
I2
sg25
F93
sbs(g8
S'contains(pretty)'
p1759
tp1760
g1
(g15
g3
NtRp1761
(dp1762
g18
F0.5
sg19
I51
sg20
g21
((dp1763
NI51
stRp1764
sg24
I2
sg25
F52
sbs(S'Abbreviation'
g1748
tp1765
g1
(g15
g3
NtRp1766
(dp1767
g18
F0.5
sg19
I51
sg20
g21
((dp1768
I01
I1
sNI50
stRp1769
sg24
I2
sg25
F52
sbs(g8
g1377
tp1770
g1
(g15
g3
NtRp1771
(dp1772
g18
F0.5
sg19
I51
sg20
g21
((dp1773
NI51
stRp1774
sg24
I2
sg25
F52
sbs(S'Meaning'
g347
tp1775
g1
(g15
g3
NtRp1776
(dp1777
g18
F0.5
sg19
I92
sg20
g21
((dp1778
I01
I1
sNI91
stRp1779
sg24
I2
sg25
F93
sbs(g10
g1216
tp1780
g1
(g15
g3
NtRp1781
(dp1782
g18
F0.5
sg19
I15
sg20
g21
((dp1783
NI15
stRp1784
sg24
I2
sg25
F16
sbs(g8
S'contains(rubber)'
p1785
tp1786
g1
(g15
g3
NtRp1787
(dp1788
g18
F0.5
sg19
I51
sg20
g21
((dp1789
NI51
stRp1790
sg24
I2
sg25
F52
sbs(g10
g1338
tp1791
g1
(g15
g3
NtRp1792
(dp1793
g18
F0.5
sg19
I15
sg20
g21
((dp1794
NI15
stRp1795
sg24
I2
sg25
F16
sbs(g10
S'contains(avenue)'
p1796
tp1797
g1
(g15
g3
NtRp1798
(dp1799
g18
F0.5
sg19
I15
sg20
g21
((dp1800
NI15
stRp1801
sg24
I2
sg25
F16
sbs(g10
S'contains(singleton)'
p1802
tp1803
g1
(g15
g3
NtRp1804
(dp1805
g18
F0.5
sg19
I15
sg20
g21
((dp1806
NI15
stRp1807
sg24
I2
sg25
F16
sbs(g10
g943
tp1808
g1
(g15
g3
NtRp1809
(dp1810
g18
F0.5
sg19
I15
sg20
g21
((dp1811
NI15
stRp1812
sg24
I2
sg25
F16
sbs(g10
g412
tp1813
g1
(g15
g3
NtRp1814
(dp1815
g18
F0.5
sg19
I15
sg20
g21
((dp1816
NI15
stRp1817
sg24
I2
sg25
F16
sbs(g8
S'contains(mellon)'
p1818
tp1819
g1
(g15
g3
NtRp1820
(dp1821
g18
F0.5
sg19
I51
sg20
g21
((dp1822
NI51
stRp1823
sg24
I2
sg25
F52
sbs(g8
g1312
tp1824
g1
(g15
g3
NtRp1825
(dp1826
g18
F0.5
sg19
I51
sg20
g21
((dp1827
NI51
stRp1828
sg24
I2
sg25
F52
sbs(g10
S'contains(problematic)'
p1829
tp1830
g1
(g15
g3
NtRp1831
(dp1832
g18
F0.5
sg19
I15
sg20
g21
((dp1833
NI15
stRp1834
sg24
I2
sg25
F16
sbs(g8
S'contains(zapping)'
p1835
tp1836
g1
(g15
g3
NtRp1837
(dp1838
g18
F0.5
sg19
I51
sg20
g21
((dp1839
NI51
stRp1840
sg24
I2
sg25
F52
sbs(g217
g557
tp1841
g1
(g15
g3
NtRp1842
(dp1843
g18
F0.5
sg19
I51
sg20
g21
((dp1844
I01
I1
sNI50
stRp1845
sg24
I2
sg25
F52
sbs(g718
S'contains(reading)'
p1846
tp1847
g1
(g15
g3
NtRp1848
(dp1849
g18
F0.5
sg19
I51
sg20
g21
((dp1850
I01
I1
sNI50
stRp1851
sg24
I2
sg25
F52
sbs(g10
S"contains(what's)"
p1852
tp1853
g1
(g15
g3
NtRp1854
(dp1855
g18
F0.5
sg19
I15
sg20
g21
((dp1856
NI15
stRp1857
sg24
I2
sg25
F16
sbs(g9
g988
tp1858
g1
(g15
g3
NtRp1859
(dp1860
g18
F0.5
sg19
I92
sg20
g21
((dp1861
NI92
stRp1862
sg24
I2
sg25
F93
sbs(g8
g902
tp1863
g1
(g15
g3
NtRp1864
(dp1865
g18
F0.5
sg19
I51
sg20
g21
((dp1866
NI51
stRp1867
sg24
I2
sg25
F52
sbs(g8
g105
tp1868
g1
(g15
g3
NtRp1869
(dp1870
g18
F0.5
sg19
I51
sg20
g21
((dp1871
NI51
stRp1872
sg24
I2
sg25
F52
sbs(g9
S'contains(as)'
p1873
tp1874
g1
(g15
g3
NtRp1875
(dp1876
g18
F0.5
sg19
I92
sg20
g21
((dp1877
NI92
stRp1878
sg24
I2
sg25
F93
sbs(g10
S'contains(?)'
tp1879
g1
(g15
g3
NtRp1880
(dp1881
g18
F0.5
sg19
I15
sg20
g21
((dp1882
I01
I15
stRp1883
sg24
I1
sg25
F15.5
sbs(g290
g359
tp1884
g1
(g15
g3
NtRp1885
(dp1886
g18
F0.5
sg19
I51
sg20
g21
((dp1887
I01
I1
sNI50
stRp1888
sg24
I2
sg25
F52
sbs(g8
g418
tp1889
g1
(g15
g3
NtRp1890
(dp1891
g18
F0.5
sg19
I51
sg20
g21
((dp1892
NI51
stRp1893
sg24
I2
sg25
F52
sbs(g8
g1852
tp1894
g1
(g15
g3
NtRp1895
(dp1896
g18
F0.5
sg19
I51
sg20
g21
((dp1897
NI51
stRp1898
sg24
I2
sg25
F52
sbs(g8
S'contains(eucalyptus)'
p1899
tp1900
g1
(g15
g3
NtRp1901
(dp1902
g18
F0.5
sg19
I51
sg20
g21
((dp1903
NI51
stRp1904
sg24
I2
sg25
F52
sbs(g10
S'contains(ads)'
p1905
tp1906
g1
(g15
g3
NtRp1907
(dp1908
g18
F0.5
sg19
I15
sg20
g21
((dp1909
NI15
stRp1910
sg24
I2
sg25
F16
sbs(g10
S'contains(dn)'
p1911
tp1912
g1
(g15
g3
NtRp1913
(dp1914
g18
F0.5
sg19
I15
sg20
g21
((dp1915
NI15
stRp1916
sg24
I2
sg25
F16
sbs(g9
g1199
tp1917
g1
(g15
g3
NtRp1918
(dp1919
g18
F0.5
sg19
I92
sg20
g21
((dp1920
NI92
stRp1921
sg24
I2
sg25
F93
sbs(g10
g309
tp1922
g1
(g15
g3
NtRp1923
(dp1924
g18
F0.5
sg19
I15
sg20
g21
((dp1925
NI15
stRp1926
sg24
I2
sg25
F16
sbs(g10
S'contains(what)'
tp1927
g1
(g15
g3
NtRp1928
(dp1929
g18
F0.5
sg19
I15
sg20
g21
((dp1930
I01
I15
stRp1931
sg24
I2
sg25
F16
sbs(g9
g913
tp1932
g1
(g15
g3
NtRp1933
(dp1934
g18
F0.5
sg19
I92
sg20
g21
((dp1935
NI92
stRp1936
sg24
I2
sg25
F93
sbs(g9
S'contains(form)'
p1937
tp1938
g1
(g15
g3
NtRp1939
(dp1940
g18
F0.5
sg19
I92
sg20
g21
((dp1941
NI92
stRp1942
sg24
I2
sg25
F93
sbs(g8
g580
tp1943
g1
(g15
g3
NtRp1944
(dp1945
g18
F0.5
sg19
I51
sg20
g21
((dp1946
NI51
stRp1947
sg24
I2
sg25
F52
sbs(g9
g291
tp1948
g1
(g15
g3
NtRp1949
(dp1950
g18
F0.5
sg19
I92
sg20
g21
((dp1951
NI92
stRp1952
sg24
I2
sg25
F93
sbs(g8
g278
tp1953
g1
(g15
g3
NtRp1954
(dp1955
g18
F0.5
sg19
I51
sg20
g21
((dp1956
NI51
stRp1957
sg24
I2
sg25
F52
sbs(g10
g1193
tp1958
g1
(g15
g3
NtRp1959
(dp1960
g18
F0.5
sg19
I15
sg20
g21
((dp1961
NI15
stRp1962
sg24
I2
sg25
F16
sbs(g10
g272
tp1963
g1
(g15
g3
NtRp1964
(dp1965
g18
F0.5
sg19
I15
sg20
g21
((dp1966
NI15
stRp1967
sg24
I2
sg25
F16
sbs(g10
g785
tp1968
g1
(g15
g3
NtRp1969
(dp1970
g18
F0.5
sg19
I15
sg20
g21
((dp1971
NI15
stRp1972
sg24
I2
sg25
F16
sbs(S'Abbreviation'
g1911
tp1973
g1
(g15
g3
NtRp1974
(dp1975
g18
F0.5
sg19
I51
sg20
g21
((dp1976
I01
I1
sNI50
stRp1977
sg24
I2
sg25
F52
sbs(g10
g105
tp1978
g1
(g15
g3
NtRp1979
(dp1980
g18
F0.5
sg19
I15
sg20
g21
((dp1981
NI15
stRp1982
sg24
I2
sg25
F16
sbs(g10
g259
tp1983
g1
(g15
g3
NtRp1984
(dp1985
g18
F0.5
sg19
I15
sg20
g21
((dp1986
NI15
stRp1987
sg24
I2
sg25
F16
sbs(S'Meaning'
p1988
S'contains(santa)'
p1989
tp1990
g1
(g15
g3
NtRp1991
(dp1992
g18
F0.5
sg19
I92
sg20
g21
((dp1993
I01
I1
sNI91
stRp1994
sg24
I2
sg25
F93
sbs(g8
g785
tp1995
g1
(g15
g3
NtRp1996
(dp1997
g18
F0.5
sg19
I51
sg20
g21
((dp1998
NI51
stRp1999
sg24
I2
sg25
F52
sbs(S'Meaning'
g1818
tp2000
g1
(g15
g3
NtRp2001
(dp2002
g18
F0.5
sg19
I92
sg20
g21
((dp2003
I01
I1
sNI91
stRp2004
sg24
I2
sg25
F93
sbs(g8
g1258
tp2005
g1
(g15
g3
NtRp2006
(dp2007
g18
F0.5
sg19
I51
sg20
g21
((dp2008
NI51
stRp2009
sg24
I2
sg25
F52
sbs(g10
S'contains(cad)'
p2010
tp2011
g1
(g15
g3
NtRp2012
(dp2013
g18
F0.5
sg19
I15
sg20
g21
((dp2014
NI15
stRp2015
sg24
I2
sg25
F16
sbs(S'Meaning'
g1145
tp2016
g1
(g15
g3
NtRp2017
(dp2018
g18
F0.5
sg19
I92
sg20
g21
((dp2019
I01
I1
sNI91
stRp2020
sg24
I2
sg25
F93
sbs(g10
S'contains(when)'
p2021
tp2022
g1
(g15
g3
NtRp2023
(dp2024
g18
F0.5
sg19
I15
sg20
g21
((dp2025
NI15
stRp2026
sg24
I2
sg25
F16
sbs(g10
g988
tp2027
g1
(g15
g3
NtRp2028
(dp2029
g18
F0.5
sg19
I15
sg20
g21
((dp2030
NI15
stRp2031
sg24
I2
sg25
F16
sbs(g9
S'contains(on)'
p2032
tp2033
g1
(g15
g3
NtRp2034
(dp2035
g18
F0.5
sg19
I92
sg20
g21
((dp2036
NI92
stRp2037
sg24
I2
sg25
F93
sbs(g10
g1156
tp2038
g1
(g15
g3
NtRp2039
(dp2040
g18
F0.5
sg19
I15
sg20
g21
((dp2041
NI15
stRp2042
sg24
I2
sg25
F16
sbs(g9
g1014
tp2043
g1
(g15
g3
NtRp2044
(dp2045
g18
F0.5
sg19
I92
sg20
g21
((dp2046
NI92
stRp2047
sg24
I2
sg25
F93
sbs(g10
g435
tp2048
g1
(g15
g3
NtRp2049
(dp2050
g18
F0.5
sg19
I15
sg20
g21
((dp2051
NI15
stRp2052
sg24
I2
sg25
F16
sbs(g10
g820
tp2053
g1
(g15
g3
NtRp2054
(dp2055
g18
F0.5
sg19
I15
sg20
g21
((dp2056
NI15
stRp2057
sg24
I2
sg25
F16
sbs(g10
S'contains(other)'
p2058
tp2059
g1
(g15
g3
NtRp2060
(dp2061
g18
F0.5
sg19
I15
sg20
g21
((dp2062
NI15
stRp2063
sg24
I2
sg25
F16
sbs(S'Meaning'
p2064
g1899
tp2065
g1
(g15
g3
NtRp2066
(dp2067
g18
F0.5
sg19
I92
sg20
g21
((dp2068
I01
I1
sNI91
stRp2069
sg24
I2
sg25
F93
sbs(g10
g1082
tp2070
g1
(g15
g3
NtRp2071
(dp2072
g18
F0.5
sg19
I15
sg20
g21
((dp2073
NI15
stRp2074
sg24
I2
sg25
F16
sbs(g718
g1043
tp2075
g1
(g15
g3
NtRp2076
(dp2077
g18
F0.5
sg19
I51
sg20
g21
((dp2078
I01
I1
sNI50
stRp2079
sg24
I2
sg25
F52
sbs(g9
g187
tp2080
g1
(g15
g3
NtRp2081
(dp2082
g18
F0.5
sg19
I92
sg20
g21
((dp2083
NI92
stRp2084
sg24
I2
sg25
F93
sbs(g10
g175
tp2085
g1
(g15
g3
NtRp2086
(dp2087
g18
F0.5
sg19
I15
sg20
g21
((dp2088
NI15
stRp2089
sg24
I2
sg25
F16
sbs(g10
g193
tp2090
g1
(g15
g3
NtRp2091
(dp2092
g18
F0.5
sg19
I15
sg20
g21
((dp2093
NI15
stRp2094
sg24
I2
sg25
F16
sbs(g718
g1905
tp2095
g1
(g15
g3
NtRp2096
(dp2097
g18
F0.5
sg19
I51
sg20
g21
((dp2098
I01
I1
sNI50
stRp2099
sg24
I2
sg25
F52
sbs(g10
g1014
tp2100
g1
(g15
g3
NtRp2101
(dp2102
g18
F0.5
sg19
I15
sg20
g21
((dp2103
NI15
stRp2104
sg24
I2
sg25
F16
sbs(g8
g1802
tp2105
g1
(g15
g3
NtRp2106
(dp2107
g18
F0.5
sg19
I51
sg20
g21
((dp2108
NI51
stRp2109
sg24
I2
sg25
F52
sbs(g9
g1344
tp2110
g1
(g15
g3
NtRp2111
(dp2112
g18
F0.5
sg19
I92
sg20
g21
((dp2113
NI92
stRp2114
sg24
I2
sg25
F93
sbs(g9
g2058
tp2115
g1
(g15
g3
NtRp2116
(dp2117
g18
F0.5
sg19
I92
sg20
g21
((dp2118
NI92
stRp2119
sg24
I2
sg25
F93
sbs(g10
g205
tp2120
g1
(g15
g3
NtRp2121
(dp2122
g18
F0.5
sg19
I15
sg20
g21
((dp2123
I01
I1
sNI14
stRp2124
sg24
I2
sg25
F16
sbs(g8
g463
tp2125
g1
(g15
g3
NtRp2126
(dp2127
g18
F0.5
sg19
I51
sg20
g21
((dp2128
NI51
stRp2129
sg24
I2
sg25
F52
sbs(g9
g218
tp2130
g1
(g15
g3
NtRp2131
(dp2132
g18
F0.5
sg19
I92
sg20
g21
((dp2133
NI92
stRp2134
sg24
I2
sg25
F93
sbs(g8
S'contains(mellons)'
p2135
tp2136
g1
(g15
g3
NtRp2137
(dp2138
g18
F0.5
sg19
I51
sg20
g21
((dp2139
NI51
stRp2140
sg24
I2
sg25
F52
sbs(g10
g181
tp2141
g1
(g15
g3
NtRp2142
(dp2143
g18
F0.5
sg19
I15
sg20
g21
((dp2144
NI15
stRp2145
sg24
I2
sg25
F16
sbs(g10
g1835
tp2146
g1
(g15
g3
NtRp2147
(dp2148
g18
F0.5
sg19
I15
sg20
g21
((dp2149
NI15
stRp2150
sg24
I2
sg25
F16
sbs(g10
g56
tp2151
g1
(g15
g3
NtRp2152
(dp2153
g18
F0.5
sg19
I15
sg20
g21
((dp2154
NI15
stRp2155
sg24
I2
sg25
F16
sbs(g8
g1737
tp2156
g1
(g15
g3
NtRp2157
(dp2158
g18
F0.5
sg19
I51
sg20
g21
((dp2159
NI51
stRp2160
sg24
I2
sg25
F52
sbs(S'Meaning'
g580
tp2161
g1
(g15
g3
NtRp2162
(dp2163
g18
F0.5
sg19
I92
sg20
g21
((dp2164
I01
I2
sNI90
stRp2165
sg24
I2
sg25
F93
sbs(g8
S'contains(backpacks)'
p2166
tp2167
g1
(g15
g3
NtRp2168
(dp2169
g18
F0.5
sg19
I51
sg20
g21
((dp2170
NI51
stRp2171
sg24
I2
sg25
F52
sbs(g9
g1031
tp2172
g1
(g15
g3
NtRp2173
(dp2174
g18
F0.5
sg19
I92
sg20
g21
((dp2175
NI92
stRp2176
sg24
I2
sg25
F93
sbs(g10
g157
tp2177
g1
(g15
g3
NtRp2178
(dp2179
g18
F0.5
sg19
I15
sg20
g21
((dp2180
NI15
stRp2181
sg24
I2
sg25
F16
sbs(g10
S'contains(dollar)'
p2182
tp2183
g1
(g15
g3
NtRp2184
(dp2185
g18
F0.5
sg19
I15
sg20
g21
((dp2186
NI15
stRp2187
sg24
I2
sg25
F16
sbs(g8
g1796
tp2188
g1
(g15
g3
NtRp2189
(dp2190
g18
F0.5
sg19
I51
sg20
g21
((dp2191
NI51
stRp2192
sg24
I2
sg25
F52
sbs(g8
g925
tp2193
g1
(g15
g3
NtRp2194
(dp2195
g18
F0.5
sg19
I51
sg20
g21
((dp2196
NI51
stRp2197
sg24
I2
sg25
F52
sbs(g9
g140
tp2198
g1
(g15
g3
NtRp2199
(dp2200
g18
F0.5
sg19
I92
sg20
g21
((dp2201
NI92
stRp2202
sg24
I2
sg25
F93
sbs(S'Meaning'
g1796
tp2203
g1
(g15
g3
NtRp2204
(dp2205
g18
F0.5
sg19
I92
sg20
g21
((dp2206
I01
I1
sNI91
stRp2207
sg24
I2
sg25
F93
sbs(S'Composition'
g1785
tp2208
g1
(g15
g3
NtRp2209
(dp2210
g18
F0.5
sg19
I15
sg20
g21
((dp2211
I01
I1
sNI14
stRp2212
sg24
I2
sg25
F16
sbs(S'Abbreviation'
g896
tp2213
g1
(g15
g3
NtRp2214
(dp2215
g18
F0.5
sg19
I51
sg20
g21
((dp2216
I01
I1
sNI50
stRp2217
sg24
I2
sg25
F52
sbs(g10
g1281
tp2218
g1
(g15
g3
NtRp2219
(dp2220
g18
F0.5
sg19
I15
sg20
g21
((dp2221
NI15
stRp2222
sg24
I2
sg25
F16
sbs(g217
g1603
tp2223
g1
(g15
g3
NtRp2224
(dp2225
g18
F0.5
sg19
I51
sg20
g21
((dp2226
I01
I1
sNI50
stRp2227
sg24
I2
sg25
F52
sbs(S'Meaning'
g1377
tp2228
g1
(g15
g3
NtRp2229
(dp2230
g18
F0.5
sg19
I92
sg20
g21
((dp2231
I01
I1
sNI91
stRp2232
sg24
I2
sg25
F93
sbs(g9
g475
tp2233
g1
(g15
g3
NtRp2234
(dp2235
g18
F0.5
sg19
I92
sg20
g21
((dp2236
NI92
stRp2237
sg24
I2
sg25
F93
sbs(S'Composition'
g880
tp2238
g1
(g15
g3
NtRp2239
(dp2240
g18
F0.5
sg19
I15
sg20
g21
((dp2241
I01
I1
sNI14
stRp2242
sg24
I2
sg25
F16
sbs(g9
g481
tp2243
g1
(g15
g3
NtRp2244
(dp2245
g18
F0.5
sg19
I92
sg20
g21
((dp2246
I01
I29
sNI63
stRp2247
sg24
I2
sg25
F93
sbs(g10
S'contains(haircut)'
p2248
tp2249
g1
(g15
g3
NtRp2250
(dp2251
g18
F0.5
sg19
I15
sg20
g21
((dp2252
NI15
stRp2253
sg24
I2
sg25
F16
sbs(S'Meaning'
g1835
tp2254
g1
(g15
g3
NtRp2255
(dp2256
g18
F0.5
sg19
I92
sg20
g21
((dp2257
I01
I1
sNI91
stRp2258
sg24
I2
sg25
F93
sbs(g9
S'contains(htc)'
p2259
tp2260
g1
(g15
g3
NtRp2261
(dp2262
g18
F0.5
sg19
I92
sg20
g21
((dp2263
NI92
stRp2264
sg24
I2
sg25
F93
sbs(g499
S'contains(bureau)'
p2265
tp2266
g1
(g15
g3
NtRp2267
(dp2268
g18
F0.5
sg19
I51
sg20
g21
((dp2269
I01
I1
sNI50
stRp2270
sg24
I2
sg25
F52
sbs(S'Abbreviation'
g1716
tp2271
g1
(g15
g3
NtRp2272
(dp2273
g18
F0.5
sg19
I51
sg20
g21
((dp2274
I01
I1
sNI50
stRp2275
sg24
I2
sg25
F52
sbs(S'Meaning'
S'contains(atm)'
p2276
tp2277
g1
(g15
g3
NtRp2278
(dp2279
g18
F0.5
sg19
I92
sg20
g21
((dp2280
I01
I1
sNI91
stRp2281
sg24
I2
sg25
F93
sbs(g8
g394
tp2282
g1
(g15
g3
NtRp2283
(dp2284
g18
F0.5
sg19
I51
sg20
g21
((dp2285
NI51
stRp2286
sg24
I2
sg25
F52
sbs(g10
S'contains(word)'
p2287
tp2288
g1
(g15
g3
NtRp2289
(dp2290
g18
F0.5
sg19
I15
sg20
g21
((dp2291
NI15
stRp2292
sg24
I2
sg25
F16
sbs(g8
g44
tp2293
g1
(g15
g3
NtRp2294
(dp2295
g18
F0.5
sg19
I51
sg20
g21
((dp2296
NI51
stRp2297
sg24
I2
sg25
F52
sbs(S'Abbreviation'
g1070
tp2298
g1
(g15
g3
NtRp2299
(dp2300
g18
F0.5
sg19
I51
sg20
g21
((dp2301
I01
I1
sNI50
stRp2302
sg24
I2
sg25
F52
sbs(g9
g211
tp2303
g1
(g15
g3
NtRp2304
(dp2305
g18
F0.5
sg19
I92
sg20
g21
((dp2306
NI92
stRp2307
sg24
I2
sg25
F93
sbs(g9
g535
tp2308
g1
(g15
g3
NtRp2309
(dp2310
g18
F0.5
sg19
I92
sg20
g21
((dp2311
NI92
stRp2312
sg24
I2
sg25
F93
sbs(g10
g937
tp2313
g1
(g15
g3
NtRp2314
(dp2315
g18
F0.5
sg19
I15
sg20
g21
((dp2316
I01
I4
sNI11
stRp2317
sg24
I2
sg25
F16
sbs(S'Meaning'
g44
tp2318
g1
(g15
g3
NtRp2319
(dp2320
g18
F0.5
sg19
I92
sg20
g21
((dp2321
I01
I1
sNI91
stRp2322
sg24
I2
sg25
F93
sbs(g784
g2287
tp2323
g1
(g15
g3
NtRp2324
(dp2325
g18
F0.5
sg19
I92
sg20
g21
((dp2326
I01
I14
sNI78
stRp2327
sg24
I2
sg25
F93
sbs(g10
g406
tp2328
g1
(g15
g3
NtRp2329
(dp2330
g18
F0.5
sg19
I15
sg20
g21
((dp2331
NI15
stRp2332
sg24
I2
sg25
F16
sbs(g10
g1076
tp2333
g1
(g15
g3
NtRp2334
(dp2335
g18
F0.5
sg19
I15
sg20
g21
((dp2336
NI15
stRp2337
sg24
I2
sg25
F16
sbs(g8
g772
tp2338
g1
(g15
g3
NtRp2339
(dp2340
g18
F0.5
sg19
I51
sg20
g21
((dp2341
NI51
stRp2342
sg24
I2
sg25
F52
sbs(g9
g1425
tp2343
g1
(g15
g3
NtRp2344
(dp2345
g18
F0.5
sg19
I92
sg20
g21
((dp2346
NI92
stRp2347
sg24
I2
sg25
F93
sbs(g8
S'contains(protective)'
p2348
tp2349
g1
(g15
g3
NtRp2350
(dp2351
g18
F0.5
sg19
I51
sg20
g21
((dp2352
NI51
stRp2353
sg24
I2
sg25
F52
sbs(g9
g749
tp2354
g1
(g15
g3
NtRp2355
(dp2356
g18
F0.5
sg19
I92
sg20
g21
((dp2357
NI92
stRp2358
sg24
I2
sg25
F93
sbs(g10
g755
tp2359
g1
(g15
g3
NtRp2360
(dp2361
g18
F0.5
sg19
I15
sg20
g21
((dp2362
NI15
stRp2363
sg24
I2
sg25
F16
sbs(g9
g1134
tp2364
g1
(g15
g3
NtRp2365
(dp2366
g18
F0.5
sg19
I92
sg20
g21
((dp2367
NI92
stRp2368
sg24
I2
sg25
F93
sbs(g8
g737
tp2369
g1
(g15
g3
NtRp2370
(dp2371
g18
F0.5
sg19
I51
sg20
g21
((dp2372
NI51
stRp2373
sg24
I2
sg25
F52
sbs(S'Meaning'
g511
tp2374
g1
(g15
g3
NtRp2375
(dp2376
g18
F0.5
sg19
I92
sg20
g21
((dp2377
I01
I1
sNI91
stRp2378
sg24
I2
sg25
F93
sbs(g80
g837
tp2379
g1
(g15
g3
NtRp2380
(dp2381
g18
F0.5
sg19
I51
sg20
g21
((dp2382
I01
I1
sNI50
stRp2383
sg24
I2
sg25
F52
sbs(g8
g731
tp2384
g1
(g15
g3
NtRp2385
(dp2386
g18
F0.5
sg19
I51
sg20
g21
((dp2387
NI51
stRp2388
sg24
I2
sg25
F52
sbs(g8
g1989
tp2389
g1
(g15
g3
NtRp2390
(dp2391
g18
F0.5
sg19
I51
sg20
g21
((dp2392
NI51
stRp2393
sg24
I2
sg25
F52
sbs(g10
g712
tp2394
g1
(g15
g3
NtRp2395
(dp2396
g18
F0.5
sg19
I15
sg20
g21
((dp2397
NI15
stRp2398
sg24
I2
sg25
F16
sbs(g10
g1585
tp2399
g1
(g15
g3
NtRp2400
(dp2401
g18
F0.5
sg19
I15
sg20
g21
((dp2402
NI15
stRp2403
sg24
I2
sg25
F16
sbs(g87
S'contains(battery)'
p2404
tp2405
g1
(g15
g3
NtRp2406
(dp2407
g18
F0.5
sg19
I15
sg20
g21
((dp2408
I01
I1
sNI14
stRp2409
sg24
I2
sg25
F16
sbs(g574
g682
tp2410
g1
(g15
g3
NtRp2411
(dp2412
g18
F0.5
sg19
I51
sg20
g21
((dp2413
I01
I20
sNI31
stRp2414
sg24
I2
sg25
F52
sbs(g8
g1076
tp2415
g1
(g15
g3
NtRp2416
(dp2417
g18
F0.5
sg19
I51
sg20
g21
((dp2418
NI51
stRp2419
sg24
I2
sg25
F52
sbs(S'Abbreviation'
S'contains(3d)'
p2420
tp2421
g1
(g15
g3
NtRp2422
(dp2423
g18
F0.5
sg19
I51
sg20
g21
((dp2424
I01
I1
sNI50
stRp2425
sg24
I2
sg25
F52
sbs(g10
g529
tp2426
g1
(g15
g3
NtRp2427
(dp2428
g18
F0.5
sg19
I15
sg20
g21
((dp2429
NI15
stRp2430
sg24
I2
sg25
F16
sbs(g10
g694
tp2431
g1
(g15
g3
NtRp2432
(dp2433
g18
F0.5
sg19
I15
sg20
g21
((dp2434
NI15
stRp2435
sg24
I2
sg25
F16
sbs(g10
g1134
tp2436
g1
(g15
g3
NtRp2437
(dp2438
g18
F0.5
sg19
I15
sg20
g21
((dp2439
NI15
stRp2440
sg24
I2
sg25
F16
sbs(g10
g1989
tp2441
g1
(g15
g3
NtRp2442
(dp2443
g18
F0.5
sg19
I15
sg20
g21
((dp2444
NI15
stRp2445
sg24
I2
sg25
F16
sbs(g10
g749
tp2446
g1
(g15
g3
NtRp2447
(dp2448
g18
F0.5
sg19
I15
sg20
g21
((dp2449
NI15
stRp2450
sg24
I2
sg25
F16
sbs(g10
g648
tp2451
g1
(g15
g3
NtRp2452
(dp2453
g18
F0.5
sg19
I15
sg20
g21
((dp2454
NI15
stRp2455
sg24
I2
sg25
F16
sbs(g10
g731
tp2456
g1
(g15
g3
NtRp2457
(dp2458
g18
F0.5
sg19
I15
sg20
g21
((dp2459
NI15
stRp2460
sg24
I2
sg25
F16
sbs(g9
g13
tp2461
g1
(g15
g3
NtRp2462
(dp2463
g18
F0.5
sg19
I92
sg20
g21
((dp2464
NI92
stRp2465
sg24
I2
sg25
F93
sbs(g10
g1899
tp2466
g1
(g15
g3
NtRp2467
(dp2468
g18
F0.5
sg19
I15
sg20
g21
((dp2469
NI15
stRp2470
sg24
I2
sg25
F16
sbs(g10
g99
tp2471
g1
(g15
g3
NtRp2472
(dp2473
g18
F0.5
sg19
I15
sg20
g21
((dp2474
NI15
stRp2475
sg24
I2
sg25
F16
sbs(g2064
g1680
tp2476
g1
(g15
g3
NtRp2477
(dp2478
g18
F0.5
sg19
I92
sg20
g21
((dp2479
I01
I1
sNI91
stRp2480
sg24
I2
sg25
F93
sbs(g10
g1070
tp2481
g1
(g15
g3
NtRp2482
(dp2483
g18
F0.5
sg19
I15
sg20
g21
((dp2484
NI15
stRp2485
sg24
I2
sg25
F16
sbs(S'Meaning'
g610
tp2486
g1
(g15
g3
NtRp2487
(dp2488
g18
F0.5
sg19
I92
sg20
g21
((dp2489
I01
I1
sNI91
stRp2490
sg24
I2
sg25
F93
sbs(g10
g365
tp2491
g1
(g15
g3
NtRp2492
(dp2493
g18
F0.5
sg19
I15
sg20
g21
((dp2494
NI15
stRp2495
sg24
I2
sg25
F16
sbs(g8
g592
tp2496
g1
(g15
g3
NtRp2497
(dp2498
g18
F0.5
sg19
I51
sg20
g21
((dp2499
NI51
stRp2500
sg24
I2
sg25
F52
sbs(S'Meaning'
g1264
tp2501
g1
(g15
g3
NtRp2502
(dp2503
g18
F0.5
sg19
I92
sg20
g21
((dp2504
I01
I1
sNI91
stRp2505
sg24
I2
sg25
F93
sbs(g290
S'contains(a)'
tp2506
g1
(g15
g3
NtRp2507
(dp2508
g18
F0.5
sg19
I51
sg20
g21
((dp2509
I01
I1
sNI50
stRp2510
sg24
I2
sg25
F52
sbs(S'Composition'
g725
tp2511
g1
(g15
g3
NtRp2512
(dp2513
g18
F0.5
sg19
I15
sg20
g21
((dp2514
I01
I1
sNI14
stRp2515
sg24
I2
sg25
F16
sbs(g9
g1905
tp2516
g1
(g15
g3
NtRp2517
(dp2518
g18
F0.5
sg19
I92
sg20
g21
((dp2519
NI92
stRp2520
sg24
I2
sg25
F93
sbs(g10
g2276
tp2521
g1
(g15
g3
NtRp2522
(dp2523
g18
F0.5
sg19
I15
sg20
g21
((dp2524
NI15
stRp2525
sg24
I2
sg25
F16
sbs(g290
g1873
tp2526
g1
(g15
g3
NtRp2527
(dp2528
g18
F0.5
sg19
I51
sg20
g21
((dp2529
I01
I1
sNI50
stRp2530
sg24
I2
sg25
F52
sbs(g8
g791
tp2531
g1
(g15
g3
NtRp2532
(dp2533
g18
F0.5
sg19
I51
sg20
g21
((dp2534
NI51
stRp2535
sg24
I2
sg25
F52
sbs(g10
g1258
tp2536
g1
(g15
g3
NtRp2537
(dp2538
g18
F0.5
sg19
I15
sg20
g21
((dp2539
NI15
stRp2540
sg24
I2
sg25
F16
sbs(g10
g631
tp2541
g1
(g15
g3
NtRp2542
(dp2543
g18
F0.5
sg19
I15
sg20
g21
((dp2544
NI15
stRp2545
sg24
I2
sg25
F16
sbs(g8
g493
tp2546
g1
(g15
g3
NtRp2547
(dp2548
g18
F0.5
sg19
I51
sg20
g21
((dp2549
NI51
stRp2550
sg24
I2
sg25
F52
sbs(g8
g535
tp2551
g1
(g15
g3
NtRp2552
(dp2553
g18
F0.5
sg19
I51
sg20
g21
((dp2554
NI51
stRp2555
sg24
I2
sg25
F52
sbs(g8
g1281
tp2556
g1
(g15
g3
NtRp2557
(dp2558
g18
F0.5
sg19
I51
sg20
g21
((dp2559
NI51
stRp2560
sg24
I2
sg25
F52
sbs(g10
g429
tp2561
g1
(g15
g3
NtRp2562
(dp2563
g18
F0.5
sg19
I15
sg20
g21
((dp2564
NI15
stRp2565
sg24
I2
sg25
F16
sbs(S'Meaning'
p2566
g1852
tp2567
g1
(g15
g3
NtRp2568
(dp2569
g18
F0.5
sg19
I92
sg20
g21
((dp2570
I01
I20
sNI72
stRp2571
sg24
I2
sg25
F93
sbs(S'Meaning'
g451
tp2572
g1
(g15
g3
NtRp2573
(dp2574
g18
F0.5
sg19
I92
sg20
g21
((dp2575
I01
I1
sNI91
stRp2576
sg24
I2
sg25
F93
sbs(g10
g610
tp2577
g1
(g15
g3
NtRp2578
(dp2579
g18
F0.5
sg19
I15
sg20
g21
((dp2580
NI15
stRp2581
sg24
I2
sg25
F16
sbs(g290
S'contains(mean)'
tp2582
g1
(g15
g3
NtRp2583
(dp2584
g18
F0.5
sg19
I51
sg20
g21
((dp2585
I01
I1
sNI50
stRp2586
sg24
I2
sg25
F52
sbs(g8
g2182
tp2587
g1
(g15
g3
NtRp2588
(dp2589
g18
F0.5
sg19
I51
sg20
g21
((dp2590
NI51
stRp2591
sg24
I2
sg25
F52
sbs(g9
g1591
tp2592
g1
(g15
g3
NtRp2593
(dp2594
g18
F0.5
sg19
I92
sg20
g21
((dp2595
NI92
stRp2596
sg24
I2
sg25
F93
sbs(S'Meaning'
g2182
tp2597
g1
(g15
g3
NtRp2598
(dp2599
g18
F0.5
sg19
I92
sg20
g21
((dp2600
I01
I1
sNI91
stRp2601
sg24
I2
sg25
F93
sbs(g10
g2166
tp2602
g1
(g15
g3
NtRp2603
(dp2604
g18
F0.5
sg19
I15
sg20
g21
((dp2605
NI15
stRp2606
sg24
I2
sg25
F16
sbs(g10
g1748
tp2607
g1
(g15
g3
NtRp2608
(dp2609
g18
F0.5
sg19
I15
sg20
g21
((dp2610
NI15
stRp2611
sg24
I2
sg25
F16
sbs(g10
g218
tp2612
g1
(g15
g3
NtRp2613
(dp2614
g18
F0.5
sg19
I15
sg20
g21
((dp2615
NI15
stRp2616
sg24
I2
sg25
F16
sbs(g9
g1785
tp2617
g1
(g15
g3
NtRp2618
(dp2619
g18
F0.5
sg19
I92
sg20
g21
((dp2620
NI92
stRp2621
sg24
I2
sg25
F93
sbs(S'Abbreviation'
g469
tp2622
g1
(g15
g3
NtRp2623
(dp2624
g18
F0.5
sg19
I51
sg20
g21
((dp2625
I01
I1
sNI50
stRp2626
sg24
I2
sg25
F52
sbs(g10
g1366
tp2627
g1
(g15
g3
NtRp2628
(dp2629
g18
F0.5
sg19
I15
sg20
g21
((dp2630
NI15
stRp2631
sg24
I2
sg25
F16
sbs(S'Meaning'
p2632
g157
tp2633
g1
(g15
g3
NtRp2634
(dp2635
g18
F0.5
sg19
I92
sg20
g21
((dp2636
I01
I1
sNI91
stRp2637
sg24
I2
sg25
F93
sbs(S'Meaning'
g1759
tp2638
g1
(g15
g3
NtRp2639
(dp2640
g18
F0.5
sg19
I92
sg20
g21
((dp2641
I01
I1
sNI91
stRp2642
sg24
I2
sg25
F93
sbs(g10
g2032
tp2643
g1
(g15
g3
NtRp2644
(dp2645
g18
F0.5
sg19
I15
sg20
g21
((dp2646
NI15
stRp2647
sg24
I2
sg25
F16
sbs(g9
g896
tp2648
g1
(g15
g3
NtRp2649
(dp2650
g18
F0.5
sg19
I92
sg20
g21
((dp2651
NI92
stRp2652
sg24
I2
sg25
F93
sbs(S'Meaning'
g230
tp2653
g1
(g15
g3
NtRp2654
(dp2655
g18
F0.5
sg19
I92
sg20
g21
((dp2656
I01
I1
sNI91
stRp2657
sg24
I2
sg25
F93
sbs(g10
S'contains(of)'
tp2658
g1
(g15
g3
NtRp2659
(dp2660
g18
F0.5
sg19
I15
sg20
g21
((dp2661
I01
I15
stRp2662
sg24
I2
sg25
F16
sbs(g10
g500
tp2663
g1
(g15
g3
NtRp2664
(dp2665
g18
F0.5
sg19
I15
sg20
g21
((dp2666
NI15
stRp2667
sg24
I2
sg25
F16
sbs(g9
g546
tp2668
g1
(g15
g3
NtRp2669
(dp2670
g18
F0.5
sg19
I92
sg20
g21
((dp2671
I01
I29
sNI63
stRp2672
sg24
I2
sg25
F93
sbs(S'Composition'
g1222
tp2673
g1
(g15
g3
NtRp2674
(dp2675
g18
F0.5
sg19
I15
sg20
g21
((dp2676
I01
I1
sNI14
stRp2677
sg24
I2
sg25
F16
sbs(g8
g1264
tp2678
g1
(g15
g3
NtRp2679
(dp2680
g18
F0.5
sg19
I51
sg20
g21
((dp2681
NI51
stRp2682
sg24
I2
sg25
F52
sbs(g10
g1031
tp2683
g1
(g15
g3
NtRp2684
(dp2685
g18
F0.5
sg19
I15
sg20
g21
((dp2686
I01
I15
stRp2687
sg24
I2
sg25
F16
sbs(g8
g1829
tp2688
g1
(g15
g3
NtRp2689
(dp2690
g18
F0.5
sg19
I51
sg20
g21
((dp2691
NI51
stRp2692
sg24
I2
sg25
F52
sbs(g10
g2135
tp2693
g1
(g15
g3
NtRp2694
(dp2695
g18
F0.5
sg19
I15
sg20
g21
((dp2696
NI15
stRp2697
sg24
I2
sg25
F16
sbs(g10
g1456
tp2698
g1
(g15
g3
NtRp2699
(dp2700
g18
F0.5
sg19
I15
sg20
g21
((dp2701
NI15
stRp2702
sg24
I2
sg25
F16
sbs(g10
g2259
tp2703
g1
(g15
g3
NtRp2704
(dp2705
g18
F0.5
sg19
I15
sg20
g21
((dp2706
NI15
stRp2707
sg24
I2
sg25
F16
sbs(g574
S'contains(does)'
tp2708
g1
(g15
g3
NtRp2709
(dp2710
g18
F0.5
sg19
I51
sg20
g21
((dp2711
I01
I27
sNI24
stRp2712
sg24
I2
sg25
F52
sbs(g8
g1456
tp2713
g1
(g15
g3
NtRp2714
(dp2715
g18
F0.5
sg19
I51
sg20
g21
((dp2716
I01
I2
sNI49
stRp2717
sg24
I2
sg25
F52
sbs(S'Abbreviation'
g371
tp2718
g1
(g15
g3
NtRp2719
(dp2720
g18
F0.5
sg19
I51
sg20
g21
((dp2721
I01
I1
sNI50
stRp2722
sg24
I2
sg25
F52
sbs(S'Meaning'
g1355
tp2723
g1
(g15
g3
NtRp2724
(dp2725
g18
F0.5
sg19
I92
sg20
g21
((dp2726
I01
I1
sNI91
stRp2727
sg24
I2
sg25
F93
sbs(S'Meaning'
g1498
tp2728
g1
(g15
g3
NtRp2729
(dp2730
g18
F0.5
sg19
I92
sg20
g21
((dp2731
I01
I1
sNI91
stRp2732
sg24
I2
sg25
F93
sbs(g8
S'contains(are)'
p2733
tp2734
g1
(g15
g3
NtRp2735
(dp2736
g18
F0.5
sg19
I51
sg20
g21
((dp2737
NI51
stRp2738
sg24
I2
sg25
F52
sbs(S'Meaning'
g1802
tp2739
g1
(g15
g3
NtRp2740
(dp2741
g18
F0.5
sg19
I92
sg20
g21
((dp2742
I01
I1
sNI91
stRp2743
sg24
I2
sg25
F93
sbs(g9
g163
tp2744
g1
(g15
g3
NtRp2745
(dp2746
g18
F0.5
sg19
I92
sg20
g21
((dp2747
NI92
stRp2748
sg24
I2
sg25
F93
sbs(g10
g1597
tp2749
g1
(g15
g3
NtRp2750
(dp2751
g18
F0.5
sg19
I15
sg20
g21
((dp2752
NI15
stRp2753
sg24
I2
sg25
F16
sbs(g9
g743
tp2754
g1
(g15
g3
NtRp2755
(dp2756
g18
F0.5
sg19
I92
sg20
g21
((dp2757
NI92
stRp2758
sg24
I2
sg25
F93
sbs(S'Abbreviation'
g2010
tp2759
g1
(g15
g3
NtRp2760
(dp2761
g18
F0.5
sg19
I51
sg20
g21
((dp2762
I01
I1
sNI50
stRp2763
sg24
I2
sg25
F52
sbs(g10
g1182
tp2764
g1
(g15
g3
NtRp2765
(dp2766
g18
F0.5
sg19
I15
sg20
g21
((dp2767
NI15
stRp2768
sg24
I2
sg25
F16
sbs(g32
g2135
tp2769
g1
(g15
g3
NtRp2770
(dp2771
g18
F0.5
sg19
I92
sg20
g21
((dp2772
I01
I1
sNI91
stRp2773
sg24
I2
sg25
F93
sbs(g8
g660
tp2774
g1
(g15
g3
NtRp2775
(dp2776
g18
F0.5
sg19
I51
sg20
g21
((dp2777
NI51
stRp2778
sg24
I2
sg25
F52
sbs(g9
S'contains(company)'
p2779
tp2780
g1
(g15
g3
NtRp2781
(dp2782
g18
F0.5
sg19
I92
sg20
g21
((dp2783
NI92
stRp2784
sg24
I2
sg25
F93
sbs(S'Meaning'
g259
tp2785
g1
(g15
g3
NtRp2786
(dp2787
g18
F0.5
sg19
I92
sg20
g21
((dp2788
I01
I1
sNI91
stRp2789
sg24
I2
sg25
F93
sbs(S'Meaning'
g1059
tp2790
g1
(g15
g3
NtRp2791
(dp2792
g18
F0.5
sg19
I92
sg20
g21
((dp2793
I01
I1
sNI91
stRp2794
sg24
I2
sg25
F93
sbs(S'Meaning'
g1597
tp2795
g1
(g15
g3
NtRp2796
(dp2797
g18
F0.5
sg19
I92
sg20
g21
((dp2798
I01
I1
sNI91
stRp2799
sg24
I2
sg25
F93
sbs(g718
g2058
tp2800
g1
(g15
g3
NtRp2801
(dp2802
g18
F0.5
sg19
I51
sg20
g21
((dp2803
I01
I1
sNI50
stRp2804
sg24
I2
sg25
F52
sbs(g9
g2021
tp2805
g1
(g15
g3
NtRp2806
(dp2807
g18
F0.5
sg19
I92
sg20
g21
((dp2808
NI92
stRp2809
sg24
I2
sg25
F93
sbs(S'Meaning'
g700
tp2810
g1
(g15
g3
NtRp2811
(dp2812
g18
F0.5
sg19
I92
sg20
g21
((dp2813
I01
I1
sNI91
stRp2814
sg24
I2
sg25
F93
sbs(g10
g353
tp2815
g1
(g15
g3
NtRp2816
(dp2817
g18
F0.5
sg19
I15
sg20
g21
((dp2818
NI15
stRp2819
sg24
I2
sg25
F16
sbs(S'Meaning'
g1829
tp2820
g1
(g15
g3
NtRp2821
(dp2822
g18
F0.5
sg19
I92
sg20
g21
((dp2823
I01
I1
sNI91
stRp2824
sg24
I2
sg25
F93
sbs(S'Meaning'
g755
tp2825
g1
(g15
g3
NtRp2826
(dp2827
g18
F0.5
sg19
I92
sg20
g21
((dp2828
I01
I1
sNI91
stRp2829
sg24
I2
sg25
F93
sbs(g271
g2021
tp2830
g1
(g15
g3
NtRp2831
(dp2832
g18
F0.5
sg19
I51
sg20
g21
((dp2833
I01
I3
sNI48
stRp2834
sg24
I2
sg25
F52
sbs(g8
g347
tp2835
g1
(g15
g3
NtRp2836
(dp2837
g18
F0.5
sg19
I51
sg20
g21
((dp2838
NI51
stRp2839
sg24
I2
sg25
F52
sbs(g8
g1145
tp2840
g1
(g15
g3
NtRp2841
(dp2842
g18
F0.5
sg19
I51
sg20
g21
((dp2843
NI51
stRp2844
sg24
I2
sg25
F52
sbs(g10
g956
tp2845
g1
(g15
g3
NtRp2846
(dp2847
g18
F0.5
sg19
I15
sg20
g21
((dp2848
NI15
stRp2849
sg24
I2
sg25
F16
sbs(g9
g1911
tp2850
g1
(g15
g3
NtRp2851
(dp2852
g18
F0.5
sg19
I92
sg20
g21
((dp2853
NI92
stRp2854
sg24
I2
sg25
F93
sbs(S'Meaning'
g278
tp2855
g1
(g15
g3
NtRp2856
(dp2857
g18
F0.5
sg19
I92
sg20
g21
((dp2858
I01
I1
sNI91
stRp2859
sg24
I2
sg25
F93
sbs(S'Meaning'
g1020
tp2860
g1
(g15
g3
NtRp2861
(dp2862
g18
F0.5
sg19
I92
sg20
g21
((dp2863
I01
I1
sNI91
stRp2864
sg24
I2
sg25
F93
sbs(g10
g1591
tp2865
g1
(g15
g3
NtRp2866
(dp2867
g18
F0.5
sg19
I15
sg20
g21
((dp2868
NI15
stRp2869
sg24
I2
sg25
F16
sbs(g9
g949
tp2870
g1
(g15
g3
NtRp2871
(dp2872
g18
F0.5
sg19
I92
sg20
g21
((dp2873
NI92
stRp2874
sg24
I2
sg25
F93
sbs(g9
g493
tp2875
g1
(g15
g3
NtRp2876
(dp2877
g18
F0.5
sg19
I92
sg20
g21
((dp2878
NI92
stRp2879
sg24
I2
sg25
F93
sbs(g271
g2032
tp2880
g1
(g15
g3
NtRp2881
(dp2882
g18
F0.5
sg19
I51
sg20
g21
((dp2883
I01
I1
sNI50
stRp2884
sg24
I2
sg25
F52
sbs(g8
g802
tp2885
g1
(g15
g3
NtRp2886
(dp2887
g18
F0.5
sg19
I51
sg20
g21
((dp2888
NI51
stRp2889
sg24
I2
sg25
F52
sbs(S'Meaning'
S'contains(pencil)'
tp2890
g1
(g15
g3
NtRp2891
(dp2892
g18
F0.5
sg19
I92
sg20
g21
((dp2893
I01
I1
sNI91
stRp2894
sg24
I2
sg25
F93
sbs(g9
g2265
tp2895
g1
(g15
g3
NtRp2896
(dp2897
g18
F0.5
sg19
I92
sg20
g21
((dp2898
NI92
stRp2899
sg24
I2
sg25
F93
sbs(g10
g2779
tp2900
g1
(g15
g3
NtRp2901
(dp2902
g18
F0.5
sg19
I15
sg20
g21
((dp2903
NI15
stRp2904
sg24
I2
sg25
F16
sbs(g10
g637
tp2905
g1
(g15
g3
NtRp2906
(dp2907
g18
F0.5
sg19
I15
sg20
g21
((dp2908
NI15
stRp2909
sg24
I2
sg25
F16
sbs(S'Abbreviation'
g2259
tp2910
g1
(g15
g3
NtRp2911
(dp2912
g18
F0.5
sg19
I51
sg20
g21
((dp2913
I01
I1
sNI50
stRp2914
sg24
I2
sg25
F52
sbs(g9
g2420
tp2915
g1
(g15
g3
NtRp2916
(dp2917
g18
F0.5
sg19
I92
sg20
g21
((dp2918
NI92
stRp2919
sg24
I2
sg25
F93
sbs(g2632
g181
tp2920
g1
(g15
g3
NtRp2921
(dp2922
g18
F0.5
sg19
I92
sg20
g21
((dp2923
I01
I1
sNI91
stRp2924
sg24
I2
sg25
F93
sbs(g9
g2010
tp2925
g1
(g15
g3
NtRp2926
(dp2927
g18
F0.5
sg19
I92
sg20
g21
((dp2928
NI92
stRp2929
sg24
I2
sg25
F93
sbs(g10
g1409
tp2930
g1
(g15
g3
NtRp2931
(dp2932
g18
F0.5
sg19
I15
sg20
g21
((dp2933
NI15
stRp2934
sg24
I2
sg25
F16
sbs(g10
g1818
tp2935
g1
(g15
g3
NtRp2936
(dp2937
g18
F0.5
sg19
I15
sg20
g21
((dp2938
NI15
stRp2939
sg24
I2
sg25
F16
sbs(g8
g163
tp2940
g1
(g15
g3
NtRp2941
(dp2942
g18
F0.5
sg19
I51
sg20
g21
((dp2943
NI51
stRp2944
sg24
I2
sg25
F52
sbs(g10
g1020
tp2945
g1
(g15
g3
NtRp2946
(dp2947
g18
F0.5
sg19
I15
sg20
g21
((dp2948
NI15
stRp2949
sg24
I2
sg25
F16
sbs(g654
g2733
tp2950
g1
(g15
g3
NtRp2951
(dp2952
g18
F0.5
sg19
I15
sg20
g21
((dp2953
I01
I7
sNI8
stRp2954
sg24
I2
sg25
F16
sbs(g8
g919
tp2955
g1
(g15
g3
NtRp2956
(dp2957
g18
F0.5
sg19
I51
sg20
g21
((dp2958
NI51
stRp2959
sg24
I2
sg25
F52
sbs(g666
g224
tp2960
g1
(g15
g3
NtRp2961
(dp2962
g18
F0.5
sg19
I92
sg20
g21
((dp2963
I01
I28
sNI64
stRp2964
sg24
I2
sg25
F93
sbs(g9
g62
tp2965
g1
(g15
g3
NtRp2966
(dp2967
g18
F0.5
sg19
I92
sg20
g21
((dp2968
NI92
stRp2969
sg24
I2
sg25
F93
sbs(g8
g224
tp2970
g1
(g15
g3
NtRp2971
(dp2972
g18
F0.5
sg19
I51
sg20
g21
((dp2973
NI51
stRp2974
sg24
I2
sg25
F52
sbs(g9
g50
tp2975
g1
(g15
g3
NtRp2976
(dp2977
g18
F0.5
sg19
I92
sg20
g21
((dp2978
NI92
stRp2979
sg24
I2
sg25
F93
sbs(g10
g134
tp2980
g1
(g15
g3
NtRp2981
(dp2982
g18
F0.5
sg19
I15
sg20
g21
((dp2983
NI15
stRp2984
sg24
I2
sg25
F16
sbs(g9
g880
tp2985
g1
(g15
g3
NtRp2986
(dp2987
g18
F0.5
sg19
I92
sg20
g21
((dp2988
NI92
stRp2989
sg24
I2
sg25
F93
sbs(S'Meaning'
g2166
tp2990
g1
(g15
g3
NtRp2991
(dp2992
g18
F0.5
sg19
I92
sg20
g21
((dp2993
I01
I1
sNI91
stRp2994
sg24
I2
sg25
F93
sbs(g10
g475
tp2995
g1
(g15
g3
NtRp2996
(dp2997
g18
F0.5
sg19
I15
sg20
g21
((dp2998
NI15
stRp2999
sg24
I2
sg25
F16
sbs(g10
g719
tp3000
g1
(g15
g3
NtRp3001
(dp3002
g18
F0.5
sg19
I15
sg20
g21
((dp3003
NI15
stRp3004
sg24
I2
sg25
F16
sbs(g10
g187
tp3005
g1
(g15
g3
NtRp3006
(dp3007
g18
F0.5
sg19
I15
sg20
g21
((dp3008
NI15
stRp3009
sg24
I2
sg25
F16
sbs(g10
g1846
tp3010
g1
(g15
g3
NtRp3011
(dp3012
g18
F0.5
sg19
I15
sg20
g21
((dp3013
NI15
stRp3014
sg24
I2
sg25
F16
sbs(S'Meaning'
g2348
tp3015
g1
(g15
g3
NtRp3016
(dp3017
g18
F0.5
sg19
I92
sg20
g21
((dp3018
I01
I1
sNI91
stRp3019
sg24
I2
sg25
F93
sbs(g80
g2779
tp3020
g1
(g15
g3
NtRp3021
(dp3022
g18
F0.5
sg19
I51
sg20
g21
((dp3023
I01
I1
sNI50
stRp3024
sg24
I2
sg25
F52
sbs(S'Meaning'
g772
tp3025
g1
(g15
g3
NtRp3026
(dp3027
g18
F0.5
sg19
I92
sg20
g21
((dp3028
I01
I1
sNI91
stRp3029
sg24
I2
sg25
F93
sbs(g666
S'contains(is)'
tp3030
g1
(g15
g3
NtRp3031
(dp3032
g18
F0.5
sg19
I92
sg20
g21
((dp3033
I01
I34
sNI58
stRp3034
sg24
I2
sg25
F93
sbs(g9
g68
tp3035
g1
(g15
g3
NtRp3036
(dp3037
g18
F0.5
sg19
I92
sg20
g21
((dp3038
NI92
stRp3039
sg24
I2
sg25
F93
sbs(S'Meaning'
g778
tp3040
g1
(g15
g3
NtRp3041
(dp3042
g18
F0.5
sg19
I92
sg20
g21
((dp3043
I01
I1
sNI91
stRp3044
sg24
I2
sg25
F93
sbs(g290
g1338
tp3045
g1
(g15
g3
NtRp3046
(dp3047
g18
F0.5
sg19
I51
sg20
g21
((dp3048
I01
I1
sNI50
stRp3049
sg24
I2
sg25
F52
sbs(g10
g50
tp3050
g1
(g15
g3
NtRp3051
(dp3052
g18
F0.5
sg19
I15
sg20
g21
((dp3053
NI15
stRp3054
sg24
I2
sg25
F16
sbs(g9
g128
tp3055
g1
(g15
g3
NtRp3056
(dp3057
g18
F0.5
sg19
I92
sg20
g21
((dp3058
I01
I1
sNI91
stRp3059
sg24
I2
sg25
F93
sbs(g8
g128
tp3060
g1
(g15
g3
NtRp3061
(dp3062
g18
F0.5
sg19
I51
sg20
g21
((dp3063
NI51
stRp3064
sg24
I2
sg25
F52
sbs(g9
g1846
tp3065
g1
(g15
g3
NtRp3066
(dp3067
g18
F0.5
sg19
I92
sg20
g21
((dp3068
NI92
stRp3069
sg24
I2
sg25
F93
sbs(g10
g1759
tp3070
g1
(g15
g3
NtRp3071
(dp3072
g18
F0.5
sg19
I15
sg20
g21
((dp3073
NI15
stRp3074
sg24
I2
sg25
F16
sbs(S'Abbreviation'
g111
tp3075
g1
(g15
g3
NtRp3076
(dp3077
g18
F0.5
sg19
I51
sg20
g21
((dp3078
I01
I1
sNI50
stRp3079
sg24
I2
sg25
F52
sbs(g10
g1654
tp3080
g1
(g15
g3
NtRp3081
(dp3082
g18
F0.5
sg19
I15
sg20
g21
((dp3083
NI15
stRp3084
sg24
I2
sg25
F16
sbs(S'Meaning'
g1312
tp3085
g1
(g15
g3
NtRp3086
(dp3087
g18
F0.5
sg19
I92
sg20
g21
((dp3088
I01
I1
sNI91
stRp3089
sg24
I2
sg25
F93
sbs(S'Meaning'
g1037
tp3090
g1
(g15
g3
NtRp3091
(dp3092
g18
F0.5
sg19
I92
sg20
g21
((dp3093
I01
I1
sNI91
stRp3094
sg24
I2
sg25
F93
sbs(S'Meaning'
g660
tp3095
g1
(g15
g3
NtRp3096
(dp3097
g18
F0.5
sg19
I92
sg20
g21
((dp3098
I01
I1
sNI91
stRp3099
sg24
I2
sg25
F93
sbs(g8
g2276
tp3100
g1
(g15
g3
NtRp3101
(dp3102
g18
F0.5
sg19
I51
sg20
g21
((dp3103
NI51
stRp3104
sg24
I2
sg25
F52
sbs(S'Meaning'
g688
tp3105
g1
(g15
g3
NtRp3106
(dp3107
g18
F0.5
sg19
I92
sg20
g21
((dp3108
I01
I1
sNI91
stRp3109
sg24
I2
sg25
F93
sbs(g10
g1355
tp3110
g1
(g15
g3
NtRp3111
(dp3112
g18
F0.5
sg19
I15
sg20
g21
((dp3113
NI15
stRp3114
sg24
I2
sg25
F16
sbs(g8
g511
tp3115
g1
(g15
g3
NtRp3116
(dp3117
g18
F0.5
sg19
I51
sg20
g21
((dp3118
NI51
stRp3119
sg24
I2
sg25
F52
sbs(g8
g1680
tp3120
g1
(g15
g3
NtRp3121
(dp3122
g18
F0.5
sg19
I51
sg20
g21
((dp3123
NI51
stRp3124
sg24
I2
sg25
F52
sbs(g8
g1467
tp3125
g1
(g15
g3
NtRp3126
(dp3127
g18
F0.5
sg19
I51
sg20
g21
((dp3128
NI51
stRp3129
sg24
I2
sg25
F52
sbs(g10
g242
tp3130
g1
(g15
g3
NtRp3131
(dp3132
g18
F0.5
sg19
I15
sg20
g21
((dp3133
NI15
stRp3134
sg24
I2
sg25
F16
sbs(g10
S'contains(is)'
tp3135
g1
(g15
g3
NtRp3136
(dp3137
g18
F0.5
sg19
I15
sg20
g21
((dp3138
I01
I8
sNI7
stRp3139
sg24
I2
sg25
F16
sbs(g10
g1873
tp3140
g1
(g15
g3
NtRp3141
(dp3142
g18
F0.5
sg19
I15
sg20
g21
((dp3143
NI15
stRp3144
sg24
I2
sg25
F16
sbs(g9
g1654
tp3145
g1
(g15
g3
NtRp3146
(dp3147
g18
F0.5
sg19
I92
sg20
g21
((dp3148
NI92
stRp3149
sg24
I2
sg25
F93
sbs(g8
g694
tp3150
g1
(g15
g3
NtRp3151
(dp3152
g18
F0.5
sg19
I51
sg20
g21
((dp3153
NI51
stRp3154
sg24
I2
sg25
F52
sbs(g9
g2404
tp3155
g1
(g15
g3
NtRp3156
(dp3157
g18
F0.5
sg19
I92
sg20
g21
((dp3158
NI92
stRp3159
sg24
I2
sg25
F93
sbs(g8
S'contains(of)'
tp3160
g1
(g15
g3
NtRp3161
(dp3162
g18
F0.5
sg19
I51
sg20
g21
((dp3163
I01
I16
sNI35
stRp3164
sg24
I2
sg25
F52
sbs(g1988
g1737
tp3165
g1
(g15
g3
NtRp3166
(dp3167
g18
F0.5
sg19
I92
sg20
g21
((dp3168
I01
I1
sNI91
stRp3169
sg24
I2
sg25
F93
sbs(g10
g592
tp3170
g1
(g15
g3
NtRp3171
(dp3172
g18
F0.5
sg19
I15
sg20
g21
((dp3173
NI15
stRp3174
sg24
I2
sg25
F16
sbs(g8
g1937
tp3175
g1
(g15
g3
NtRp3176
(dp3177
g18
F0.5
sg19
I51
sg20
g21
((dp3178
I01
I6
sNI45
stRp3179
sg24
I2
sg25
F52
sbs(g8
g2404
tp3180
g1
(g15
g3
NtRp3181
(dp3182
g18
F0.5
sg19
I51
sg20
g21
((dp3183
NI51
stRp3184
sg24
I2
sg25
F52
sbs(g10
g1270
tp3185
g1
(g15
g3
NtRp3186
(dp3187
g18
F0.5
sg19
I15
sg20
g21
((dp3188
NI15
stRp3189
sg24
I2
sg25
F16
sbs(S'Meaning'
g284
tp3190
g1
(g15
g3
NtRp3191
(dp3192
g18
F0.5
sg19
I92
sg20
g21
((dp3193
I01
I1
sNI91
stRp3194
sg24
I2
sg25
F93
sbs(S'Meaning'
p3195
g134
tp3196
g1
(g15
g3
NtRp3197
(dp3198
g18
F0.5
sg19
I92
sg20
g21
((dp3199
I01
I1
sNI91
stRp3200
sg24
I2
sg25
F93
sbs(g10
g802
tp3201
g1
(g15
g3
NtRp3202
(dp3203
g18
F0.5
sg19
I15
sg20
g21
((dp3204
NI15
stRp3205
sg24
I2
sg25
F16
sbs(S'Meaning'
g309
tp3206
g1
(g15
g3
NtRp3207
(dp3208
g18
F0.5
sg19
I92
sg20
g21
((dp3209
I01
I1
sNI91
stRp3210
sg24
I2
sg25
F93
sbs(g3195
g117
tp3211
g1
(g15
g3
NtRp3212
(dp3213
g18
F0.5
sg19
I92
sg20
g21
((dp3214
I01
I1
sNI91
stRp3215
sg24
I2
sg25
F93
sbs(g290
g1182
tp3216
g1
(g15
g3
NtRp3217
(dp3218
g18
F0.5
sg19
I51
sg20
g21
((dp3219
I01
I1
sNI50
stRp3220
sg24
I2
sg25
F52
sbs(g2566
g99
tp3221
g1
(g15
g3
NtRp3222
(dp3223
g18
F0.5
sg19
I92
sg20
g21
((dp3224
I01
I1
sNI91
stRp3225
sg24
I2
sg25
F93
sbs(g10
g2348
tp3226
g1
(g15
g3
NtRp3227
(dp3228
g18
F0.5
sg19
I15
sg20
g21
((dp3229
NI15
stRp3230
sg24
I2
sg25
F16
sbs(g10
g1937
tp3231
g1
(g15
g3
NtRp3232
(dp3233
g18
F0.5
sg19
I15
sg20
g21
((dp3234
NI15
stRp3235
sg24
I2
sg25
F16
sbs(g2064
g151
tp3236
g1
(g15
g3
NtRp3237
(dp3238
g18
F0.5
sg19
I92
sg20
g21
((dp3239
I01
I6
sNI86
stRp3240
sg24
I2
sg25
F93
sbs(g8
g967
tp3241
g1
(g15
g3
NtRp3242
(dp3243
g18
F0.5
sg19
I51
sg20
g21
((dp3244
NI51
stRp3245
sg24
I2
sg25
F52
sbs(g10
g2420
tp3246
g1
(g15
g3
NtRp3247
(dp3248
g18
F0.5
sg19
I15
sg20
g21
((dp3249
NI15
stRp3250
sg24
I2
sg25
F16
sbs(g10
g1210
tp3251
g1
(g15
g3
NtRp3252
(dp3253
g18
F0.5
sg19
I15
sg20
g21
((dp3254
NI15
stRp3255
sg24
I2
sg25
F16
sbs(g9
g937
tp3256
g1
(g15
g3
NtRp3257
(dp3258
g18
F0.5
sg19
I92
sg20
g21
((dp3259
NI92
stRp3260
sg24
I2
sg25
F93
sbs(g8
g2248
tp3261
g1
(g15
g3
NtRp3262
(dp3263
g18
F0.5
sg19
I51
sg20
g21
((dp3264
NI51
stRp3265
sg24
I2
sg25
F52
sbs(g10
g761
tp3266
g1
(g15
g3
NtRp3267
(dp3268
g18
F0.5
sg19
I15
sg20
g21
((dp3269
NI15
stRp3270
sg24
I2
sg25
F16
sbs(S'Meaning'
g2248
tp3271
g1
(g15
g3
NtRp3272
(dp3273
g18
F0.5
sg19
I92
sg20
g21
((dp3274
I01
I1
sNI91
stRp3275
sg24
I2
sg25
F93
sbs(g10
g791
tp3276
g1
(g15
g3
NtRp3277
(dp3278
g18
F0.5
sg19
I15
sg20
g21
((dp3279
NI15
stRp3280
sg24
I2
sg25
F16
sbs(g9
g1270
tp3281
g1
(g15
g3
NtRp3282
(dp3283
g18
F0.5
sg19
I92
sg20
g21
((dp3284
NI92
stRp3285
sg24
I2
sg25
F93
sbs(g9
g1585
tp3286
g1
(g15
g3
NtRp3287
(dp3288
g18
F0.5
sg19
I92
sg20
g21
((dp3289
NI92
stRp3290
sg24
I2
sg25
F93
sbs(S'Abbreviation'
g820
tp3291
g1
(g15
g3
NtRp3292
(dp3293
g18
F0.5
sg19
I51
sg20
g21
((dp3294
I01
I1
sNI50
stRp3295
sg24
I2
sg25
F52
sbs(S'Composition'
g394
tp3296
g1
(g15
g3
NtRp3297
(dp3298
g18
F0.5
sg19
I15
sg20
g21
((dp3299
I01
I1
sNI14
stRp3300
sg24
I2
sg25
F16
sbs(g10
g388
tp3301
g1
(g15
g3
NtRp3302
(dp3303
g18
F0.5
sg19
I15
sg20
g21
((dp3304
NI15
stRp3305
sg24
I2
sg25
F16
sbs(g8
g688
tp3306
g1
(g15
g3
NtRp3307
(dp3308
g18
F0.5
sg19
I51
sg20
g21
((dp3309
NI51
stRp3310
sg24
I2
sg25
F52
sbs(g10
g598
tp3311
g1
(g15
g3
NtRp3312
(dp3313
g18
F0.5
sg19
I15
sg20
g21
((dp3314
NI15
stRp3315
sg24
I2
sg25
F16
sbs(g10
g858
tp3316
g1
(g15
g3
NtRp3317
(dp3318
g18
F0.5
sg19
I15
sg20
g21
((dp3319
NI15
stRp3320
sg24
I2
sg25
F16
sbs(g10
g2265
tp3321
g1
(g15
g3
NtRp3322
(dp3323
g18
F0.5
sg19
I15
sg20
g21
((dp3324
NI15
stRp3325
sg24
I2
sg25
F16
sbs(g9
g1716
tp3326
g1
(g15
g3
NtRp3327
(dp3328
g18
F0.5
sg19
I92
sg20
g21
((dp3329
NI92
stRp3330
sg24
I2
sg25
F93
sbs(g9
g1504
tp3331
g1
(g15
g3
NtRp3332
(dp3333
g18
F0.5
sg19
I92
sg20
g21
((dp3334
NI92
stRp3335
sg24
I2
sg25
F93
sbs(S'Abbreviation'
g1388
tp3336
g1
(g15
g3
NtRp3337
(dp3338
g18
F0.5
sg19
I51
sg20
g21
((dp3339
I01
I1
sNI50
stRp3340
sg24
I2
sg25
F52
sbs(g10
g949
tp3341
g1
(g15
g3
NtRp3342
(dp3343
g18
F0.5
sg19
I15
sg20
g21
((dp3344
NI15
stRp3345
sg24
I2
sg25
F16
sbssS'_label_probdist'
p3346
g1
(g15
g3
NtRp3347
(dp3348
g18
F0.5
sg19
I158
sg20
g21
((dp3349
g8
I51
sg9
I92
sg10
I15
stRp3350
sg24
I3
sg25
F159.5
sbsb.