ccopy_reg
_reconstructor
p1
(cnltk.classify.naivebayes
NaiveBayesClassifier
p2
c__builtin__
object
p3
NtRp4
(dp5
S'_labels'
p6
(lp7
S'Abbreviation'
p8
aS'Meaning'
p9
aS'Composition'
p10
asS'_feature_probdist'
p11
(dp12
(S'Composition'
S'contains(batteries)'
p13
tp14
g1
(cnltk.probability
ELEProbDist
p15
g3
NtRp16
(dp17
S'_gamma'
p18
F0.5
sS'_N'
p19
I28
sS'_freqdist'
p20
cnltk.probability
FreqDist
p21
((dp22
I01
I1
sNI27
stRp23
sS'_bins'
p24
I2
sS'_divisor'
p25
F29
sbs(S'Composition'
S'contains(snake)'
p26
tp27
g1
(g15
g3
NtRp28
(dp29
g18
F0.5
sg19
I28
sg20
g21
((dp30
I01
I1
sNI27
stRp31
sg24
I2
sg25
F29
sbs(g10
S'contains(s)'
p32
tp33
g1
(g15
g3
NtRp34
(dp35
g18
F0.5
sg19
I28
sg20
g21
((dp36
NI28
stRp37
sg24
I2
sg25
F29
sbs(S'Meaning'
p38
S'contains(are)'
tp39
g1
(g15
g3
NtRp40
(dp41
g18
F0.5
sg19
I62
sg20
g21
((dp42
I01
I9
sNI53
stRp43
sg24
I2
sg25
F63
sbs(S'Meaning'
S'contains(ground)'
p44
tp45
g1
(g15
g3
NtRp46
(dp47
g18
F0.5
sg19
I62
sg20
g21
((dp48
I01
I1
sNI61
stRp49
sg24
I2
sg25
F63
sbs(g10
S'contains(dogs)'
p50
tp51
g1
(g15
g3
NtRp52
(dp53
g18
F0.5
sg19
I28
sg20
g21
((dp54
NI28
stRp55
sg24
I2
sg25
F29
sbs(S'Composition'
S'contains(buses)'
p56
tp57
g1
(g15
g3
NtRp58
(dp59
g18
F0.5
sg19
I28
sg20
g21
((dp60
I01
I2
sNI26
stRp61
sg24
I2
sg25
F29
sbs(g8
S'contains(lockers)'
p62
tp63
g1
(g15
g3
NtRp64
(dp65
g18
F0.5
sg19
I18
sg20
g21
((dp66
NI18
stRp67
sg24
I2
sg25
F19
sbs(g9
S'contains(aids)'
p68
tp69
g1
(g15
g3
NtRp70
(dp71
g18
F0.5
sg19
I62
sg20
g21
((dp72
NI62
stRp73
sg24
I2
sg25
F63
sbs(S'Abbreviation'
p74
S'contains(motors)'
p75
tp76
g1
(g15
g3
NtRp77
(dp78
g18
F0.5
sg19
I18
sg20
g21
((dp79
I01
I1
sNI17
stRp80
sg24
I2
sg25
F19
sbs(g10
S'contains(stand)'
p81
tp82
g1
(g15
g3
NtRp83
(dp84
g18
F0.5
sg19
I28
sg20
g21
((dp85
NI28
stRp86
sg24
I2
sg25
F29
sbs(g9
S'contains(paper)'
p87
tp88
g1
(g15
g3
NtRp89
(dp90
g18
F0.5
sg19
I62
sg20
g21
((dp91
NI62
stRp92
sg24
I2
sg25
F63
sbs(g8
S'contains(bad)'
p93
tp94
g1
(g15
g3
NtRp95
(dp96
g18
F0.5
sg19
I18
sg20
g21
((dp97
NI18
stRp98
sg24
I2
sg25
F19
sbs(S'Abbreviation'
S'contains(bph)'
p99
tp100
g1
(g15
g3
NtRp101
(dp102
g18
F0.5
sg19
I18
sg20
g21
((dp103
I01
I1
sNI17
stRp104
sg24
I2
sg25
F19
sbs(g10
S'contains(war)'
p105
tp106
g1
(g15
g3
NtRp107
(dp108
g18
F0.5
sg19
I28
sg20
g21
((dp109
NI28
stRp110
sg24
I2
sg25
F29
sbs(g8
S'contains(ass)'
p111
tp112
g1
(g15
g3
NtRp113
(dp114
g18
F0.5
sg19
I18
sg20
g21
((dp115
NI18
stRp116
sg24
I2
sg25
F19
sbs(g9
S'contains(widow)'
p117
tp118
g1
(g15
g3
NtRp119
(dp120
g18
F0.5
sg19
I62
sg20
g21
((dp121
NI62
stRp122
sg24
I2
sg25
F63
sbs(g9
g56
tp123
g1
(g15
g3
NtRp124
(dp125
g18
F0.5
sg19
I62
sg20
g21
((dp126
NI62
stRp127
sg24
I2
sg25
F63
sbs(g10
g44
tp128
g1
(g15
g3
NtRp129
(dp130
g18
F0.5
sg19
I28
sg20
g21
((dp131
NI28
stRp132
sg24
I2
sg25
F29
sbs(g10
S'contains(an)'
p133
tp134
g1
(g15
g3
NtRp135
(dp136
g18
F0.5
sg19
I28
sg20
g21
((dp137
NI28
stRp138
sg24
I2
sg25
F29
sbs(g8
S'contains(dunkin)'
p139
tp140
g1
(g15
g3
NtRp141
(dp142
g18
F0.5
sg19
I18
sg20
g21
((dp143
NI18
stRp144
sg24
I2
sg25
F19
sbs(S'Composition'
S'contains(plastic)'
p145
tp146
g1
(g15
g3
NtRp147
(dp148
g18
F0.5
sg19
I28
sg20
g21
((dp149
I01
I1
sNI27
stRp150
sg24
I2
sg25
F29
sbs(S'Meaning'
S'contains(cars)'
p151
tp152
g1
(g15
g3
NtRp153
(dp154
g18
F0.5
sg19
I62
sg20
g21
((dp155
I01
I1
sNI61
stRp156
sg24
I2
sg25
F63
sbs(g10
S'contains(general)'
p157
tp158
g1
(g15
g3
NtRp159
(dp160
g18
F0.5
sg19
I28
sg20
g21
((dp161
NI28
stRp162
sg24
I2
sg25
F29
sbs(g8
S'contains(donuts)'
p163
tp164
g1
(g15
g3
NtRp165
(dp166
g18
F0.5
sg19
I18
sg20
g21
((dp167
NI18
stRp168
sg24
I2
sg25
F19
sbs(S'Meaning'
S'contains(wtf)'
p169
tp170
g1
(g15
g3
NtRp171
(dp172
g18
F0.5
sg19
I62
sg20
g21
((dp173
I01
I1
sNI61
stRp174
sg24
I2
sg25
F63
sbs(g9
S'contains(eenty)'
p175
tp176
g1
(g15
g3
NtRp177
(dp178
g18
F0.5
sg19
I62
sg20
g21
((dp179
NI62
stRp180
sg24
I2
sg25
F63
sbs(S'Composition'
p181
S'contains(my)'
p182
tp183
g1
(g15
g3
NtRp184
(dp185
g18
F0.5
sg19
I28
sg20
g21
((dp186
I01
I1
sNI27
stRp187
sg24
I2
sg25
F29
sbs(g10
S'contains(micro)'
p188
tp189
g1
(g15
g3
NtRp190
(dp191
g18
F0.5
sg19
I28
sg20
g21
((dp192
NI28
stRp193
sg24
I2
sg25
F29
sbs(S'Abbreviation'
p194
S'contains(m)'
p195
tp196
g1
(g15
g3
NtRp197
(dp198
g18
F0.5
sg19
I18
sg20
g21
((dp199
I01
I1
sNI17
stRp200
sg24
I2
sg25
F19
sbs(g10
S'contains(meaning)'
p201
tp202
g1
(g15
g3
NtRp203
(dp204
g18
F0.5
sg19
I28
sg20
g21
((dp205
NI28
stRp206
sg24
I2
sg25
F29
sbs(S'Composition'
S'contains(b)'
p207
tp208
g1
(g15
g3
NtRp209
(dp210
g18
F0.5
sg19
I28
sg20
g21
((dp211
I01
I1
sNI27
stRp212
sg24
I2
sg25
F29
sbs(S'Composition'
S'contains(bicycles)'
p213
tp214
g1
(g15
g3
NtRp215
(dp216
g18
F0.5
sg19
I28
sg20
g21
((dp217
I01
I1
sNI27
stRp218
sg24
I2
sg25
F29
sbs(g10
S'contains(o)'
p219
tp220
g1
(g15
g3
NtRp221
(dp222
g18
F0.5
sg19
I28
sg20
g21
((dp223
NI28
stRp224
sg24
I2
sg25
F29
sbs(S'Meaning'
S'contains(rock)'
p225
tp226
g1
(g15
g3
NtRp227
(dp228
g18
F0.5
sg19
I62
sg20
g21
((dp229
I01
I1
sNI61
stRp230
sg24
I2
sg25
F63
sbs(g10
g151
tp231
g1
(g15
g3
NtRp232
(dp233
g18
F0.5
sg19
I28
sg20
g21
((dp234
NI28
stRp235
sg24
I2
sg25
F29
sbs(g10
S'contains(for)'
p236
tp237
g1
(g15
g3
NtRp238
(dp239
g18
F0.5
sg19
I28
sg20
g21
((dp240
NI28
stRp241
sg24
I2
sg25
F29
sbs(g8
S'contains(purse)'
p242
tp243
g1
(g15
g3
NtRp244
(dp245
g18
F0.5
sg19
I18
sg20
g21
((dp246
NI18
stRp247
sg24
I2
sg25
F19
sbs(S'Abbreviation'
p248
S'contains(word)'
tp249
g1
(g15
g3
NtRp250
(dp251
g18
F0.5
sg19
I18
sg20
g21
((dp252
I01
I1
sNI17
stRp253
sg24
I2
sg25
F19
sbs(S'Abbreviation'
p254
S'contains(cross)'
p255
tp256
g1
(g15
g3
NtRp257
(dp258
g18
F0.5
sg19
I18
sg20
g21
((dp259
I01
I1
sNI17
stRp260
sg24
I2
sg25
F19
sbs(g10
S'contains(girl)'
p261
tp262
g1
(g15
g3
NtRp263
(dp264
g18
F0.5
sg19
I28
sg20
g21
((dp265
NI28
stRp266
sg24
I2
sg25
F29
sbs(S'Abbreviation'
p267
S'contains(surnames)'
p268
tp269
g1
(g15
g3
NtRp270
(dp271
g18
F0.5
sg19
I18
sg20
g21
((dp272
I01
I1
sNI17
stRp273
sg24
I2
sg25
F19
sbs(g9
S'contains(abbreviated)'
p274
tp275
g1
(g15
g3
NtRp276
(dp277
g18
F0.5
sg19
I62
sg20
g21
((dp278
NI62
stRp279
sg24
I2
sg25
F63
sbs(g8
S'contains(hog)'
p280
tp281
g1
(g15
g3
NtRp282
(dp283
g18
F0.5
sg19
I18
sg20
g21
((dp284
NI18
stRp285
sg24
I2
sg25
F19
sbs(S'Abbreviation'
S'contains(sids)'
p286
tp287
g1
(g15
g3
NtRp288
(dp289
g18
F0.5
sg19
I18
sg20
g21
((dp290
I01
I1
sNI17
stRp291
sg24
I2
sg25
F19
sbs(g8
S'contains(is)'
tp292
g1
(g15
g3
NtRp293
(dp294
g18
F0.5
sg19
I18
sg20
g21
((dp295
I01
I7
sNI11
stRp296
sg24
I2
sg25
F19
sbs(g9
g236
tp297
g1
(g15
g3
NtRp298
(dp299
g18
F0.5
sg19
I62
sg20
g21
((dp300
NI62
stRp301
sg24
I2
sg25
F63
sbs(g8
S'contains(planets)'
p302
tp303
g1
(g15
g3
NtRp304
(dp305
g18
F0.5
sg19
I18
sg20
g21
((dp306
NI18
stRp307
sg24
I2
sg25
F19
sbs(g8
g151
tp308
g1
(g15
g3
NtRp309
(dp310
g18
F0.5
sg19
I18
sg20
g21
((dp311
NI18
stRp312
sg24
I2
sg25
F19
sbs(g10
S'contains(stupid)'
p313
tp314
g1
(g15
g3
NtRp315
(dp316
g18
F0.5
sg19
I28
sg20
g21
((dp317
NI28
stRp318
sg24
I2
sg25
F29
sbs(S'Meaning'
S'contains(player)'
p319
tp320
g1
(g15
g3
NtRp321
(dp322
g18
F0.5
sg19
I62
sg20
g21
((dp323
I01
I1
sNI61
stRp324
sg24
I2
sg25
F63
sbs(g10
S'contains(in)'
p325
tp326
g1
(g15
g3
NtRp327
(dp328
g18
F0.5
sg19
I28
sg20
g21
((dp329
NI28
stRp330
sg24
I2
sg25
F29
sbs(g10
S'contains(signs)'
p331
tp332
g1
(g15
g3
NtRp333
(dp334
g18
F0.5
sg19
I28
sg20
g21
((dp335
NI28
stRp336
sg24
I2
sg25
F29
sbs(S'Meaning'
p337
S'contains(word)'
p338
tp339
g1
(g15
g3
NtRp340
(dp341
g18
F0.5
sg19
I62
sg20
g21
((dp342
I01
I5
sNI57
stRp343
sg24
I2
sg25
F63
sbs(g10
g268
tp344
g1
(g15
g3
NtRp345
(dp346
g18
F0.5
sg19
I28
sg20
g21
((dp347
NI28
stRp348
sg24
I2
sg25
F29
sbs(S'Meaning'
S'contains(eye)'
p349
tp350
g1
(g15
g3
NtRp351
(dp352
g18
F0.5
sg19
I62
sg20
g21
((dp353
I01
I1
sNI61
stRp354
sg24
I2
sg25
F63
sbs(g9
S'contains(full)'
p355
tp356
g1
(g15
g3
NtRp357
(dp358
g18
F0.5
sg19
I62
sg20
g21
((dp359
NI62
stRp360
sg24
I2
sg25
F63
sbs(g9
S'contains(cloud)'
p361
tp362
g1
(g15
g3
NtRp363
(dp364
g18
F0.5
sg19
I62
sg20
g21
((dp365
NI62
stRp366
sg24
I2
sg25
F63
sbs(g9
S'contains(locks)'
p367
tp368
g1
(g15
g3
NtRp369
(dp370
g18
F0.5
sg19
I62
sg20
g21
((dp371
NI62
stRp372
sg24
I2
sg25
F63
sbs(g8
S'contains(window)'
p373
tp374
g1
(g15
g3
NtRp375
(dp376
g18
F0.5
sg19
I18
sg20
g21
((dp377
NI18
stRp378
sg24
I2
sg25
F19
sbs(g9
S'contains(investigation)'
p379
tp380
g1
(g15
g3
NtRp381
(dp382
g18
F0.5
sg19
I62
sg20
g21
((dp383
NI62
stRp384
sg24
I2
sg25
F63
sbs(g8
S'contains(chairs)'
p385
tp386
g1
(g15
g3
NtRp387
(dp388
g18
F0.5
sg19
I18
sg20
g21
((dp389
NI18
stRp390
sg24
I2
sg25
F19
sbs(g10
S'contains(animal)'
p391
tp392
g1
(g15
g3
NtRp393
(dp394
g18
F0.5
sg19
I28
sg20
g21
((dp395
NI28
stRp396
sg24
I2
sg25
F29
sbs(g9
g325
tp397
g1
(g15
g3
NtRp398
(dp399
g18
F0.5
sg19
I62
sg20
g21
((dp400
NI62
stRp401
sg24
I2
sg25
F63
sbs(g9
S'contains(nasdaq)'
p402
tp403
g1
(g15
g3
NtRp404
(dp405
g18
F0.5
sg19
I62
sg20
g21
((dp406
NI62
stRp407
sg24
I2
sg25
F63
sbs(g8
g44
tp408
g1
(g15
g3
NtRp409
(dp410
g18
F0.5
sg19
I18
sg20
g21
((dp411
NI18
stRp412
sg24
I2
sg25
F19
sbs(g10
g349
tp413
g1
(g15
g3
NtRp414
(dp415
g18
F0.5
sg19
I28
sg20
g21
((dp416
NI28
stRp417
sg24
I2
sg25
F29
sbs(g8
S'contains(ant)'
p418
tp419
g1
(g15
g3
NtRp420
(dp421
g18
F0.5
sg19
I18
sg20
g21
((dp422
NI18
stRp423
sg24
I2
sg25
F19
sbs(g10
S'contains(mean)'
p424
tp425
g1
(g15
g3
NtRp426
(dp427
g18
F0.5
sg19
I28
sg20
g21
((dp428
NI28
stRp429
sg24
I2
sg25
F29
sbs(S'Abbreviation'
p430
S'contains(national)'
p431
tp432
g1
(g15
g3
NtRp433
(dp434
g18
F0.5
sg19
I18
sg20
g21
((dp435
I01
I1
sNI17
stRp436
sg24
I2
sg25
F19
sbs(S'Composition'
g62
tp437
g1
(g15
g3
NtRp438
(dp439
g18
F0.5
sg19
I28
sg20
g21
((dp440
I01
I1
sNI27
stRp441
sg24
I2
sg25
F29
sbs(g10
S'contains(selfish)'
p442
tp443
g1
(g15
g3
NtRp444
(dp445
g18
F0.5
sg19
I28
sg20
g21
((dp446
NI28
stRp447
sg24
I2
sg25
F29
sbs(S'Composition'
p448
S'contains(the)'
tp449
g1
(g15
g3
NtRp450
(dp451
g18
F0.5
sg19
I28
sg20
g21
((dp452
I01
I6
sNI22
stRp453
sg24
I2
sg25
F29
sbs(g8
S'contains(children)'
p454
tp455
g1
(g15
g3
NtRp456
(dp457
g18
F0.5
sg19
I18
sg20
g21
((dp458
NI18
stRp459
sg24
I2
sg25
F19
sbs(S'Composition'
S'contains(metal)'
p460
tp461
g1
(g15
g3
NtRp462
(dp463
g18
F0.5
sg19
I28
sg20
g21
((dp464
I01
I1
sNI27
stRp465
sg24
I2
sg25
F29
sbs(g8
g13
tp466
g1
(g15
g3
NtRp467
(dp468
g18
F0.5
sg19
I18
sg20
g21
((dp469
NI18
stRp470
sg24
I2
sg25
F19
sbs(g8
g169
tp471
g1
(g15
g3
NtRp472
(dp473
g18
F0.5
sg19
I18
sg20
g21
((dp474
NI18
stRp475
sg24
I2
sg25
F19
sbs(g9
S'contains(g)'
p476
tp477
g1
(g15
g3
NtRp478
(dp479
g18
F0.5
sg19
I62
sg20
g21
((dp480
NI62
stRp481
sg24
I2
sg25
F63
sbs(g8
S'contains(juice)'
p482
tp483
g1
(g15
g3
NtRp484
(dp485
g18
F0.5
sg19
I18
sg20
g21
((dp486
NI18
stRp487
sg24
I2
sg25
F19
sbs(S'Abbreviation'
p488
g81
tp489
g1
(g15
g3
NtRp490
(dp491
g18
F0.5
sg19
I18
sg20
g21
((dp492
I01
I9
sNI9
stRp493
sg24
I2
sg25
F19
sbs(g10
S'contains(happy)'
p494
tp495
g1
(g15
g3
NtRp496
(dp497
g18
F0.5
sg19
I28
sg20
g21
((dp498
NI28
stRp499
sg24
I2
sg25
F29
sbs(S'Composition'
p500
S'contains(a)'
tp501
g1
(g15
g3
NtRp502
(dp503
g18
F0.5
sg19
I28
sg20
g21
((dp504
I01
I7
sNI21
stRp505
sg24
I2
sg25
F29
sbs(g8
S'contains(trees)'
p506
tp507
g1
(g15
g3
NtRp508
(dp509
g18
F0.5
sg19
I18
sg20
g21
((dp510
NI18
stRp511
sg24
I2
sg25
F19
sbs(g8
S'contains(plug)'
p512
tp513
g1
(g15
g3
NtRp514
(dp515
g18
F0.5
sg19
I18
sg20
g21
((dp516
NI18
stRp517
sg24
I2
sg25
F19
sbs(g8
S'contains(milk)'
p518
tp519
g1
(g15
g3
NtRp520
(dp521
g18
F0.5
sg19
I18
sg20
g21
((dp522
NI18
stRp523
sg24
I2
sg25
F19
sbs(g9
S'contains(?)'
tp524
g1
(g15
g3
NtRp525
(dp526
g18
F0.5
sg19
I62
sg20
g21
((dp527
I01
I62
stRp528
sg24
I1
sg25
F62.5
sbs(S'Abbreviation'
g402
tp529
g1
(g15
g3
NtRp530
(dp531
g18
F0.5
sg19
I18
sg20
g21
((dp532
I01
I1
sNI17
stRp533
sg24
I2
sg25
F19
sbs(g10
g175
tp534
g1
(g15
g3
NtRp535
(dp536
g18
F0.5
sg19
I28
sg20
g21
((dp537
NI28
stRp538
sg24
I2
sg25
F29
sbs(S'Composition'
g367
tp539
g1
(g15
g3
NtRp540
(dp541
g18
F0.5
sg19
I28
sg20
g21
((dp542
I01
I1
sNI27
stRp543
sg24
I2
sg25
F29
sbs(S'Meaning'
p544
S'contains(of)'
tp545
g1
(g15
g3
NtRp546
(dp547
g18
F0.5
sg19
I62
sg20
g21
((dp548
I01
I15
sNI47
stRp549
sg24
I2
sg25
F63
sbs(g9
g75
tp550
g1
(g15
g3
NtRp551
(dp552
g18
F0.5
sg19
I62
sg20
g21
((dp553
NI62
stRp554
sg24
I2
sg25
F63
sbs(S'Meaning'
g391
tp555
g1
(g15
g3
NtRp556
(dp557
g18
F0.5
sg19
I62
sg20
g21
((dp558
I01
I1
sNI61
stRp559
sg24
I2
sg25
F63
sbs(g10
S'contains(abbreviation)'
p560
tp561
g1
(g15
g3
NtRp562
(dp563
g18
F0.5
sg19
I28
sg20
g21
((dp564
NI28
stRp565
sg24
I2
sg25
F29
sbs(g10
S'contains(mad)'
p566
tp567
g1
(g15
g3
NtRp568
(dp569
g18
F0.5
sg19
I28
sg20
g21
((dp570
NI28
stRp571
sg24
I2
sg25
F29
sbs(S'Meaning'
S'contains(thief)'
p572
tp573
g1
(g15
g3
NtRp574
(dp575
g18
F0.5
sg19
I62
sg20
g21
((dp576
I01
I1
sNI61
stRp577
sg24
I2
sg25
F63
sbs(g10
S'contains(duck)'
p578
tp579
g1
(g15
g3
NtRp580
(dp581
g18
F0.5
sg19
I28
sg20
g21
((dp582
NI28
stRp583
sg24
I2
sg25
F29
sbs(g10
S'contains(slut)'
p584
tp585
g1
(g15
g3
NtRp586
(dp587
g18
F0.5
sg19
I28
sg20
g21
((dp588
NI28
stRp589
sg24
I2
sg25
F29
sbs(g9
S'contains(cnn)'
p590
tp591
g1
(g15
g3
NtRp592
(dp593
g18
F0.5
sg19
I62
sg20
g21
((dp594
NI62
stRp595
sg24
I2
sg25
F63
sbs(S'Abbreviation'
p596
S'contains(classified)'
p597
tp598
g1
(g15
g3
NtRp599
(dp600
g18
F0.5
sg19
I18
sg20
g21
((dp601
I01
I1
sNI17
stRp602
sg24
I2
sg25
F19
sbs(S'Meaning'
S'contains(miscellaneous)'
p603
tp604
g1
(g15
g3
NtRp605
(dp606
g18
F0.5
sg19
I62
sg20
g21
((dp607
I01
I1
sNI61
stRp608
sg24
I2
sg25
F63
sbs(g9
S'contains(sun)'
p609
tp610
g1
(g15
g3
NtRp611
(dp612
g18
F0.5
sg19
I62
sg20
g21
((dp613
NI62
stRp614
sg24
I2
sg25
F63
sbs(g10
S'contains(starbucks)'
p615
tp616
g1
(g15
g3
NtRp617
(dp618
g18
F0.5
sg19
I28
sg20
g21
((dp619
NI28
stRp620
sg24
I2
sg25
F29
sbs(g430
S'contains(expression)'
p621
tp622
g1
(g15
g3
NtRp623
(dp624
g18
F0.5
sg19
I18
sg20
g21
((dp625
I01
I1
sNI17
stRp626
sg24
I2
sg25
F19
sbs(g8
g578
tp627
g1
(g15
g3
NtRp628
(dp629
g18
F0.5
sg19
I18
sg20
g21
((dp630
NI18
stRp631
sg24
I2
sg25
F19
sbs(g10
S'contains(car)'
p632
tp633
g1
(g15
g3
NtRp634
(dp635
g18
F0.5
sg19
I28
sg20
g21
((dp636
NI28
stRp637
sg24
I2
sg25
F29
sbs(S'Composition'
g385
tp638
g1
(g15
g3
NtRp639
(dp640
g18
F0.5
sg19
I28
sg20
g21
((dp641
I01
I1
sNI27
stRp642
sg24
I2
sg25
F29
sbs(g337
S'contains(clever)'
p643
tp644
g1
(g15
g3
NtRp645
(dp646
g18
F0.5
sg19
I62
sg20
g21
((dp647
I01
I1
sNI61
stRp648
sg24
I2
sg25
F63
sbs(S'Meaning'
S'contains(booger)'
p649
tp650
g1
(g15
g3
NtRp651
(dp652
g18
F0.5
sg19
I62
sg20
g21
((dp653
I01
I1
sNI61
stRp654
sg24
I2
sg25
F63
sbs(g267
S'contains(prefix)'
p655
tp656
g1
(g15
g3
NtRp657
(dp658
g18
F0.5
sg19
I18
sg20
g21
((dp659
I01
I1
sNI17
stRp660
sg24
I2
sg25
F19
sbs(g8
S"contains(what's)"
p661
tp662
g1
(g15
g3
NtRp663
(dp664
g18
F0.5
sg19
I18
sg20
g21
((dp665
NI18
stRp666
sg24
I2
sg25
F19
sbs(g8
S'contains(cloak)'
p667
tp668
g1
(g15
g3
NtRp669
(dp670
g18
F0.5
sg19
I18
sg20
g21
((dp671
NI18
stRp672
sg24
I2
sg25
F19
sbs(g9
S'contains(inri)'
p673
tp674
g1
(g15
g3
NtRp675
(dp676
g18
F0.5
sg19
I62
sg20
g21
((dp677
NI62
stRp678
sg24
I2
sg25
F63
sbs(g430
g379
tp679
g1
(g15
g3
NtRp680
(dp681
g18
F0.5
sg19
I18
sg20
g21
((dp682
I01
I1
sNI17
stRp683
sg24
I2
sg25
F19
sbs(S'Meaning'
p684
S'contains(a)'
tp685
g1
(g15
g3
NtRp686
(dp687
g18
F0.5
sg19
I62
sg20
g21
((dp688
I01
I13
sNI49
stRp689
sg24
I2
sg25
F63
sbs(g8
g367
tp690
g1
(g15
g3
NtRp691
(dp692
g18
F0.5
sg19
I18
sg20
g21
((dp693
NI18
stRp694
sg24
I2
sg25
F19
sbs(g254
S'contains(used)'
p695
tp696
g1
(g15
g3
NtRp697
(dp698
g18
F0.5
sg19
I18
sg20
g21
((dp699
I01
I2
sNI16
stRp700
sg24
I2
sg25
F19
sbs(g8
g355
tp701
g1
(g15
g3
NtRp702
(dp703
g18
F0.5
sg19
I18
sg20
g21
((dp704
I01
I2
sNI16
stRp705
sg24
I2
sg25
F19
sbs(g8
S'contains(bag)'
p706
tp707
g1
(g15
g3
NtRp708
(dp709
g18
F0.5
sg19
I18
sg20
g21
((dp710
NI18
stRp711
sg24
I2
sg25
F19
sbs(g10
S'contains(t)'
p712
tp713
g1
(g15
g3
NtRp714
(dp715
g18
F0.5
sg19
I28
sg20
g21
((dp716
NI28
stRp717
sg24
I2
sg25
F29
sbs(g9
g597
tp718
g1
(g15
g3
NtRp719
(dp720
g18
F0.5
sg19
I62
sg20
g21
((dp721
NI62
stRp722
sg24
I2
sg25
F63
sbs(g10
S'contains(brain)'
p723
tp724
g1
(g15
g3
NtRp725
(dp726
g18
F0.5
sg19
I28
sg20
g21
((dp727
NI28
stRp728
sg24
I2
sg25
F29
sbs(g10
g673
tp729
g1
(g15
g3
NtRp730
(dp731
g18
F0.5
sg19
I28
sg20
g21
((dp732
NI28
stRp733
sg24
I2
sg25
F29
sbs(S'Meaning'
S'contains(haircut)'
p734
tp735
g1
(g15
g3
NtRp736
(dp737
g18
F0.5
sg19
I62
sg20
g21
((dp738
I01
I1
sNI61
stRp739
sg24
I2
sg25
F63
sbs(S'Composition'
S'contains(beverage)'
p740
tp741
g1
(g15
g3
NtRp742
(dp743
g18
F0.5
sg19
I28
sg20
g21
((dp744
I01
I1
sNI27
stRp745
sg24
I2
sg25
F29
sbs(S'Composition'
S'contains(battery)'
p746
tp747
g1
(g15
g3
NtRp748
(dp749
g18
F0.5
sg19
I28
sg20
g21
((dp750
I01
I1
sNI27
stRp751
sg24
I2
sg25
F29
sbs(S'Abbreviation'
S'contains(nafta)'
p752
tp753
g1
(g15
g3
NtRp754
(dp755
g18
F0.5
sg19
I18
sg20
g21
((dp756
I01
I1
sNI17
stRp757
sg24
I2
sg25
F19
sbs(g684
S'contains(king)'
p758
tp759
g1
(g15
g3
NtRp760
(dp761
g18
F0.5
sg19
I62
sg20
g21
((dp762
I01
I1
sNI61
stRp763
sg24
I2
sg25
F63
sbs(g9
g560
tp764
g1
(g15
g3
NtRp765
(dp766
g18
F0.5
sg19
I62
sg20
g21
((dp767
NI62
stRp768
sg24
I2
sg25
F63
sbs(S'Meaning'
S'contains(asshole)'
p769
tp770
g1
(g15
g3
NtRp771
(dp772
g18
F0.5
sg19
I62
sg20
g21
((dp773
I01
I1
sNI61
stRp774
sg24
I2
sg25
F63
sbs(g10
g169
tp775
g1
(g15
g3
NtRp776
(dp777
g18
F0.5
sg19
I28
sg20
g21
((dp778
NI28
stRp779
sg24
I2
sg25
F29
sbs(g10
g418
tp780
g1
(g15
g3
NtRp781
(dp782
g18
F0.5
sg19
I28
sg20
g21
((dp783
NI28
stRp784
sg24
I2
sg25
F29
sbs(g9
g286
tp785
g1
(g15
g3
NtRp786
(dp787
g18
F0.5
sg19
I62
sg20
g21
((dp788
NI62
stRp789
sg24
I2
sg25
F63
sbs(g8
S'contains(com)'
p790
tp791
g1
(g15
g3
NtRp792
(dp793
g18
F0.5
sg19
I18
sg20
g21
((dp794
I01
I1
sNI17
stRp795
sg24
I2
sg25
F19
sbs(g9
g81
tp796
g1
(g15
g3
NtRp797
(dp798
g18
F0.5
sg19
I62
sg20
g21
((dp799
NI62
stRp800
sg24
I2
sg25
F63
sbs(g8
S'contains(pencil)'
p801
tp802
g1
(g15
g3
NtRp803
(dp804
g18
F0.5
sg19
I18
sg20
g21
((dp805
NI18
stRp806
sg24
I2
sg25
F19
sbs(g500
g373
tp807
g1
(g15
g3
NtRp808
(dp809
g18
F0.5
sg19
I28
sg20
g21
((dp810
I01
I1
sNI27
stRp811
sg24
I2
sg25
F29
sbs(g8
S'contains(bang)'
p812
tp813
g1
(g15
g3
NtRp814
(dp815
g18
F0.5
sg19
I18
sg20
g21
((dp816
NI18
stRp817
sg24
I2
sg25
F19
sbs(g9
S'contains(:)'
p818
tp819
g1
(g15
g3
NtRp820
(dp821
g18
F0.5
sg19
I62
sg20
g21
((dp822
NI62
stRp823
sg24
I2
sg25
F63
sbs(S'Meaning'
g302
tp824
g1
(g15
g3
NtRp825
(dp826
g18
F0.5
sg19
I62
sg20
g21
((dp827
I01
I1
sNI61
stRp828
sg24
I2
sg25
F63
sbs(g10
S'contains(badass)'
p829
tp830
g1
(g15
g3
NtRp831
(dp832
g18
F0.5
sg19
I28
sg20
g21
((dp833
NI28
stRp834
sg24
I2
sg25
F29
sbs(g9
S'contains(what)'
tp835
g1
(g15
g3
NtRp836
(dp837
g18
F0.5
sg19
I62
sg20
g21
((dp838
I01
I50
sNI12
stRp839
sg24
I2
sg25
F63
sbs(g8
g331
tp840
g1
(g15
g3
NtRp841
(dp842
g18
F0.5
sg19
I18
sg20
g21
((dp843
NI18
stRp844
sg24
I2
sg25
F19
sbs(S'Meaning'
S'contains(homogeneous)'
p845
tp846
g1
(g15
g3
NtRp847
(dp848
g18
F0.5
sg19
I62
sg20
g21
((dp849
I01
I1
sNI61
stRp850
sg24
I2
sg25
F63
sbs(S'Abbreviation'
p851
g219
tp852
g1
(g15
g3
NtRp853
(dp854
g18
F0.5
sg19
I18
sg20
g21
((dp855
I01
I2
sNI16
stRp856
sg24
I2
sg25
F19
sbs(g8
g349
tp857
g1
(g15
g3
NtRp858
(dp859
g18
F0.5
sg19
I18
sg20
g21
((dp860
NI18
stRp861
sg24
I2
sg25
F19
sbs(S'Meaning'
S'contains(tidy)'
p862
tp863
g1
(g15
g3
NtRp864
(dp865
g18
F0.5
sg19
I62
sg20
g21
((dp866
I01
I1
sNI61
stRp867
sg24
I2
sg25
F63
sbs(g10
g818
tp868
g1
(g15
g3
NtRp869
(dp870
g18
F0.5
sg19
I28
sg20
g21
((dp871
NI28
stRp872
sg24
I2
sg25
F29
sbs(S'Abbreviation'
g590
tp873
g1
(g15
g3
NtRp874
(dp875
g18
F0.5
sg19
I18
sg20
g21
((dp876
I01
I1
sNI17
stRp877
sg24
I2
sg25
F19
sbs(g8
g758
tp878
g1
(g15
g3
NtRp879
(dp880
g18
F0.5
sg19
I18
sg20
g21
((dp881
NI18
stRp882
sg24
I2
sg25
F19
sbs(S'Meaning'
S'contains(pen)'
p883
tp884
g1
(g15
g3
NtRp885
(dp886
g18
F0.5
sg19
I62
sg20
g21
((dp887
I01
I1
sNI61
stRp888
sg24
I2
sg25
F63
sbs(S'Meaning'
g454
tp889
g1
(g15
g3
NtRp890
(dp891
g18
F0.5
sg19
I62
sg20
g21
((dp892
I01
I1
sNI61
stRp893
sg24
I2
sg25
F63
sbs(g8
g883
tp894
g1
(g15
g3
NtRp895
(dp896
g18
F0.5
sg19
I18
sg20
g21
((dp897
NI18
stRp898
sg24
I2
sg25
F19
sbs(S'Meaning'
g615
tp899
g1
(g15
g3
NtRp900
(dp901
g18
F0.5
sg19
I62
sg20
g21
((dp902
I01
I1
sNI61
stRp903
sg24
I2
sg25
F63
sbs(g10
g476
tp904
g1
(g15
g3
NtRp905
(dp906
g18
F0.5
sg19
I28
sg20
g21
((dp907
NI28
stRp908
sg24
I2
sg25
F29
sbs(g9
S'contains(nn)'
p909
tp910
g1
(g15
g3
NtRp911
(dp912
g18
F0.5
sg19
I62
sg20
g21
((dp913
NI62
stRp914
sg24
I2
sg25
F63
sbs(g488
g236
tp915
g1
(g15
g3
NtRp916
(dp917
g18
F0.5
sg19
I18
sg20
g21
((dp918
I01
I12
sNI6
stRp919
sg24
I2
sg25
F19
sbs(g10
S'contains(doors)'
p920
tp921
g1
(g15
g3
NtRp922
(dp923
g18
F0.5
sg19
I28
sg20
g21
((dp924
I01
I1
sNI27
stRp925
sg24
I2
sg25
F29
sbs(g10
g286
tp926
g1
(g15
g3
NtRp927
(dp928
g18
F0.5
sg19
I28
sg20
g21
((dp929
NI28
stRp930
sg24
I2
sg25
F29
sbs(g9
S'contains(,)'
p931
tp932
g1
(g15
g3
NtRp933
(dp934
g18
F0.5
sg19
I62
sg20
g21
((dp935
NI62
stRp936
sg24
I2
sg25
F63
sbs(S'Meaning'
S'contains(chicken)'
p937
tp938
g1
(g15
g3
NtRp939
(dp940
g18
F0.5
sg19
I62
sg20
g21
((dp941
I01
I1
sNI61
stRp942
sg24
I2
sg25
F63
sbs(g8
g207
tp943
g1
(g15
g3
NtRp944
(dp945
g18
F0.5
sg19
I18
sg20
g21
((dp946
NI18
stRp947
sg24
I2
sg25
F19
sbs(g8
S'contains(?)'
tp948
g1
(g15
g3
NtRp949
(dp950
g18
F0.5
sg19
I18
sg20
g21
((dp951
I01
I18
stRp952
sg24
I1
sg25
F18.5
sbs(g8
g319
tp953
g1
(g15
g3
NtRp954
(dp955
g18
F0.5
sg19
I18
sg20
g21
((dp956
NI18
stRp957
sg24
I2
sg25
F19
sbs(g9
S'contains(jacket)'
p958
tp959
g1
(g15
g3
NtRp960
(dp961
g18
F0.5
sg19
I62
sg20
g21
((dp962
NI62
stRp963
sg24
I2
sg25
F63
sbs(S'Meaning'
g506
tp964
g1
(g15
g3
NtRp965
(dp966
g18
F0.5
sg19
I62
sg20
g21
((dp967
I01
I1
sNI61
stRp968
sg24
I2
sg25
F63
sbs(g8
S'contains(what)'
tp969
g1
(g15
g3
NtRp970
(dp971
g18
F0.5
sg19
I18
sg20
g21
((dp972
I01
I18
stRp973
sg24
I2
sg25
F19
sbs(S'Abbreviation'
g188
tp974
g1
(g15
g3
NtRp975
(dp976
g18
F0.5
sg19
I18
sg20
g21
((dp977
I01
I1
sNI17
stRp978
sg24
I2
sg25
F19
sbs(g8
g117
tp979
g1
(g15
g3
NtRp980
(dp981
g18
F0.5
sg19
I18
sg20
g21
((dp982
NI18
stRp983
sg24
I2
sg25
F19
sbs(g337
S'contains(the)'
tp984
g1
(g15
g3
NtRp985
(dp986
g18
F0.5
sg19
I62
sg20
g21
((dp987
I01
I20
sNI42
stRp988
sg24
I2
sg25
F63
sbs(S'Meaning'
S'contains(elephant)'
p989
tp990
g1
(g15
g3
NtRp991
(dp992
g18
F0.5
sg19
I62
sg20
g21
((dp993
I01
I1
sNI61
stRp994
sg24
I2
sg25
F63
sbs(g8
S'contains(windows)'
p995
tp996
g1
(g15
g3
NtRp997
(dp998
g18
F0.5
sg19
I18
sg20
g21
((dp999
NI18
stRp1000
sg24
I2
sg25
F19
sbs(g10
g93
tp1001
g1
(g15
g3
NtRp1002
(dp1003
g18
F0.5
sg19
I28
sg20
g21
((dp1004
NI28
stRp1005
sg24
I2
sg25
F29
sbs(g8
g829
tp1006
g1
(g15
g3
NtRp1007
(dp1008
g18
F0.5
sg19
I18
sg20
g21
((dp1009
NI18
stRp1010
sg24
I2
sg25
F19
sbs(S'Composition'
g361
tp1011
g1
(g15
g3
NtRp1012
(dp1013
g18
F0.5
sg19
I28
sg20
g21
((dp1014
I01
I1
sNI27
stRp1015
sg24
I2
sg25
F29
sbs(g10
g812
tp1016
g1
(g15
g3
NtRp1017
(dp1018
g18
F0.5
sg19
I28
sg20
g21
((dp1019
NI28
stRp1020
sg24
I2
sg25
F29
sbs(g9
g740
tp1021
g1
(g15
g3
NtRp1022
(dp1023
g18
F0.5
sg19
I62
sg20
g21
((dp1024
NI62
stRp1025
sg24
I2
sg25
F63
sbs(S'Meaning'
S'contains(street)'
p1026
tp1027
g1
(g15
g3
NtRp1028
(dp1029
g18
F0.5
sg19
I62
sg20
g21
((dp1030
I01
I1
sNI61
stRp1031
sg24
I2
sg25
F63
sbs(g8
g133
tp1032
g1
(g15
g3
NtRp1033
(dp1034
g18
F0.5
sg19
I18
sg20
g21
((dp1035
NI18
stRp1036
sg24
I2
sg25
F19
sbs(g9
S'contains(irish)'
p1037
tp1038
g1
(g15
g3
NtRp1039
(dp1040
g18
F0.5
sg19
I62
sg20
g21
((dp1041
NI62
stRp1042
sg24
I2
sg25
F63
sbs(g10
g454
tp1043
g1
(g15
g3
NtRp1044
(dp1045
g18
F0.5
sg19
I28
sg20
g21
((dp1046
NI28
stRp1047
sg24
I2
sg25
F29
sbs(g9
S'contains(psi)'
p1048
tp1049
g1
(g15
g3
NtRp1050
(dp1051
g18
F0.5
sg19
I62
sg20
g21
((dp1052
NI62
stRp1053
sg24
I2
sg25
F63
sbs(g8
g937
tp1054
g1
(g15
g3
NtRp1055
(dp1056
g18
F0.5
sg19
I18
sg20
g21
((dp1057
NI18
stRp1058
sg24
I2
sg25
F19
sbs(g254
S'contains(jesus)'
p1059
tp1060
g1
(g15
g3
NtRp1061
(dp1062
g18
F0.5
sg19
I18
sg20
g21
((dp1063
I01
I1
sNI17
stRp1064
sg24
I2
sg25
F19
sbs(g8
g26
tp1065
g1
(g15
g3
NtRp1066
(dp1067
g18
F0.5
sg19
I18
sg20
g21
((dp1068
NI18
stRp1069
sg24
I2
sg25
F19
sbs(g9
g1059
tp1070
g1
(g15
g3
NtRp1071
(dp1072
g18
F0.5
sg19
I62
sg20
g21
((dp1073
NI62
stRp1074
sg24
I2
sg25
F63
sbs(g10
S'contains(plo)'
p1075
tp1076
g1
(g15
g3
NtRp1077
(dp1078
g18
F0.5
sg19
I28
sg20
g21
((dp1079
NI28
stRp1080
sg24
I2
sg25
F29
sbs(g10
g695
tp1081
g1
(g15
g3
NtRp1082
(dp1083
g18
F0.5
sg19
I28
sg20
g21
((dp1084
NI28
stRp1085
sg24
I2
sg25
F29
sbs(g10
g1026
tp1086
g1
(g15
g3
NtRp1087
(dp1088
g18
F0.5
sg19
I28
sg20
g21
((dp1089
NI28
stRp1090
sg24
I2
sg25
F29
sbs(g74
S'contains(name)'
p1091
tp1092
g1
(g15
g3
NtRp1093
(dp1094
g18
F0.5
sg19
I18
sg20
g21
((dp1095
I01
I2
sNI16
stRp1096
sg24
I2
sg25
F19
sbs(g9
g157
tp1097
g1
(g15
g3
NtRp1098
(dp1099
g18
F0.5
sg19
I62
sg20
g21
((dp1100
NI62
stRp1101
sg24
I2
sg25
F63
sbs(g544
g482
tp1102
g1
(g15
g3
NtRp1103
(dp1104
g18
F0.5
sg19
I62
sg20
g21
((dp1105
I01
I1
sNI61
stRp1106
sg24
I2
sg25
F63
sbs(g10
g302
tp1107
g1
(g15
g3
NtRp1108
(dp1109
g18
F0.5
sg19
I28
sg20
g21
((dp1110
NI28
stRp1111
sg24
I2
sg25
F29
sbs(g254
g673
tp1112
g1
(g15
g3
NtRp1113
(dp1114
g18
F0.5
sg19
I18
sg20
g21
((dp1115
I01
I1
sNI17
stRp1116
sg24
I2
sg25
F19
sbs(g9
S'contains(.)'
p1117
tp1118
g1
(g15
g3
NtRp1119
(dp1120
g18
F0.5
sg19
I62
sg20
g21
((dp1121
NI62
stRp1122
sg24
I2
sg25
F63
sbs(g9
g655
tp1123
g1
(g15
g3
NtRp1124
(dp1125
g18
F0.5
sg19
I62
sg20
g21
((dp1126
NI62
stRp1127
sg24
I2
sg25
F63
sbs(S'Meaning'
S'contains(doors)'
tp1128
g1
(g15
g3
NtRp1129
(dp1130
g18
F0.5
sg19
I62
sg20
g21
((dp1131
I01
I1
sNI61
stRp1132
sg24
I2
sg25
F63
sbs(S'Meaning'
g723
tp1133
g1
(g15
g3
NtRp1134
(dp1135
g18
F0.5
sg19
I62
sg20
g21
((dp1136
I01
I1
sNI61
stRp1137
sg24
I2
sg25
F63
sbs(g9
g695
tp1138
g1
(g15
g3
NtRp1139
(dp1140
g18
F0.5
sg19
I62
sg20
g21
((dp1141
NI62
stRp1142
sg24
I2
sg25
F63
sbs(g9
g1075
tp1143
g1
(g15
g3
NtRp1144
(dp1145
g18
F0.5
sg19
I62
sg20
g21
((dp1146
NI62
stRp1147
sg24
I2
sg25
F63
sbs(g8
g862
tp1148
g1
(g15
g3
NtRp1149
(dp1150
g18
F0.5
sg19
I18
sg20
g21
((dp1151
NI18
stRp1152
sg24
I2
sg25
F19
sbs(g248
S'contains(laser)'
p1153
tp1154
g1
(g15
g3
NtRp1155
(dp1156
g18
F0.5
sg19
I18
sg20
g21
((dp1157
I01
I1
sNI17
stRp1158
sg24
I2
sg25
F19
sbs(g8
S'contains(ear)'
p1159
tp1160
g1
(g15
g3
NtRp1161
(dp1162
g18
F0.5
sg19
I18
sg20
g21
((dp1163
NI18
stRp1164
sg24
I2
sg25
F19
sbs(g488
g68
tp1165
g1
(g15
g3
NtRp1166
(dp1167
g18
F0.5
sg19
I18
sg20
g21
((dp1168
I01
I1
sNI17
stRp1169
sg24
I2
sg25
F19
sbs(g430
g274
tp1170
g1
(g15
g3
NtRp1171
(dp1172
g18
F0.5
sg19
I18
sg20
g21
((dp1173
I01
I1
sNI17
stRp1174
sg24
I2
sg25
F19
sbs(g10
g655
tp1175
g1
(g15
g3
NtRp1176
(dp1177
g18
F0.5
sg19
I28
sg20
g21
((dp1178
NI28
stRp1179
sg24
I2
sg25
F29
sbs(g10
g661
tp1180
g1
(g15
g3
NtRp1181
(dp1182
g18
F0.5
sg19
I28
sg20
g21
((dp1183
NI28
stRp1184
sg24
I2
sg25
F29
sbs(g10
S'contains(other)'
p1185
tp1186
g1
(g15
g3
NtRp1187
(dp1188
g18
F0.5
sg19
I28
sg20
g21
((dp1189
NI28
stRp1190
sg24
I2
sg25
F29
sbs(g8
S'contains(person)'
p1191
tp1192
g1
(g15
g3
NtRp1193
(dp1194
g18
F0.5
sg19
I18
sg20
g21
((dp1195
NI18
stRp1196
sg24
I2
sg25
F19
sbs(g8
S'contains(earth)'
p1197
tp1198
g1
(g15
g3
NtRp1199
(dp1200
g18
F0.5
sg19
I18
sg20
g21
((dp1201
NI18
stRp1202
sg24
I2
sg25
F19
sbs(g8
g584
tp1203
g1
(g15
g3
NtRp1204
(dp1205
g18
F0.5
sg19
I18
sg20
g21
((dp1206
NI18
stRp1207
sg24
I2
sg25
F19
sbs(g10
g274
tp1208
g1
(g15
g3
NtRp1209
(dp1210
g18
F0.5
sg19
I28
sg20
g21
((dp1211
NI28
stRp1212
sg24
I2
sg25
F29
sbs(g596
g931
tp1213
g1
(g15
g3
NtRp1214
(dp1215
g18
F0.5
sg19
I18
sg20
g21
((dp1216
I01
I1
sNI17
stRp1217
sg24
I2
sg25
F19
sbs(g10
g1153
tp1218
g1
(g15
g3
NtRp1219
(dp1220
g18
F0.5
sg19
I28
sg20
g21
((dp1221
NI28
stRp1222
sg24
I2
sg25
F29
sbs(g9
g712
tp1223
g1
(g15
g3
NtRp1224
(dp1225
g18
F0.5
sg19
I62
sg20
g21
((dp1226
NI62
stRp1227
sg24
I2
sg25
F63
sbs(g596
g175
tp1228
g1
(g15
g3
NtRp1229
(dp1230
g18
F0.5
sg19
I18
sg20
g21
((dp1231
I01
I1
sNI17
stRp1232
sg24
I2
sg25
F19
sbs(S'Meaning'
g512
tp1233
g1
(g15
g3
NtRp1234
(dp1235
g18
F0.5
sg19
I62
sg20
g21
((dp1236
I01
I1
sNI61
stRp1237
sg24
I2
sg25
F63
sbs(g9
g1091
tp1238
g1
(g15
g3
NtRp1239
(dp1240
g18
F0.5
sg19
I62
sg20
g21
((dp1241
NI62
stRp1242
sg24
I2
sg25
F63
sbs(g10
g68
tp1243
g1
(g15
g3
NtRp1244
(dp1245
g18
F0.5
sg19
I28
sg20
g21
((dp1246
NI28
stRp1247
sg24
I2
sg25
F29
sbs(g10
g862
tp1248
g1
(g15
g3
NtRp1249
(dp1250
g18
F0.5
sg19
I28
sg20
g21
((dp1251
NI28
stRp1252
sg24
I2
sg25
F29
sbs(g10
g482
tp1253
g1
(g15
g3
NtRp1254
(dp1255
g18
F0.5
sg19
I28
sg20
g21
((dp1256
NI28
stRp1257
sg24
I2
sg25
F29
sbs(g9
g995
tp1258
g1
(g15
g3
NtRp1259
(dp1260
g18
F0.5
sg19
I62
sg20
g21
((dp1261
NI62
stRp1262
sg24
I2
sg25
F63
sbs(g10
g75
tp1263
g1
(g15
g3
NtRp1264
(dp1265
g18
F0.5
sg19
I28
sg20
g21
((dp1266
NI28
stRp1267
sg24
I2
sg25
F29
sbs(g10
S'contains(tree)'
p1268
tp1269
g1
(g15
g3
NtRp1270
(dp1271
g18
F0.5
sg19
I28
sg20
g21
((dp1272
NI28
stRp1273
sg24
I2
sg25
F29
sbs(g8
S'contains(the)'
tp1274
g1
(g15
g3
NtRp1275
(dp1276
g18
F0.5
sg19
I18
sg20
g21
((dp1277
I01
I8
sNI10
stRp1278
sg24
I2
sg25
F19
sbs(g10
g512
tp1279
g1
(g15
g3
NtRp1280
(dp1281
g18
F0.5
sg19
I28
sg20
g21
((dp1282
NI28
stRp1283
sg24
I2
sg25
F29
sbs(g8
g1026
tp1284
g1
(g15
g3
NtRp1285
(dp1286
g18
F0.5
sg19
I18
sg20
g21
((dp1287
NI18
stRp1288
sg24
I2
sg25
F19
sbs(g9
g431
tp1289
g1
(g15
g3
NtRp1290
(dp1291
g18
F0.5
sg19
I62
sg20
g21
((dp1292
NI62
stRp1293
sg24
I2
sg25
F63
sbs(g9
g255
tp1294
g1
(g15
g3
NtRp1295
(dp1296
g18
F0.5
sg19
I62
sg20
g21
((dp1297
NI62
stRp1298
sg24
I2
sg25
F63
sbs(g10
S'contains(claus)'
p1299
tp1300
g1
(g15
g3
NtRp1301
(dp1302
g18
F0.5
sg19
I28
sg20
g21
((dp1303
NI28
stRp1304
sg24
I2
sg25
F29
sbs(g10
S'contains(company)'
p1305
tp1306
g1
(g15
g3
NtRp1307
(dp1308
g18
F0.5
sg19
I28
sg20
g21
((dp1309
NI28
stRp1310
sg24
I2
sg25
F29
sbs(S'Meaning'
g584
tp1311
g1
(g15
g3
NtRp1312
(dp1313
g18
F0.5
sg19
I62
sg20
g21
((dp1314
I01
I1
sNI61
stRp1315
sg24
I2
sg25
F63
sbs(g8
S'contains(pretty)'
p1316
tp1317
g1
(g15
g3
NtRp1318
(dp1319
g18
F0.5
sg19
I18
sg20
g21
((dp1320
NI18
stRp1321
sg24
I2
sg25
F19
sbs(S'Composition'
g995
tp1322
g1
(g15
g3
NtRp1323
(dp1324
g18
F0.5
sg19
I28
sg20
g21
((dp1325
I01
I1
sNI27
stRp1326
sg24
I2
sg25
F29
sbs(S'Meaning'
g313
tp1327
g1
(g15
g3
NtRp1328
(dp1329
g18
F0.5
sg19
I62
sg20
g21
((dp1330
I01
I1
sNI61
stRp1331
sg24
I2
sg25
F63
sbs(g9
g32
tp1332
g1
(g15
g3
NtRp1333
(dp1334
g18
F0.5
sg19
I62
sg20
g21
((dp1335
NI62
stRp1336
sg24
I2
sg25
F63
sbs(g10
g937
tp1337
g1
(g15
g3
NtRp1338
(dp1339
g18
F0.5
sg19
I28
sg20
g21
((dp1340
NI28
stRp1341
sg24
I2
sg25
F29
sbs(g8
S'contains(rubber)'
p1342
tp1343
g1
(g15
g3
NtRp1344
(dp1345
g18
F0.5
sg19
I18
sg20
g21
((dp1346
NI18
stRp1347
sg24
I2
sg25
F19
sbs(g10
g1037
tp1348
g1
(g15
g3
NtRp1349
(dp1350
g18
F0.5
sg19
I28
sg20
g21
((dp1351
NI28
stRp1352
sg24
I2
sg25
F29
sbs(g10
S'contains(avenue)'
p1353
tp1354
g1
(g15
g3
NtRp1355
(dp1356
g18
F0.5
sg19
I28
sg20
g21
((dp1357
NI28
stRp1358
sg24
I2
sg25
F29
sbs(g10
g845
tp1359
g1
(g15
g3
NtRp1360
(dp1361
g18
F0.5
sg19
I28
sg20
g21
((dp1362
NI28
stRp1363
sg24
I2
sg25
F29
sbs(g8
S'contains(mellon)'
p1364
tp1365
g1
(g15
g3
NtRp1366
(dp1367
g18
F0.5
sg19
I18
sg20
g21
((dp1368
NI18
stRp1369
sg24
I2
sg25
F19
sbs(g8
S'contains(zapping)'
p1370
tp1371
g1
(g15
g3
NtRp1372
(dp1373
g18
F0.5
sg19
I18
sg20
g21
((dp1374
NI18
stRp1375
sg24
I2
sg25
F19
sbs(g181
g87
tp1376
g1
(g15
g3
NtRp1377
(dp1378
g18
F0.5
sg19
I28
sg20
g21
((dp1379
I01
I1
sNI27
stRp1380
sg24
I2
sg25
F29
sbs(g596
S'contains(reading)'
p1381
tp1382
g1
(g15
g3
NtRp1383
(dp1384
g18
F0.5
sg19
I18
sg20
g21
((dp1385
I01
I1
sNI17
stRp1386
sg24
I2
sg25
F19
sbs(g8
g361
tp1387
g1
(g15
g3
NtRp1388
(dp1389
g18
F0.5
sg19
I18
sg20
g21
((dp1390
NI18
stRp1391
sg24
I2
sg25
F19
sbs(g8
g723
tp1392
g1
(g15
g3
NtRp1393
(dp1394
g18
F0.5
sg19
I18
sg20
g21
((dp1395
NI18
stRp1396
sg24
I2
sg25
F19
sbs(g8
g87
tp1397
g1
(g15
g3
NtRp1398
(dp1399
g18
F0.5
sg19
I18
sg20
g21
((dp1400
NI18
stRp1401
sg24
I2
sg25
F19
sbs(g9
S'contains(as)'
p1402
tp1403
g1
(g15
g3
NtRp1404
(dp1405
g18
F0.5
sg19
I62
sg20
g21
((dp1406
NI62
stRp1407
sg24
I2
sg25
F63
sbs(g10
S'contains(?)'
tp1408
g1
(g15
g3
NtRp1409
(dp1410
g18
F0.5
sg19
I28
sg20
g21
((dp1411
I01
I28
stRp1412
sg24
I1
sg25
F28.5
sbs(g267
g325
tp1413
g1
(g15
g3
NtRp1414
(dp1415
g18
F0.5
sg19
I18
sg20
g21
((dp1416
I01
I1
sNI17
stRp1417
sg24
I2
sg25
F19
sbs(g8
g391
tp1418
g1
(g15
g3
NtRp1419
(dp1420
g18
F0.5
sg19
I18
sg20
g21
((dp1421
NI18
stRp1422
sg24
I2
sg25
F19
sbs(g8
S'contains(eucalyptus)'
p1423
tp1424
g1
(g15
g3
NtRp1425
(dp1426
g18
F0.5
sg19
I18
sg20
g21
((dp1427
NI18
stRp1428
sg24
I2
sg25
F19
sbs(g10
S'contains(ads)'
p1429
tp1430
g1
(g15
g3
NtRp1431
(dp1432
g18
F0.5
sg19
I28
sg20
g21
((dp1433
NI28
stRp1434
sg24
I2
sg25
F29
sbs(g9
g219
tp1435
g1
(g15
g3
NtRp1436
(dp1437
g18
F0.5
sg19
I62
sg20
g21
((dp1438
NI62
stRp1439
sg24
I2
sg25
F63
sbs(g9
g182
tp1440
g1
(g15
g3
NtRp1441
(dp1442
g18
F0.5
sg19
I62
sg20
g21
((dp1443
NI62
stRp1444
sg24
I2
sg25
F63
sbs(g10
g280
tp1445
g1
(g15
g3
NtRp1446
(dp1447
g18
F0.5
sg19
I28
sg20
g21
((dp1448
NI28
stRp1449
sg24
I2
sg25
F29
sbs(g10
S'contains(what)'
tp1450
g1
(g15
g3
NtRp1451
(dp1452
g18
F0.5
sg19
I28
sg20
g21
((dp1453
I01
I28
stRp1454
sg24
I2
sg25
F29
sbs(g10
g734
tp1455
g1
(g15
g3
NtRp1456
(dp1457
g18
F0.5
sg19
I28
sg20
g21
((dp1458
NI28
stRp1459
sg24
I2
sg25
F29
sbs(g9
S'contains(form)'
p1460
tp1461
g1
(g15
g3
NtRp1462
(dp1463
g18
F0.5
sg19
I62
sg20
g21
((dp1464
NI62
stRp1465
sg24
I2
sg25
F63
sbs(g9
g1197
tp1466
g1
(g15
g3
NtRp1467
(dp1468
g18
F0.5
sg19
I62
sg20
g21
((dp1469
NI62
stRp1470
sg24
I2
sg25
F63
sbs(g8
g494
tp1471
g1
(g15
g3
NtRp1472
(dp1473
g18
F0.5
sg19
I18
sg20
g21
((dp1474
NI18
stRp1475
sg24
I2
sg25
F19
sbs(g9
g268
tp1476
g1
(g15
g3
NtRp1477
(dp1478
g18
F0.5
sg19
I62
sg20
g21
((dp1479
NI62
stRp1480
sg24
I2
sg25
F63
sbs(g9
g1191
tp1481
g1
(g15
g3
NtRp1482
(dp1483
g18
F0.5
sg19
I62
sg20
g21
((dp1484
NI62
stRp1485
sg24
I2
sg25
F63
sbs(g8
g261
tp1486
g1
(g15
g3
NtRp1487
(dp1488
g18
F0.5
sg19
I18
sg20
g21
((dp1489
NI18
stRp1490
sg24
I2
sg25
F19
sbs(g10
g255
tp1491
g1
(g15
g3
NtRp1492
(dp1493
g18
F0.5
sg19
I28
sg20
g21
((dp1494
NI28
stRp1495
sg24
I2
sg25
F29
sbs(g10
g643
tp1496
g1
(g15
g3
NtRp1497
(dp1498
g18
F0.5
sg19
I28
sg20
g21
((dp1499
NI28
stRp1500
sg24
I2
sg25
F29
sbs(g194
g476
tp1501
g1
(g15
g3
NtRp1502
(dp1503
g18
F0.5
sg19
I18
sg20
g21
((dp1504
I01
I1
sNI17
stRp1505
sg24
I2
sg25
F19
sbs(g10
g242
tp1506
g1
(g15
g3
NtRp1507
(dp1508
g18
F0.5
sg19
I28
sg20
g21
((dp1509
NI28
stRp1510
sg24
I2
sg25
F29
sbs(S'Meaning'
p1511
S'contains(santa)'
p1512
tp1513
g1
(g15
g3
NtRp1514
(dp1515
g18
F0.5
sg19
I62
sg20
g21
((dp1516
I01
I1
sNI61
stRp1517
sg24
I2
sg25
F63
sbs(g8
g643
tp1518
g1
(g15
g3
NtRp1519
(dp1520
g18
F0.5
sg19
I18
sg20
g21
((dp1521
NI18
stRp1522
sg24
I2
sg25
F19
sbs(S'Meaning'
g1364
tp1523
g1
(g15
g3
NtRp1524
(dp1525
g18
F0.5
sg19
I62
sg20
g21
((dp1526
I01
I1
sNI61
stRp1527
sg24
I2
sg25
F63
sbs(g10
S'contains(when)'
p1528
tp1529
g1
(g15
g3
NtRp1530
(dp1531
g18
F0.5
sg19
I28
sg20
g21
((dp1532
NI28
stRp1533
sg24
I2
sg25
F29
sbs(g9
S'contains(on)'
p1534
tp1535
g1
(g15
g3
NtRp1536
(dp1537
g18
F0.5
sg19
I62
sg20
g21
((dp1538
NI62
stRp1539
sg24
I2
sg25
F63
sbs(g10
g883
tp1540
g1
(g15
g3
NtRp1541
(dp1542
g18
F0.5
sg19
I28
sg20
g21
((dp1543
NI28
stRp1544
sg24
I2
sg25
F29
sbs(g8
g213
tp1545
g1
(g15
g3
NtRp1546
(dp1547
g18
F0.5
sg19
I18
sg20
g21
((dp1548
NI18
stRp1549
sg24
I2
sg25
F19
sbs(g9
g790
tp1550
g1
(g15
g3
NtRp1551
(dp1552
g18
F0.5
sg19
I62
sg20
g21
((dp1553
NI62
stRp1554
sg24
I2
sg25
F63
sbs(g10
g1048
tp1555
g1
(g15
g3
NtRp1556
(dp1557
g18
F0.5
sg19
I28
sg20
g21
((dp1558
NI28
stRp1559
sg24
I2
sg25
F29
sbs(g9
g195
tp1560
g1
(g15
g3
NtRp1561
(dp1562
g18
F0.5
sg19
I62
sg20
g21
((dp1563
NI62
stRp1564
sg24
I2
sg25
F63
sbs(S'Meaning'
p1565
g1423
tp1566
g1
(g15
g3
NtRp1567
(dp1568
g18
F0.5
sg19
I62
sg20
g21
((dp1569
I01
I1
sNI61
stRp1570
sg24
I2
sg25
F63
sbs(g596
g818
tp1571
g1
(g15
g3
NtRp1572
(dp1573
g18
F0.5
sg19
I18
sg20
g21
((dp1574
I01
I1
sNI17
stRp1575
sg24
I2
sg25
F19
sbs(g74
g157
tp1576
g1
(g15
g3
NtRp1577
(dp1578
g18
F0.5
sg19
I18
sg20
g21
((dp1579
I01
I1
sNI17
stRp1580
sg24
I2
sg25
F19
sbs(g10
g769
tp1581
g1
(g15
g3
NtRp1582
(dp1583
g18
F0.5
sg19
I28
sg20
g21
((dp1584
NI28
stRp1585
sg24
I2
sg25
F29
sbs(g596
g1429
tp1586
g1
(g15
g3
NtRp1587
(dp1588
g18
F0.5
sg19
I18
sg20
g21
((dp1589
I01
I1
sNI17
stRp1590
sg24
I2
sg25
F19
sbs(g10
g790
tp1591
g1
(g15
g3
NtRp1592
(dp1593
g18
F0.5
sg19
I28
sg20
g21
((dp1594
NI28
stRp1595
sg24
I2
sg25
F29
sbs(g9
g1185
tp1596
g1
(g15
g3
NtRp1597
(dp1598
g18
F0.5
sg19
I62
sg20
g21
((dp1599
NI62
stRp1600
sg24
I2
sg25
F63
sbs(g8
g182
tp1601
g1
(g15
g3
NtRp1602
(dp1603
g18
F0.5
sg19
I18
sg20
g21
((dp1604
NI18
stRp1605
sg24
I2
sg25
F19
sbs(g9
g1305
tp1606
g1
(g15
g3
NtRp1607
(dp1608
g18
F0.5
sg19
I62
sg20
g21
((dp1609
NI62
stRp1610
sg24
I2
sg25
F63
sbs(g8
S'contains(mellons)'
p1611
tp1612
g1
(g15
g3
NtRp1613
(dp1614
g18
F0.5
sg19
I18
sg20
g21
((dp1615
NI18
stRp1616
sg24
I2
sg25
F19
sbs(g10
g163
tp1617
g1
(g15
g3
NtRp1618
(dp1619
g18
F0.5
sg19
I28
sg20
g21
((dp1620
NI28
stRp1621
sg24
I2
sg25
F29
sbs(g10
g1370
tp1622
g1
(g15
g3
NtRp1623
(dp1624
g18
F0.5
sg19
I28
sg20
g21
((dp1625
NI28
stRp1626
sg24
I2
sg25
F29
sbs(g8
g1299
tp1627
g1
(g15
g3
NtRp1628
(dp1629
g18
F0.5
sg19
I18
sg20
g21
((dp1630
NI18
stRp1631
sg24
I2
sg25
F19
sbs(g9
g752
tp1632
g1
(g15
g3
NtRp1633
(dp1634
g18
F0.5
sg19
I62
sg20
g21
((dp1635
NI62
stRp1636
sg24
I2
sg25
F63
sbs(g8
S'contains(backpacks)'
p1637
tp1638
g1
(g15
g3
NtRp1639
(dp1640
g18
F0.5
sg19
I18
sg20
g21
((dp1641
NI18
stRp1642
sg24
I2
sg25
F19
sbs(g9
S'contains(made)'
p1643
tp1644
g1
(g15
g3
NtRp1645
(dp1646
g18
F0.5
sg19
I62
sg20
g21
((dp1647
NI62
stRp1648
sg24
I2
sg25
F63
sbs(g10
g139
tp1649
g1
(g15
g3
NtRp1650
(dp1651
g18
F0.5
sg19
I28
sg20
g21
((dp1652
NI28
stRp1653
sg24
I2
sg25
F29
sbs(g8
g1353
tp1654
g1
(g15
g3
NtRp1655
(dp1656
g18
F0.5
sg19
I18
sg20
g21
((dp1657
NI18
stRp1658
sg24
I2
sg25
F19
sbs(g8
g740
tp1659
g1
(g15
g3
NtRp1660
(dp1661
g18
F0.5
sg19
I18
sg20
g21
((dp1662
NI18
stRp1663
sg24
I2
sg25
F19
sbs(g8
g56
tp1664
g1
(g15
g3
NtRp1665
(dp1666
g18
F0.5
sg19
I18
sg20
g21
((dp1667
NI18
stRp1668
sg24
I2
sg25
F19
sbs(S'Meaning'
g1353
tp1669
g1
(g15
g3
NtRp1670
(dp1671
g18
F0.5
sg19
I62
sg20
g21
((dp1672
I01
I1
sNI61
stRp1673
sg24
I2
sg25
F63
sbs(S'Composition'
g1342
tp1674
g1
(g15
g3
NtRp1675
(dp1676
g18
F0.5
sg19
I28
sg20
g21
((dp1677
I01
I1
sNI27
stRp1678
sg24
I2
sg25
F29
sbs(g10
g989
tp1679
g1
(g15
g3
NtRp1680
(dp1681
g18
F0.5
sg19
I28
sg20
g21
((dp1682
NI28
stRp1683
sg24
I2
sg25
F29
sbs(g194
g712
tp1684
g1
(g15
g3
NtRp1685
(dp1686
g18
F0.5
sg19
I18
sg20
g21
((dp1687
I01
I1
sNI17
stRp1688
sg24
I2
sg25
F19
sbs(g9
g99
tp1689
g1
(g15
g3
NtRp1690
(dp1691
g18
F0.5
sg19
I62
sg20
g21
((dp1692
NI62
stRp1693
sg24
I2
sg25
F63
sbs(S'Composition'
p1694
g706
tp1695
g1
(g15
g3
NtRp1696
(dp1697
g18
F0.5
sg19
I28
sg20
g21
((dp1698
I01
I2
sNI26
stRp1699
sg24
I2
sg25
F29
sbs(g9
g424
tp1700
g1
(g15
g3
NtRp1701
(dp1702
g18
F0.5
sg19
I62
sg20
g21
((dp1703
I01
I12
sNI50
stRp1704
sg24
I2
sg25
F63
sbs(S'Meaning'
g1370
tp1705
g1
(g15
g3
NtRp1706
(dp1707
g18
F0.5
sg19
I62
sg20
g21
((dp1708
I01
I1
sNI61
stRp1709
sg24
I2
sg25
F63
sbs(g430
S'contains(bureau)'
p1710
tp1711
g1
(g15
g3
NtRp1712
(dp1713
g18
F0.5
sg19
I18
sg20
g21
((dp1714
I01
I1
sNI17
stRp1715
sg24
I2
sg25
F19
sbs(g8
g1117
tp1716
g1
(g15
g3
NtRp1717
(dp1718
g18
F0.5
sg19
I18
sg20
g21
((dp1719
I01
I3
sNI15
stRp1720
sg24
I2
sg25
F19
sbs(S'Meaning'
S'contains(atm)'
p1721
tp1722
g1
(g15
g3
NtRp1723
(dp1724
g18
F0.5
sg19
I62
sg20
g21
((dp1725
I01
I1
sNI61
stRp1726
sg24
I2
sg25
F63
sbs(g8
g609
tp1727
g1
(g15
g3
NtRp1728
(dp1729
g18
F0.5
sg19
I18
sg20
g21
((dp1730
NI18
stRp1731
sg24
I2
sg25
F19
sbs(g8
S'contains(mouse)'
p1732
tp1733
g1
(g15
g3
NtRp1734
(dp1735
g18
F0.5
sg19
I18
sg20
g21
((dp1736
NI18
stRp1737
sg24
I2
sg25
F19
sbs(g10
g338
tp1738
g1
(g15
g3
NtRp1739
(dp1740
g18
F0.5
sg19
I28
sg20
g21
((dp1741
NI28
stRp1742
sg24
I2
sg25
F29
sbs(g8
g50
tp1743
g1
(g15
g3
NtRp1744
(dp1745
g18
F0.5
sg19
I18
sg20
g21
((dp1746
NI18
stRp1747
sg24
I2
sg25
F19
sbs(g9
g188
tp1748
g1
(g15
g3
NtRp1749
(dp1750
g18
F0.5
sg19
I62
sg20
g21
((dp1751
NI62
stRp1752
sg24
I2
sg25
F63
sbs(g9
g460
tp1753
g1
(g15
g3
NtRp1754
(dp1755
g18
F0.5
sg19
I62
sg20
g21
((dp1756
NI62
stRp1757
sg24
I2
sg25
F63
sbs(g8
g746
tp1758
g1
(g15
g3
NtRp1759
(dp1760
g18
F0.5
sg19
I18
sg20
g21
((dp1761
NI18
stRp1762
sg24
I2
sg25
F19
sbs(S'Meaning'
g50
tp1763
g1
(g15
g3
NtRp1764
(dp1765
g18
F0.5
sg19
I62
sg20
g21
((dp1766
I01
I1
sNI61
stRp1767
sg24
I2
sg25
F63
sbs(g10
g355
tp1768
g1
(g15
g3
NtRp1769
(dp1770
g18
F0.5
sg19
I28
sg20
g21
((dp1771
NI28
stRp1772
sg24
I2
sg25
F29
sbs(g10
g379
tp1773
g1
(g15
g3
NtRp1774
(dp1775
g18
F0.5
sg19
I28
sg20
g21
((dp1776
NI28
stRp1777
sg24
I2
sg25
F29
sbs(S'Meaning'
g1159
tp1778
g1
(g15
g3
NtRp1779
(dp1780
g18
F0.5
sg19
I62
sg20
g21
((dp1781
I01
I1
sNI61
stRp1782
sg24
I2
sg25
F63
sbs(g8
g632
tp1783
g1
(g15
g3
NtRp1784
(dp1785
g18
F0.5
sg19
I18
sg20
g21
((dp1786
NI18
stRp1787
sg24
I2
sg25
F19
sbs(g8
S'contains(protective)'
p1788
tp1789
g1
(g15
g3
NtRp1790
(dp1791
g18
F0.5
sg19
I18
sg20
g21
((dp1792
NI18
stRp1793
sg24
I2
sg25
F19
sbs(g9
g621
tp1794
g1
(g15
g3
NtRp1795
(dp1796
g18
F0.5
sg19
I62
sg20
g21
((dp1797
NI62
stRp1798
sg24
I2
sg25
F63
sbs(g8
S'contains(broke)'
p1799
tp1800
g1
(g15
g3
NtRp1801
(dp1802
g18
F0.5
sg19
I18
sg20
g21
((dp1803
NI18
stRp1804
sg24
I2
sg25
F19
sbs(g8
g615
tp1805
g1
(g15
g3
NtRp1806
(dp1807
g18
F0.5
sg19
I18
sg20
g21
((dp1808
NI18
stRp1809
sg24
I2
sg25
F19
sbs(S'Meaning'
g442
tp1810
g1
(g15
g3
NtRp1811
(dp1812
g18
F0.5
sg19
I62
sg20
g21
((dp1813
I01
I1
sNI61
stRp1814
sg24
I2
sg25
F63
sbs(g8
g603
tp1815
g1
(g15
g3
NtRp1816
(dp1817
g18
F0.5
sg19
I18
sg20
g21
((dp1818
NI18
stRp1819
sg24
I2
sg25
F19
sbs(g8
g1512
tp1820
g1
(g15
g3
NtRp1821
(dp1822
g18
F0.5
sg19
I18
sg20
g21
((dp1823
NI18
stRp1824
sg24
I2
sg25
F19
sbs(g9
g213
tp1825
g1
(g15
g3
NtRp1826
(dp1827
g18
F0.5
sg19
I62
sg20
g21
((dp1828
NI62
stRp1829
sg24
I2
sg25
F63
sbs(g8
S'contains(your)'
p1830
tp1831
g1
(g15
g3
NtRp1832
(dp1833
g18
F0.5
sg19
I18
sg20
g21
((dp1834
NI18
stRp1835
sg24
I2
sg25
F19
sbs(g488
g560
tp1836
g1
(g15
g3
NtRp1837
(dp1838
g18
F0.5
sg19
I18
sg20
g21
((dp1839
I01
I4
sNI14
stRp1840
sg24
I2
sg25
F19
sbs(g8
g1643
tp1841
g1
(g15
g3
NtRp1842
(dp1843
g18
F0.5
sg19
I18
sg20
g21
((dp1844
NI18
stRp1845
sg24
I2
sg25
F19
sbs(g10
g1159
tp1846
g1
(g15
g3
NtRp1847
(dp1848
g18
F0.5
sg19
I28
sg20
g21
((dp1849
NI28
stRp1850
sg24
I2
sg25
F29
sbs(g10
g572
tp1851
g1
(g15
g3
NtRp1852
(dp1853
g18
F0.5
sg19
I28
sg20
g21
((dp1854
NI28
stRp1855
sg24
I2
sg25
F29
sbs(g10
g590
tp1856
g1
(g15
g3
NtRp1857
(dp1858
g18
F0.5
sg19
I28
sg20
g21
((dp1859
NI28
stRp1860
sg24
I2
sg25
F29
sbs(g10
g1512
tp1861
g1
(g15
g3
NtRp1862
(dp1863
g18
F0.5
sg19
I28
sg20
g21
((dp1864
NI28
stRp1865
sg24
I2
sg25
F29
sbs(g8
g845
tp1866
g1
(g15
g3
NtRp1867
(dp1868
g18
F0.5
sg19
I18
sg20
g21
((dp1869
NI18
stRp1870
sg24
I2
sg25
F19
sbs(g10
g603
tp1871
g1
(g15
g3
NtRp1872
(dp1873
g18
F0.5
sg19
I28
sg20
g21
((dp1874
NI28
stRp1875
sg24
I2
sg25
F29
sbs(g9
g26
tp1876
g1
(g15
g3
NtRp1877
(dp1878
g18
F0.5
sg19
I62
sg20
g21
((dp1879
NI62
stRp1880
sg24
I2
sg25
F63
sbs(g9
g13
tp1881
g1
(g15
g3
NtRp1882
(dp1883
g18
F0.5
sg19
I62
sg20
g21
((dp1884
NI62
stRp1885
sg24
I2
sg25
F63
sbs(g10
g1423
tp1886
g1
(g15
g3
NtRp1887
(dp1888
g18
F0.5
sg19
I28
sg20
g21
((dp1889
NI28
stRp1890
sg24
I2
sg25
F29
sbs(g10
g1799
tp1891
g1
(g15
g3
NtRp1892
(dp1893
g18
F0.5
sg19
I28
sg20
g21
((dp1894
NI28
stRp1895
sg24
I2
sg25
F29
sbs(g1565
g1268
tp1896
g1
(g15
g3
NtRp1897
(dp1898
g18
F0.5
sg19
I62
sg20
g21
((dp1899
I01
I1
sNI61
stRp1900
sg24
I2
sg25
F63
sbs(S'Meaning'
g518
tp1901
g1
(g15
g3
NtRp1902
(dp1903
g18
F0.5
sg19
I62
sg20
g21
((dp1904
I01
I1
sNI61
stRp1905
sg24
I2
sg25
F63
sbs(S'Meaning'
g331
tp1906
g1
(g15
g3
NtRp1907
(dp1908
g18
F0.5
sg19
I62
sg20
g21
((dp1909
I01
I1
sNI61
stRp1910
sg24
I2
sg25
F63
sbs(g448
g609
tp1911
g1
(g15
g3
NtRp1912
(dp1913
g18
F0.5
sg19
I28
sg20
g21
((dp1914
I01
I1
sNI27
stRp1915
sg24
I2
sg25
F29
sbs(g267
S'contains(a)'
tp1916
g1
(g15
g3
NtRp1917
(dp1918
g18
F0.5
sg19
I18
sg20
g21
((dp1919
I01
I1
sNI17
stRp1920
sg24
I2
sg25
F19
sbs(g9
g1429
tp1921
g1
(g15
g3
NtRp1922
(dp1923
g18
F0.5
sg19
I62
sg20
g21
((dp1924
NI62
stRp1925
sg24
I2
sg25
F63
sbs(g10
g1721
tp1926
g1
(g15
g3
NtRp1927
(dp1928
g18
F0.5
sg19
I28
sg20
g21
((dp1929
NI28
stRp1930
sg24
I2
sg25
F29
sbs(g267
g1402
tp1931
g1
(g15
g3
NtRp1932
(dp1933
g18
F0.5
sg19
I18
sg20
g21
((dp1934
I01
I1
sNI17
stRp1935
sg24
I2
sg25
F19
sbs(g8
g225
tp1936
g1
(g15
g3
NtRp1937
(dp1938
g18
F0.5
sg19
I18
sg20
g21
((dp1939
NI18
stRp1940
sg24
I2
sg25
F19
sbs(S'Meaning'
g418
tp1941
g1
(g15
g3
NtRp1942
(dp1943
g18
F0.5
sg19
I62
sg20
g21
((dp1944
I01
I1
sNI61
stRp1945
sg24
I2
sg25
F63
sbs(g8
g460
tp1946
g1
(g15
g3
NtRp1947
(dp1948
g18
F0.5
sg19
I18
sg20
g21
((dp1949
NI18
stRp1950
sg24
I2
sg25
F19
sbs(g8
g989
tp1951
g1
(g15
g3
NtRp1952
(dp1953
g18
F0.5
sg19
I18
sg20
g21
((dp1954
NI18
stRp1955
sg24
I2
sg25
F19
sbs(g10
g402
tp1956
g1
(g15
g3
NtRp1957
(dp1958
g18
F0.5
sg19
I28
sg20
g21
((dp1959
NI28
stRp1960
sg24
I2
sg25
F29
sbs(S'Meaning'
p1961
g661
tp1962
g1
(g15
g3
NtRp1963
(dp1964
g18
F0.5
sg19
I62
sg20
g21
((dp1965
I01
I12
sNI50
stRp1966
sg24
I2
sg25
F63
sbs(g10
g518
tp1967
g1
(g15
g3
NtRp1968
(dp1969
g18
F0.5
sg19
I28
sg20
g21
((dp1970
NI28
stRp1971
sg24
I2
sg25
F29
sbs(g10
g1637
tp1972
g1
(g15
g3
NtRp1973
(dp1974
g18
F0.5
sg19
I28
sg20
g21
((dp1975
NI28
stRp1976
sg24
I2
sg25
F29
sbs(g10
g195
tp1977
g1
(g15
g3
NtRp1978
(dp1979
g18
F0.5
sg19
I28
sg20
g21
((dp1980
NI28
stRp1981
sg24
I2
sg25
F29
sbs(g9
g1342
tp1982
g1
(g15
g3
NtRp1983
(dp1984
g18
F0.5
sg19
I62
sg20
g21
((dp1985
NI62
stRp1986
sg24
I2
sg25
F63
sbs(g10
g1059
tp1987
g1
(g15
g3
NtRp1988
(dp1989
g18
F0.5
sg19
I28
sg20
g21
((dp1990
NI28
stRp1991
sg24
I2
sg25
F29
sbs(S'Meaning'
p1992
g139
tp1993
g1
(g15
g3
NtRp1994
(dp1995
g18
F0.5
sg19
I62
sg20
g21
((dp1996
I01
I1
sNI61
stRp1997
sg24
I2
sg25
F63
sbs(S'Meaning'
g1316
tp1998
g1
(g15
g3
NtRp1999
(dp2000
g18
F0.5
sg19
I62
sg20
g21
((dp2001
I01
I1
sNI61
stRp2002
sg24
I2
sg25
F63
sbs(g10
g1534
tp2003
g1
(g15
g3
NtRp2004
(dp2005
g18
F0.5
sg19
I28
sg20
g21
((dp2006
NI28
stRp2007
sg24
I2
sg25
F29
sbs(g9
g207
tp2008
g1
(g15
g3
NtRp2009
(dp2010
g18
F0.5
sg19
I62
sg20
g21
((dp2011
NI62
stRp2012
sg24
I2
sg25
F63
sbs(g10
S'contains(of)'
tp2013
g1
(g15
g3
NtRp2014
(dp2015
g18
F0.5
sg19
I28
sg20
g21
((dp2016
I01
I28
stRp2017
sg24
I2
sg25
F29
sbs(g10
g431
tp2018
g1
(g15
g3
NtRp2019
(dp2020
g18
F0.5
sg19
I28
sg20
g21
((dp2021
NI28
stRp2022
sg24
I2
sg25
F29
sbs(g9
S'contains(does)'
p2023
tp2024
g1
(g15
g3
NtRp2025
(dp2026
g18
F0.5
sg19
I62
sg20
g21
((dp2027
I01
I12
sNI50
stRp2028
sg24
I2
sg25
F63
sbs(S'Composition'
g117
tp2029
g1
(g15
g3
NtRp2030
(dp2031
g18
F0.5
sg19
I28
sg20
g21
((dp2032
I01
I1
sNI27
stRp2033
sg24
I2
sg25
F29
sbs(g248
S'contains(mean)'
tp2034
g1
(g15
g3
NtRp2035
(dp2036
g18
F0.5
sg19
I18
sg20
g21
((dp2037
I01
I2
sNI16
stRp2038
sg24
I2
sg25
F19
sbs(g10
g1611
tp2039
g1
(g15
g3
NtRp2040
(dp2041
g18
F0.5
sg19
I28
sg20
g21
((dp2042
NI28
stRp2043
sg24
I2
sg25
F29
sbs(S'Composition'
g801
tp2044
g1
(g15
g3
NtRp2045
(dp2046
g18
F0.5
sg19
I28
sg20
g21
((dp2047
I01
I1
sNI27
stRp2048
sg24
I2
sg25
F29
sbs(g10
g1117
tp2049
g1
(g15
g3
NtRp2050
(dp2051
g18
F0.5
sg19
I28
sg20
g21
((dp2052
NI28
stRp2053
sg24
I2
sg25
F29
sbs(g488
S'contains(does)'
tp2054
g1
(g15
g3
NtRp2055
(dp2056
g18
F0.5
sg19
I18
sg20
g21
((dp2057
I01
I11
sNI7
stRp2058
sg24
I2
sg25
F19
sbs(S'Meaning'
g667
tp2059
g1
(g15
g3
NtRp2060
(dp2061
g18
F0.5
sg19
I62
sg20
g21
((dp2062
I01
I1
sNI61
stRp2063
sg24
I2
sg25
F63
sbs(g8
S'contains(are)'
p2064
tp2065
g1
(g15
g3
NtRp2066
(dp2067
g18
F0.5
sg19
I18
sg20
g21
((dp2068
NI18
stRp2069
sg24
I2
sg25
F19
sbs(g9
g145
tp2070
g1
(g15
g3
NtRp2071
(dp2072
g18
F0.5
sg19
I62
sg20
g21
((dp2073
NI62
stRp2074
sg24
I2
sg25
F63
sbs(g38
g1611
tp2075
g1
(g15
g3
NtRp2076
(dp2077
g18
F0.5
sg19
I62
sg20
g21
((dp2078
I01
I1
sNI61
stRp2079
sg24
I2
sg25
F63
sbs(S'Meaning'
g242
tp2080
g1
(g15
g3
NtRp2081
(dp2082
g18
F0.5
sg19
I62
sg20
g21
((dp2083
I01
I1
sNI61
stRp2084
sg24
I2
sg25
F63
sbs(S'Meaning'
g829
tp2085
g1
(g15
g3
NtRp2086
(dp2087
g18
F0.5
sg19
I62
sg20
g21
((dp2088
I01
I1
sNI61
stRp2089
sg24
I2
sg25
F63
sbs(g500
S'contains(is)'
tp2090
g1
(g15
g3
NtRp2091
(dp2092
g18
F0.5
sg19
I28
sg20
g21
((dp2093
I01
I18
sNI10
stRp2094
sg24
I2
sg25
F29
sbs(g596
g1185
tp2095
g1
(g15
g3
NtRp2096
(dp2097
g18
F0.5
sg19
I18
sg20
g21
((dp2098
I01
I1
sNI17
stRp2099
sg24
I2
sg25
F19
sbs(g9
g1528
tp2100
g1
(g15
g3
NtRp2101
(dp2102
g18
F0.5
sg19
I62
sg20
g21
((dp2103
NI62
stRp2104
sg24
I2
sg25
F63
sbs(S'Meaning'
g578
tp2105
g1
(g15
g3
NtRp2106
(dp2107
g18
F0.5
sg19
I62
sg20
g21
((dp2108
I01
I1
sNI61
stRp2109
sg24
I2
sg25
F63
sbs(g10
g319
tp2110
g1
(g15
g3
NtRp2111
(dp2112
g18
F0.5
sg19
I28
sg20
g21
((dp2113
NI28
stRp2114
sg24
I2
sg25
F29
sbs(S'Abbreviation'
g1048
tp2115
g1
(g15
g3
NtRp2116
(dp2117
g18
F0.5
sg19
I18
sg20
g21
((dp2118
I01
I1
sNI17
stRp2119
sg24
I2
sg25
F19
sbs(S'Composition'
g958
tp2120
g1
(g15
g3
NtRp2121
(dp2122
g18
F0.5
sg19
I28
sg20
g21
((dp2123
I01
I1
sNI27
stRp2124
sg24
I2
sg25
F29
sbs(g254
g1528
tp2125
g1
(g15
g3
NtRp2126
(dp2127
g18
F0.5
sg19
I18
sg20
g21
((dp2128
I01
I3
sNI15
stRp2129
sg24
I2
sg25
F19
sbs(g8
g313
tp2130
g1
(g15
g3
NtRp2131
(dp2132
g18
F0.5
sg19
I18
sg20
g21
((dp2133
NI18
stRp2134
sg24
I2
sg25
F19
sbs(g10
g758
tp2135
g1
(g15
g3
NtRp2136
(dp2137
g18
F0.5
sg19
I28
sg20
g21
((dp2138
NI28
stRp2139
sg24
I2
sg25
F29
sbs(S'Meaning'
g261
tp2140
g1
(g15
g3
NtRp2141
(dp2142
g18
F0.5
sg19
I62
sg20
g21
((dp2143
I01
I1
sNI61
stRp2144
sg24
I2
sg25
F63
sbs(S'Meaning'
g494
tp2145
g1
(g15
g3
NtRp2146
(dp2147
g18
F0.5
sg19
I62
sg20
g21
((dp2148
I01
I2
sNI60
stRp2149
sg24
I2
sg25
F63
sbs(g8
g958
tp2150
g1
(g15
g3
NtRp2151
(dp2152
g18
F0.5
sg19
I18
sg20
g21
((dp2153
NI18
stRp2154
sg24
I2
sg25
F19
sbs(g9
g1732
tp2155
g1
(g15
g3
NtRp2156
(dp2157
g18
F0.5
sg19
I62
sg20
g21
((dp2158
NI62
stRp2159
sg24
I2
sg25
F63
sbs(g254
g1534
tp2160
g1
(g15
g3
NtRp2161
(dp2162
g18
F0.5
sg19
I18
sg20
g21
((dp2163
I01
I1
sNI17
stRp2164
sg24
I2
sg25
F19
sbs(S'Meaning'
S'contains(pencil)'
tp2165
g1
(g15
g3
NtRp2166
(dp2167
g18
F0.5
sg19
I62
sg20
g21
((dp2168
I01
I1
sNI61
stRp2169
sg24
I2
sg25
F63
sbs(g9
g1710
tp2170
g1
(g15
g3
NtRp2171
(dp2172
g18
F0.5
sg19
I62
sg20
g21
((dp2173
NI62
stRp2174
sg24
I2
sg25
F63
sbs(g10
g2023
tp2175
g1
(g15
g3
NtRp2176
(dp2177
g18
F0.5
sg19
I28
sg20
g21
((dp2178
NI28
stRp2179
sg24
I2
sg25
F29
sbs(g9
g373
tp2180
g1
(g15
g3
NtRp2181
(dp2182
g18
F0.5
sg19
I62
sg20
g21
((dp2183
NI62
stRp2184
sg24
I2
sg25
F63
sbs(g1992
g163
tp2185
g1
(g15
g3
NtRp2186
(dp2187
g18
F0.5
sg19
I62
sg20
g21
((dp2188
I01
I1
sNI61
stRp2189
sg24
I2
sg25
F63
sbs(g9
g385
tp2190
g1
(g15
g3
NtRp2191
(dp2192
g18
F0.5
sg19
I62
sg20
g21
((dp2193
NI62
stRp2194
sg24
I2
sg25
F63
sbs(g10
g1091
tp2195
g1
(g15
g3
NtRp2196
(dp2197
g18
F0.5
sg19
I28
sg20
g21
((dp2198
NI28
stRp2199
sg24
I2
sg25
F29
sbs(g10
g1364
tp2200
g1
(g15
g3
NtRp2201
(dp2202
g18
F0.5
sg19
I28
sg20
g21
((dp2203
NI28
stRp2204
sg24
I2
sg25
F29
sbs(g8
g145
tp2205
g1
(g15
g3
NtRp2206
(dp2207
g18
F0.5
sg19
I18
sg20
g21
((dp2208
NI18
stRp2209
sg24
I2
sg25
F19
sbs(g10
g2064
tp2210
g1
(g15
g3
NtRp2211
(dp2212
g18
F0.5
sg19
I28
sg20
g21
((dp2213
I01
I10
sNI18
stRp2214
sg24
I2
sg25
F29
sbs(g544
g201
tp2215
g1
(g15
g3
NtRp2216
(dp2217
g18
F0.5
sg19
I62
sg20
g21
((dp2218
I01
I15
sNI47
stRp2219
sg24
I2
sg25
F63
sbs(g9
g62
tp2220
g1
(g15
g3
NtRp2221
(dp2222
g18
F0.5
sg19
I62
sg20
g21
((dp2223
NI62
stRp2224
sg24
I2
sg25
F63
sbs(g8
g201
tp2225
g1
(g15
g3
NtRp2226
(dp2227
g18
F0.5
sg19
I18
sg20
g21
((dp2228
NI18
stRp2229
sg24
I2
sg25
F19
sbs(g8
g920
tp2230
g1
(g15
g3
NtRp2231
(dp2232
g18
F0.5
sg19
I18
sg20
g21
((dp2233
NI18
stRp2234
sg24
I2
sg25
F19
sbs(g10
g111
tp2235
g1
(g15
g3
NtRp2236
(dp2237
g18
F0.5
sg19
I28
sg20
g21
((dp2238
NI28
stRp2239
sg24
I2
sg25
F29
sbs(g9
g706
tp2240
g1
(g15
g3
NtRp2241
(dp2242
g18
F0.5
sg19
I62
sg20
g21
((dp2243
NI62
stRp2244
sg24
I2
sg25
F63
sbs(S'Meaning'
g1637
tp2245
g1
(g15
g3
NtRp2246
(dp2247
g18
F0.5
sg19
I62
sg20
g21
((dp2248
I01
I1
sNI61
stRp2249
sg24
I2
sg25
F63
sbs(g10
g99
tp2250
g1
(g15
g3
NtRp2251
(dp2252
g18
F0.5
sg19
I28
sg20
g21
((dp2253
NI28
stRp2254
sg24
I2
sg25
F29
sbs(g10
g1381
tp2255
g1
(g15
g3
NtRp2256
(dp2257
g18
F0.5
sg19
I28
sg20
g21
((dp2258
NI28
stRp2259
sg24
I2
sg25
F29
sbs(S'Meaning'
g1788
tp2260
g1
(g15
g3
NtRp2261
(dp2262
g18
F0.5
sg19
I62
sg20
g21
((dp2263
I01
I1
sNI61
stRp2264
sg24
I2
sg25
F63
sbs(g74
g1305
tp2265
g1
(g15
g3
NtRp2266
(dp2267
g18
F0.5
sg19
I18
sg20
g21
((dp2268
I01
I1
sNI17
stRp2269
sg24
I2
sg25
F19
sbs(S'Meaning'
g632
tp2270
g1
(g15
g3
NtRp2271
(dp2272
g18
F0.5
sg19
I62
sg20
g21
((dp2273
I01
I1
sNI61
stRp2274
sg24
I2
sg25
F63
sbs(g544
S'contains(is)'
tp2275
g1
(g15
g3
NtRp2276
(dp2277
g18
F0.5
sg19
I62
sg20
g21
((dp2278
I01
I29
sNI33
stRp2279
sg24
I2
sg25
F63
sbs(g267
g1037
tp2280
g1
(g15
g3
NtRp2281
(dp2282
g18
F0.5
sg19
I18
sg20
g21
((dp2283
I01
I1
sNI17
stRp2284
sg24
I2
sg25
F19
sbs(g9
g105
tp2285
g1
(g15
g3
NtRp2286
(dp2287
g18
F0.5
sg19
I62
sg20
g21
((dp2288
I01
I1
sNI61
stRp2289
sg24
I2
sg25
F63
sbs(g851
g32
tp2290
g1
(g15
g3
NtRp2291
(dp2292
g18
F0.5
sg19
I18
sg20
g21
((dp2293
I01
I1
sNI17
stRp2294
sg24
I2
sg25
F19
sbs(g8
g105
tp2295
g1
(g15
g3
NtRp2296
(dp2297
g18
F0.5
sg19
I18
sg20
g21
((dp2298
NI18
stRp2299
sg24
I2
sg25
F19
sbs(g9
g1381
tp2300
g1
(g15
g3
NtRp2301
(dp2302
g18
F0.5
sg19
I62
sg20
g21
((dp2303
NI62
stRp2304
sg24
I2
sg25
F63
sbs(g10
g1316
tp2305
g1
(g15
g3
NtRp2306
(dp2307
g18
F0.5
sg19
I28
sg20
g21
((dp2308
NI28
stRp2309
sg24
I2
sg25
F29
sbs(S'Meaning'
g812
tp2310
g1
(g15
g3
NtRp2311
(dp2312
g18
F0.5
sg19
I62
sg20
g21
((dp2313
I01
I1
sNI61
stRp2314
sg24
I2
sg25
F63
sbs(g8
g1721
tp2315
g1
(g15
g3
NtRp2316
(dp2317
g18
F0.5
sg19
I18
sg20
g21
((dp2318
NI18
stRp2319
sg24
I2
sg25
F19
sbs(S'Meaning'
g566
tp2320
g1
(g15
g3
NtRp2321
(dp2322
g18
F0.5
sg19
I62
sg20
g21
((dp2323
I01
I1
sNI61
stRp2324
sg24
I2
sg25
F63
sbs(g10
g667
tp2325
g1
(g15
g3
NtRp2326
(dp2327
g18
F0.5
sg19
I28
sg20
g21
((dp2328
NI28
stRp2329
sg24
I2
sg25
F29
sbs(g8
g442
tp2330
g1
(g15
g3
NtRp2331
(dp2332
g18
F0.5
sg19
I18
sg20
g21
((dp2333
NI18
stRp2334
sg24
I2
sg25
F19
sbs(g8
g1268
tp2335
g1
(g15
g3
NtRp2336
(dp2337
g18
F0.5
sg19
I18
sg20
g21
((dp2338
NI18
stRp2339
sg24
I2
sg25
F19
sbs(g10
g225
tp2340
g1
(g15
g3
NtRp2341
(dp2342
g18
F0.5
sg19
I28
sg20
g21
((dp2343
NI28
stRp2344
sg24
I2
sg25
F29
sbs(g10
g1402
tp2345
g1
(g15
g3
NtRp2346
(dp2347
g18
F0.5
sg19
I28
sg20
g21
((dp2348
NI28
stRp2349
sg24
I2
sg25
F29
sbs(g8
g572
tp2350
g1
(g15
g3
NtRp2351
(dp2352
g18
F0.5
sg19
I18
sg20
g21
((dp2353
NI18
stRp2354
sg24
I2
sg25
F19
sbs(g9
g746
tp2355
g1
(g15
g3
NtRp2356
(dp2357
g18
F0.5
sg19
I62
sg20
g21
((dp2358
NI62
stRp2359
sg24
I2
sg25
F63
sbs(g8
S'contains(of)'
tp2360
g1
(g15
g3
NtRp2361
(dp2362
g18
F0.5
sg19
I18
sg20
g21
((dp2363
I01
I4
sNI14
stRp2364
sg24
I2
sg25
F19
sbs(g1511
g1299
tp2365
g1
(g15
g3
NtRp2366
(dp2367
g18
F0.5
sg19
I62
sg20
g21
((dp2368
I01
I1
sNI61
stRp2369
sg24
I2
sg25
F63
sbs(g8
g1460
tp2370
g1
(g15
g3
NtRp2371
(dp2372
g18
F0.5
sg19
I18
sg20
g21
((dp2373
I01
I1
sNI17
stRp2374
sg24
I2
sg25
F19
sbs(g1694
g1830
tp2375
g1
(g15
g3
NtRp2376
(dp2377
g18
F0.5
sg19
I28
sg20
g21
((dp2378
I01
I5
sNI23
stRp2379
sg24
I2
sg25
F29
sbs(S'Composition'
g1197
tp2380
g1
(g15
g3
NtRp2381
(dp2382
g18
F0.5
sg19
I28
sg20
g21
((dp2383
I01
I1
sNI27
stRp2384
sg24
I2
sg25
F29
sbs(S'Meaning'
p2385
g111
tp2386
g1
(g15
g3
NtRp2387
(dp2388
g18
F0.5
sg19
I62
sg20
g21
((dp2389
I01
I1
sNI61
stRp2390
sg24
I2
sg25
F63
sbs(g10
g649
tp2391
g1
(g15
g3
NtRp2392
(dp2393
g18
F0.5
sg19
I28
sg20
g21
((dp2394
NI28
stRp2395
sg24
I2
sg25
F29
sbs(S'Composition'
g1191
tp2396
g1
(g15
g3
NtRp2397
(dp2398
g18
F0.5
sg19
I28
sg20
g21
((dp2399
I01
I1
sNI27
stRp2400
sg24
I2
sg25
F29
sbs(S'Meaning'
g280
tp2401
g1
(g15
g3
NtRp2402
(dp2403
g18
F0.5
sg19
I62
sg20
g21
((dp2404
I01
I1
sNI61
stRp2405
sg24
I2
sg25
F63
sbs(g2385
g93
tp2406
g1
(g15
g3
NtRp2407
(dp2408
g18
F0.5
sg19
I62
sg20
g21
((dp2409
I01
I1
sNI61
stRp2410
sg24
I2
sg25
F63
sbs(g267
g909
tp2411
g1
(g15
g3
NtRp2412
(dp2413
g18
F0.5
sg19
I18
sg20
g21
((dp2414
I01
I1
sNI17
stRp2415
sg24
I2
sg25
F19
sbs(g1961
g1799
tp2416
g1
(g15
g3
NtRp2417
(dp2418
g18
F0.5
sg19
I62
sg20
g21
((dp2419
I01
I1
sNI61
stRp2420
sg24
I2
sg25
F63
sbs(g10
g1788
tp2421
g1
(g15
g3
NtRp2422
(dp2423
g18
F0.5
sg19
I28
sg20
g21
((dp2424
NI28
stRp2425
sg24
I2
sg25
F29
sbs(g10
g1460
tp2426
g1
(g15
g3
NtRp2427
(dp2428
g18
F0.5
sg19
I28
sg20
g21
((dp2429
NI28
stRp2430
sg24
I2
sg25
F29
sbs(g1565
g133
tp2431
g1
(g15
g3
NtRp2432
(dp2433
g18
F0.5
sg19
I62
sg20
g21
((dp2434
I01
I6
sNI56
stRp2435
sg24
I2
sg25
F63
sbs(g8
g769
tp2436
g1
(g15
g3
NtRp2437
(dp2438
g18
F0.5
sg19
I18
sg20
g21
((dp2439
NI18
stRp2440
sg24
I2
sg25
F19
sbs(g10
g1643
tp2441
g1
(g15
g3
NtRp2442
(dp2443
g18
F0.5
sg19
I28
sg20
g21
((dp2444
I01
I28
stRp2445
sg24
I2
sg25
F29
sbs(g10
g931
tp2446
g1
(g15
g3
NtRp2447
(dp2448
g18
F0.5
sg19
I28
sg20
g21
((dp2449
NI28
stRp2450
sg24
I2
sg25
F29
sbs(g9
g1830
tp2451
g1
(g15
g3
NtRp2452
(dp2453
g18
F0.5
sg19
I62
sg20
g21
((dp2454
NI62
stRp2455
sg24
I2
sg25
F63
sbs(g8
g734
tp2456
g1
(g15
g3
NtRp2457
(dp2458
g18
F0.5
sg19
I18
sg20
g21
((dp2459
NI18
stRp2460
sg24
I2
sg25
F19
sbs(g10
g621
tp2461
g1
(g15
g3
NtRp2462
(dp2463
g18
F0.5
sg19
I28
sg20
g21
((dp2464
NI28
stRp2465
sg24
I2
sg25
F29
sbs(g10
g909
tp2466
g1
(g15
g3
NtRp2467
(dp2468
g18
F0.5
sg19
I28
sg20
g21
((dp2469
NI28
stRp2470
sg24
I2
sg25
F29
sbs(g8
g649
tp2471
g1
(g15
g3
NtRp2472
(dp2473
g18
F0.5
sg19
I18
sg20
g21
((dp2474
NI18
stRp2475
sg24
I2
sg25
F19
sbs(g10
g597
tp2476
g1
(g15
g3
NtRp2477
(dp2478
g18
F0.5
sg19
I28
sg20
g21
((dp2479
NI28
stRp2480
sg24
I2
sg25
F29
sbs(S'Composition'
g1732
tp2481
g1
(g15
g3
NtRp2482
(dp2483
g18
F0.5
sg19
I28
sg20
g21
((dp2484
I01
I1
sNI27
stRp2485
sg24
I2
sg25
F29
sbs(g8
g566
tp2486
g1
(g15
g3
NtRp2487
(dp2488
g18
F0.5
sg19
I18
sg20
g21
((dp2489
NI18
stRp2490
sg24
I2
sg25
F19
sbs(g10
g506
tp2491
g1
(g15
g3
NtRp2492
(dp2493
g18
F0.5
sg19
I28
sg20
g21
((dp2494
NI28
stRp2495
sg24
I2
sg25
F29
sbs(g10
g1710
tp2496
g1
(g15
g3
NtRp2497
(dp2498
g18
F0.5
sg19
I28
sg20
g21
((dp2499
NI28
stRp2500
sg24
I2
sg25
F29
sbs(g9
g1153
tp2501
g1
(g15
g3
NtRp2502
(dp2503
g18
F0.5
sg19
I62
sg20
g21
((dp2504
NI62
stRp2505
sg24
I2
sg25
F63
sbs(S'Abbreviation'
g1075
tp2506
g1
(g15
g3
NtRp2507
(dp2508
g18
F0.5
sg19
I18
sg20
g21
((dp2509
I01
I1
sNI17
stRp2510
sg24
I2
sg25
F19
sbs(g10
g752
tp2511
g1
(g15
g3
NtRp2512
(dp2513
g18
F0.5
sg19
I28
sg20
g21
((dp2514
NI28
stRp2515
sg24
I2
sg25
F29
sbssS'_label_probdist'
p2516
g1
(g15
g3
NtRp2517
(dp2518
g18
F0.5
sg19
I108
sg20
g21
((dp2519
g8
I18
sg9
I62
sg10
I28
stRp2520
sg24
I3
sg25
F109.5
sbsb.