ccopy_reg
_reconstructor
p0
(cnltk.classify.naivebayes
NaiveBayesClassifier
p1
c__builtin__
object
p2
Ntp3
Rp4
(dp5
S'_labels'
p6
(lp7
S'Dimension'
p8
aS'LookAndShape'
p9
asS'_feature_probdist'
p10
(dp11
(g9
S'contains(size)'
p12
tp13
g0
(cnltk.probability
ELEProbDist
p14
g2
Ntp15
Rp16
(dp17
S'_gamma'
p18
F0.5
sS'_N'
p19
I43
sS'_freqdist'
p20
g0
(cnltk.probability
FreqDist
p21
c__builtin__
dict
p22
(dp23
NI43
stp24
Rp25
(dp26
g19
I43
sS'_max_cache'
p27
NsS'_item_cache'
p28
NsS'_Nr_cache'
p29
NsbsS'_bins'
p30
I2
sS'_divisor'
p31
F44.0
sbs(g9
S'contains(distance)'
p32
tp33
g0
(g14
g2
Ntp34
Rp35
(dp36
g18
F0.5
sg19
I43
sg20
g0
(g21
g22
(dp37
NI43
stp38
Rp39
(dp40
g19
I43
sg27
Nsg28
Nsg29
Nsbsg30
I2
sg31
F44.0
sbs(S'Dimension'
p41
S'contains(was)'
p42
tp43
g0
(g14
g2
Ntp44
Rp45
(dp46
g18
F0.5
sg19
I47
sg20
g0
(g21
g22
(dp47
I01
I1
sNI46
stp48
Rp49
(dp50
g19
I47
sg27
Nsg28
Nsg29
Nsbsg30
I2
sg31
F48.0
sbs(S'LookAndShape'
p51
S'contains(silhouette)'
p52
tp53
g0
(g14
g2
Ntp54
Rp55
(dp56
g18
F0.5
sg19
I43
sg20
g0
(g21
g22
(dp57
I01
I1
sNI42
stp58
Rp59
(dp60
g19
I43
sg27
Nsg28
Nsg29
Nsbsg30
I2
sg31
F44.0
sbs(S'Dimension'
p61
S'contains(stomach)'
p62
tp63
g0
(g14
g2
Ntp64
Rp65
(dp66
g18
F0.5
sg19
I47
sg20
g0
(g21
g22
(dp67
I01
I1
sNI46
stp68
Rp69
(dp70
g19
I47
sg27
Nsg28
Nsg29
Nsbsg30
I2
sg31
F48.0
sbs(S'LookAndShape'
p71
S'contains(defines)'
p72
tp73
g0
(g14
g2
Ntp74
Rp75
(dp76
g18
F0.5
sg19
I43
sg20
g0
(g21
g22
(dp77
I01
I1
sNI42
stp78
Rp79
(dp80
g19
I43
sg27
Nsg28
Nsg29
Nsbsg30
I2
sg31
F44.0
sbs(S'Dimension'
p81
S'contains(magnets)'
p82
tp83
g0
(g14
g2
Ntp84
Rp85
(dp86
g18
F0.5
sg19
I47
sg20
g0
(g21
g22
(dp87
I01
I1
sNI46
stp88
Rp89
(dp90
g19
I47
sg27
Nsg28
Nsg29
Nsbsg30
I2
sg31
F48.0
sbs(g9
S'contains(soccer)'
p91
tp92
g0
(g14
g2
Ntp93
Rp94
(dp95
g18
F0.5
sg19
I43
sg20
g0
(g21
g22
(dp96
NI43
stp97
Rp98
(dp99
g19
I43
sg27
Nsg28
Nsg29
Nsbsg30
I2
sg31
F44.0
sbs(S'Dimension'
p100
S'contains(bottle)'
p101
tp102
g0
(g14
g2
Ntp103
Rp104
(dp105
g18
F0.5
sg19
I47
sg20
g0
(g21
g22
(dp106
I01
I1
sNI46
stp107
Rp108
(dp109
g19
I47
sg27
Nsg28
Nsg29
Nsbsg30
I2
sg31
F48.0
sbs(S'Dimension'
p110
S'contains(what)'
p111
tp112
g0
(g14
g2
Ntp113
Rp114
(dp115
g18
F0.5
sg19
I47
sg20
g0
(g21
g22
(dp116
I01
I18
sNI29
stp117
Rp118
(dp119
g19
I47
sg27
Nsg28
Nsg29
Nsbsg30
I2
sg31
F48.0
sbs(g9
S'contains(shoe)'
p120
tp121
g0
(g14
g2
Ntp122
Rp123
(dp124
g18
F0.5
sg19
I43
sg20
g0
(g21
g22
(dp125
NI43
stp126
Rp127
(dp128
g19
I43
sg27
Nsg28
Nsg29
Nsbsg30
I2
sg31
F44.0
sbs(g9
S'contains(ants)'
p129
tp130
g0
(g14
g2
Ntp131
Rp132
(dp133
g18
F0.5
sg19
I43
sg20
g0
(g21
g22
(dp134
NI43
stp135
Rp136
(dp137
g19
I43
sg27
Nsg28
Nsg29
Nsbsg30
I2
sg31
F44.0
sbs(S'Dimension'
p138
S'contains(can)'
p139
tp140
g0
(g14
g2
Ntp141
Rp142
(dp143
g18
F0.5
sg19
I47
sg20
g0
(g21
g22
(dp144
I01
I10
sNI37
stp145
Rp146
(dp147
g19
I47
sg27
Nsg28
Nsg29
Nsbsg30
I2
sg31
F48.0
sbs(S'Dimension'
p148
S'contains(highway)'
p149
tp150
g0
(g14
g2
Ntp151
Rp152
(dp153
g18
F0.5
sg19
I47
sg20
g0
(g21
g22
(dp154
I01
I1
sNI46
stp155
Rp156
(dp157
g19
I47
sg27
Nsg28
Nsg29
Nsbsg30
I2
sg31
F48.0
sbs(g9
S'contains(madrid)'
p158
tp159
g0
(g14
g2
Ntp160
Rp161
(dp162
g18
F0.5
sg19
I43
sg20
g0
(g21
g22
(dp163
NI43
stp164
Rp165
(dp166
g19
I43
sg27
Nsg28
Nsg29
Nsbsg30
I2
sg31
F44.0
sbs(g138
S'contains(a)'
p167
tp168
g0
(g14
g2
Ntp169
Rp170
(dp171
g18
F0.5
sg19
I47
sg20
g0
(g21
g22
(dp172
I01
I16
sNI31
stp173
Rp174
(dp175
g19
I47
sg27
Nsg28
Nsg29
Nsbsg30
I2
sg31
F48.0
sbs(S'LookAndShape'
p176
S'contains(ball)'
p177
tp178
g0
(g14
g2
Ntp179
Rp180
(dp181
g18
F0.5
sg19
I43
sg20
g0
(g21
g22
(dp182
I01
I1
sNI42
stp183
Rp184
(dp185
g19
I43
sg27
Nsg28
Nsg29
Nsbsg30
I2
sg31
F44.0
sbs(S'Dimension'
p186
S'contains(short)'
p187
tp188
g0
(g14
g2
Ntp189
Rp190
(dp191
g18
F0.5
sg19
I47
sg20
g0
(g21
g22
(dp192
I01
I1
sNI46
stp193
Rp194
(dp195
g19
I47
sg27
Nsg28
Nsg29
Nsbsg30
I2
sg31
F48.0
sbs(S'Dimension'
p196
S'contains(nm)'
p197
tp198
g0
(g14
g2
Ntp199
Rp200
(dp201
g18
F0.5
sg19
I47
sg20
g0
(g21
g22
(dp202
I01
I1
sNI46
stp203
Rp204
(dp205
g19
I47
sg27
Nsg28
Nsg29
Nsbsg30
I2
sg31
F48.0
sbs(g9
S'contains(india)'
p206
tp207
g0
(g14
g2
Ntp208
Rp209
(dp210
g18
F0.5
sg19
I43
sg20
g0
(g21
g22
(dp211
NI43
stp212
Rp213
(dp214
g19
I43
sg27
Nsg28
Nsg29
Nsbsg30
I2
sg31
F44.0
sbs(g9
S'contains(lamp)'
p215
tp216
g0
(g14
g2
Ntp217
Rp218
(dp219
g18
F0.5
sg19
I43
sg20
g0
(g21
g22
(dp220
NI43
stp221
Rp222
(dp223
g19
I43
sg27
Nsg28
Nsg29
Nsbsg30
I2
sg31
F44.0
sbs(S'Dimension'
p224
S'contains(world)'
p225
tp226
g0
(g14
g2
Ntp227
Rp228
(dp229
g18
F0.5
sg19
I47
sg20
g0
(g21
g22
(dp230
I01
I1
sNI46
stp231
Rp232
(dp233
g19
I47
sg27
Nsg28
Nsg29
Nsbsg30
I2
sg31
F48.0
sbs(S'Dimension'
p234
S"contains(what's)"
p235
tp236
g0
(g14
g2
Ntp237
Rp238
(dp239
g18
F0.5
sg19
I47
sg20
g0
(g21
g22
(dp240
I01
I3
sNI44
stp241
Rp242
(dp243
g19
I47
sg27
Nsg28
Nsg29
Nsbsg30
I2
sg31
F48.0
sbs(S'LookAndShape'
p244
S'contains(structure)'
p245
tp246
g0
(g14
g2
Ntp247
Rp248
(dp249
g18
F0.5
sg19
I43
sg20
g0
(g21
g22
(dp250
I01
I2
sNI41
stp251
Rp252
(dp253
g19
I43
sg27
Nsg28
Nsg29
Nsbsg30
I2
sg31
F44.0
sbs(g8
S'contains(sense)'
p254
tp255
g0
(g14
g2
Ntp256
Rp257
(dp258
g18
F0.5
sg19
I47
sg20
g0
(g21
g22
(dp259
NI47
stp260
Rp261
(dp262
g19
I47
sg27
Nsg28
Nsg29
Nsbsg30
I2
sg31
F48.0
sbs(g224
S'contains(tallest)'
p263
tp264
g0
(g14
g2
Ntp265
Rp266
(dp267
g18
F0.5
sg19
I47
sg20
g0
(g21
g22
(dp268
I01
I1
sNI46
stp269
Rp270
(dp271
g19
I47
sg27
Nsg28
Nsg29
Nsbsg30
I2
sg31
F48.0
sbs(S'Dimension'
p272
S'contains(dog)'
p273
tp274
g0
(g14
g2
Ntp275
Rp276
(dp277
g18
F0.5
sg19
I47
sg20
g0
(g21
g22
(dp278
I01
I1
sNI46
stp279
Rp280
(dp281
g19
I47
sg27
Nsg28
Nsg29
Nsbsg30
I2
sg31
F48.0
sbs(S'Dimension'
p282
S'contains(biggest)'
p283
tp284
g0
(g14
g2
Ntp285
Rp286
(dp287
g18
F0.5
sg19
I47
sg20
g0
(g21
g22
(dp288
I01
I1
sNI46
stp289
Rp290
(dp291
g19
I47
sg27
Nsg28
Nsg29
Nsbsg30
I2
sg31
F48.0
sbs(g9
S'contains(here)'
p292
tp293
g0
(g14
g2
Ntp294
Rp295
(dp296
g18
F0.5
sg19
I43
sg20
g0
(g21
g22
(dp297
NI43
stp298
Rp299
(dp300
g19
I43
sg27
Nsg28
Nsg29
Nsbsg30
I2
sg31
F44.0
sbs(g8
S'contains(?)'
p301
tp302
g0
(g14
g2
Ntp303
Rp304
(dp305
g18
F0.5
sg19
I47
sg20
g0
(g21
g22
(dp306
I01
I47
stp307
Rp308
(dp309
g19
I47
sg27
Nsg28
Nsg29
Nsbsg30
I2
sg31
F48.0
sbs(S'Dimension'
p310
g120
tp311
g0
(g14
g2
Ntp312
Rp313
(dp314
g18
F0.5
sg19
I47
sg20
g0
(g21
g22
(dp315
I01
I1
sNI46
stp316
Rp317
(dp318
g19
I47
sg27
Nsg28
Nsg29
Nsbsg30
I2
sg31
F48.0
sbs(g9
g82
tp319
g0
(g14
g2
Ntp320
Rp321
(dp322
g18
F0.5
sg19
I43
sg20
g0
(g21
g22
(dp323
NI43
stp324
Rp325
(dp326
g19
I43
sg27
Nsg28
Nsg29
Nsbsg30
I2
sg31
F44.0
sbs(g138
S'contains(human)'
p327
tp328
g0
(g14
g2
Ntp329
Rp330
(dp331
g18
F0.5
sg19
I47
sg20
g0
(g21
g22
(dp332
I01
I2
sNI45
stp333
Rp334
(dp335
g19
I47
sg27
Nsg28
Nsg29
Nsbsg30
I2
sg31
F48.0
sbs(S'Dimension'
p336
S'contains(package)'
p337
tp338
g0
(g14
g2
Ntp339
Rp340
(dp341
g18
F0.5
sg19
I47
sg20
g0
(g21
g22
(dp342
I01
I1
sNI46
stp343
Rp344
(dp345
g19
I47
sg27
Nsg28
Nsg29
Nsbsg30
I2
sg31
F48.0
sbs(S'Dimension'
p346
S'contains(bug)'
p347
tp348
g0
(g14
g2
Ntp349
Rp350
(dp351
g18
F0.5
sg19
I47
sg20
g0
(g21
g22
(dp352
I01
I1
sNI46
stp353
Rp354
(dp355
g19
I47
sg27
Nsg28
Nsg29
Nsbsg30
I2
sg31
F48.0
sbs(S'Dimension'
p356
S'contains(plane)'
p357
tp358
g0
(g14
g2
Ntp359
Rp360
(dp361
g18
F0.5
sg19
I47
sg20
g0
(g21
g22
(dp362
I01
I1
sNI46
stp363
Rp364
(dp365
g19
I47
sg27
Nsg28
Nsg29
Nsbsg30
I2
sg31
F48.0
sbs(g148
g292
tp366
g0
(g14
g2
Ntp367
Rp368
(dp369
g18
F0.5
sg19
I47
sg20
g0
(g21
g22
(dp370
I01
I1
sNI46
stp371
Rp372
(dp373
g19
I47
sg27
Nsg28
Nsg29
Nsbsg30
I2
sg31
F48.0
sbs(g9
S'contains(go)'
p374
tp375
g0
(g14
g2
Ntp376
Rp377
(dp378
g18
F0.5
sg19
I43
sg20
g0
(g21
g22
(dp379
NI43
stp380
Rp381
(dp382
g19
I43
sg27
Nsg28
Nsg29
Nsbsg30
I2
sg31
F44.0
sbs(S'LookAndShape'
p383
S'contains(clothes)'
p384
tp385
g0
(g14
g2
Ntp386
Rp387
(dp388
g18
F0.5
sg19
I43
sg20
g0
(g21
g22
(dp389
I01
I1
sNI42
stp390
Rp391
(dp392
g19
I43
sg27
Nsg28
Nsg29
Nsbsg30
I2
sg31
F44.0
sbs(g8
S'contains(draw)'
p393
tp394
g0
(g14
g2
Ntp395
Rp396
(dp397
g18
F0.5
sg19
I47
sg20
g0
(g21
g22
(dp398
NI47
stp399
Rp400
(dp401
g19
I47
sg27
Nsg28
Nsg29
Nsbsg30
I2
sg31
F48.0
sbs(S'LookAndShape'
p402
S'contains(a)'
p403
tp404
g0
(g14
g2
Ntp405
Rp406
(dp407
g18
F0.5
sg19
I43
sg20
g0
(g21
g22
(dp408
I01
I17
sNI26
stp409
Rp410
(dp411
g19
I43
sg27
Nsg28
Nsg29
Nsbsg30
I2
sg31
F44.0
sbs(S'Dimension'
p412
g32
tp413
g0
(g14
g2
Ntp414
Rp415
(dp416
g18
F0.5
sg19
I47
sg20
g0
(g21
g22
(dp417
I01
I1
sNI46
stp418
Rp419
(dp420
g19
I47
sg27
Nsg28
Nsg29
Nsbsg30
I2
sg31
F48.0
sbs(S'Dimension'
p421
S'contains(from)'
p422
tp423
g0
(g14
g2
Ntp424
Rp425
(dp426
g18
F0.5
sg19
I47
sg20
g0
(g21
g22
(dp427
I01
I6
sNI41
stp428
Rp429
(dp430
g19
I47
sg27
Nsg28
Nsg29
Nsbsg30
I2
sg31
F48.0
sbs(g8
S'contains(how)'
p431
tp432
g0
(g14
g2
Ntp433
Rp434
(dp435
g18
F0.5
sg19
I47
sg20
g0
(g21
g22
(dp436
I01
I26
sNI21
stp437
Rp438
(dp439
g19
I47
sg27
Nsg28
Nsg29
Nsbsg30
I2
sg31
F48.0
sbs(g8
S'contains(pen)'
p440
tp441
g0
(g14
g2
Ntp442
Rp443
(dp444
g18
F0.5
sg19
I47
sg20
g0
(g21
g22
(dp445
NI47
stp446
Rp447
(dp448
g19
I47
sg27
Nsg28
Nsg29
Nsbsg30
I2
sg31
F48.0
sbs(S'LookAndShape'
p449
S'contains(folder)'
p450
tp451
g0
(g14
g2
Ntp452
Rp453
(dp454
g18
F0.5
sg19
I43
sg20
g0
(g21
g22
(dp455
I01
I1
sNI42
stp456
Rp457
(dp458
g19
I43
sg27
Nsg28
Nsg29
Nsbsg30
I2
sg31
F44.0
sbs(g8
S'contains(scissor)'
p459
tp460
g0
(g14
g2
Ntp461
Rp462
(dp463
g18
F0.5
sg19
I47
sg20
g0
(g21
g22
(dp464
NI47
stp465
Rp466
(dp467
g19
I47
sg27
Nsg28
Nsg29
Nsbsg30
I2
sg31
F48.0
sbs(S'Dimension'
p468
S'contains(lightnings)'
p469
tp470
g0
(g14
g2
Ntp471
Rp472
(dp473
g18
F0.5
sg19
I47
sg20
g0
(g21
g22
(dp474
I01
I1
sNI46
stp475
Rp476
(dp477
g19
I47
sg27
Nsg28
Nsg29
Nsbsg30
I2
sg31
F48.0
sbs(S'Dimension'
p478
g129
tp479
g0
(g14
g2
Ntp480
Rp481
(dp482
g18
F0.5
sg19
I47
sg20
g0
(g21
g22
(dp483
I01
I1
sNI46
stp484
Rp485
(dp486
g19
I47
sg27
Nsg28
Nsg29
Nsbsg30
I2
sg31
F48.0
sbs(g8
S'contains(trousers)'
p487
tp488
g0
(g14
g2
Ntp489
Rp490
(dp491
g18
F0.5
sg19
I47
sg20
g0
(g21
g22
(dp492
NI47
stp493
Rp494
(dp495
g19
I47
sg27
Nsg28
Nsg29
Nsbsg30
I2
sg31
F48.0
sbs(g9
S"contains(hitler's)"
p496
tp497
g0
(g14
g2
Ntp498
Rp499
(dp500
g18
F0.5
sg19
I43
sg20
g0
(g21
g22
(dp501
NI43
stp502
Rp503
(dp504
g19
I43
sg27
Nsg28
Nsg29
Nsbsg30
I2
sg31
F44.0
sbs(S'Dimension'
p505
S'contains(earthquake)'
p506
tp507
g0
(g14
g2
Ntp508
Rp509
(dp510
g18
F0.5
sg19
I47
sg20
g0
(g21
g22
(dp511
I01
I1
sNI46
stp512
Rp513
(dp514
g19
I47
sg27
Nsg28
Nsg29
Nsbsg30
I2
sg31
F48.0
sbs(g8
S'contains(dresses)'
p515
tp516
g0
(g14
g2
Ntp517
Rp518
(dp519
g18
F0.5
sg19
I47
sg20
g0
(g21
g22
(dp520
NI47
stp521
Rp522
(dp523
g19
I47
sg27
Nsg28
Nsg29
Nsbsg30
I2
sg31
F48.0
sbs(g8
g245
tp524
g0
(g14
g2
Ntp525
Rp526
(dp527
g18
F0.5
sg19
I47
sg20
g0
(g21
g22
(dp528
NI47
stp529
Rp530
(dp531
g19
I47
sg27
Nsg28
Nsg29
Nsbsg30
I2
sg31
F48.0
sbs(g9
S'contains(her)'
p532
tp533
g0
(g14
g2
Ntp534
Rp535
(dp536
g18
F0.5
sg19
I43
sg20
g0
(g21
g22
(dp537
NI43
stp538
Rp539
(dp540
g19
I43
sg27
Nsg28
Nsg29
Nsbsg30
I2
sg31
F44.0
sbs(g9
S'contains(normal)'
p541
tp542
g0
(g14
g2
Ntp543
Rp544
(dp545
g18
F0.5
sg19
I43
sg20
g0
(g21
g22
(dp546
NI43
stp547
Rp548
(dp549
g19
I43
sg27
Nsg28
Nsg29
Nsbsg30
I2
sg31
F44.0
sbs(g421
S'contains(fiji)'
p550
tp551
g0
(g14
g2
Ntp552
Rp553
(dp554
g18
F0.5
sg19
I47
sg20
g0
(g21
g22
(dp555
I01
I1
sNI46
stp556
Rp557
(dp558
g19
I47
sg27
Nsg28
Nsg29
Nsbsg30
I2
sg31
F48.0
sbs(S'LookAndShape'
p559
g440
tp560
g0
(g14
g2
Ntp561
Rp562
(dp563
g18
F0.5
sg19
I43
sg20
g0
(g21
g22
(dp564
I01
I1
sNI42
stp565
Rp566
(dp567
g19
I43
sg27
Nsg28
Nsg29
Nsbsg30
I2
sg31
F44.0
sbs(S'Dimension'
p568
S'contains(scale)'
p569
tp570
g0
(g14
g2
Ntp571
Rp572
(dp573
g18
F0.5
sg19
I47
sg20
g0
(g21
g22
(dp574
I01
I1
sNI46
stp575
Rp576
(dp577
g19
I47
sg27
Nsg28
Nsg29
Nsbsg30
I2
sg31
F48.0
sbs(g8
S'contains(clocks)'
p578
tp579
g0
(g14
g2
Ntp580
Rp581
(dp582
g18
F0.5
sg19
I47
sg20
g0
(g21
g22
(dp583
NI47
stp584
Rp585
(dp586
g19
I47
sg27
Nsg28
Nsg29
Nsbsg30
I2
sg31
F48.0
sbs(S'LookAndShape'
p587
S'contains(bottles)'
p588
tp589
g0
(g14
g2
Ntp590
Rp591
(dp592
g18
F0.5
sg19
I43
sg20
g0
(g21
g22
(dp593
I01
I1
sNI42
stp594
Rp595
(dp596
g19
I43
sg27
Nsg28
Nsg29
Nsbsg30
I2
sg31
F44.0
sbs(S'LookAndShape'
p597
S'contains(scissors)'
p598
tp599
g0
(g14
g2
Ntp600
Rp601
(dp602
g18
F0.5
sg19
I43
sg20
g0
(g21
g22
(dp603
I01
I2
sNI41
stp604
Rp605
(dp606
g19
I43
sg27
Nsg28
Nsg29
Nsbsg30
I2
sg31
F44.0
sbs(g478
S'contains(are)'
p607
tp608
g0
(g14
g2
Ntp609
Rp610
(dp611
g18
F0.5
sg19
I47
sg20
g0
(g21
g22
(dp612
I01
I2
sNI45
stp613
Rp614
(dp615
g19
I47
sg27
Nsg28
Nsg29
Nsbsg30
I2
sg31
F48.0
sbs(g9
g42
tp616
g0
(g14
g2
Ntp617
Rp618
(dp619
g18
F0.5
sg19
I43
sg20
g0
(g21
g22
(dp620
NI43
stp621
Rp622
(dp623
g19
I43
sg27
Nsg28
Nsg29
Nsbsg30
I2
sg31
F44.0
sbs(S'LookAndShape'
p624
S'contains(people)'
p625
tp626
g0
(g14
g2
Ntp627
Rp628
(dp629
g18
F0.5
sg19
I43
sg20
g0
(g21
g22
(dp630
I01
I1
sNI42
stp631
Rp632
(dp633
g19
I43
sg27
Nsg28
Nsg29
Nsbsg30
I2
sg31
F44.0
sbs(g9
S'contains(extension)'
p634
tp635
g0
(g14
g2
Ntp636
Rp637
(dp638
g18
F0.5
sg19
I43
sg20
g0
(g21
g22
(dp639
NI43
stp640
Rp641
(dp642
g19
I43
sg27
Nsg28
Nsg29
Nsbsg30
I2
sg31
F44.0
sbs(g9
g337
tp643
g0
(g14
g2
Ntp644
Rp645
(dp646
g18
F0.5
sg19
I43
sg20
g0
(g21
g22
(dp647
NI43
stp648
Rp649
(dp650
g19
I43
sg27
Nsg28
Nsg29
Nsbsg30
I2
sg31
F44.0
sbs(g9
S'contains(mount)'
p651
tp652
g0
(g14
g2
Ntp653
Rp654
(dp655
g18
F0.5
sg19
I43
sg20
g0
(g21
g22
(dp656
NI43
stp657
Rp658
(dp659
g19
I43
sg27
Nsg28
Nsg29
Nsbsg30
I2
sg31
F44.0
sbs(S'LookAndShape'
p660
S'contains(to)'
p661
tp662
g0
(g14
g2
Ntp663
Rp664
(dp665
g18
F0.5
sg19
I43
sg20
g0
(g21
g22
(dp666
I01
I1
sNI42
stp667
Rp668
(dp669
g19
I43
sg27
Nsg28
Nsg29
Nsbsg30
I2
sg31
F44.0
sbs(S'LookAndShape'
p670
S'contains(ovnis)'
p671
tp672
g0
(g14
g2
Ntp673
Rp674
(dp675
g18
F0.5
sg19
I43
sg20
g0
(g21
g22
(dp676
I01
I2
sNI41
stp677
Rp678
(dp679
g19
I43
sg27
Nsg28
Nsg29
Nsbsg30
I2
sg31
F44.0
sbs(g8
S'contains(car)'
p680
tp681
g0
(g14
g2
Ntp682
Rp683
(dp684
g18
F0.5
sg19
I47
sg20
g0
(g21
g22
(dp685
I01
I1
sNI46
stp686
Rp687
(dp688
g19
I47
sg27
Nsg28
Nsg29
Nsbsg30
I2
sg31
F48.0
sbs(g9
S'contains(your)'
p689
tp690
g0
(g14
g2
Ntp691
Rp692
(dp693
g18
F0.5
sg19
I43
sg20
g0
(g21
g22
(dp694
NI43
stp695
Rp696
(dp697
g19
I43
sg27
Nsg28
Nsg29
Nsbsg30
I2
sg31
F44.0
sbs(g9
S'contains(arc)'
p698
tp699
g0
(g14
g2
Ntp700
Rp701
(dp702
g18
F0.5
sg19
I43
sg20
g0
(g21
g22
(dp703
NI43
stp704
Rp705
(dp706
g19
I43
sg27
Nsg28
Nsg29
Nsbsg30
I2
sg31
F44.0
sbs(S'LookAndShape'
p707
S'contains(beautiful)'
p708
tp709
g0
(g14
g2
Ntp710
Rp711
(dp712
g18
F0.5
sg19
I43
sg20
g0
(g21
g22
(dp713
I01
I1
sNI42
stp714
Rp715
(dp716
g19
I43
sg27
Nsg28
Nsg29
Nsbsg30
I2
sg31
F44.0
sbs(S'Dimension'
p717
S'contains(air)'
p718
tp719
g0
(g14
g2
Ntp720
Rp721
(dp722
g18
F0.5
sg19
I47
sg20
g0
(g21
g22
(dp723
I01
I1
sNI46
stp724
Rp725
(dp726
g19
I47
sg27
Nsg28
Nsg29
Nsbsg30
I2
sg31
F48.0
sbs(S'LookAndShape'
p727
S'contains(sweatshirt)'
p728
tp729
g0
(g14
g2
Ntp730
Rp731
(dp732
g18
F0.5
sg19
I43
sg20
g0
(g21
g22
(dp733
I01
I1
sNI42
stp734
Rp735
(dp736
g19
I43
sg27
Nsg28
Nsg29
Nsbsg30
I2
sg31
F44.0
sbs(g272
S'contains(grow)'
p737
tp738
g0
(g14
g2
Ntp739
Rp740
(dp741
g18
F0.5
sg19
I47
sg20
g0
(g21
g22
(dp742
I01
I1
sNI46
stp743
Rp744
(dp745
g19
I47
sg27
Nsg28
Nsg29
Nsbsg30
I2
sg31
F48.0
sbs(g8
S'contains(form)'
p746
tp747
g0
(g14
g2
Ntp748
Rp749
(dp750
g18
F0.5
sg19
I47
sg20
g0
(g21
g22
(dp751
NI47
stp752
Rp753
(dp754
g19
I47
sg27
Nsg28
Nsg29
Nsbsg30
I2
sg31
F48.0
sbs(S'Dimension'
p755
S'contains(his)'
p756
tp757
g0
(g14
g2
Ntp758
Rp759
(dp760
g18
F0.5
sg19
I47
sg20
g0
(g21
g22
(dp761
I01
I1
sNI46
stp762
Rp763
(dp764
g19
I47
sg27
Nsg28
Nsg29
Nsbsg30
I2
sg31
F48.0
sbs(g660
g393
tp765
g0
(g14
g2
Ntp766
Rp767
(dp768
g18
F0.5
sg19
I43
sg20
g0
(g21
g22
(dp769
I01
I1
sNI42
stp770
Rp771
(dp772
g19
I43
sg27
Nsg28
Nsg29
Nsbsg30
I2
sg31
F44.0
sbs(S'LookAndShape'
p773
S'contains(shirts)'
p774
tp775
g0
(g14
g2
Ntp776
Rp777
(dp778
g18
F0.5
sg19
I43
sg20
g0
(g21
g22
(dp779
I01
I1
sNI42
stp780
Rp781
(dp782
g19
I43
sg27
Nsg28
Nsg29
Nsbsg30
I2
sg31
F44.0
sbs(S'LookAndShape'
p783
S'contains(buildings)'
p784
tp785
g0
(g14
g2
Ntp786
Rp787
(dp788
g18
F0.5
sg19
I43
sg20
g0
(g21
g22
(dp789
I01
I1
sNI42
stp790
Rp791
(dp792
g19
I43
sg27
Nsg28
Nsg29
Nsbsg30
I2
sg31
F44.0
sbs(g717
S'contains(bird)'
p793
tp794
g0
(g14
g2
Ntp795
Rp796
(dp797
g18
F0.5
sg19
I47
sg20
g0
(g21
g22
(dp798
I01
I1
sNI46
stp799
Rp800
(dp801
g19
I47
sg27
Nsg28
Nsg29
Nsbsg30
I2
sg31
F48.0
sbs(g110
S'contains(an)'
p802
tp803
g0
(g14
g2
Ntp804
Rp805
(dp806
g18
F0.5
sg19
I47
sg20
g0
(g21
g22
(dp807
I01
I3
sNI44
stp808
Rp809
(dp810
g19
I47
sg27
Nsg28
Nsg29
Nsbsg30
I2
sg31
F48.0
sbs(S'LookAndShape'
p811
S'contains(man)'
p812
tp813
g0
(g14
g2
Ntp814
Rp815
(dp816
g18
F0.5
sg19
I43
sg20
g0
(g21
g22
(dp817
I01
I1
sNI42
stp818
Rp819
(dp820
g19
I43
sg27
Nsg28
Nsg29
Nsbsg30
I2
sg31
F44.0
sbs(g9
S'contains(become)'
p821
tp822
g0
(g14
g2
Ntp823
Rp824
(dp825
g18
F0.5
sg19
I43
sg20
g0
(g21
g22
(dp826
NI43
stp827
Rp828
(dp829
g19
I43
sg27
Nsg28
Nsg29
Nsbsg30
I2
sg31
F44.0
sbs(g100
S'contains(volume)'
p830
tp831
g0
(g14
g2
Ntp832
Rp833
(dp834
g18
F0.5
sg19
I47
sg20
g0
(g21
g22
(dp835
I01
I4
sNI43
stp836
Rp837
(dp838
g19
I47
sg27
Nsg28
Nsg29
Nsbsg30
I2
sg31
F48.0
sbs(S'Dimension'
p839
g158
tp840
g0
(g14
g2
Ntp841
Rp842
(dp843
g18
F0.5
sg19
I47
sg20
g0
(g21
g22
(dp844
I01
I1
sNI46
stp845
Rp846
(dp847
g19
I47
sg27
Nsg28
Nsg29
Nsbsg30
I2
sg31
F48.0
sbs(g138
S'contains(be)'
p848
tp849
g0
(g14
g2
Ntp850
Rp851
(dp852
g18
F0.5
sg19
I47
sg20
g0
(g21
g22
(dp853
I01
I5
sNI42
stp854
Rp855
(dp856
g19
I47
sg27
Nsg28
Nsg29
Nsbsg30
I2
sg31
F48.0
sbs(g9
S'contains(two)'
p857
tp858
g0
(g14
g2
Ntp859
Rp860
(dp861
g18
F0.5
sg19
I43
sg20
g0
(g21
g22
(dp862
NI43
stp863
Rp864
(dp865
g19
I43
sg27
Nsg28
Nsg29
Nsbsg30
I2
sg31
F44.0
sbs(g8
S'contains(makes)'
p866
tp867
g0
(g14
g2
Ntp868
Rp869
(dp870
g18
F0.5
sg19
I47
sg20
g0
(g21
g22
(dp871
NI47
stp872
Rp873
(dp874
g19
I47
sg27
Nsg28
Nsg29
Nsbsg30
I2
sg31
F48.0
sbs(S'Dimension'
p875
S'contains(everest)'
p876
tp877
g0
(g14
g2
Ntp878
Rp879
(dp880
g18
F0.5
sg19
I47
sg20
g0
(g21
g22
(dp881
I01
I1
sNI46
stp882
Rp883
(dp884
g19
I47
sg27
Nsg28
Nsg29
Nsbsg30
I2
sg31
F48.0
sbs(g9
S'contains(capacity)'
p885
tp886
g0
(g14
g2
Ntp887
Rp888
(dp889
g18
F0.5
sg19
I43
sg20
g0
(g21
g22
(dp890
NI43
stp891
Rp892
(dp893
g19
I43
sg27
Nsg28
Nsg29
Nsbsg30
I2
sg31
F44.0
sbs(g9
g283
tp894
g0
(g14
g2
Ntp895
Rp896
(dp897
g18
F0.5
sg19
I43
sg20
g0
(g21
g22
(dp898
NI43
stp899
Rp900
(dp901
g19
I43
sg27
Nsg28
Nsg29
Nsbsg30
I2
sg31
F44.0
sbs(g717
g374
tp902
g0
(g14
g2
Ntp903
Rp904
(dp905
g18
F0.5
sg19
I47
sg20
g0
(g21
g22
(dp906
I01
I1
sNI46
stp907
Rp908
(dp909
g19
I47
sg27
Nsg28
Nsg29
Nsbsg30
I2
sg31
F48.0
sbs(g9
S'contains(woman)'
p910
tp911
g0
(g14
g2
Ntp912
Rp913
(dp914
g18
F0.5
sg19
I43
sg20
g0
(g21
g22
(dp915
NI43
stp916
Rp917
(dp918
g19
I43
sg27
Nsg28
Nsg29
Nsbsg30
I2
sg31
F44.0
sbs(S'LookAndShape'
p919
S'contains(look)'
p920
tp921
g0
(g14
g2
Ntp922
Rp923
(dp924
g18
F0.5
sg19
I43
sg20
g0
(g21
g22
(dp925
I01
I13
sNI30
stp926
Rp927
(dp928
g19
I43
sg27
Nsg28
Nsg29
Nsbsg30
I2
sg31
F44.0
sbs(S'Dimension'
p929
S'contains(order)'
p930
tp931
g0
(g14
g2
Ntp932
Rp933
(dp934
g18
F0.5
sg19
I47
sg20
g0
(g21
g22
(dp935
I01
I3
sNI44
stp936
Rp937
(dp938
g19
I47
sg27
Nsg28
Nsg29
Nsbsg30
I2
sg31
F48.0
sbs(g9
g62
tp939
g0
(g14
g2
Ntp940
Rp941
(dp942
g18
F0.5
sg19
I43
sg20
g0
(g21
g22
(dp943
NI43
stp944
Rp945
(dp946
g19
I43
sg27
Nsg28
Nsg29
Nsbsg30
I2
sg31
F44.0
sbs(g9
g930
tp947
g0
(g14
g2
Ntp948
Rp949
(dp950
g18
F0.5
sg19
I43
sg20
g0
(g21
g22
(dp951
NI43
stp952
Rp953
(dp954
g19
I43
sg27
Nsg28
Nsg29
Nsbsg30
I2
sg31
F44.0
sbs(g412
S'contains(pakistan)'
p955
tp956
g0
(g14
g2
Ntp957
Rp958
(dp959
g18
F0.5
sg19
I47
sg20
g0
(g21
g22
(dp960
I01
I1
sNI46
stp961
Rp962
(dp963
g19
I47
sg27
Nsg28
Nsg29
Nsbsg30
I2
sg31
F48.0
sbs(S'Dimension'
p964
g12
tp965
g0
(g14
g2
Ntp966
Rp967
(dp968
g18
F0.5
sg19
I47
sg20
g0
(g21
g22
(dp969
I01
I10
sNI37
stp970
Rp971
(dp972
g19
I47
sg27
Nsg28
Nsg29
Nsbsg30
I2
sg31
F48.0
sbs(S'Dimension'
p973
S'contains(field)'
p974
tp975
g0
(g14
g2
Ntp976
Rp977
(dp978
g18
F0.5
sg19
I47
sg20
g0
(g21
g22
(dp979
I01
I1
sNI46
stp980
Rp981
(dp982
g19
I47
sg27
Nsg28
Nsg29
Nsbsg30
I2
sg31
F48.0
sbs(S'LookAndShape'
p983
S'contains(building)'
p984
tp985
g0
(g14
g2
Ntp986
Rp987
(dp988
g18
F0.5
sg19
I43
sg20
g0
(g21
g22
(dp989
I01
I1
sNI42
stp990
Rp991
(dp992
g19
I43
sg27
Nsg28
Nsg29
Nsbsg30
I2
sg31
F44.0
sbs(g356
S'contains(does)'
p993
tp994
g0
(g14
g2
Ntp995
Rp996
(dp997
g18
F0.5
sg19
I47
sg20
g0
(g21
g22
(dp998
I01
I1
sNI46
stp999
Rp1000
(dp1001
g19
I47
sg27
Nsg28
Nsg29
Nsbsg30
I2
sg31
F48.0
sbs(g8
S'contains(sun)'
p1002
tp1003
g0
(g14
g2
Ntp1004
Rp1005
(dp1006
g18
F0.5
sg19
I47
sg20
g0
(g21
g22
(dp1007
NI47
stp1008
Rp1009
(dp1010
g19
I47
sg27
Nsg28
Nsg29
Nsbsg30
I2
sg31
F48.0
sbs(g9
S'contains(forest)'
p1011
tp1012
g0
(g14
g2
Ntp1013
Rp1014
(dp1015
g18
F0.5
sg19
I43
sg20
g0
(g21
g22
(dp1016
NI43
stp1017
Rp1018
(dp1019
g19
I43
sg27
Nsg28
Nsg29
Nsbsg30
I2
sg31
F44.0
sbs(g9
S"contains(napoleon's)"
p1020
tp1021
g0
(g14
g2
Ntp1022
Rp1023
(dp1024
g18
F0.5
sg19
I43
sg20
g0
(g21
g22
(dp1025
NI43
stp1026
Rp1027
(dp1028
g19
I43
sg27
Nsg28
Nsg29
Nsbsg30
I2
sg31
F44.0
sbs(S'Dimension'
p1029
g821
tp1030
g0
(g14
g2
Ntp1031
Rp1032
(dp1033
g18
F0.5
sg19
I47
sg20
g0
(g21
g22
(dp1034
I01
I2
sNI45
stp1035
Rp1036
(dp1037
g19
I47
sg27
Nsg28
Nsg29
Nsbsg30
I2
sg31
F48.0
sbs(g9
S'contains(planet)'
p1038
tp1039
g0
(g14
g2
Ntp1040
Rp1041
(dp1042
g18
F0.5
sg19
I43
sg20
g0
(g21
g22
(dp1043
NI43
stp1044
Rp1045
(dp1046
g19
I43
sg27
Nsg28
Nsg29
Nsbsg30
I2
sg31
F44.0
sbs(g8
g812
tp1047
g0
(g14
g2
Ntp1048
Rp1049
(dp1050
g18
F0.5
sg19
I47
sg20
g0
(g21
g22
(dp1051
NI47
stp1052
Rp1053
(dp1054
g19
I47
sg27
Nsg28
Nsg29
Nsbsg30
I2
sg31
F48.0
sbs(S'LookAndShape'
p1055
g746
tp1056
g0
(g14
g2
Ntp1057
Rp1058
(dp1059
g18
F0.5
sg19
I43
sg20
g0
(g21
g22
(dp1060
I01
I5
sNI38
stp1061
Rp1062
(dp1063
g19
I43
sg27
Nsg28
Nsg29
Nsbsg30
I2
sg31
F44.0
sbs(g568
S'contains(european)'
p1064
tp1065
g0
(g14
g2
Ntp1066
Rp1067
(dp1068
g18
F0.5
sg19
I47
sg20
g0
(g21
g22
(dp1069
I01
I1
sNI46
stp1070
Rp1071
(dp1072
g19
I47
sg27
Nsg28
Nsg29
Nsbsg30
I2
sg31
F48.0
sbs(g8
g774
tp1073
g0
(g14
g2
Ntp1074
Rp1075
(dp1076
g18
F0.5
sg19
I47
sg20
g0
(g21
g22
(dp1077
NI47
stp1078
Rp1079
(dp1080
g19
I47
sg27
Nsg28
Nsg29
Nsbsg30
I2
sg31
F48.0
sbs(S'LookAndShape'
p1081
S'contains(girl)'
p1082
tp1083
g0
(g14
g2
Ntp1084
Rp1085
(dp1086
g18
F0.5
sg19
I43
sg20
g0
(g21
g22
(dp1087
I01
I1
sNI42
stp1088
Rp1089
(dp1090
g19
I43
sg27
Nsg28
Nsg29
Nsbsg30
I2
sg31
F44.0
sbs(g9
S'contains(hand)'
p1091
tp1092
g0
(g14
g2
Ntp1093
Rp1094
(dp1095
g18
F0.5
sg19
I43
sg20
g0
(g21
g22
(dp1096
NI43
stp1097
Rp1098
(dp1099
g19
I43
sg27
Nsg28
Nsg29
Nsbsg30
I2
sg31
F44.0
sbs(g9
g718
tp1100
g0
(g14
g2
Ntp1101
Rp1102
(dp1103
g18
F0.5
sg19
I43
sg20
g0
(g21
g22
(dp1104
NI43
stp1105
Rp1106
(dp1107
g19
I43
sg27
Nsg28
Nsg29
Nsbsg30
I2
sg31
F44.0
sbs(g9
S'contains(fly)'
p1108
tp1109
g0
(g14
g2
Ntp1110
Rp1111
(dp1112
g18
F0.5
sg19
I43
sg20
g0
(g21
g22
(dp1113
NI43
stp1114
Rp1115
(dp1116
g19
I43
sg27
Nsg28
Nsg29
Nsbsg30
I2
sg31
F44.0
sbs(g234
g698
tp1117
g0
(g14
g2
Ntp1118
Rp1119
(dp1120
g18
F0.5
sg19
I47
sg20
g0
(g21
g22
(dp1121
I01
I1
sNI46
stp1122
Rp1123
(dp1124
g19
I47
sg27
Nsg28
Nsg29
Nsbsg30
I2
sg31
F48.0
sbs(g71
S'contains(that)'
p1125
tp1126
g0
(g14
g2
Ntp1127
Rp1128
(dp1129
g18
F0.5
sg19
I43
sg20
g0
(g21
g22
(dp1130
I01
I3
sNI40
stp1131
Rp1132
(dp1133
g19
I43
sg27
Nsg28
Nsg29
Nsbsg30
I2
sg31
F44.0
sbs(S'Dimension'
p1134
S'contains(korea)'
p1135
tp1136
g0
(g14
g2
Ntp1137
Rp1138
(dp1139
g18
F0.5
sg19
I47
sg20
g0
(g21
g22
(dp1140
I01
I1
sNI46
stp1141
Rp1142
(dp1143
g19
I47
sg27
Nsg28
Nsg29
Nsbsg30
I2
sg31
F48.0
sbs(g272
S'contains(to)'
p1144
tp1145
g0
(g14
g2
Ntp1146
Rp1147
(dp1148
g18
F0.5
sg19
I47
sg20
g0
(g21
g22
(dp1149
I01
I5
sNI42
stp1150
Rp1151
(dp1152
g19
I47
sg27
Nsg28
Nsg29
Nsbsg30
I2
sg31
F48.0
sbs(S'LookAndShape'
p1153
S'contains(hair)'
p1154
tp1155
g0
(g14
g2
Ntp1156
Rp1157
(dp1158
g18
F0.5
sg19
I43
sg20
g0
(g21
g22
(dp1159
I01
I1
sNI42
stp1160
Rp1161
(dp1162
g19
I43
sg27
Nsg28
Nsg29
Nsbsg30
I2
sg31
F44.0
sbs(g8
S'contains(bikes)'
p1163
tp1164
g0
(g14
g2
Ntp1165
Rp1166
(dp1167
g18
F0.5
sg19
I47
sg20
g0
(g21
g22
(dp1168
NI47
stp1169
Rp1170
(dp1171
g19
I47
sg27
Nsg28
Nsg29
Nsbsg30
I2
sg31
F48.0
sbs(g8
g1154
tp1172
g0
(g14
g2
Ntp1173
Rp1174
(dp1175
g18
F0.5
sg19
I47
sg20
g0
(g21
g22
(dp1176
NI47
stp1177
Rp1178
(dp1179
g19
I47
sg27
Nsg28
Nsg29
Nsbsg30
I2
sg31
F48.0
sbs(g8
S'contains(apple)'
p1180
tp1181
g0
(g14
g2
Ntp1182
Rp1183
(dp1184
g18
F0.5
sg19
I47
sg20
g0
(g21
g22
(dp1185
NI47
stp1186
Rp1187
(dp1188
g19
I47
sg27
Nsg28
Nsg29
Nsbsg30
I2
sg31
F48.0
sbs(S'LookAndShape'
p1189
S'contains(stairs)'
p1190
tp1191
g0
(g14
g2
Ntp1192
Rp1193
(dp1194
g18
F0.5
sg19
I43
sg20
g0
(g21
g22
(dp1195
I01
I1
sNI42
stp1196
Rp1197
(dp1198
g19
I43
sg27
Nsg28
Nsg29
Nsbsg30
I2
sg31
F44.0
sbs(g41
S"contains(einstein's)"
p1199
tp1200
g0
(g14
g2
Ntp1201
Rp1202
(dp1203
g18
F0.5
sg19
I47
sg20
g0
(g21
g22
(dp1204
I01
I1
sNI46
stp1205
Rp1206
(dp1207
g19
I47
sg27
Nsg28
Nsg29
Nsbsg30
I2
sg31
F48.0
sbs(g9
S'contains(trees)'
p1208
tp1209
g0
(g14
g2
Ntp1210
Rp1211
(dp1212
g18
F0.5
sg19
I43
sg20
g0
(g21
g22
(dp1213
NI43
stp1214
Rp1215
(dp1216
g19
I43
sg27
Nsg28
Nsg29
Nsbsg30
I2
sg31
F44.0
sbs(g973
g91
tp1217
g0
(g14
g2
Ntp1218
Rp1219
(dp1220
g18
F0.5
sg19
I47
sg20
g0
(g21
g22
(dp1221
I01
I1
sNI46
stp1222
Rp1223
(dp1224
g19
I47
sg27
Nsg28
Nsg29
Nsbsg30
I2
sg31
F48.0
sbs(g81
S'contains(touching)'
p1225
tp1226
g0
(g14
g2
Ntp1227
Rp1228
(dp1229
g18
F0.5
sg19
I47
sg20
g0
(g21
g22
(dp1230
I01
I1
sNI46
stp1231
Rp1232
(dp1233
g19
I47
sg27
Nsg28
Nsg29
Nsbsg30
I2
sg31
F48.0
sbs(g356
g1108
tp1234
g0
(g14
g2
Ntp1235
Rp1236
(dp1237
g18
F0.5
sg19
I47
sg20
g0
(g21
g22
(dp1238
I01
I1
sNI46
stp1239
Rp1240
(dp1241
g19
I47
sg27
Nsg28
Nsg29
Nsbsg30
I2
sg31
F48.0
sbs(g8
S'contains(snow)'
p1242
tp1243
g0
(g14
g2
Ntp1244
Rp1245
(dp1246
g18
F0.5
sg19
I47
sg20
g0
(g21
g22
(dp1247
NI47
stp1248
Rp1249
(dp1250
g19
I47
sg27
Nsg28
Nsg29
Nsbsg30
I2
sg31
F48.0
sbs(g919
S'contains(glass)'
p1251
tp1252
g0
(g14
g2
Ntp1253
Rp1254
(dp1255
g18
F0.5
sg19
I43
sg20
g0
(g21
g22
(dp1256
I01
I1
sNI42
stp1257
Rp1258
(dp1259
g19
I43
sg27
Nsg28
Nsg29
Nsbsg30
I2
sg31
F44.0
sbs(g1134
S'contains(denmark)'
p1260
tp1261
g0
(g14
g2
Ntp1262
Rp1263
(dp1264
g18
F0.5
sg19
I47
sg20
g0
(g21
g22
(dp1265
I01
I1
sNI46
stp1266
Rp1267
(dp1268
g19
I47
sg27
Nsg28
Nsg29
Nsbsg30
I2
sg31
F48.0
sbs(g8
g1082
tp1269
g0
(g14
g2
Ntp1270
Rp1271
(dp1272
g18
F0.5
sg19
I47
sg20
g0
(g21
g22
(dp1273
NI47
stp1274
Rp1275
(dp1276
g19
I47
sg27
Nsg28
Nsg29
Nsbsg30
I2
sg31
F48.0
sbs(g8
S'contains(ugly)'
p1277
tp1278
g0
(g14
g2
Ntp1279
Rp1280
(dp1281
g18
F0.5
sg19
I47
sg20
g0
(g21
g22
(dp1282
NI47
stp1283
Rp1284
(dp1285
g19
I47
sg27
Nsg28
Nsg29
Nsbsg30
I2
sg31
F48.0
sbs(g9
S'contains(high)'
p1286
tp1287
g0
(g14
g2
Ntp1288
Rp1289
(dp1290
g18
F0.5
sg19
I43
sg20
g0
(g21
g22
(dp1291
NI43
stp1292
Rp1293
(dp1294
g19
I43
sg27
Nsg28
Nsg29
Nsbsg30
I2
sg31
F44.0
sbs(g9
g848
tp1295
g0
(g14
g2
Ntp1296
Rp1297
(dp1298
g18
F0.5
sg19
I43
sg20
g0
(g21
g22
(dp1299
NI43
stp1300
Rp1301
(dp1302
g19
I43
sg27
Nsg28
Nsg29
Nsbsg30
I2
sg31
F44.0
sbs(g8
S'contains(lady)'
p1303
tp1304
g0
(g14
g2
Ntp1305
Rp1306
(dp1307
g18
F0.5
sg19
I47
sg20
g0
(g21
g22
(dp1308
NI47
stp1309
Rp1310
(dp1311
g19
I47
sg27
Nsg28
Nsg29
Nsbsg30
I2
sg31
F48.0
sbs(g9
g422
tp1312
g0
(g14
g2
Ntp1313
Rp1314
(dp1315
g18
F0.5
sg19
I43
sg20
g0
(g21
g22
(dp1316
NI43
stp1317
Rp1318
(dp1319
g19
I43
sg27
Nsg28
Nsg29
Nsbsg30
I2
sg31
F44.0
sbs(S'Dimension'
p1320
S'contains(london)'
p1321
tp1322
g0
(g14
g2
Ntp1323
Rp1324
(dp1325
g18
F0.5
sg19
I47
sg20
g0
(g21
g22
(dp1326
I01
I1
sNI46
stp1327
Rp1328
(dp1329
g19
I47
sg27
Nsg28
Nsg29
Nsbsg30
I2
sg31
F48.0
sbs(g9
g876
tp1330
g0
(g14
g2
Ntp1331
Rp1332
(dp1333
g18
F0.5
sg19
I43
sg20
g0
(g21
g22
(dp1334
NI43
stp1335
Rp1336
(dp1337
g19
I43
sg27
Nsg28
Nsg29
Nsbsg30
I2
sg31
F44.0
sbs(g919
S'contains(does)'
p1338
tp1339
g0
(g14
g2
Ntp1340
Rp1341
(dp1342
g18
F0.5
sg19
I43
sg20
g0
(g21
g22
(dp1343
I01
I8
sNI35
stp1344
Rp1345
(dp1346
g19
I43
sg27
Nsg28
Nsg29
Nsbsg30
I2
sg31
F44.0
sbs(g9
S'contains(mm)'
p1347
tp1348
g0
(g14
g2
Ntp1349
Rp1350
(dp1351
g18
F0.5
sg19
I43
sg20
g0
(g21
g22
(dp1352
NI43
stp1353
Rp1354
(dp1355
g19
I43
sg27
Nsg28
Nsg29
Nsbsg30
I2
sg31
F44.0
sbs(S'Dimension'
p1356
S'contains(kilowatt)'
p1357
tp1358
g0
(g14
g2
Ntp1359
Rp1360
(dp1361
g18
F0.5
sg19
I47
sg20
g0
(g21
g22
(dp1362
I01
I1
sNI46
stp1363
Rp1364
(dp1365
g19
I47
sg27
Nsg28
Nsg29
Nsbsg30
I2
sg31
F48.0
sbs(g402
g459
tp1366
g0
(g14
g2
Ntp1367
Rp1368
(dp1369
g18
F0.5
sg19
I43
sg20
g0
(g21
g22
(dp1370
I01
I1
sNI42
stp1371
Rp1372
(dp1373
g19
I43
sg27
Nsg28
Nsg29
Nsbsg30
I2
sg31
F44.0
sbs(g8
g984
tp1374
g0
(g14
g2
Ntp1375
Rp1376
(dp1377
g18
F0.5
sg19
I47
sg20
g0
(g21
g22
(dp1378
NI47
stp1379
Rp1380
(dp1381
g19
I47
sg27
Nsg28
Nsg29
Nsbsg30
I2
sg31
F48.0
sbs(g110
S'contains(person)'
p1382
tp1383
g0
(g14
g2
Ntp1384
Rp1385
(dp1386
g18
F0.5
sg19
I47
sg20
g0
(g21
g22
(dp1387
I01
I1
sNI46
stp1388
Rp1389
(dp1390
g19
I47
sg27
Nsg28
Nsg29
Nsbsg30
I2
sg31
F48.0
sbs(g468
S'contains(near)'
p1391
tp1392
g0
(g14
g2
Ntp1393
Rp1394
(dp1395
g18
F0.5
sg19
I47
sg20
g0
(g21
g22
(dp1396
I01
I3
sNI44
stp1397
Rp1398
(dp1399
g19
I47
sg27
Nsg28
Nsg29
Nsbsg30
I2
sg31
F48.0
sbs(g624
S'contains(how)'
p1400
tp1401
g0
(g14
g2
Ntp1402
Rp1403
(dp1404
g18
F0.5
sg19
I43
sg20
g0
(g21
g22
(dp1405
I01
I13
sNI30
stp1406
Rp1407
(dp1408
g19
I43
sg27
Nsg28
Nsg29
Nsbsg30
I2
sg31
F44.0
sbs(g8
S'contains(small)'
p1409
tp1410
g0
(g14
g2
Ntp1411
Rp1412
(dp1413
g18
F0.5
sg19
I47
sg20
g0
(g21
g22
(dp1414
I01
I4
sNI43
stp1415
Rp1416
(dp1417
g19
I47
sg27
Nsg28
Nsg29
Nsbsg30
I2
sg31
F48.0
sbs(g9
S'contains(laundry)'
p1418
tp1419
g0
(g14
g2
Ntp1420
Rp1421
(dp1422
g18
F0.5
sg19
I43
sg20
g0
(g21
g22
(dp1423
NI43
stp1424
Rp1425
(dp1426
g19
I43
sg27
Nsg28
Nsg29
Nsbsg30
I2
sg31
F44.0
sbs(g9
g225
tp1427
g0
(g14
g2
Ntp1428
Rp1429
(dp1430
g18
F0.5
sg19
I43
sg20
g0
(g21
g22
(dp1431
NI43
stp1432
Rp1433
(dp1434
g19
I43
sg27
Nsg28
Nsg29
Nsbsg30
I2
sg31
F44.0
sbs(g468
S'contains(strike)'
p1435
tp1436
g0
(g14
g2
Ntp1437
Rp1438
(dp1439
g18
F0.5
sg19
I47
sg20
g0
(g21
g22
(dp1440
I01
I1
sNI46
stp1441
Rp1442
(dp1443
g19
I47
sg27
Nsg28
Nsg29
Nsbsg30
I2
sg31
F48.0
sbs(g9
S'contains(far)'
p1444
tp1445
g0
(g14
g2
Ntp1446
Rp1447
(dp1448
g18
F0.5
sg19
I43
sg20
g0
(g21
g22
(dp1449
NI43
stp1450
Rp1451
(dp1452
g19
I43
sg27
Nsg28
Nsg29
Nsbsg30
I2
sg31
F44.0
sbs(g9
S'contains(it)'
p1453
tp1454
g0
(g14
g2
Ntp1455
Rp1456
(dp1457
g18
F0.5
sg19
I43
sg20
g0
(g21
g22
(dp1458
NI43
stp1459
Rp1460
(dp1461
g19
I43
sg27
Nsg28
Nsg29
Nsbsg30
I2
sg31
F44.0
sbs(g336
g885
tp1462
g0
(g14
g2
Ntp1463
Rp1464
(dp1465
g18
F0.5
sg19
I47
sg20
g0
(g21
g22
(dp1466
I01
I2
sNI45
stp1467
Rp1468
(dp1469
g19
I47
sg27
Nsg28
Nsg29
Nsbsg30
I2
sg31
F48.0
sbs(g148
S'contains(boston)'
p1470
tp1471
g0
(g14
g2
Ntp1472
Rp1473
(dp1474
g18
F0.5
sg19
I47
sg20
g0
(g21
g22
(dp1475
I01
I1
sNI46
stp1476
Rp1477
(dp1478
g19
I47
sg27
Nsg28
Nsg29
Nsbsg30
I2
sg31
F48.0
sbs(g110
S'contains(average)'
p1479
tp1480
g0
(g14
g2
Ntp1481
Rp1482
(dp1483
g18
F0.5
sg19
I47
sg20
g0
(g21
g22
(dp1484
I01
I2
sNI45
stp1485
Rp1486
(dp1487
g19
I47
sg27
Nsg28
Nsg29
Nsbsg30
I2
sg31
F48.0
sbs(S'Dimension'
p1488
S'contains(regular)'
p1489
tp1490
g0
(g14
g2
Ntp1491
Rp1492
(dp1493
g18
F0.5
sg19
I47
sg20
g0
(g21
g22
(dp1494
I01
I3
sNI44
stp1495
Rp1496
(dp1497
g19
I47
sg27
Nsg28
Nsg29
Nsbsg30
I2
sg31
F48.0
sbs(g176
S'contains(the)'
p1498
tp1499
g0
(g14
g2
Ntp1500
Rp1501
(dp1502
g18
F0.5
sg19
I43
sg20
g0
(g21
g22
(dp1503
I01
I11
sNI32
stp1504
Rp1505
(dp1506
g19
I43
sg27
Nsg28
Nsg29
Nsbsg30
I2
sg31
F44.0
sbs(g964
S'contains(of)'
p1507
tp1508
g0
(g14
g2
Ntp1509
Rp1510
(dp1511
g18
F0.5
sg19
I47
sg20
g0
(g21
g22
(dp1512
I01
I21
sNI26
stp1513
Rp1514
(dp1515
g19
I47
sg27
Nsg28
Nsg29
Nsbsg30
I2
sg31
F48.0
sbs(g9
g830
tp1516
g0
(g14
g2
Ntp1517
Rp1518
(dp1519
g18
F0.5
sg19
I43
sg20
g0
(g21
g22
(dp1520
NI43
stp1521
Rp1522
(dp1523
g19
I43
sg27
Nsg28
Nsg29
Nsbsg30
I2
sg31
F44.0
sbs(g9
g1357
tp1524
g0
(g14
g2
Ntp1525
Rp1526
(dp1527
g18
F0.5
sg19
I43
sg20
g0
(g21
g22
(dp1528
NI43
stp1529
Rp1530
(dp1531
g19
I43
sg27
Nsg28
Nsg29
Nsbsg30
I2
sg31
F44.0
sbs(g244
S'contains(atom)'
p1532
tp1533
g0
(g14
g2
Ntp1534
Rp1535
(dp1536
g18
F0.5
sg19
I43
sg20
g0
(g21
g22
(dp1537
I01
I1
sNI42
stp1538
Rp1539
(dp1540
g19
I43
sg27
Nsg28
Nsg29
Nsbsg30
I2
sg31
F44.0
sbs(S'Dimension'
p1541
g496
tp1542
g0
(g14
g2
Ntp1543
Rp1544
(dp1545
g18
F0.5
sg19
I47
sg20
g0
(g21
g22
(dp1546
I01
I1
sNI46
stp1547
Rp1548
(dp1549
g19
I47
sg27
Nsg28
Nsg29
Nsbsg30
I2
sg31
F48.0
sbs(g9
S'contains(what)'
p1550
tp1551
g0
(g14
g2
Ntp1552
Rp1553
(dp1554
g18
F0.5
sg19
I43
sg20
g0
(g21
g22
(dp1555
I01
I30
sNI13
stp1556
Rp1557
(dp1558
g19
I43
sg27
Nsg28
Nsg29
Nsbsg30
I2
sg31
F44.0
sbs(g176
S'contains(shape)'
p1559
tp1560
g0
(g14
g2
Ntp1561
Rp1562
(dp1563
g18
F0.5
sg19
I43
sg20
g0
(g21
g22
(dp1564
I01
I1
sNI42
stp1565
Rp1566
(dp1567
g19
I43
sg27
Nsg28
Nsg29
Nsbsg30
I2
sg31
F44.0
sbs(g8
g784
tp1568
g0
(g14
g2
Ntp1569
Rp1570
(dp1571
g18
F0.5
sg19
I47
sg20
g0
(g21
g22
(dp1572
NI47
stp1573
Rp1574
(dp1575
g19
I47
sg27
Nsg28
Nsg29
Nsbsg30
I2
sg31
F48.0
sbs(g9
g187
tp1576
g0
(g14
g2
Ntp1577
Rp1578
(dp1579
g18
F0.5
sg19
I43
sg20
g0
(g21
g22
(dp1580
NI43
stp1581
Rp1582
(dp1583
g19
I43
sg27
Nsg28
Nsg29
Nsbsg30
I2
sg31
F44.0
sbs(g9
S'contains(jump)'
p1584
tp1585
g0
(g14
g2
Ntp1586
Rp1587
(dp1588
g18
F0.5
sg19
I43
sg20
g0
(g21
g22
(dp1589
NI43
stp1590
Rp1591
(dp1592
g19
I43
sg27
Nsg28
Nsg29
Nsbsg30
I2
sg31
F44.0
sbs(g9
S'contains(benches)'
p1593
tp1594
g0
(g14
g2
Ntp1595
Rp1596
(dp1597
g18
F0.5
sg19
I43
sg20
g0
(g21
g22
(dp1598
I01
I1
sNI42
stp1599
Rp1600
(dp1601
g19
I43
sg27
Nsg28
Nsg29
Nsbsg30
I2
sg31
F44.0
sbs(g41
S'contains(feet)'
p1602
tp1603
g0
(g14
g2
Ntp1604
Rp1605
(dp1606
g18
F0.5
sg19
I47
sg20
g0
(g21
g22
(dp1607
I01
I3
sNI44
stp1608
Rp1609
(dp1610
g19
I47
sg27
Nsg28
Nsg29
Nsbsg30
I2
sg31
F48.0
sbs(g272
S'contains(up)'
p1611
tp1612
g0
(g14
g2
Ntp1613
Rp1614
(dp1615
g18
F0.5
sg19
I47
sg20
g0
(g21
g22
(dp1616
I01
I1
sNI46
stp1617
Rp1618
(dp1619
g19
I47
sg27
Nsg28
Nsg29
Nsbsg30
I2
sg31
F48.0
sbs(g8
g728
tp1620
g0
(g14
g2
Ntp1621
Rp1622
(dp1623
g18
F0.5
sg19
I47
sg20
g0
(g21
g22
(dp1624
NI47
stp1625
Rp1626
(dp1627
g19
I47
sg27
Nsg28
Nsg29
Nsbsg30
I2
sg31
F48.0
sbs(g8
g708
tp1628
g0
(g14
g2
Ntp1629
Rp1630
(dp1631
g18
F0.5
sg19
I47
sg20
g0
(g21
g22
(dp1632
NI47
stp1633
Rp1634
(dp1635
g19
I47
sg27
Nsg28
Nsg29
Nsbsg30
I2
sg31
F48.0
sbs(g9
S'contains(magnitude)'
p1636
tp1637
g0
(g14
g2
Ntp1638
Rp1639
(dp1640
g18
F0.5
sg19
I43
sg20
g0
(g21
g22
(dp1641
NI43
stp1642
Rp1643
(dp1644
g19
I43
sg27
Nsg28
Nsg29
Nsbsg30
I2
sg31
F44.0
sbs(g1541
S'contains(inches)'
p1645
tp1646
g0
(g14
g2
Ntp1647
Rp1648
(dp1649
g18
F0.5
sg19
I47
sg20
g0
(g21
g22
(dp1650
I01
I1
sNI46
stp1651
Rp1652
(dp1653
g19
I47
sg27
Nsg28
Nsg29
Nsbsg30
I2
sg31
F48.0
sbs(g224
S'contains(in)'
p1654
tp1655
g0
(g14
g2
Ntp1656
Rp1657
(dp1658
g18
F0.5
sg19
I47
sg20
g0
(g21
g22
(dp1659
I01
I5
sNI42
stp1660
Rp1661
(dp1662
g19
I47
sg27
Nsg28
Nsg29
Nsbsg30
I2
sg31
F48.0
sbs(g8
g671
tp1663
g0
(g14
g2
Ntp1664
Rp1665
(dp1666
g18
F0.5
sg19
I47
sg20
g0
(g21
g22
(dp1667
NI47
stp1668
Rp1669
(dp1670
g19
I47
sg27
Nsg28
Nsg29
Nsbsg30
I2
sg31
F48.0
sbs(g9
g197
tp1671
g0
(g14
g2
Ntp1672
Rp1673
(dp1674
g18
F0.5
sg19
I43
sg20
g0
(g21
g22
(dp1675
NI43
stp1676
Rp1677
(dp1678
g19
I43
sg27
Nsg28
Nsg29
Nsbsg30
I2
sg31
F44.0
sbs(g8
g588
tp1679
g0
(g14
g2
Ntp1680
Rp1681
(dp1682
g18
F0.5
sg19
I47
sg20
g0
(g21
g22
(dp1683
NI47
stp1684
Rp1685
(dp1686
g19
I47
sg27
Nsg28
Nsg29
Nsbsg30
I2
sg31
F48.0
sbs(g8
S'contains(bag)'
p1687
tp1688
g0
(g14
g2
Ntp1689
Rp1690
(dp1691
g18
F0.5
sg19
I47
sg20
g0
(g21
g22
(dp1692
NI47
stp1693
Rp1694
(dp1695
g19
I47
sg27
Nsg28
Nsg29
Nsbsg30
I2
sg31
F48.0
sbs(g1055
S'contains(bicycle)'
p1696
tp1697
g0
(g14
g2
Ntp1698
Rp1699
(dp1700
g18
F0.5
sg19
I43
sg20
g0
(g21
g22
(dp1701
I01
I1
sNI42
stp1702
Rp1703
(dp1704
g19
I43
sg27
Nsg28
Nsg29
Nsbsg30
I2
sg31
F44.0
sbs(g9
g955
tp1705
g0
(g14
g2
Ntp1706
Rp1707
(dp1708
g18
F0.5
sg19
I43
sg20
g0
(g21
g22
(dp1709
NI43
stp1710
Rp1711
(dp1712
g19
I43
sg27
Nsg28
Nsg29
Nsbsg30
I2
sg31
F44.0
sbs(g402
S'contains(is)'
p1713
tp1714
g0
(g14
g2
Ntp1715
Rp1716
(dp1717
g18
F0.5
sg19
I43
sg20
g0
(g21
g22
(dp1718
I01
I18
sNI25
stp1719
Rp1720
(dp1721
g19
I43
sg27
Nsg28
Nsg29
Nsbsg30
I2
sg31
F44.0
sbs(g8
g72
tp1722
g0
(g14
g2
Ntp1723
Rp1724
(dp1725
g18
F0.5
sg19
I47
sg20
g0
(g21
g22
(dp1726
NI47
stp1727
Rp1728
(dp1729
g19
I47
sg27
Nsg28
Nsg29
Nsbsg30
I2
sg31
F48.0
sbs(S'Dimension'
p1730
g634
tp1731
g0
(g14
g2
Ntp1732
Rp1733
(dp1734
g18
F0.5
sg19
I47
sg20
g0
(g21
g22
(dp1735
I01
I2
sNI45
stp1736
Rp1737
(dp1738
g19
I47
sg27
Nsg28
Nsg29
Nsbsg30
I2
sg31
F48.0
sbs(g9
g139
tp1739
g0
(g14
g2
Ntp1740
Rp1741
(dp1742
g18
F0.5
sg19
I43
sg20
g0
(g21
g22
(dp1743
NI43
stp1744
Rp1745
(dp1746
g19
I43
sg27
Nsg28
Nsg29
Nsbsg30
I2
sg31
F44.0
sbs(S'Dimension'
p1747
g1038
tp1748
g0
(g14
g2
Ntp1749
Rp1750
(dp1751
g18
F0.5
sg19
I47
sg20
g0
(g21
g22
(dp1752
I01
I1
sNI46
stp1753
Rp1754
(dp1755
g19
I47
sg27
Nsg28
Nsg29
Nsbsg30
I2
sg31
F48.0
sbs(g9
S'contains(mountain)'
p1756
tp1757
g0
(g14
g2
Ntp1758
Rp1759
(dp1760
g18
F0.5
sg19
I43
sg20
g0
(g21
g22
(dp1761
NI43
stp1762
Rp1763
(dp1764
g19
I43
sg27
Nsg28
Nsg29
Nsbsg30
I2
sg31
F44.0
sbs(g8
S'contains(airplane)'
p1765
tp1766
g0
(g14
g2
Ntp1767
Rp1768
(dp1769
g18
F0.5
sg19
I47
sg20
g0
(g21
g22
(dp1770
NI47
stp1771
Rp1772
(dp1773
g19
I47
sg27
Nsg28
Nsg29
Nsbsg30
I2
sg31
F48.0
sbs(g9
g569
tp1774
g0
(g14
g2
Ntp1775
Rp1776
(dp1777
g18
F0.5
sg19
I43
sg20
g0
(g21
g22
(dp1778
NI43
stp1779
Rp1780
(dp1781
g19
I43
sg27
Nsg28
Nsg29
Nsbsg30
I2
sg31
F44.0
sbs(S'Dimension'
p1782
S'contains(big)'
p1783
tp1784
g0
(g14
g2
Ntp1785
Rp1786
(dp1787
g18
F0.5
sg19
I47
sg20
g0
(g21
g22
(dp1788
I01
I3
sNI44
stp1789
Rp1790
(dp1791
g19
I47
sg27
Nsg28
Nsg29
Nsbsg30
I2
sg31
F48.0
sbs(g9
S'contains(tree)'
p1792
tp1793
g0
(g14
g2
Ntp1794
Rp1795
(dp1796
g18
F0.5
sg19
I43
sg20
g0
(g21
g22
(dp1797
NI43
stp1798
Rp1799
(dp1800
g19
I43
sg27
Nsg28
Nsg29
Nsbsg30
I2
sg31
F44.0
sbs(g8
S'contains(like)'
p1801
tp1802
g0
(g14
g2
Ntp1803
Rp1804
(dp1805
g18
F0.5
sg19
I47
sg20
g0
(g21
g22
(dp1806
NI47
stp1807
Rp1808
(dp1809
g19
I47
sg27
Nsg28
Nsg29
Nsbsg30
I2
sg31
F48.0
sbs(g755
g532
tp1810
g0
(g14
g2
Ntp1811
Rp1812
(dp1813
g18
F0.5
sg19
I47
sg20
g0
(g21
g22
(dp1814
I01
I1
sNI46
stp1815
Rp1816
(dp1817
g19
I47
sg27
Nsg28
Nsg29
Nsbsg30
I2
sg31
F48.0
sbs(g8
g177
tp1818
g0
(g14
g2
Ntp1819
Rp1820
(dp1821
g18
F0.5
sg19
I47
sg20
g0
(g21
g22
(dp1822
NI47
stp1823
Rp1824
(dp1825
g19
I47
sg27
Nsg28
Nsg29
Nsbsg30
I2
sg31
F48.0
sbs(S'LookAndShape'
p1826
g515
tp1827
g0
(g14
g2
Ntp1828
Rp1829
(dp1830
g18
F0.5
sg19
I43
sg20
g0
(g21
g22
(dp1831
I01
I1
sNI42
stp1832
Rp1833
(dp1834
g19
I43
sg27
Nsg28
Nsg29
Nsbsg30
I2
sg31
F44.0
sbs(g282
g1756
tp1835
g0
(g14
g2
Ntp1836
Rp1837
(dp1838
g18
F0.5
sg19
I47
sg20
g0
(g21
g22
(dp1839
I01
I1
sNI46
stp1840
Rp1841
(dp1842
g19
I47
sg27
Nsg28
Nsg29
Nsbsg30
I2
sg31
F48.0
sbs(g9
S'contains(squirrel)'
p1843
tp1844
g0
(g14
g2
Ntp1845
Rp1846
(dp1847
g18
F0.5
sg19
I43
sg20
g0
(g21
g22
(dp1848
NI43
stp1849
Rp1850
(dp1851
g19
I43
sg27
Nsg28
Nsg29
Nsbsg30
I2
sg31
F44.0
sbs(S'Dimension'
p1852
S'contains(old)'
p1853
tp1854
g0
(g14
g2
Ntp1855
Rp1856
(dp1857
g18
F0.5
sg19
I47
sg20
g0
(g21
g22
(dp1858
I01
I1
sNI46
stp1859
Rp1860
(dp1861
g19
I47
sg27
Nsg28
Nsg29
Nsbsg30
I2
sg31
F48.0
sbs(g421
g1444
tp1862
g0
(g14
g2
Ntp1863
Rp1864
(dp1865
g18
F0.5
sg19
I47
sg20
g0
(g21
g22
(dp1866
I01
I6
sNI41
stp1867
Rp1868
(dp1869
g19
I47
sg27
Nsg28
Nsg29
Nsbsg30
I2
sg31
F48.0
sbs(g8
g450
tp1870
g0
(g14
g2
Ntp1871
Rp1872
(dp1873
g18
F0.5
sg19
I47
sg20
g0
(g21
g22
(dp1874
NI47
stp1875
Rp1876
(dp1877
g19
I47
sg27
Nsg28
Nsg29
Nsbsg30
I2
sg31
F48.0
sbs(S'LookAndShape'
p1878
S'contains(jeans)'
p1879
tp1880
g0
(g14
g2
Ntp1881
Rp1882
(dp1883
g18
F0.5
sg19
I43
sg20
g0
(g21
g22
(dp1884
I01
I1
sNI42
stp1885
Rp1886
(dp1887
g19
I43
sg27
Nsg28
Nsg29
Nsbsg30
I2
sg31
F44.0
sbs(g9
g469
tp1888
g0
(g14
g2
Ntp1889
Rp1890
(dp1891
g18
F0.5
sg19
I43
sg20
g0
(g21
g22
(dp1892
NI43
stp1893
Rp1894
(dp1895
g19
I43
sg27
Nsg28
Nsg29
Nsbsg30
I2
sg31
F44.0
sbs(g505
g1636
tp1896
g0
(g14
g2
Ntp1897
Rp1898
(dp1899
g18
F0.5
sg19
I47
sg20
g0
(g21
g22
(dp1900
I01
I4
sNI43
stp1901
Rp1902
(dp1903
g19
I47
sg27
Nsg28
Nsg29
Nsbsg30
I2
sg31
F48.0
sbs(S'Dimension'
p1904
g1843
tp1905
g0
(g14
g2
Ntp1906
Rp1907
(dp1908
g18
F0.5
sg19
I47
sg20
g0
(g21
g22
(dp1909
I01
I1
sNI46
stp1910
Rp1911
(dp1912
g19
I47
sg27
Nsg28
Nsg29
Nsbsg30
I2
sg31
F48.0
sbs(g1878
S'contains(do)'
p1913
tp1914
g0
(g14
g2
Ntp1915
Rp1916
(dp1917
g18
F0.5
sg19
I43
sg20
g0
(g21
g22
(dp1918
I01
I5
sNI38
stp1919
Rp1920
(dp1921
g19
I43
sg27
Nsg28
Nsg29
Nsbsg30
I2
sg31
F44.0
sbs(g1320
S'contains(california)'
p1922
tp1923
g0
(g14
g2
Ntp1924
Rp1925
(dp1926
g18
F0.5
sg19
I47
sg20
g0
(g21
g22
(dp1927
I01
I1
sNI46
stp1928
Rp1929
(dp1930
g19
I47
sg27
Nsg28
Nsg29
Nsbsg30
I2
sg31
F48.0
sbs(g8
g1593
tp1931
g0
(g14
g2
Ntp1932
Rp1933
(dp1934
g18
F0.5
sg19
I47
sg20
g0
(g21
g22
(dp1935
NI47
stp1936
Rp1937
(dp1938
g19
I47
sg27
Nsg28
Nsg29
Nsbsg30
I2
sg31
F48.0
sbs(g8
S'contains(doll)'
p1939
tp1940
g0
(g14
g2
Ntp1941
Rp1942
(dp1943
g18
F0.5
sg19
I47
sg20
g0
(g21
g22
(dp1944
NI47
stp1945
Rp1946
(dp1947
g19
I47
sg27
Nsg28
Nsg29
Nsbsg30
I2
sg31
F48.0
sbs(g224
g1792
tp1948
g0
(g14
g2
Ntp1949
Rp1950
(dp1951
g18
F0.5
sg19
I47
sg20
g0
(g21
g22
(dp1952
I01
I2
sNI45
stp1953
Rp1954
(dp1955
g19
I47
sg27
Nsg28
Nsg29
Nsbsg30
I2
sg31
F48.0
sbs(g9
S"contains(person's)"
p1956
tp1957
g0
(g14
g2
Ntp1958
Rp1959
(dp1960
g18
F0.5
sg19
I43
sg20
g0
(g21
g22
(dp1961
NI43
stp1962
Rp1963
(dp1964
g19
I43
sg27
Nsg28
Nsg29
Nsbsg30
I2
sg31
F44.0
sbs(g9
g327
tp1965
g0
(g14
g2
Ntp1966
Rp1967
(dp1968
g18
F0.5
sg19
I43
sg20
g0
(g21
g22
(dp1969
NI43
stp1970
Rp1971
(dp1972
g19
I43
sg27
Nsg28
Nsg29
Nsbsg30
I2
sg31
F44.0
sbs(g929
g1347
tp1973
g0
(g14
g2
Ntp1974
Rp1975
(dp1976
g18
F0.5
sg19
I47
sg20
g0
(g21
g22
(dp1977
I01
I1
sNI46
stp1978
Rp1979
(dp1980
g19
I47
sg27
Nsg28
Nsg29
Nsbsg30
I2
sg31
F48.0
sbs(g8
g1532
tp1981
g0
(g14
g2
Ntp1982
Rp1983
(dp1984
g18
F0.5
sg19
I47
sg20
g0
(g21
g22
(dp1985
NI47
stp1986
Rp1987
(dp1988
g19
I47
sg27
Nsg28
Nsg29
Nsbsg30
I2
sg31
F48.0
sbs(g9
S'contains(are)'
p1989
tp1990
g0
(g14
g2
Ntp1991
Rp1992
(dp1993
g18
F0.5
sg19
I43
sg20
g0
(g21
g22
(dp1994
I01
I12
sNI31
stp1995
Rp1996
(dp1997
g19
I43
sg27
Nsg28
Nsg29
Nsbsg30
I2
sg31
F44.0
sbs(g8
g625
tp1998
g0
(g14
g2
Ntp1999
Rp2000
(dp2001
g18
F0.5
sg19
I47
sg20
g0
(g21
g22
(dp2002
NI47
stp2003
Rp2004
(dp2005
g19
I47
sg27
Nsg28
Nsg29
Nsbsg30
I2
sg31
F48.0
sbs(S'LookAndShape'
p2006
g1765
tp2007
g0
(g14
g2
Ntp2008
Rp2009
(dp2010
g18
F0.5
sg19
I43
sg20
g0
(g21
g22
(dp2011
I01
I1
sNI42
stp2012
Rp2013
(dp2014
g19
I43
sg27
Nsg28
Nsg29
Nsbsg30
I2
sg31
F44.0
sbs(g9
g1489
tp2015
g0
(g14
g2
Ntp2016
Rp2017
(dp2018
g18
F0.5
sg19
I43
sg20
g0
(g21
g22
(dp2019
NI43
stp2020
Rp2021
(dp2022
g19
I43
sg27
Nsg28
Nsg29
Nsbsg30
I2
sg31
F44.0
sbs(g8
S'contains(is)'
p2023
tp2024
g0
(g14
g2
Ntp2025
Rp2026
(dp2027
g18
F0.5
sg19
I47
sg20
g0
(g21
g22
(dp2028
I01
I29
sNI18
stp2029
Rp2030
(dp2031
g19
I47
sg27
Nsg28
Nsg29
Nsbsg30
I2
sg31
F48.0
sbs(S'LookAndShape'
p2032
S'contains(contour)'
p2033
tp2034
g0
(g14
g2
Ntp2035
Rp2036
(dp2037
g18
F0.5
sg19
I43
sg20
g0
(g21
g22
(dp2038
I01
I1
sNI42
stp2039
Rp2040
(dp2041
g19
I43
sg27
Nsg28
Nsg29
Nsbsg30
I2
sg31
F44.0
sbs(g8
g1696
tp2042
g0
(g14
g2
Ntp2043
Rp2044
(dp2045
g18
F0.5
sg19
I47
sg20
g0
(g21
g22
(dp2046
NI47
stp2047
Rp2048
(dp2049
g19
I47
sg27
Nsg28
Nsg29
Nsbsg30
I2
sg31
F48.0
sbs(g176
S'contains(of)'
p2050
tp2051
g0
(g14
g2
Ntp2052
Rp2053
(dp2054
g18
F0.5
sg19
I43
sg20
g0
(g21
g22
(dp2055
I01
I8
sNI35
stp2056
Rp2057
(dp2058
g19
I43
sg27
Nsg28
Nsg29
Nsbsg30
I2
sg31
F44.0
sbs(g9
g263
tp2059
g0
(g14
g2
Ntp2060
Rp2061
(dp2062
g18
F0.5
sg19
I43
sg20
g0
(g21
g22
(dp2063
NI43
stp2064
Rp2065
(dp2066
g19
I43
sg27
Nsg28
Nsg29
Nsbsg30
I2
sg31
F44.0
sbs(g9
S'contains(earth)'
p2067
tp2068
g0
(g14
g2
Ntp2069
Rp2070
(dp2071
g18
F0.5
sg19
I43
sg20
g0
(g21
g22
(dp2072
NI43
stp2073
Rp2074
(dp2075
g19
I43
sg27
Nsg28
Nsg29
Nsbsg30
I2
sg31
F44.0
sbs(g9
g1479
tp2076
g0
(g14
g2
Ntp2077
Rp2078
(dp2079
g18
F0.5
sg19
I43
sg20
g0
(g21
g22
(dp2080
NI43
stp2081
Rp2082
(dp2083
g19
I43
sg27
Nsg28
Nsg29
Nsbsg30
I2
sg31
F44.0
sbs(g8
S'contains(outline)'
p2084
tp2085
g0
(g14
g2
Ntp2086
Rp2087
(dp2088
g18
F0.5
sg19
I47
sg20
g0
(g21
g22
(dp2089
NI47
stp2090
Rp2091
(dp2092
g19
I47
sg27
Nsg28
Nsg29
Nsbsg30
I2
sg31
F48.0
sbs(g9
g1645
tp2093
g0
(g14
g2
Ntp2094
Rp2095
(dp2096
g18
F0.5
sg19
I43
sg20
g0
(g21
g22
(dp2097
NI43
stp2098
Rp2099
(dp2100
g19
I43
sg27
Nsg28
Nsg29
Nsbsg30
I2
sg31
F44.0
sbs(S'Dimension'
p2101
S'contains(japan)'
p2102
tp2103
g0
(g14
g2
Ntp2104
Rp2105
(dp2106
g18
F0.5
sg19
I47
sg20
g0
(g21
g22
(dp2107
I01
I1
sNI46
stp2108
Rp2109
(dp2110
g19
I47
sg27
Nsg28
Nsg29
Nsbsg30
I2
sg31
F48.0
sbs(g186
g215
tp2111
g0
(g14
g2
Ntp2112
Rp2113
(dp2114
g18
F0.5
sg19
I47
sg20
g0
(g21
g22
(dp2115
I01
I1
sNI46
stp2116
Rp2117
(dp2118
g19
I47
sg27
Nsg28
Nsg29
Nsbsg30
I2
sg31
F48.0
sbs(g421
g206
tp2119
g0
(g14
g2
Ntp2120
Rp2121
(dp2122
g18
F0.5
sg19
I47
sg20
g0
(g21
g22
(dp2123
I01
I2
sNI45
stp2124
Rp2125
(dp2126
g19
I47
sg27
Nsg28
Nsg29
Nsbsg30
I2
sg31
F48.0
sbs(g9
g1654
tp2127
g0
(g14
g2
Ntp2128
Rp2129
(dp2130
g18
F0.5
sg19
I43
sg20
g0
(g21
g22
(dp2131
NI43
stp2132
Rp2133
(dp2134
g19
I43
sg27
Nsg28
Nsg29
Nsbsg30
I2
sg31
F44.0
sbs(g346
S'contains(tiny)'
p2135
tp2136
g0
(g14
g2
Ntp2137
Rp2138
(dp2139
g18
F0.5
sg19
I47
sg20
g0
(g21
g22
(dp2140
I01
I2
sNI45
stp2141
Rp2142
(dp2143
g19
I47
sg27
Nsg28
Nsg29
Nsbsg30
I2
sg31
F48.0
sbs(g707
S'contains(person)'
p2144
tp2145
g0
(g14
g2
Ntp2146
Rp2147
(dp2148
g18
F0.5
sg19
I43
sg20
g0
(g21
g22
(dp2149
I01
I2
sNI41
stp2150
Rp2151
(dp2152
g19
I43
sg27
Nsg28
Nsg29
Nsbsg30
I2
sg31
F44.0
sbs(g1904
g1584
tp2153
g0
(g14
g2
Ntp2154
Rp2155
(dp2156
g18
F0.5
sg19
I47
sg20
g0
(g21
g22
(dp2157
I01
I1
sNI46
stp2158
Rp2159
(dp2160
g19
I47
sg27
Nsg28
Nsg29
Nsbsg30
I2
sg31
F48.0
sbs(g9
g974
tp2161
g0
(g14
g2
Ntp2162
Rp2163
(dp2164
g18
F0.5
sg19
I43
sg20
g0
(g21
g22
(dp2165
NI43
stp2166
Rp2167
(dp2168
g19
I43
sg27
Nsg28
Nsg29
Nsbsg30
I2
sg31
F44.0
sbs(S'Dimension'
p2169
S'contains(water)'
p2170
tp2171
g0
(g14
g2
Ntp2172
Rp2173
(dp2174
g18
F0.5
sg19
I47
sg20
g0
(g21
g22
(dp2175
I01
I1
sNI46
stp2176
Rp2177
(dp2178
g19
I47
sg27
Nsg28
Nsg29
Nsbsg30
I2
sg31
F48.0
sbs(g9
S'contains(shirt)'
p2179
tp2180
g0
(g14
g2
Ntp2181
Rp2182
(dp2183
g18
F0.5
sg19
I43
sg20
g0
(g21
g22
(dp2184
NI43
stp2185
Rp2186
(dp2187
g19
I43
sg27
Nsg28
Nsg29
Nsbsg30
I2
sg31
F44.0
sbs(g9
g149
tp2188
g0
(g14
g2
Ntp2189
Rp2190
(dp2191
g18
F0.5
sg19
I43
sg20
g0
(g21
g22
(dp2192
NI43
stp2193
Rp2194
(dp2195
g19
I43
sg27
Nsg28
Nsg29
Nsbsg30
I2
sg31
F44.0
sbs(g8
g1559
tp2196
g0
(g14
g2
Ntp2197
Rp2198
(dp2199
g18
F0.5
sg19
I47
sg20
g0
(g21
g22
(dp2200
NI47
stp2201
Rp2202
(dp2203
g19
I47
sg27
Nsg28
Nsg29
Nsbsg30
I2
sg31
F48.0
sbs(g9
g1783
tp2204
g0
(g14
g2
Ntp2205
Rp2206
(dp2207
g18
F0.5
sg19
I43
sg20
g0
(g21
g22
(dp2208
NI43
stp2209
Rp2210
(dp2211
g19
I43
sg27
Nsg28
Nsg29
Nsbsg30
I2
sg31
F44.0
sbs(g9
S'contains(after)'
p2212
tp2213
g0
(g14
g2
Ntp2214
Rp2215
(dp2216
g18
F0.5
sg19
I43
sg20
g0
(g21
g22
(dp2217
NI43
stp2218
Rp2219
(dp2220
g19
I43
sg27
Nsg28
Nsg29
Nsbsg30
I2
sg31
F44.0
sbs(g8
S'contains(stripper)'
p2221
tp2222
g0
(g14
g2
Ntp2223
Rp2224
(dp2225
g18
F0.5
sg19
I47
sg20
g0
(g21
g22
(dp2226
NI47
stp2227
Rp2228
(dp2229
g19
I47
sg27
Nsg28
Nsg29
Nsbsg30
I2
sg31
F48.0
sbs(g9
g101
tp2230
g0
(g14
g2
Ntp2231
Rp2232
(dp2233
g18
F0.5
sg19
I43
sg20
g0
(g21
g22
(dp2234
NI43
stp2235
Rp2236
(dp2237
g19
I43
sg27
Nsg28
Nsg29
Nsbsg30
I2
sg31
F44.0
sbs(S'LookAndShape'
p2238
S'contains(plane)'
p2239
tp2240
g0
(g14
g2
Ntp2241
Rp2242
(dp2243
g18
F0.5
sg19
I43
sg20
g0
(g21
g22
(dp2244
I01
I1
sNI42
stp2245
Rp2246
(dp2247
g19
I43
sg27
Nsg28
Nsg29
Nsbsg30
I2
sg31
F44.0
sbs(g224
S'contains(the)'
p2248
tp2249
g0
(g14
g2
Ntp2250
Rp2251
(dp2252
g18
F0.5
sg19
I47
sg20
g0
(g21
g22
(dp2253
I01
I27
sNI20
stp2254
Rp2255
(dp2256
g19
I47
sg27
Nsg28
Nsg29
Nsbsg30
I2
sg31
F48.0
sbs(S'LookAndShape'
p2257
g1277
tp2258
g0
(g14
g2
Ntp2259
Rp2260
(dp2261
g18
F0.5
sg19
I43
sg20
g0
(g21
g22
(dp2262
I01
I2
sNI41
stp2263
Rp2264
(dp2265
g19
I43
sg27
Nsg28
Nsg29
Nsbsg30
I2
sg31
F44.0
sbs(S'LookAndShape'
p2266
g1939
tp2267
g0
(g14
g2
Ntp2268
Rp2269
(dp2270
g18
F0.5
sg19
I43
sg20
g0
(g21
g22
(dp2271
I01
I1
sNI42
stp2272
Rp2273
(dp2274
g19
I43
sg27
Nsg28
Nsg29
Nsbsg30
I2
sg31
F44.0
sbs(g9
S'contains(tall)'
p2275
tp2276
g0
(g14
g2
Ntp2277
Rp2278
(dp2279
g18
F0.5
sg19
I43
sg20
g0
(g21
g22
(dp2280
NI43
stp2281
Rp2282
(dp2283
g19
I43
sg27
Nsg28
Nsg29
Nsbsg30
I2
sg31
F44.0
sbs(g8
g52
tp2284
g0
(g14
g2
Ntp2285
Rp2286
(dp2287
g18
F0.5
sg19
I47
sg20
g0
(g21
g22
(dp2288
NI47
stp2289
Rp2290
(dp2291
g19
I47
sg27
Nsg28
Nsg29
Nsbsg30
I2
sg31
F48.0
sbs(g8
g1251
tp2292
g0
(g14
g2
Ntp2293
Rp2294
(dp2295
g18
F0.5
sg19
I47
sg20
g0
(g21
g22
(dp2296
NI47
stp2297
Rp2298
(dp2299
g19
I47
sg27
Nsg28
Nsg29
Nsbsg30
I2
sg31
F48.0
sbs(g9
g1435
tp2300
g0
(g14
g2
Ntp2301
Rp2302
(dp2303
g18
F0.5
sg19
I43
sg20
g0
(g21
g22
(dp2304
NI43
stp2305
Rp2306
(dp2307
g19
I43
sg27
Nsg28
Nsg29
Nsbsg30
I2
sg31
F44.0
sbs(S'LookAndShape'
p2308
g1242
tp2309
g0
(g14
g2
Ntp2310
Rp2311
(dp2312
g18
F0.5
sg19
I43
sg20
g0
(g21
g22
(dp2313
I01
I1
sNI42
stp2314
Rp2315
(dp2316
g19
I43
sg27
Nsg28
Nsg29
Nsbsg30
I2
sg31
F44.0
sbs(g1029
g1418
tp2317
g0
(g14
g2
Ntp2318
Rp2319
(dp2320
g18
F0.5
sg19
I47
sg20
g0
(g21
g22
(dp2321
I01
I2
sNI45
stp2322
Rp2323
(dp2324
g19
I47
sg27
Nsg28
Nsg29
Nsbsg30
I2
sg31
F48.0
sbs(g8
S'contains(men)'
p2325
tp2326
g0
(g14
g2
Ntp2327
Rp2328
(dp2329
g18
F0.5
sg19
I47
sg20
g0
(g21
g22
(dp2330
NI47
stp2331
Rp2332
(dp2333
g19
I47
sg27
Nsg28
Nsg29
Nsbsg30
I2
sg31
F48.0
sbs(g9
g1922
tp2334
g0
(g14
g2
Ntp2335
Rp2336
(dp2337
g18
F0.5
sg19
I43
sg20
g0
(g21
g22
(dp2338
NI43
stp2339
Rp2340
(dp2341
g19
I43
sg27
Nsg28
Nsg29
Nsbsg30
I2
sg31
F44.0
sbs(g9
g1199
tp2342
g0
(g14
g2
Ntp2343
Rp2344
(dp2345
g18
F0.5
sg19
I43
sg20
g0
(g21
g22
(dp2346
NI43
stp2347
Rp2348
(dp2349
g19
I43
sg27
Nsg28
Nsg29
Nsbsg30
I2
sg31
F44.0
sbs(g9
S'contains(without)'
p2350
tp2351
g0
(g14
g2
Ntp2352
Rp2353
(dp2354
g18
F0.5
sg19
I43
sg20
g0
(g21
g22
(dp2355
NI43
stp2356
Rp2357
(dp2358
g19
I43
sg27
Nsg28
Nsg29
Nsbsg30
I2
sg31
F44.0
sbs(S'LookAndShape'
p2359
g1180
tp2360
g0
(g14
g2
Ntp2361
Rp2362
(dp2363
g18
F0.5
sg19
I43
sg20
g0
(g21
g22
(dp2364
I01
I2
sNI41
stp2365
Rp2366
(dp2367
g19
I43
sg27
Nsg28
Nsg29
Nsbsg30
I2
sg31
F44.0
sbs(g9
g1391
tp2368
g0
(g14
g2
Ntp2369
Rp2370
(dp2371
g18
F0.5
sg19
I43
sg20
g0
(g21
g22
(dp2372
NI43
stp2373
Rp2374
(dp2375
g19
I43
sg27
Nsg28
Nsg29
Nsbsg30
I2
sg31
F44.0
sbs(g8
S'contains(pretty)'
p2376
tp2377
g0
(g14
g2
Ntp2378
Rp2379
(dp2380
g18
F0.5
sg19
I47
sg20
g0
(g21
g22
(dp2381
NI47
stp2382
Rp2383
(dp2384
g19
I47
sg27
Nsg28
Nsg29
Nsbsg30
I2
sg31
F48.0
sbs(g9
g1853
tp2385
g0
(g14
g2
Ntp2386
Rp2387
(dp2388
g18
F0.5
sg19
I43
sg20
g0
(g21
g22
(dp2389
NI43
stp2390
Rp2391
(dp2392
g19
I43
sg27
Nsg28
Nsg29
Nsbsg30
I2
sg31
F44.0
sbs(g9
g1135
tp2393
g0
(g14
g2
Ntp2394
Rp2395
(dp2396
g18
F0.5
sg19
I43
sg20
g0
(g21
g22
(dp2397
NI43
stp2398
Rp2399
(dp2400
g19
I43
sg27
Nsg28
Nsg29
Nsbsg30
I2
sg31
F44.0
sbs(g964
S'contains(that)'
p2401
tp2402
g0
(g14
g2
Ntp2403
Rp2404
(dp2405
g18
F0.5
sg19
I47
sg20
g0
(g21
g22
(dp2406
I01
I3
sNI44
stp2407
Rp2408
(dp2409
g19
I47
sg27
Nsg28
Nsg29
Nsbsg30
I2
sg31
F48.0
sbs(g983
g2084
tp2410
g0
(g14
g2
Ntp2411
Rp2412
(dp2413
g18
F0.5
sg19
I43
sg20
g0
(g21
g22
(dp2414
I01
I1
sNI42
stp2415
Rp2416
(dp2417
g19
I43
sg27
Nsg28
Nsg29
Nsbsg30
I2
sg31
F44.0
sbs(g9
g1409
tp2418
g0
(g14
g2
Ntp2419
Rp2420
(dp2421
g18
F0.5
sg19
I43
sg20
g0
(g21
g22
(dp2422
NI43
stp2423
Rp2424
(dp2425
g19
I43
sg27
Nsg28
Nsg29
Nsbsg30
I2
sg31
F44.0
sbs(g9
S'contains(?)'
p2426
tp2427
g0
(g14
g2
Ntp2428
Rp2429
(dp2430
g18
F0.5
sg19
I43
sg20
g0
(g21
g22
(dp2431
I01
I43
stp2432
Rp2433
(dp2434
g19
I43
sg27
Nsg28
Nsg29
Nsbsg30
I2
sg31
F44.0
sbs(g81
g2350
tp2435
g0
(g14
g2
Ntp2436
Rp2437
(dp2438
g18
F0.5
sg19
I47
sg20
g0
(g21
g22
(dp2439
I01
I1
sNI46
stp2440
Rp2441
(dp2442
g19
I47
sg27
Nsg28
Nsg29
Nsbsg30
I2
sg31
F48.0
sbs(g1488
g1091
tp2443
g0
(g14
g2
Ntp2444
Rp2445
(dp2446
g18
F0.5
sg19
I47
sg20
g0
(g21
g22
(dp2447
I01
I3
sNI44
stp2448
Rp2449
(dp2450
g19
I47
sg27
Nsg28
Nsg29
Nsbsg30
I2
sg31
F48.0
sbs(g875
g1286
tp2451
g0
(g14
g2
Ntp2452
Rp2453
(dp2454
g18
F0.5
sg19
I47
sg20
g0
(g21
g22
(dp2455
I01
I3
sNI44
stp2456
Rp2457
(dp2458
g19
I47
sg27
Nsg28
Nsg29
Nsbsg30
I2
sg31
F48.0
sbs(g9
g1260
tp2459
g0
(g14
g2
Ntp2460
Rp2461
(dp2462
g18
F0.5
sg19
I43
sg20
g0
(g21
g22
(dp2463
NI43
stp2464
Rp2465
(dp2466
g19
I43
sg27
Nsg28
Nsg29
Nsbsg30
I2
sg31
F44.0
sbs(g9
g1064
tp2467
g0
(g14
g2
Ntp2468
Rp2469
(dp2470
g18
F0.5
sg19
I43
sg20
g0
(g21
g22
(dp2471
NI43
stp2472
Rp2473
(dp2474
g19
I43
sg27
Nsg28
Nsg29
Nsbsg30
I2
sg31
F44.0
sbs(g1029
g2212
tp2475
g0
(g14
g2
Ntp2476
Rp2477
(dp2478
g18
F0.5
sg19
I47
sg20
g0
(g21
g22
(dp2479
I01
I2
sNI45
stp2480
Rp2481
(dp2482
g19
I47
sg27
Nsg28
Nsg29
Nsbsg30
I2
sg31
F48.0
sbs(g8
S'contains(model)'
p2483
tp2484
g0
(g14
g2
Ntp2485
Rp2486
(dp2487
g18
F0.5
sg19
I47
sg20
g0
(g21
g22
(dp2488
NI47
stp2489
Rp2490
(dp2491
g19
I47
sg27
Nsg28
Nsg29
Nsbsg30
I2
sg31
F48.0
sbs(g51
g1303
tp2492
g0
(g14
g2
Ntp2493
Rp2494
(dp2495
g18
F0.5
sg19
I43
sg20
g0
(g21
g22
(dp2496
I01
I1
sNI42
stp2497
Rp2498
(dp2499
g19
I43
sg27
Nsg28
Nsg29
Nsbsg30
I2
sg31
F44.0
sbs(g1730
g1011
tp2500
g0
(g14
g2
Ntp2501
Rp2502
(dp2503
g18
F0.5
sg19
I47
sg20
g0
(g21
g22
(dp2504
I01
I1
sNI46
stp2505
Rp2506
(dp2507
g19
I47
sg27
Nsg28
Nsg29
Nsbsg30
I2
sg31
F48.0
sbs(g1782
g1208
tp2508
g0
(g14
g2
Ntp2509
Rp2510
(dp2511
g18
F0.5
sg19
I47
sg20
g0
(g21
g22
(dp2512
I01
I1
sNI46
stp2513
Rp2514
(dp2515
g19
I47
sg27
Nsg28
Nsg29
Nsbsg30
I2
sg31
F48.0
sbs(g9
g235
tp2516
g0
(g14
g2
Ntp2517
Rp2518
(dp2519
g18
F0.5
sg19
I43
sg20
g0
(g21
g22
(dp2520
NI43
stp2521
Rp2522
(dp2523
g19
I43
sg27
Nsg28
Nsg29
Nsbsg30
I2
sg31
F44.0
sbs(g8
g1190
tp2524
g0
(g14
g2
Ntp2525
Rp2526
(dp2527
g18
F0.5
sg19
I47
sg20
g0
(g21
g22
(dp2528
NI47
stp2529
Rp2530
(dp2531
g19
I47
sg27
Nsg28
Nsg29
Nsbsg30
I2
sg31
F48.0
sbs(g8
g384
tp2532
g0
(g14
g2
Ntp2533
Rp2534
(dp2535
g18
F0.5
sg19
I47
sg20
g0
(g21
g22
(dp2536
NI47
stp2537
Rp2538
(dp2539
g19
I47
sg27
Nsg28
Nsg29
Nsbsg30
I2
sg31
F48.0
sbs(S'LookAndShape'
p2540
g578
tp2541
g0
(g14
g2
Ntp2542
Rp2543
(dp2544
g18
F0.5
sg19
I43
sg20
g0
(g21
g22
(dp2545
I01
I1
sNI42
stp2546
Rp2547
(dp2548
g19
I43
sg27
Nsg28
Nsg29
Nsbsg30
I2
sg31
F44.0
sbs(g2101
g1453
tp2549
g0
(g14
g2
Ntp2550
Rp2551
(dp2552
g18
F0.5
sg19
I47
sg20
g0
(g21
g22
(dp2553
I01
I1
sNI46
stp2554
Rp2555
(dp2556
g19
I47
sg27
Nsg28
Nsg29
Nsbsg30
I2
sg31
F48.0
sbs(g9
g737
tp2557
g0
(g14
g2
Ntp2558
Rp2559
(dp2560
g18
F0.5
sg19
I43
sg20
g0
(g21
g22
(dp2561
NI43
stp2562
Rp2563
(dp2564
g19
I43
sg27
Nsg28
Nsg29
Nsbsg30
I2
sg31
F44.0
sbs(g2101
S'contains(spain)'
p2565
tp2566
g0
(g14
g2
Ntp2567
Rp2568
(dp2569
g18
F0.5
sg19
I47
sg20
g0
(g21
g22
(dp2570
I01
I1
sNI46
stp2571
Rp2572
(dp2573
g19
I47
sg27
Nsg28
Nsg29
Nsbsg30
I2
sg31
F48.0
sbs(g8
g598
tp2574
g0
(g14
g2
Ntp2575
Rp2576
(dp2577
g18
F0.5
sg19
I47
sg20
g0
(g21
g22
(dp2578
NI47
stp2579
Rp2580
(dp2581
g19
I47
sg27
Nsg28
Nsg29
Nsbsg30
I2
sg31
F48.0
sbs(g8
g2033
tp2582
g0
(g14
g2
Ntp2583
Rp2584
(dp2585
g18
F0.5
sg19
I47
sg20
g0
(g21
g22
(dp2586
NI47
stp2587
Rp2588
(dp2589
g19
I47
sg27
Nsg28
Nsg29
Nsbsg30
I2
sg31
F48.0
sbs(S'LookAndShape'
p2590
g1163
tp2591
g0
(g14
g2
Ntp2592
Rp2593
(dp2594
g18
F0.5
sg19
I43
sg20
g0
(g21
g22
(dp2595
I01
I1
sNI42
stp2596
Rp2597
(dp2598
g19
I43
sg27
Nsg28
Nsg29
Nsbsg30
I2
sg31
F44.0
sbs(g1852
g910
tp2599
g0
(g14
g2
Ntp2600
Rp2601
(dp2602
g18
F0.5
sg19
I47
sg20
g0
(g21
g22
(dp2603
I01
I1
sNI46
stp2604
Rp2605
(dp2606
g19
I47
sg27
Nsg28
Nsg29
Nsbsg30
I2
sg31
F48.0
sbs(g505
g541
tp2607
g0
(g14
g2
Ntp2608
Rp2609
(dp2610
g18
F0.5
sg19
I47
sg20
g0
(g21
g22
(dp2611
I01
I1
sNI46
stp2612
Rp2613
(dp2614
g19
I47
sg27
Nsg28
Nsg29
Nsbsg30
I2
sg31
F48.0
sbs(g755
g2275
tp2615
g0
(g14
g2
Ntp2616
Rp2617
(dp2618
g18
F0.5
sg19
I47
sg20
g0
(g21
g22
(dp2619
I01
I4
sNI43
stp2620
Rp2621
(dp2622
g19
I47
sg27
Nsg28
Nsg29
Nsbsg30
I2
sg31
F48.0
sbs(g9
g2170
tp2623
g0
(g14
g2
Ntp2624
Rp2625
(dp2626
g18
F0.5
sg19
I43
sg20
g0
(g21
g22
(dp2627
NI43
stp2628
Rp2629
(dp2630
g19
I43
sg27
Nsg28
Nsg29
Nsbsg30
I2
sg31
F44.0
sbs(S'LookAndShape'
p2631
g2325
tp2632
g0
(g14
g2
Ntp2633
Rp2634
(dp2635
g18
F0.5
sg19
I43
sg20
g0
(g21
g22
(dp2636
I01
I1
sNI42
stp2637
Rp2638
(dp2639
g19
I43
sg27
Nsg28
Nsg29
Nsbsg30
I2
sg31
F44.0
sbs(g9
g506
tp2640
g0
(g14
g2
Ntp2641
Rp2642
(dp2643
g18
F0.5
sg19
I43
sg20
g0
(g21
g22
(dp2644
NI43
stp2645
Rp2646
(dp2647
g19
I43
sg27
Nsg28
Nsg29
Nsbsg30
I2
sg31
F44.0
sbs(g468
g857
tp2648
g0
(g14
g2
Ntp2649
Rp2650
(dp2651
g18
F0.5
sg19
I47
sg20
g0
(g21
g22
(dp2652
I01
I2
sNI45
stp2653
Rp2654
(dp2655
g19
I47
sg27
Nsg28
Nsg29
Nsbsg30
I2
sg31
F48.0
sbs(g568
g1020
tp2656
g0
(g14
g2
Ntp2657
Rp2658
(dp2659
g18
F0.5
sg19
I47
sg20
g0
(g21
g22
(dp2660
I01
I1
sNI46
stp2661
Rp2662
(dp2663
g19
I47
sg27
Nsg28
Nsg29
Nsbsg30
I2
sg31
F48.0
sbs(S'LookAndShape'
p2664
g2221
tp2665
g0
(g14
g2
Ntp2666
Rp2667
(dp2668
g18
F0.5
sg19
I43
sg20
g0
(g21
g22
(dp2669
I01
I1
sNI42
stp2670
Rp2671
(dp2672
g19
I43
sg27
Nsg28
Nsg29
Nsbsg30
I2
sg31
F44.0
sbs(g2257
S'contains(an)'
p2673
tp2674
g0
(g14
g2
Ntp2675
Rp2676
(dp2677
g18
F0.5
sg19
I43
sg20
g0
(g21
g22
(dp2678
I01
I7
sNI36
stp2679
Rp2680
(dp2681
g19
I43
sg27
Nsg28
Nsg29
Nsbsg30
I2
sg31
F44.0
sbs(g71
g1687
tp2682
g0
(g14
g2
Ntp2683
Rp2684
(dp2685
g18
F0.5
sg19
I43
sg20
g0
(g21
g22
(dp2686
I01
I1
sNI42
stp2687
Rp2688
(dp2689
g19
I43
sg27
Nsg28
Nsg29
Nsbsg30
I2
sg31
F44.0
sbs(g1029
g2179
tp2690
g0
(g14
g2
Ntp2691
Rp2692
(dp2693
g18
F0.5
sg19
I47
sg20
g0
(g21
g22
(dp2694
I01
I2
sNI45
stp2695
Rp2696
(dp2697
g19
I47
sg27
Nsg28
Nsg29
Nsbsg30
I2
sg31
F48.0
sbs(g9
g550
tp2698
g0
(g14
g2
Ntp2699
Rp2700
(dp2701
g18
F0.5
sg19
I43
sg20
g0
(g21
g22
(dp2702
NI43
stp2703
Rp2704
(dp2705
g19
I43
sg27
Nsg28
Nsg29
Nsbsg30
I2
sg31
F44.0
sbs(g839
S'contains(lisbon)'
p2706
tp2707
g0
(g14
g2
Ntp2708
Rp2709
(dp2710
g18
F0.5
sg19
I47
sg20
g0
(g21
g22
(dp2711
I01
I1
sNI46
stp2712
Rp2713
(dp2714
g19
I47
sg27
Nsg28
Nsg29
Nsbsg30
I2
sg31
F48.0
sbs(g9
g756
tp2715
g0
(g14
g2
Ntp2716
Rp2717
(dp2718
g18
F0.5
sg19
I43
sg20
g0
(g21
g22
(dp2719
NI43
stp2720
Rp2721
(dp2722
g19
I43
sg27
Nsg28
Nsg29
Nsbsg30
I2
sg31
F44.0
sbs(g9
g273
tp2723
g0
(g14
g2
Ntp2724
Rp2725
(dp2726
g18
F0.5
sg19
I43
sg20
g0
(g21
g22
(dp2727
NI43
stp2728
Rp2729
(dp2730
g19
I43
sg27
Nsg28
Nsg29
Nsbsg30
I2
sg31
F44.0
sbs(g660
g254
tp2731
g0
(g14
g2
Ntp2732
Rp2733
(dp2734
g18
F0.5
sg19
I43
sg20
g0
(g21
g22
(dp2735
I01
I1
sNI42
stp2736
Rp2737
(dp2738
g19
I43
sg27
Nsg28
Nsg29
Nsbsg30
I2
sg31
F44.0
sbs(g9
g2102
tp2739
g0
(g14
g2
Ntp2740
Rp2741
(dp2742
g18
F0.5
sg19
I43
sg20
g0
(g21
g22
(dp2743
NI43
stp2744
Rp2745
(dp2746
g19
I43
sg27
Nsg28
Nsg29
Nsbsg30
I2
sg31
F44.0
sbs(g9
g2565
tp2747
g0
(g14
g2
Ntp2748
Rp2749
(dp2750
g18
F0.5
sg19
I43
sg20
g0
(g21
g22
(dp2751
NI43
stp2752
Rp2753
(dp2754
g19
I43
sg27
Nsg28
Nsg29
Nsbsg30
I2
sg31
F44.0
sbs(g8
g689
tp2755
g0
(g14
g2
Ntp2756
Rp2757
(dp2758
g18
F0.5
sg19
I47
sg20
g0
(g21
g22
(dp2759
I01
I2
sNI45
stp2760
Rp2761
(dp2762
g19
I47
sg27
Nsg28
Nsg29
Nsbsg30
I2
sg31
F48.0
sbs(g9
g680
tp2763
g0
(g14
g2
Ntp2764
Rp2765
(dp2766
g18
F0.5
sg19
I43
sg20
g0
(g21
g22
(dp2767
NI43
stp2768
Rp2769
(dp2770
g19
I43
sg27
Nsg28
Nsg29
Nsbsg30
I2
sg31
F44.0
sbs(g1747
g2067
tp2771
g0
(g14
g2
Ntp2772
Rp2773
(dp2774
g18
F0.5
sg19
I47
sg20
g0
(g21
g22
(dp2775
I01
I1
sNI46
stp2776
Rp2777
(dp2778
g19
I47
sg27
Nsg28
Nsg29
Nsbsg30
I2
sg31
F48.0
sbs(g9
g2706
tp2779
g0
(g14
g2
Ntp2780
Rp2781
(dp2782
g18
F0.5
sg19
I43
sg20
g0
(g21
g22
(dp2783
NI43
stp2784
Rp2785
(dp2786
g19
I43
sg27
Nsg28
Nsg29
Nsbsg30
I2
sg31
F44.0
sbs(g2266
g866
tp2787
g0
(g14
g2
Ntp2788
Rp2789
(dp2790
g18
F0.5
sg19
I43
sg20
g0
(g21
g22
(dp2791
I01
I2
sNI41
stp2792
Rp2793
(dp2794
g19
I43
sg27
Nsg28
Nsg29
Nsbsg30
I2
sg31
F44.0
sbs(g2032
g1002
tp2795
g0
(g14
g2
Ntp2796
Rp2797
(dp2798
g18
F0.5
sg19
I43
sg20
g0
(g21
g22
(dp2799
I01
I1
sNI42
stp2800
Rp2801
(dp2802
g19
I43
sg27
Nsg28
Nsg29
Nsbsg30
I2
sg31
F44.0
sbs(g9
g1611
tp2803
g0
(g14
g2
Ntp2804
Rp2805
(dp2806
g18
F0.5
sg19
I43
sg20
g0
(g21
g22
(dp2807
NI43
stp2808
Rp2809
(dp2810
g19
I43
sg27
Nsg28
Nsg29
Nsbsg30
I2
sg31
F44.0
sbs(g9
g347
tp2811
g0
(g14
g2
Ntp2812
Rp2813
(dp2814
g18
F0.5
sg19
I43
sg20
g0
(g21
g22
(dp2815
NI43
stp2816
Rp2817
(dp2818
g19
I43
sg27
Nsg28
Nsg29
Nsbsg30
I2
sg31
F44.0
sbs(S'LookAndShape'
p2819
g2483
tp2820
g0
(g14
g2
Ntp2821
Rp2822
(dp2823
g18
F0.5
sg19
I43
sg20
g0
(g21
g22
(dp2824
I01
I1
sNI42
stp2825
Rp2826
(dp2827
g19
I43
sg27
Nsg28
Nsg29
Nsbsg30
I2
sg31
F44.0
sbs(g9
S'contains(amazon)'
p2828
tp2829
g0
(g14
g2
Ntp2830
Rp2831
(dp2832
g18
F0.5
sg19
I43
sg20
g0
(g21
g22
(dp2833
NI43
stp2834
Rp2835
(dp2836
g19
I43
sg27
Nsg28
Nsg29
Nsbsg30
I2
sg31
F44.0
sbs(g61
g1956
tp2837
g0
(g14
g2
Ntp2838
Rp2839
(dp2840
g18
F0.5
sg19
I47
sg20
g0
(g21
g22
(dp2841
I01
I1
sNI46
stp2842
Rp2843
(dp2844
g19
I47
sg27
Nsg28
Nsg29
Nsbsg30
I2
sg31
F48.0
sbs(g9
g1321
tp2845
g0
(g14
g2
Ntp2846
Rp2847
(dp2848
g18
F0.5
sg19
I43
sg20
g0
(g21
g22
(dp2849
NI43
stp2850
Rp2851
(dp2852
g19
I43
sg27
Nsg28
Nsg29
Nsbsg30
I2
sg31
F44.0
sbs(g8
g1879
tp2853
g0
(g14
g2
Ntp2854
Rp2855
(dp2856
g18
F0.5
sg19
I47
sg20
g0
(g21
g22
(dp2857
NI47
stp2858
Rp2859
(dp2860
g19
I47
sg27
Nsg28
Nsg29
Nsbsg30
I2
sg31
F48.0
sbs(g8
g1913
tp2861
g0
(g14
g2
Ntp2862
Rp2863
(dp2864
g18
F0.5
sg19
I47
sg20
g0
(g21
g22
(dp2865
NI47
stp2866
Rp2867
(dp2868
g19
I47
sg27
Nsg28
Nsg29
Nsbsg30
I2
sg31
F48.0
sbs(g1730
g2828
tp2869
g0
(g14
g2
Ntp2870
Rp2871
(dp2872
g18
F0.5
sg19
I47
sg20
g0
(g21
g22
(dp2873
I01
I1
sNI46
stp2874
Rp2875
(dp2876
g19
I47
sg27
Nsg28
Nsg29
Nsbsg30
I2
sg31
F48.0
sbs(S'LookAndShape'
p2877
g487
tp2878
g0
(g14
g2
Ntp2879
Rp2880
(dp2881
g18
F0.5
sg19
I43
sg20
g0
(g21
g22
(dp2882
I01
I1
sNI42
stp2883
Rp2884
(dp2885
g19
I43
sg27
Nsg28
Nsg29
Nsbsg30
I2
sg31
F44.0
sbs(g9
g1225
tp2886
g0
(g14
g2
Ntp2887
Rp2888
(dp2889
g18
F0.5
sg19
I43
sg20
g0
(g21
g22
(dp2890
NI43
stp2891
Rp2892
(dp2893
g19
I43
sg27
Nsg28
Nsg29
Nsbsg30
I2
sg31
F44.0
sbs(g9
g2135
tp2894
g0
(g14
g2
Ntp2895
Rp2896
(dp2897
g18
F0.5
sg19
I43
sg20
g0
(g21
g22
(dp2898
NI43
stp2899
Rp2900
(dp2901
g19
I43
sg27
Nsg28
Nsg29
Nsbsg30
I2
sg31
F44.0
sbs(g9
g793
tp2902
g0
(g14
g2
Ntp2903
Rp2904
(dp2905
g18
F0.5
sg19
I43
sg20
g0
(g21
g22
(dp2906
NI43
stp2907
Rp2908
(dp2909
g19
I43
sg27
Nsg28
Nsg29
Nsbsg30
I2
sg31
F44.0
sbs(g9
g1801
tp2910
g0
(g14
g2
Ntp2911
Rp2912
(dp2913
g18
F0.5
sg19
I43
sg20
g0
(g21
g22
(dp2914
I01
I31
sNI12
stp2915
Rp2916
(dp2917
g19
I43
sg27
Nsg28
Nsg29
Nsbsg30
I2
sg31
F44.0
sbs(g9
g1602
tp2918
g0
(g14
g2
Ntp2919
Rp2920
(dp2921
g18
F0.5
sg19
I43
sg20
g0
(g21
g22
(dp2922
NI43
stp2923
Rp2924
(dp2925
g19
I43
sg27
Nsg28
Nsg29
Nsbsg30
I2
sg31
F44.0
sbs(g2266
g2376
tp2926
g0
(g14
g2
Ntp2927
Rp2928
(dp2929
g18
F0.5
sg19
I43
sg20
g0
(g21
g22
(dp2930
I01
I1
sNI42
stp2931
Rp2932
(dp2933
g19
I43
sg27
Nsg28
Nsg29
Nsbsg30
I2
sg31
F44.0
sbs(g875
g651
tp2934
g0
(g14
g2
Ntp2935
Rp2936
(dp2937
g18
F0.5
sg19
I47
sg20
g0
(g21
g22
(dp2938
I01
I1
sNI46
stp2939
Rp2940
(dp2941
g19
I47
sg27
Nsg28
Nsg29
Nsbsg30
I2
sg31
F48.0
sbs(g8
g920
tp2942
g0
(g14
g2
Ntp2943
Rp2944
(dp2945
g18
F0.5
sg19
I47
sg20
g0
(g21
g22
(dp2946
NI47
stp2947
Rp2948
(dp2949
g19
I47
sg27
Nsg28
Nsg29
Nsbsg30
I2
sg31
F48.0
sbs(g9
g1470
tp2950
g0
(g14
g2
Ntp2951
Rp2952
(dp2953
g18
F0.5
sg19
I43
sg20
g0
(g21
g22
(dp2954
NI43
stp2955
Rp2956
(dp2957
g19
I43
sg27
Nsg28
Nsg29
Nsbsg30
I2
sg31
F44.0
sbssS'_label_probdist'
p2958
g0
(g14
g2
Ntp2959
Rp2960
(dp2961
g18
F0.5
sg19
I90
sg20
g0
(g21
g22
(dp2962
g8
I47
sg9
I43
stp2963
Rp2964
(dp2965
g19
I90
sg27
Nsg28
(lp2966
(g8
I47
tp2967
a(g9
I43
tp2968
asg29
Nsbsg30
I2
sg31
F91.0
sbsb.