ccopy_reg
_reconstructor
p1
(cnltk.classify.naivebayes
NaiveBayesClassifier
p2
c__builtin__
object
p3
NtRp4
(dp5
S'_labels'
p6
(lp7
S'Dimension'
p8
aS'LookAndShape'
p9
asS'_feature_probdist'
p10
(dp11
(S'Dimension'
p12
S'contains(what)'
tp13
g1
(cnltk.probability
ELEProbDist
p14
g3
NtRp15
(dp16
S'_gamma'
p17
F0.5
sS'_N'
p18
I55
sS'_freqdist'
p19
g1
(cnltk.probability
FreqDist
p20
c__builtin__
dict
p21
(dp22
I01
I18
sNI37
stRp23
(dp24
g18
I55
sS'_max_cache'
p25
NsS'_item_cache'
p26
NsS'_Nr_cache'
p27
NsbsS'_bins'
p28
I2
sS'_divisor'
p29
F56
sbs(S'Dimension'
p30
S'contains(a)'
tp31
g1
(g14
g3
NtRp32
(dp33
g17
F0.5
sg18
I55
sg19
g1
(g20
g21
(dp34
I01
I16
sNI39
stRp35
(dp36
g18
I55
sg25
Nsg26
Nsg27
Nsbsg28
I2
sg29
F56
sbs(g9
S'contains(india)'
p37
tp38
g1
(g14
g3
NtRp39
(dp40
g17
F0.5
sg18
I43
sg19
g1
(g20
g21
(dp41
NI43
stRp42
(dp43
g18
I43
sg25
Nsg26
Nsg27
Nsbsg28
I2
sg29
F44
sbs(S'Dimension'
p44
S"contains(what's)"
p45
tp46
g1
(g14
g3
NtRp47
(dp48
g17
F0.5
sg18
I55
sg19
g1
(g20
g21
(dp49
I01
I3
sNI52
stRp50
(dp51
g18
I55
sg25
Nsg26
Nsg27
Nsbsg28
I2
sg29
F56
sbs(g9
S'contains(chris)'
p52
tp53
g1
(g14
g3
NtRp54
(dp55
g17
F0.5
sg18
I43
sg19
g1
(g20
g21
(dp56
NI43
stRp57
(dp58
g18
I43
sg25
Nsg26
Nsg27
Nsbsg28
I2
sg29
F44
sbs(g9
S'contains(up)'
p59
tp60
g1
(g14
g3
NtRp61
(dp62
g17
F0.5
sg18
I43
sg19
g1
(g20
g21
(dp63
NI43
stRp64
(dp65
g18
I43
sg25
Nsg26
Nsg27
Nsbsg28
I2
sg29
F44
sbs(S'Dimension'
p66
S'contains(tallest)'
p67
tp68
g1
(g14
g3
NtRp69
(dp70
g17
F0.5
sg18
I55
sg19
g1
(g20
g21
(dp71
I01
I1
sNI54
stRp72
(dp73
g18
I55
sg25
Nsg26
Nsg27
Nsbsg28
I2
sg29
F56
sbs(S'Dimension'
p74
S'contains(dog)'
p75
tp76
g1
(g14
g3
NtRp77
(dp78
g17
F0.5
sg18
I55
sg19
g1
(g20
g21
(dp79
I01
I1
sNI54
stRp80
(dp81
g18
I55
sg25
Nsg26
Nsg27
Nsbsg28
I2
sg29
F56
sbs(g9
S'contains(here)'
p82
tp83
g1
(g14
g3
NtRp84
(dp85
g17
F0.5
sg18
I43
sg19
g1
(g20
g21
(dp86
NI43
stRp87
(dp88
g18
I43
sg25
Nsg26
Nsg27
Nsbsg28
I2
sg29
F44
sbs(S'Dimension'
p89
S'contains(distance)'
p90
tp91
g1
(g14
g3
NtRp92
(dp93
g17
F0.5
sg18
I55
sg19
g1
(g20
g21
(dp94
I01
I1
sNI54
stRp95
(dp96
g18
I55
sg25
Nsg26
Nsg27
Nsbsg28
I2
sg29
F56
sbs(S'Dimension'
p97
S'contains(from)'
p98
tp99
g1
(g14
g3
NtRp100
(dp101
g17
F0.5
sg18
I55
sg19
g1
(g20
g21
(dp102
I01
I6
sNI49
stRp103
(dp104
g18
I55
sg25
Nsg26
Nsg27
Nsbsg28
I2
sg29
F56
sbs(g8
S'contains(dresses)'
p105
tp106
g1
(g14
g3
NtRp107
(dp108
g17
F0.5
sg18
I55
sg19
g1
(g20
g21
(dp109
NI55
stRp110
(dp111
g18
I55
sg25
Nsg26
Nsg27
Nsbsg28
I2
sg29
F56
sbs(S'Dimension'
p112
S'contains(mm)'
p113
tp114
g1
(g14
g3
NtRp115
(dp116
g17
F0.5
sg18
I55
sg19
g1
(g20
g21
(dp117
I01
I1
sNI54
stRp118
(dp119
g18
I55
sg25
Nsg26
Nsg27
Nsbsg28
I2
sg29
F56
sbs(S'Dimension'
p120
S'contains(scale)'
p121
tp122
g1
(g14
g3
NtRp123
(dp124
g17
F0.5
sg18
I55
sg19
g1
(g20
g21
(dp125
I01
I1
sNI54
stRp126
(dp127
g18
I55
sg25
Nsg26
Nsg27
Nsbsg28
I2
sg29
F56
sbs(S'LookAndShape'
p128
S'contains(to)'
tp129
g1
(g14
g3
NtRp130
(dp131
g17
F0.5
sg18
I43
sg19
g1
(g20
g21
(dp132
I01
I1
sNI42
stRp133
(dp134
g18
I43
sg25
Nsg26
Nsg27
Nsbsg28
I2
sg29
F44
sbs(S'Dimension'
p135
S'contains(car)'
p136
tp137
g1
(g14
g3
NtRp138
(dp139
g17
F0.5
sg18
I55
sg19
g1
(g20
g21
(dp140
I01
I1
sNI54
stRp141
(dp142
g18
I55
sg25
Nsg26
Nsg27
Nsbsg28
I2
sg29
F56
sbs(S'LookAndShape'
p143
S'contains(beautiful)'
p144
tp145
g1
(g14
g3
NtRp146
(dp147
g17
F0.5
sg18
I43
sg19
g1
(g20
g21
(dp148
I01
I1
sNI42
stRp149
(dp150
g18
I43
sg25
Nsg26
Nsg27
Nsbsg28
I2
sg29
F44
sbs(S'LookAndShape'
S'contains(sweatshirt)'
p151
tp152
g1
(g14
g3
NtRp153
(dp154
g17
F0.5
sg18
I43
sg19
g1
(g20
g21
(dp155
I01
I1
sNI42
stRp156
(dp157
g18
I43
sg25
Nsg26
Nsg27
Nsbsg28
I2
sg29
F44
sbs(g8
S'contains(ball)'
p158
tp159
g1
(g14
g3
NtRp160
(dp161
g17
F0.5
sg18
I55
sg19
g1
(g20
g21
(dp162
NI55
stRp163
(dp164
g18
I55
sg25
Nsg26
Nsg27
Nsbsg28
I2
sg29
F56
sbs(g8
S'contains(bag)'
p165
tp166
g1
(g14
g3
NtRp167
(dp168
g17
F0.5
sg18
I55
sg19
g1
(g20
g21
(dp169
NI55
stRp170
(dp171
g18
I55
sg25
Nsg26
Nsg27
Nsbsg28
I2
sg29
F56
sbs(g9
S'contains(become)'
p172
tp173
g1
(g14
g3
NtRp174
(dp175
g17
F0.5
sg18
I43
sg19
g1
(g20
g21
(dp176
NI43
stRp177
(dp178
g18
I43
sg25
Nsg26
Nsg27
Nsbsg28
I2
sg29
F44
sbs(g8
S'contains(makes)'
p179
tp180
g1
(g14
g3
NtRp181
(dp182
g17
F0.5
sg18
I55
sg19
g1
(g20
g21
(dp183
NI55
stRp184
(dp185
g18
I55
sg25
Nsg26
Nsg27
Nsbsg28
I2
sg29
F56
sbs(g9
S'contains(lisbon)'
p186
tp187
g1
(g14
g3
NtRp188
(dp189
g17
F0.5
sg18
I43
sg19
g1
(g20
g21
(dp190
NI43
stRp191
(dp192
g18
I43
sg25
Nsg26
Nsg27
Nsbsg28
I2
sg29
F44
sbs(g9
S"contains(napoleon's)"
p193
tp194
g1
(g14
g3
NtRp195
(dp196
g17
F0.5
sg18
I43
sg19
g1
(g20
g21
(dp197
NI43
stRp198
(dp199
g18
I43
sg25
Nsg26
Nsg27
Nsbsg28
I2
sg29
F44
sbs(S'LookAndShape'
p200
S'contains(look)'
p201
tp202
g1
(g14
g3
NtRp203
(dp204
g17
F0.5
sg18
I43
sg19
g1
(g20
g21
(dp205
I01
I13
sNI30
stRp206
(dp207
g18
I43
sg25
Nsg26
Nsg27
Nsbsg28
I2
sg29
F44
sbs(g9
S'contains(you)'
p208
tp209
g1
(g14
g3
NtRp210
(dp211
g17
F0.5
sg18
I43
sg19
g1
(g20
g21
(dp212
NI43
stRp213
(dp214
g18
I43
sg25
Nsg26
Nsg27
Nsbsg28
I2
sg29
F44
sbs(S'Dimension'
p215
g172
tp216
g1
(g14
g3
NtRp217
(dp218
g17
F0.5
sg18
I55
sg19
g1
(g20
g21
(dp219
I01
I2
sNI53
stRp220
(dp221
g18
I55
sg25
Nsg26
Nsg27
Nsbsg28
I2
sg29
F56
sbs(S'Dimension'
p222
S'contains(amazon)'
p223
tp224
g1
(g14
g3
NtRp225
(dp226
g17
F0.5
sg18
I55
sg19
g1
(g20
g21
(dp227
I01
I1
sNI54
stRp228
(dp229
g18
I55
sg25
Nsg26
Nsg27
Nsbsg28
I2
sg29
F56
sbs(g9
S'contains(fly)'
p230
tp231
g1
(g14
g3
NtRp232
(dp233
g17
F0.5
sg18
I43
sg19
g1
(g20
g21
(dp234
NI43
stRp235
(dp236
g18
I43
sg25
Nsg26
Nsg27
Nsbsg28
I2
sg29
F44
sbs(S'LookAndShape'
S'contains(clocks)'
p237
tp238
g1
(g14
g3
NtRp239
(dp240
g17
F0.5
sg18
I43
sg19
g1
(g20
g21
(dp241
I01
I1
sNI42
stRp242
(dp243
g18
I43
sg25
Nsg26
Nsg27
Nsbsg28
I2
sg29
F44
sbs(g74
S'contains(to)'
tp244
g1
(g14
g3
NtRp245
(dp246
g17
F0.5
sg18
I55
sg19
g1
(g20
g21
(dp247
I01
I5
sNI50
stRp248
(dp249
g18
I55
sg25
Nsg26
Nsg27
Nsbsg28
I2
sg29
F56
sbs(S'Dimension'
p250
S"contains(einstein's)"
p251
tp252
g1
(g14
g3
NtRp253
(dp254
g17
F0.5
sg18
I55
sg19
g1
(g20
g21
(dp255
I01
I1
sNI54
stRp256
(dp257
g18
I55
sg25
Nsg26
Nsg27
Nsbsg28
I2
sg29
F56
sbs(g200
S'contains(glass)'
p258
tp259
g1
(g14
g3
NtRp260
(dp261
g17
F0.5
sg18
I43
sg19
g1
(g20
g21
(dp262
I01
I1
sNI42
stRp263
(dp264
g18
I43
sg25
Nsg26
Nsg27
Nsbsg28
I2
sg29
F44
sbs(g9
g223
tp265
g1
(g14
g3
NtRp266
(dp267
g17
F0.5
sg18
I43
sg19
g1
(g20
g21
(dp268
NI43
stRp269
(dp270
g18
I43
sg25
Nsg26
Nsg27
Nsbsg28
I2
sg29
F44
sbs(S'LookAndShape'
p271
S'contains(scissor)'
p272
tp273
g1
(g14
g3
NtRp274
(dp275
g17
F0.5
sg18
I43
sg19
g1
(g20
g21
(dp276
I01
I1
sNI42
stRp277
(dp278
g18
I43
sg25
Nsg26
Nsg27
Nsbsg28
I2
sg29
F44
sbs(S'Dimension'
p279
S'contains(near)'
p280
tp281
g1
(g14
g3
NtRp282
(dp283
g17
F0.5
sg18
I55
sg19
g1
(g20
g21
(dp284
I01
I3
sNI52
stRp285
(dp286
g18
I55
sg25
Nsg26
Nsg27
Nsbsg28
I2
sg29
F56
sbs(g9
S'contains(old)'
p287
tp288
g1
(g14
g3
NtRp289
(dp290
g17
F0.5
sg18
I43
sg19
g1
(g20
g21
(dp291
NI43
stRp292
(dp293
g18
I43
sg25
Nsg26
Nsg27
Nsbsg28
I2
sg29
F44
sbs(g9
S'contains(world)'
p294
tp295
g1
(g14
g3
NtRp296
(dp297
g17
F0.5
sg18
I43
sg19
g1
(g20
g21
(dp298
NI43
stRp299
(dp300
g18
I43
sg25
Nsg26
Nsg27
Nsbsg28
I2
sg29
F44
sbs(g12
S'contains(average)'
p301
tp302
g1
(g14
g3
NtRp303
(dp304
g17
F0.5
sg18
I55
sg19
g1
(g20
g21
(dp305
I01
I2
sNI53
stRp306
(dp307
g18
I55
sg25
Nsg26
Nsg27
Nsbsg28
I2
sg29
F56
sbs(g8
S'contains(clothes)'
p308
tp309
g1
(g14
g3
NtRp310
(dp311
g17
F0.5
sg18
I55
sg19
g1
(g20
g21
(dp312
NI55
stRp313
(dp314
g18
I55
sg25
Nsg26
Nsg27
Nsbsg28
I2
sg29
F56
sbs(g8
S'contains(contour)'
p315
tp316
g1
(g14
g3
NtRp317
(dp318
g17
F0.5
sg18
I55
sg19
g1
(g20
g21
(dp319
NI55
stRp320
(dp321
g18
I55
sg25
Nsg26
Nsg27
Nsbsg28
I2
sg29
F56
sbs(S'LookAndShape'
p322
S'contains(atom)'
p323
tp324
g1
(g14
g3
NtRp325
(dp326
g17
F0.5
sg18
I43
sg19
g1
(g20
g21
(dp327
I01
I1
sNI42
stRp328
(dp329
g18
I43
sg25
Nsg26
Nsg27
Nsbsg28
I2
sg29
F44
sbs(g9
S'contains(what)'
tp330
g1
(g14
g3
NtRp331
(dp332
g17
F0.5
sg18
I43
sg19
g1
(g20
g21
(dp333
I01
I30
sNI13
stRp334
(dp335
g18
I43
sg25
Nsg26
Nsg27
Nsbsg28
I2
sg29
F44
sbs(g9
S'contains(benches)'
p336
tp337
g1
(g14
g3
NtRp338
(dp339
g17
F0.5
sg18
I43
sg19
g1
(g20
g21
(dp340
I01
I1
sNI42
stRp341
(dp342
g18
I43
sg25
Nsg26
Nsg27
Nsbsg28
I2
sg29
F44
sbs(g9
S'contains(tiny)'
p343
tp344
g1
(g14
g3
NtRp345
(dp346
g17
F0.5
sg18
I43
sg19
g1
(g20
g21
(dp347
NI43
stRp348
(dp349
g18
I43
sg25
Nsg26
Nsg27
Nsbsg28
I2
sg29
F44
sbs(g74
g59
tp350
g1
(g14
g3
NtRp351
(dp352
g17
F0.5
sg18
I55
sg19
g1
(g20
g21
(dp353
I01
I1
sNI54
stRp354
(dp355
g18
I55
sg25
Nsg26
Nsg27
Nsbsg28
I2
sg29
F56
sbs(g8
g151
tp356
g1
(g14
g3
NtRp357
(dp358
g17
F0.5
sg18
I55
sg19
g1
(g20
g21
(dp359
NI55
stRp360
(dp361
g18
I55
sg25
Nsg26
Nsg27
Nsbsg28
I2
sg29
F56
sbs(S'LookAndShape'
p362
S'contains(bicycle)'
p363
tp364
g1
(g14
g3
NtRp365
(dp366
g17
F0.5
sg18
I43
sg19
g1
(g20
g21
(dp367
I01
I1
sNI42
stRp368
(dp369
g18
I43
sg25
Nsg26
Nsg27
Nsbsg28
I2
sg29
F44
sbs(g271
S'contains(is)'
tp370
g1
(g14
g3
NtRp371
(dp372
g17
F0.5
sg18
I43
sg19
g1
(g20
g21
(dp373
I01
I18
sNI25
stRp374
(dp375
g18
I43
sg25
Nsg26
Nsg27
Nsbsg28
I2
sg29
F44
sbs(S'Dimension'
p376
S'contains(madrid)'
p377
tp378
g1
(g14
g3
NtRp379
(dp380
g17
F0.5
sg18
I55
sg19
g1
(g20
g21
(dp381
I01
I1
sNI54
stRp382
(dp383
g18
I55
sg25
Nsg26
Nsg27
Nsbsg28
I2
sg29
F56
sbs(S'Dimension'
p384
S'contains(planet)'
p385
tp386
g1
(g14
g3
NtRp387
(dp388
g17
F0.5
sg18
I55
sg19
g1
(g20
g21
(dp389
I01
I1
sNI54
stRp390
(dp391
g18
I55
sg25
Nsg26
Nsg27
Nsbsg28
I2
sg29
F56
sbs(S'Dimension'
p392
S'contains(her)'
p393
tp394
g1
(g14
g3
NtRp395
(dp396
g17
F0.5
sg18
I55
sg19
g1
(g20
g21
(dp397
I01
I1
sNI54
stRp398
(dp399
g18
I55
sg25
Nsg26
Nsg27
Nsbsg28
I2
sg29
F56
sbs(S'Dimension'
p400
S'contains(squirrel)'
p401
tp402
g1
(g14
g3
NtRp403
(dp404
g17
F0.5
sg18
I55
sg19
g1
(g20
g21
(dp405
I01
I1
sNI54
stRp406
(dp407
g18
I55
sg25
Nsg26
Nsg27
Nsbsg28
I2
sg29
F56
sbs(S'Dimension'
p408
S'contains(california)'
p409
tp410
g1
(g14
g3
NtRp411
(dp412
g17
F0.5
sg18
I55
sg19
g1
(g20
g21
(dp413
I01
I1
sNI54
stRp414
(dp415
g18
I55
sg25
Nsg26
Nsg27
Nsbsg28
I2
sg29
F56
sbs(g8
S'contains(jeans)'
p416
tp417
g1
(g14
g3
NtRp418
(dp419
g17
F0.5
sg18
I55
sg19
g1
(g20
g21
(dp420
NI55
stRp421
(dp422
g18
I55
sg25
Nsg26
Nsg27
Nsbsg28
I2
sg29
F56
sbs(g12
S'contains(person)'
tp423
g1
(g14
g3
NtRp424
(dp425
g17
F0.5
sg18
I55
sg19
g1
(g20
g21
(dp426
I01
I1
sNI54
stRp427
(dp428
g18
I55
sg25
Nsg26
Nsg27
Nsbsg28
I2
sg29
F56
sbs(g9
g67
tp429
g1
(g14
g3
NtRp430
(dp431
g17
F0.5
sg18
I43
sg19
g1
(g20
g21
(dp432
NI43
stRp433
(dp434
g18
I43
sg25
Nsg26
Nsg27
Nsbsg28
I2
sg29
F44
sbs(g9
S'contains(earth)'
p435
tp436
g1
(g14
g3
NtRp437
(dp438
g17
F0.5
sg18
I43
sg19
g1
(g20
g21
(dp439
NI43
stRp440
(dp441
g18
I43
sg25
Nsg26
Nsg27
Nsbsg28
I2
sg29
F44
sbs(S'Dimension'
g52
tp442
g1
(g14
g3
NtRp443
(dp444
g17
F0.5
sg18
I55
sg19
g1
(g20
g21
(dp445
I01
I1
sNI54
stRp446
(dp447
g18
I55
sg25
Nsg26
Nsg27
Nsbsg28
I2
sg29
F56
sbs(S'LookAndShape'
S'contains(bikes)'
p448
tp449
g1
(g14
g3
NtRp450
(dp451
g17
F0.5
sg18
I43
sg19
g1
(g20
g21
(dp452
I01
I1
sNI42
stRp453
(dp454
g18
I43
sg25
Nsg26
Nsg27
Nsbsg28
I2
sg29
F44
sbs(S'Dimension'
p455
S'contains(japan)'
p456
tp457
g1
(g14
g3
NtRp458
(dp459
g17
F0.5
sg18
I55
sg19
g1
(g20
g21
(dp460
I01
I1
sNI54
stRp461
(dp462
g18
I55
sg25
Nsg26
Nsg27
Nsbsg28
I2
sg29
F56
sbs(g97
g37
tp463
g1
(g14
g3
NtRp464
(dp465
g17
F0.5
sg18
I55
sg19
g1
(g20
g21
(dp466
I01
I2
sNI53
stRp467
(dp468
g18
I55
sg25
Nsg26
Nsg27
Nsbsg28
I2
sg29
F56
sbs(g143
S'contains(person)'
tp469
g1
(g14
g3
NtRp470
(dp471
g17
F0.5
sg18
I43
sg19
g1
(g20
g21
(dp472
I01
I2
sNI41
stRp473
(dp474
g18
I43
sg25
Nsg26
Nsg27
Nsbsg28
I2
sg29
F44
sbs(g271
S'contains(a)'
tp475
g1
(g14
g3
NtRp476
(dp477
g17
F0.5
sg18
I43
sg19
g1
(g20
g21
(dp478
I01
I17
sNI26
stRp479
(dp480
g18
I43
sg25
Nsg26
Nsg27
Nsbsg28
I2
sg29
F44
sbs(g9
S'contains(big)'
p481
tp482
g1
(g14
g3
NtRp483
(dp484
g17
F0.5
sg18
I43
sg19
g1
(g20
g21
(dp485
NI43
stRp486
(dp487
g18
I43
sg25
Nsg26
Nsg27
Nsbsg28
I2
sg29
F44
sbs(g8
S'contains(form)'
p488
tp489
g1
(g14
g3
NtRp490
(dp491
g17
F0.5
sg18
I55
sg19
g1
(g20
g21
(dp492
NI55
stRp493
(dp494
g18
I55
sg25
Nsg26
Nsg27
Nsbsg28
I2
sg29
F56
sbs(g8
S'contains(draw)'
p495
tp496
g1
(g14
g3
NtRp497
(dp498
g17
F0.5
sg18
I55
sg19
g1
(g20
g21
(dp499
NI55
stRp500
(dp501
g18
I55
sg25
Nsg26
Nsg27
Nsbsg28
I2
sg29
F56
sbs(g9
g280
tp502
g1
(g14
g3
NtRp503
(dp504
g17
F0.5
sg18
I43
sg19
g1
(g20
g21
(dp505
NI43
stRp506
(dp507
g18
I43
sg25
Nsg26
Nsg27
Nsbsg28
I2
sg29
F44
sbs(S'Dimension'
p508
S'contains(without)'
p509
tp510
g1
(g14
g3
NtRp511
(dp512
g17
F0.5
sg18
I55
sg19
g1
(g20
g21
(dp513
I01
I1
sNI54
stRp514
(dp515
g18
I55
sg25
Nsg26
Nsg27
Nsbsg28
I2
sg29
F56
sbs(g508
S'contains(touching)'
p516
tp517
g1
(g14
g3
NtRp518
(dp519
g17
F0.5
sg18
I55
sg19
g1
(g20
g21
(dp520
I01
I1
sNI54
stRp521
(dp522
g18
I55
sg25
Nsg26
Nsg27
Nsbsg28
I2
sg29
F56
sbs(S'Dimension'
p523
S'contains(go)'
p524
tp525
g1
(g14
g3
NtRp526
(dp527
g17
F0.5
sg18
I55
sg19
g1
(g20
g21
(dp528
I01
I1
sNI54
stRp529
(dp530
g18
I55
sg25
Nsg26
Nsg27
Nsbsg28
I2
sg29
F56
sbs(g9
g524
tp531
g1
(g14
g3
NtRp532
(dp533
g17
F0.5
sg18
I43
sg19
g1
(g20
g21
(dp534
NI43
stRp535
(dp536
g18
I43
sg25
Nsg26
Nsg27
Nsbsg28
I2
sg29
F44
sbs(g8
S'contains(stairs)'
p537
tp538
g1
(g14
g3
NtRp539
(dp540
g17
F0.5
sg18
I55
sg19
g1
(g20
g21
(dp541
NI55
stRp542
(dp543
g18
I55
sg25
Nsg26
Nsg27
Nsbsg28
I2
sg29
F56
sbs(g9
S'contains(pakistan)'
p544
tp545
g1
(g14
g3
NtRp546
(dp547
g17
F0.5
sg18
I43
sg19
g1
(g20
g21
(dp548
NI43
stRp549
(dp550
g18
I43
sg25
Nsg26
Nsg27
Nsbsg28
I2
sg29
F44
sbs(g8
S'contains(tall)'
p551
tp552
g1
(g14
g3
NtRp553
(dp554
g17
F0.5
sg18
I55
sg19
g1
(g20
g21
(dp555
I01
I8
sNI47
stRp556
(dp557
g18
I55
sg25
Nsg26
Nsg27
Nsbsg28
I2
sg29
F56
sbs(g8
S'contains(doll)'
p558
tp559
g1
(g14
g3
NtRp560
(dp561
g17
F0.5
sg18
I55
sg19
g1
(g20
g21
(dp562
NI55
stRp563
(dp564
g18
I55
sg25
Nsg26
Nsg27
Nsbsg28
I2
sg29
F56
sbs(S'LookAndShape'
S'contains(stripper)'
p565
tp566
g1
(g14
g3
NtRp567
(dp568
g17
F0.5
sg18
I43
sg19
g1
(g20
g21
(dp569
I01
I1
sNI42
stRp570
(dp571
g18
I43
sg25
Nsg26
Nsg27
Nsbsg28
I2
sg29
F44
sbs(S'Dimension'
p572
S'contains(mountain)'
p573
tp574
g1
(g14
g3
NtRp575
(dp576
g17
F0.5
sg18
I55
sg19
g1
(g20
g21
(dp577
I01
I1
sNI54
stRp578
(dp579
g18
I55
sg25
Nsg26
Nsg27
Nsbsg28
I2
sg29
F56
sbs(g9
S'contains(bird)'
p580
tp581
g1
(g14
g3
NtRp582
(dp583
g17
F0.5
sg18
I43
sg19
g1
(g20
g21
(dp584
NI43
stRp585
(dp586
g18
I43
sg25
Nsg26
Nsg27
Nsbsg28
I2
sg29
F44
sbs(g215
S'contains(shirt)'
p587
tp588
g1
(g14
g3
NtRp589
(dp590
g17
F0.5
sg18
I55
sg19
g1
(g20
g21
(dp591
I01
I2
sNI53
stRp592
(dp593
g18
I55
sg25
Nsg26
Nsg27
Nsbsg28
I2
sg29
F56
sbs(g9
S'contains(fiji)'
p594
tp595
g1
(g14
g3
NtRp596
(dp597
g17
F0.5
sg18
I43
sg19
g1
(g20
g21
(dp598
NI43
stRp599
(dp600
g18
I43
sg25
Nsg26
Nsg27
Nsbsg28
I2
sg29
F44
sbs(S'LookAndShape'
p601
g179
tp602
g1
(g14
g3
NtRp603
(dp604
g17
F0.5
sg18
I43
sg19
g1
(g20
g21
(dp605
I01
I2
sNI41
stRp606
(dp607
g18
I43
sg25
Nsg26
Nsg27
Nsbsg28
I2
sg29
F44
sbs(S'LookAndShape'
S'contains(model)'
p608
tp609
g1
(g14
g3
NtRp610
(dp611
g17
F0.5
sg18
I43
sg19
g1
(g20
g21
(dp612
I01
I1
sNI42
stRp613
(dp614
g18
I43
sg25
Nsg26
Nsg27
Nsbsg28
I2
sg29
F44
sbs(S'Dimension'
p615
S"contains(person's)"
p616
tp617
g1
(g14
g3
NtRp618
(dp619
g17
F0.5
sg18
I55
sg19
g1
(g20
g21
(dp620
I01
I1
sNI54
stRp621
(dp622
g18
I55
sg25
Nsg26
Nsg27
Nsbsg28
I2
sg29
F56
sbs(g8
S'contains(do)'
p623
tp624
g1
(g14
g3
NtRp625
(dp626
g17
F0.5
sg18
I55
sg19
g1
(g20
g21
(dp627
NI55
stRp628
(dp629
g18
I55
sg25
Nsg26
Nsg27
Nsbsg28
I2
sg29
F56
sbs(S'Dimension'
S'contains(they)'
p630
tp631
g1
(g14
g3
NtRp632
(dp633
g17
F0.5
sg18
I55
sg19
g1
(g20
g21
(dp634
I01
I2
sNI53
stRp635
(dp636
g18
I55
sg25
Nsg26
Nsg27
Nsbsg28
I2
sg29
F56
sbs(g74
S'contains(grow)'
p637
tp638
g1
(g14
g3
NtRp639
(dp640
g17
F0.5
sg18
I55
sg19
g1
(g20
g21
(dp641
I01
I1
sNI54
stRp642
(dp643
g18
I55
sg25
Nsg26
Nsg27
Nsbsg28
I2
sg29
F56
sbs(g322
S'contains(structure)'
p644
tp645
g1
(g14
g3
NtRp646
(dp647
g17
F0.5
sg18
I43
sg19
g1
(g20
g21
(dp648
I01
I2
sNI41
stRp649
(dp650
g18
I43
sg25
Nsg26
Nsg27
Nsbsg28
I2
sg29
F44
sbs(S'LookAndShape'
p651
S'contains(silhouette)'
p652
tp653
g1
(g14
g3
NtRp654
(dp655
g17
F0.5
sg18
I43
sg19
g1
(g20
g21
(dp656
I01
I1
sNI42
stRp657
(dp658
g18
I43
sg25
Nsg26
Nsg27
Nsbsg28
I2
sg29
F44
sbs(g9
S'contains(soccer)'
p659
tp660
g1
(g14
g3
NtRp661
(dp662
g17
F0.5
sg18
I43
sg19
g1
(g20
g21
(dp663
NI43
stRp664
(dp665
g18
I43
sg25
Nsg26
Nsg27
Nsbsg28
I2
sg29
F44
sbs(S'LookAndShape'
S'contains(bottles)'
p666
tp667
g1
(g14
g3
NtRp668
(dp669
g17
F0.5
sg18
I43
sg19
g1
(g20
g21
(dp670
I01
I1
sNI42
stRp671
(dp672
g18
I43
sg25
Nsg26
Nsg27
Nsbsg28
I2
sg29
F44
sbs(g9
S'contains(biggest)'
p673
tp674
g1
(g14
g3
NtRp675
(dp676
g17
F0.5
sg18
I43
sg19
g1
(g20
g21
(dp677
NI43
stRp678
(dp679
g18
I43
sg25
Nsg26
Nsg27
Nsbsg28
I2
sg29
F44
sbs(g9
S'contains(short)'
p680
tp681
g1
(g14
g3
NtRp682
(dp683
g17
F0.5
sg18
I43
sg19
g1
(g20
g21
(dp684
NI43
stRp685
(dp686
g18
I43
sg25
Nsg26
Nsg27
Nsbsg28
I2
sg29
F44
sbs(S'LookAndShape'
S'contains(pen)'
p687
tp688
g1
(g14
g3
NtRp689
(dp690
g17
F0.5
sg18
I43
sg19
g1
(g20
g21
(dp691
I01
I1
sNI42
stRp692
(dp693
g18
I43
sg25
Nsg26
Nsg27
Nsbsg28
I2
sg29
F44
sbs(S'LookAndShape'
p694
S'contains(of)'
tp695
g1
(g14
g3
NtRp696
(dp697
g17
F0.5
sg18
I43
sg19
g1
(g20
g21
(dp698
I01
I8
sNI35
stRp699
(dp700
g18
I43
sg25
Nsg26
Nsg27
Nsbsg28
I2
sg29
F44
sbs(g455
S'contains(it)'
p701
tp702
g1
(g14
g3
NtRp703
(dp704
g17
F0.5
sg18
I55
sg19
g1
(g20
g21
(dp705
I01
I1
sNI54
stRp706
(dp707
g18
I55
sg25
Nsg26
Nsg27
Nsbsg28
I2
sg29
F56
sbs(g9
g45
tp708
g1
(g14
g3
NtRp709
(dp710
g17
F0.5
sg18
I43
sg19
g1
(g20
g21
(dp711
NI43
stRp712
(dp713
g18
I43
sg25
Nsg26
Nsg27
Nsbsg28
I2
sg29
F44
sbs(g279
S'contains(lightnings)'
p714
tp715
g1
(g14
g3
NtRp716
(dp717
g17
F0.5
sg18
I55
sg19
g1
(g20
g21
(dp718
I01
I1
sNI54
stRp719
(dp720
g18
I55
sg25
Nsg26
Nsg27
Nsbsg28
I2
sg29
F56
sbs(g9
S'contains(mount)'
p721
tp722
g1
(g14
g3
NtRp723
(dp724
g17
F0.5
sg18
I43
sg19
g1
(g20
g21
(dp725
NI43
stRp726
(dp727
g18
I43
sg25
Nsg26
Nsg27
Nsbsg28
I2
sg29
F44
sbs(g9
S'contains(arc)'
p728
tp729
g1
(g14
g3
NtRp730
(dp731
g17
F0.5
sg18
I43
sg19
g1
(g20
g21
(dp732
NI43
stRp733
(dp734
g18
I43
sg25
Nsg26
Nsg27
Nsbsg28
I2
sg29
F44
sbs(S'LookAndShape'
S'contains(buildings)'
p735
tp736
g1
(g14
g3
NtRp737
(dp738
g17
F0.5
sg18
I43
sg19
g1
(g20
g21
(dp739
I01
I1
sNI42
stRp740
(dp741
g18
I43
sg25
Nsg26
Nsg27
Nsbsg28
I2
sg29
F44
sbs(g523
g580
tp742
g1
(g14
g3
NtRp743
(dp744
g17
F0.5
sg18
I55
sg19
g1
(g20
g21
(dp745
I01
I1
sNI54
stRp746
(dp747
g18
I55
sg25
Nsg26
Nsg27
Nsbsg28
I2
sg29
F56
sbs(g9
g573
tp748
g1
(g14
g3
NtRp749
(dp750
g17
F0.5
sg18
I43
sg19
g1
(g20
g21
(dp751
NI43
stRp752
(dp753
g18
I43
sg25
Nsg26
Nsg27
Nsbsg28
I2
sg29
F44
sbs(g9
S'contains(are)'
tp754
g1
(g14
g3
NtRp755
(dp756
g17
F0.5
sg18
I43
sg19
g1
(g20
g21
(dp757
I01
I12
sNI31
stRp758
(dp759
g18
I43
sg25
Nsg26
Nsg27
Nsbsg28
I2
sg29
F44
sbs(g200
S'contains(does)'
tp760
g1
(g14
g3
NtRp761
(dp762
g17
F0.5
sg18
I43
sg19
g1
(g20
g21
(dp763
I01
I8
sNI35
stRp764
(dp765
g18
I43
sg25
Nsg26
Nsg27
Nsbsg28
I2
sg29
F44
sbs(g9
S'contains(capacity)'
p766
tp767
g1
(g14
g3
NtRp768
(dp769
g17
F0.5
sg18
I43
sg19
g1
(g20
g21
(dp770
NI43
stRp771
(dp772
g18
I43
sg25
Nsg26
Nsg27
Nsbsg28
I2
sg29
F44
sbs(g9
S'contains(field)'
p773
tp774
g1
(g14
g3
NtRp775
(dp776
g17
F0.5
sg18
I43
sg19
g1
(g20
g21
(dp777
NI43
stRp778
(dp779
g18
I43
sg25
Nsg26
Nsg27
Nsbsg28
I2
sg29
F44
sbs(g97
S'contains(far)'
p780
tp781
g1
(g14
g3
NtRp782
(dp783
g17
F0.5
sg18
I55
sg19
g1
(g20
g21
(dp784
I01
I6
sNI49
stRp785
(dp786
g18
I55
sg25
Nsg26
Nsg27
Nsbsg28
I2
sg29
F56
sbs(g8
S'contains(men)'
p787
tp788
g1
(g14
g3
NtRp789
(dp790
g17
F0.5
sg18
I55
sg19
g1
(g20
g21
(dp791
NI55
stRp792
(dp793
g18
I55
sg25
Nsg26
Nsg27
Nsbsg28
I2
sg29
F56
sbs(g112
S'contains(order)'
p794
tp795
g1
(g14
g3
NtRp796
(dp797
g17
F0.5
sg18
I55
sg19
g1
(g20
g21
(dp798
I01
I3
sNI52
stRp799
(dp800
g18
I55
sg25
Nsg26
Nsg27
Nsbsg28
I2
sg29
F56
sbs(g9
S'contains(stomach)'
p801
tp802
g1
(g14
g3
NtRp803
(dp804
g17
F0.5
sg18
I43
sg19
g1
(g20
g21
(dp805
NI43
stRp806
(dp807
g18
I43
sg25
Nsg26
Nsg27
Nsbsg28
I2
sg29
F44
sbs(g9
g794
tp808
g1
(g14
g3
NtRp809
(dp810
g17
F0.5
sg18
I43
sg19
g1
(g20
g21
(dp811
NI43
stRp812
(dp813
g18
I43
sg25
Nsg26
Nsg27
Nsbsg28
I2
sg29
F44
sbs(S'LookAndShape'
p814
S'contains(building)'
p815
tp816
g1
(g14
g3
NtRp817
(dp818
g17
F0.5
sg18
I43
sg19
g1
(g20
g21
(dp819
I01
I1
sNI42
stRp820
(dp821
g18
I43
sg25
Nsg26
Nsg27
Nsbsg28
I2
sg29
F44
sbs(g9
S'contains(water)'
p822
tp823
g1
(g14
g3
NtRp824
(dp825
g17
F0.5
sg18
I43
sg19
g1
(g20
g21
(dp826
NI43
stRp827
(dp828
g18
I43
sg25
Nsg26
Nsg27
Nsbsg28
I2
sg29
F44
sbs(g8
S'contains(shirts)'
p829
tp830
g1
(g14
g3
NtRp831
(dp832
g17
F0.5
sg18
I55
sg19
g1
(g20
g21
(dp833
NI55
stRp834
(dp835
g18
I55
sg25
Nsg26
Nsg27
Nsbsg28
I2
sg29
F56
sbs(g9
S'contains(hand)'
p836
tp837
g1
(g14
g3
NtRp838
(dp839
g17
F0.5
sg18
I43
sg19
g1
(g20
g21
(dp840
NI43
stRp841
(dp842
g18
I43
sg25
Nsg26
Nsg27
Nsbsg28
I2
sg29
F44
sbs(g9
S'contains(air)'
p843
tp844
g1
(g14
g3
NtRp845
(dp846
g17
F0.5
sg18
I43
sg19
g1
(g20
g21
(dp847
NI43
stRp848
(dp849
g18
I43
sg25
Nsg26
Nsg27
Nsbsg28
I2
sg29
F44
sbs(S'LookAndShape'
S'contains(hair)'
p850
tp851
g1
(g14
g3
NtRp852
(dp853
g17
F0.5
sg18
I43
sg19
g1
(g20
g21
(dp854
I01
I1
sNI42
stRp855
(dp856
g18
I43
sg25
Nsg26
Nsg27
Nsbsg28
I2
sg29
F44
sbs(g8
g850
tp857
g1
(g14
g3
NtRp858
(dp859
g17
F0.5
sg18
I55
sg19
g1
(g20
g21
(dp860
NI55
stRp861
(dp862
g18
I55
sg25
Nsg26
Nsg27
Nsbsg28
I2
sg29
F56
sbs(g8
S'contains(apple)'
p863
tp864
g1
(g14
g3
NtRp865
(dp866
g17
F0.5
sg18
I55
sg19
g1
(g20
g21
(dp867
NI55
stRp868
(dp869
g18
I55
sg25
Nsg26
Nsg27
Nsbsg28
I2
sg29
F56
sbs(g8
S'contains(lady)'
p870
tp871
g1
(g14
g3
NtRp872
(dp873
g17
F0.5
sg18
I55
sg19
g1
(g20
g21
(dp874
NI55
stRp875
(dp876
g18
I55
sg25
Nsg26
Nsg27
Nsbsg28
I2
sg29
F56
sbs(S'Dimension'
g822
tp877
g1
(g14
g3
NtRp878
(dp879
g17
F0.5
sg18
I55
sg19
g1
(g20
g21
(dp880
I01
I1
sNI54
stRp881
(dp882
g18
I55
sg25
Nsg26
Nsg27
Nsbsg28
I2
sg29
F56
sbs(g9
g714
tp883
g1
(g14
g3
NtRp884
(dp885
g17
F0.5
sg18
I43
sg19
g1
(g20
g21
(dp886
NI43
stRp887
(dp888
g18
I43
sg25
Nsg26
Nsg27
Nsbsg28
I2
sg29
F44
sbs(g9
g121
tp889
g1
(g14
g3
NtRp890
(dp891
g17
F0.5
sg18
I43
sg19
g1
(g20
g21
(dp892
NI43
stRp893
(dp894
g18
I43
sg25
Nsg26
Nsg27
Nsbsg28
I2
sg29
F44
sbs(g615
g801
tp895
g1
(g14
g3
NtRp896
(dp897
g17
F0.5
sg18
I55
sg19
g1
(g20
g21
(dp898
I01
I1
sNI54
stRp899
(dp900
g18
I55
sg25
Nsg26
Nsg27
Nsbsg28
I2
sg29
F56
sbs(g651
g870
tp901
g1
(g14
g3
NtRp902
(dp903
g17
F0.5
sg18
I43
sg19
g1
(g20
g21
(dp904
I01
I1
sNI42
stRp905
(dp906
g18
I43
sg25
Nsg26
Nsg27
Nsbsg28
I2
sg29
F44
sbs(S'Dimension'
p907
S'contains(regular)'
p908
tp909
g1
(g14
g3
NtRp910
(dp911
g17
F0.5
sg18
I55
sg19
g1
(g20
g21
(dp912
I01
I3
sNI52
stRp913
(dp914
g18
I55
sg25
Nsg26
Nsg27
Nsbsg28
I2
sg29
F56
sbs(g694
S'contains(the)'
tp915
g1
(g14
g3
NtRp916
(dp917
g17
F0.5
sg18
I43
sg19
g1
(g20
g21
(dp918
I01
I11
sNI32
stRp919
(dp920
g18
I43
sg25
Nsg26
Nsg27
Nsbsg28
I2
sg29
F44
sbs(S'Dimension'
p921
S'contains(of)'
tp922
g1
(g14
g3
NtRp923
(dp924
g17
F0.5
sg18
I55
sg19
g1
(g20
g21
(dp925
I01
I21
sNI34
stRp926
(dp927
g18
I55
sg25
Nsg26
Nsg27
Nsbsg28
I2
sg29
F56
sbs(g694
S'contains(shape)'
p928
tp929
g1
(g14
g3
NtRp930
(dp931
g17
F0.5
sg18
I43
sg19
g1
(g20
g21
(dp932
I01
I1
sNI42
stRp933
(dp934
g18
I43
sg25
Nsg26
Nsg27
Nsbsg28
I2
sg29
F44
sbs(g250
S'contains(feet)'
p935
tp936
g1
(g14
g3
NtRp937
(dp938
g17
F0.5
sg18
I55
sg19
g1
(g20
g21
(dp939
I01
I3
sNI52
stRp940
(dp941
g18
I55
sg25
Nsg26
Nsg27
Nsbsg28
I2
sg29
F56
sbs(S'Dimension'
p942
S'contains(inches)'
p943
tp944
g1
(g14
g3
NtRp945
(dp946
g17
F0.5
sg18
I55
sg19
g1
(g20
g21
(dp947
I01
I1
sNI54
stRp948
(dp949
g18
I55
sg25
Nsg26
Nsg27
Nsbsg28
I2
sg29
F56
sbs(g222
S'contains(extension)'
p950
tp951
g1
(g14
g3
NtRp952
(dp953
g17
F0.5
sg18
I55
sg19
g1
(g20
g21
(dp954
I01
I2
sNI53
stRp955
(dp956
g18
I55
sg25
Nsg26
Nsg27
Nsbsg28
I2
sg29
F56
sbs(g9
S'contains(can)'
p957
tp958
g1
(g14
g3
NtRp959
(dp960
g17
F0.5
sg18
I43
sg19
g1
(g20
g21
(dp961
NI43
stRp962
(dp963
g18
I43
sg25
Nsg26
Nsg27
Nsbsg28
I2
sg29
F44
sbs(S'Dimension'
p964
g659
tp965
g1
(g14
g3
NtRp966
(dp967
g17
F0.5
sg18
I55
sg19
g1
(g20
g21
(dp968
I01
I1
sNI54
stRp969
(dp970
g18
I55
sg25
Nsg26
Nsg27
Nsbsg28
I2
sg29
F56
sbs(g9
S'contains(kilowatt)'
p971
tp972
g1
(g14
g3
NtRp973
(dp974
g17
F0.5
sg18
I43
sg19
g1
(g20
g21
(dp975
NI43
stRp976
(dp977
g18
I43
sg25
Nsg26
Nsg27
Nsbsg28
I2
sg29
F44
sbs(g8
S'contains(folder)'
p978
tp979
g1
(g14
g3
NtRp980
(dp981
g17
F0.5
sg18
I55
sg19
g1
(g20
g21
(dp982
NI55
stRp983
(dp984
g18
I55
sg25
Nsg26
Nsg27
Nsbsg28
I2
sg29
F56
sbs(S'Dimension'
p985
S'contains(magnitude)'
p986
tp987
g1
(g14
g3
NtRp988
(dp989
g17
F0.5
sg18
I55
sg19
g1
(g20
g21
(dp990
I01
I4
sNI51
stRp991
(dp992
g18
I55
sg25
Nsg26
Nsg27
Nsbsg28
I2
sg29
F56
sbs(g8
g336
tp993
g1
(g14
g3
NtRp994
(dp995
g17
F0.5
sg18
I55
sg19
g1
(g20
g21
(dp996
NI55
stRp997
(dp998
g18
I55
sg25
Nsg26
Nsg27
Nsbsg28
I2
sg29
F56
sbs(g9
g616
tp999
g1
(g14
g3
NtRp1000
(dp1001
g17
F0.5
sg18
I43
sg19
g1
(g20
g21
(dp1002
NI43
stRp1003
(dp1004
g18
I43
sg25
Nsg26
Nsg27
Nsbsg28
I2
sg29
F44
sbs(g8
g323
tp1005
g1
(g14
g3
NtRp1006
(dp1007
g17
F0.5
sg18
I55
sg19
g1
(g20
g21
(dp1008
NI55
stRp1009
(dp1010
g18
I55
sg25
Nsg26
Nsg27
Nsbsg28
I2
sg29
F56
sbs(S'Dimension'
p1011
S'contains(bug)'
p1012
tp1013
g1
(g14
g3
NtRp1014
(dp1015
g17
F0.5
sg18
I55
sg19
g1
(g20
g21
(dp1016
I01
I1
sNI54
stRp1017
(dp1018
g18
I55
sg25
Nsg26
Nsg27
Nsbsg28
I2
sg29
F56
sbs(g9
S'contains(?)'
tp1019
g1
(g14
g3
NtRp1020
(dp1021
g17
F0.5
sg18
I43
sg19
g1
(g20
g21
(dp1022
I01
I43
stRp1023
(dp1024
g18
I43
sg25
Nsg26
Nsg27
Nsbsg28
I2
sg29
F44
sbs(g9
S'contains(boston)'
p1025
tp1026
g1
(g14
g3
NtRp1027
(dp1028
g17
F0.5
sg18
I43
sg19
g1
(g20
g21
(dp1029
NI43
stRp1030
(dp1031
g18
I43
sg25
Nsg26
Nsg27
Nsbsg28
I2
sg29
F44
sbs(g8
S'contains(outline)'
p1032
tp1033
g1
(g14
g3
NtRp1034
(dp1035
g17
F0.5
sg18
I55
sg19
g1
(g20
g21
(dp1036
NI55
stRp1037
(dp1038
g18
I55
sg25
Nsg26
Nsg27
Nsbsg28
I2
sg29
F56
sbs(g9
g943
tp1039
g1
(g14
g3
NtRp1040
(dp1041
g17
F0.5
sg18
I43
sg19
g1
(g20
g21
(dp1042
NI43
stRp1043
(dp1044
g18
I43
sg25
Nsg26
Nsg27
Nsbsg28
I2
sg29
F44
sbs(S'Dimension'
S'contains(lamp)'
p1045
tp1046
g1
(g14
g3
NtRp1047
(dp1048
g17
F0.5
sg18
I55
sg19
g1
(g20
g21
(dp1049
I01
I1
sNI54
stRp1050
(dp1051
g18
I55
sg25
Nsg26
Nsg27
Nsbsg28
I2
sg29
F56
sbs(g400
S'contains(jump)'
p1052
tp1053
g1
(g14
g3
NtRp1054
(dp1055
g17
F0.5
sg18
I55
sg19
g1
(g20
g21
(dp1056
I01
I1
sNI54
stRp1057
(dp1058
g18
I55
sg25
Nsg26
Nsg27
Nsbsg28
I2
sg29
F56
sbs(g9
S'contains(highway)'
p1059
tp1060
g1
(g14
g3
NtRp1061
(dp1062
g17
F0.5
sg18
I43
sg19
g1
(g20
g21
(dp1063
NI43
stRp1064
(dp1065
g18
I43
sg25
Nsg26
Nsg27
Nsbsg28
I2
sg29
F44
sbs(g8
g928
tp1066
g1
(g14
g3
NtRp1067
(dp1068
g17
F0.5
sg18
I55
sg19
g1
(g20
g21
(dp1069
NI55
stRp1070
(dp1071
g18
I55
sg25
Nsg26
Nsg27
Nsbsg28
I2
sg29
F56
sbs(g8
g565
tp1072
g1
(g14
g3
NtRp1073
(dp1074
g17
F0.5
sg18
I55
sg19
g1
(g20
g21
(dp1075
NI55
stRp1076
(dp1077
g18
I55
sg25
Nsg26
Nsg27
Nsbsg28
I2
sg29
F56
sbs(g8
g666
tp1078
g1
(g14
g3
NtRp1079
(dp1080
g17
F0.5
sg18
I55
sg19
g1
(g20
g21
(dp1081
NI55
stRp1082
(dp1083
g18
I55
sg25
Nsg26
Nsg27
Nsbsg28
I2
sg29
F56
sbs(g30
S'contains(be)'
p1084
tp1085
g1
(g14
g3
NtRp1086
(dp1087
g17
F0.5
sg18
I55
sg19
g1
(g20
g21
(dp1088
I01
I5
sNI50
stRp1089
(dp1090
g18
I55
sg25
Nsg26
Nsg27
Nsbsg28
I2
sg29
F56
sbs(S'LookAndShape'
p1091
S'contains(ugly)'
p1092
tp1093
g1
(g14
g3
NtRp1094
(dp1095
g17
F0.5
sg18
I43
sg19
g1
(g20
g21
(dp1096
I01
I2
sNI41
stRp1097
(dp1098
g18
I43
sg25
Nsg26
Nsg27
Nsbsg28
I2
sg29
F44
sbs(g8
g258
tp1099
g1
(g14
g3
NtRp1100
(dp1101
g17
F0.5
sg18
I55
sg19
g1
(g20
g21
(dp1102
NI55
stRp1103
(dp1104
g18
I55
sg25
Nsg26
Nsg27
Nsbsg28
I2
sg29
F56
sbs(S'LookAndShape'
S'contains(snow)'
p1105
tp1106
g1
(g14
g3
NtRp1107
(dp1108
g17
F0.5
sg18
I43
sg19
g1
(g20
g21
(dp1109
I01
I1
sNI42
stRp1110
(dp1111
g18
I43
sg25
Nsg26
Nsg27
Nsbsg28
I2
sg29
F44
sbs(g215
S'contains(laundry)'
p1112
tp1113
g1
(g14
g3
NtRp1114
(dp1115
g17
F0.5
sg18
I55
sg19
g1
(g20
g21
(dp1116
I01
I2
sNI53
stRp1117
(dp1118
g18
I55
sg25
Nsg26
Nsg27
Nsbsg28
I2
sg29
F56
sbs(g921
S'contains(that)'
tp1119
g1
(g14
g3
NtRp1120
(dp1121
g17
F0.5
sg18
I55
sg19
g1
(g20
g21
(dp1122
I01
I3
sNI52
stRp1123
(dp1124
g18
I55
sg25
Nsg26
Nsg27
Nsbsg28
I2
sg29
F56
sbs(g9
S'contains(european)'
p1125
tp1126
g1
(g14
g3
NtRp1127
(dp1128
g17
F0.5
sg18
I43
sg19
g1
(g20
g21
(dp1129
NI43
stRp1130
(dp1131
g18
I43
sg25
Nsg26
Nsg27
Nsbsg28
I2
sg29
F44
sbs(g8
g448
tp1132
g1
(g14
g3
NtRp1133
(dp1134
g17
F0.5
sg18
I55
sg19
g1
(g20
g21
(dp1135
NI55
stRp1136
(dp1137
g18
I55
sg25
Nsg26
Nsg27
Nsbsg28
I2
sg29
F56
sbs(g455
S'contains(spain)'
p1138
tp1139
g1
(g14
g3
NtRp1140
(dp1141
g17
F0.5
sg18
I55
sg19
g1
(g20
g21
(dp1142
I01
I1
sNI54
stRp1143
(dp1144
g18
I55
sg25
Nsg26
Nsg27
Nsbsg28
I2
sg29
F56
sbs(g8
g201
tp1145
g1
(g14
g3
NtRp1146
(dp1147
g17
F0.5
sg18
I55
sg19
g1
(g20
g21
(dp1148
NI55
stRp1149
(dp1150
g18
I55
sg25
Nsg26
Nsg27
Nsbsg28
I2
sg29
F56
sbs(g215
S'contains(after)'
p1151
tp1152
g1
(g14
g3
NtRp1153
(dp1154
g17
F0.5
sg18
I55
sg19
g1
(g20
g21
(dp1155
I01
I2
sNI53
stRp1156
(dp1157
g18
I55
sg25
Nsg26
Nsg27
Nsbsg28
I2
sg29
F56
sbs(g97
g594
tp1158
g1
(g14
g3
NtRp1159
(dp1160
g17
F0.5
sg18
I55
sg19
g1
(g20
g21
(dp1161
I01
I1
sNI54
stRp1162
(dp1163
g18
I55
sg25
Nsg26
Nsg27
Nsbsg28
I2
sg29
F56
sbs(g9
g456
tp1164
g1
(g14
g3
NtRp1165
(dp1166
g17
F0.5
sg18
I43
sg19
g1
(g20
g21
(dp1167
NI43
stRp1168
(dp1169
g18
I43
sg25
Nsg26
Nsg27
Nsbsg28
I2
sg29
F44
sbs(g921
S'contains(size)'
p1170
tp1171
g1
(g14
g3
NtRp1172
(dp1173
g17
F0.5
sg18
I55
sg19
g1
(g20
g21
(dp1174
I01
I10
sNI45
stRp1175
(dp1176
g18
I55
sg25
Nsg26
Nsg27
Nsbsg28
I2
sg29
F56
sbs(g9
S'contains(london)'
p1177
tp1178
g1
(g14
g3
NtRp1179
(dp1180
g17
F0.5
sg18
I43
sg19
g1
(g20
g21
(dp1181
NI43
stRp1182
(dp1183
g18
I43
sg25
Nsg26
Nsg27
Nsbsg28
I2
sg29
F44
sbs(g985
S'contains(normal)'
p1184
tp1185
g1
(g14
g3
NtRp1186
(dp1187
g17
F0.5
sg18
I55
sg19
g1
(g20
g21
(dp1188
I01
I1
sNI54
stRp1189
(dp1190
g18
I55
sg25
Nsg26
Nsg27
Nsbsg28
I2
sg29
F56
sbs(S'Dimension'
p1191
S'contains(train)'
p1192
tp1193
g1
(g14
g3
NtRp1194
(dp1195
g17
F0.5
sg18
I55
sg19
g1
(g20
g21
(dp1196
I01
I1
sNI54
stRp1197
(dp1198
g18
I55
sg25
Nsg26
Nsg27
Nsbsg28
I2
sg29
F56
sbs(g9
g90
tp1199
g1
(g14
g3
NtRp1200
(dp1201
g17
F0.5
sg18
I43
sg19
g1
(g20
g21
(dp1202
NI43
stRp1203
(dp1204
g18
I43
sg25
Nsg26
Nsg27
Nsbsg28
I2
sg29
F44
sbs(g250
S'contains(was)'
p1205
tp1206
g1
(g14
g3
NtRp1207
(dp1208
g17
F0.5
sg18
I55
sg19
g1
(g20
g21
(dp1209
I01
I1
sNI54
stRp1210
(dp1211
g18
I55
sg25
Nsg26
Nsg27
Nsbsg28
I2
sg29
F56
sbs(g508
S'contains(magnets)'
p1212
tp1213
g1
(g14
g3
NtRp1214
(dp1215
g17
F0.5
sg18
I55
sg19
g1
(g20
g21
(dp1216
I01
I1
sNI54
stRp1217
(dp1218
g18
I55
sg25
Nsg26
Nsg27
Nsbsg28
I2
sg29
F56
sbs(g9
S'contains(ants)'
p1219
tp1220
g1
(g14
g3
NtRp1221
(dp1222
g17
F0.5
sg18
I43
sg19
g1
(g20
g21
(dp1223
NI43
stRp1224
(dp1225
g18
I43
sg25
Nsg26
Nsg27
Nsbsg28
I2
sg29
F44
sbs(g9
g377
tp1226
g1
(g14
g3
NtRp1227
(dp1228
g17
F0.5
sg18
I43
sg19
g1
(g20
g21
(dp1229
NI43
stRp1230
(dp1231
g18
I43
sg25
Nsg26
Nsg27
Nsbsg28
I2
sg29
F44
sbs(g9
g75
tp1232
g1
(g14
g3
NtRp1233
(dp1234
g17
F0.5
sg18
I43
sg19
g1
(g20
g21
(dp1235
NI43
stRp1236
(dp1237
g18
I43
sg25
Nsg26
Nsg27
Nsbsg28
I2
sg29
F44
sbs(S'Dimension'
S'contains(nm)'
p1238
tp1239
g1
(g14
g3
NtRp1240
(dp1241
g17
F0.5
sg18
I55
sg19
g1
(g20
g21
(dp1242
I01
I1
sNI54
stRp1243
(dp1244
g18
I55
sg25
Nsg26
Nsg27
Nsbsg28
I2
sg29
F56
sbs(g66
g294
tp1245
g1
(g14
g3
NtRp1246
(dp1247
g17
F0.5
sg18
I55
sg19
g1
(g20
g21
(dp1248
I01
I1
sNI54
stRp1249
(dp1250
g18
I55
sg25
Nsg26
Nsg27
Nsbsg28
I2
sg29
F56
sbs(S'LookAndShape'
p1251
g416
tp1252
g1
(g14
g3
NtRp1253
(dp1254
g17
F0.5
sg18
I43
sg19
g1
(g20
g21
(dp1255
I01
I1
sNI42
stRp1256
(dp1257
g18
I43
sg25
Nsg26
Nsg27
Nsbsg28
I2
sg29
F44
sbs(g30
S'contains(human)'
p1258
tp1259
g1
(g14
g3
NtRp1260
(dp1261
g17
F0.5
sg18
I55
sg19
g1
(g20
g21
(dp1262
I01
I2
sNI53
stRp1263
(dp1264
g18
I55
sg25
Nsg26
Nsg27
Nsbsg28
I2
sg29
F56
sbs(S'Dimension'
p1265
S'contains(package)'
p1266
tp1267
g1
(g14
g3
NtRp1268
(dp1269
g17
F0.5
sg18
I55
sg19
g1
(g20
g21
(dp1270
I01
I1
sNI54
stRp1271
(dp1272
g18
I55
sg25
Nsg26
Nsg27
Nsbsg28
I2
sg29
F56
sbs(S'LookAndShape'
g308
tp1273
g1
(g14
g3
NtRp1274
(dp1275
g17
F0.5
sg18
I43
sg19
g1
(g20
g21
(dp1276
I01
I1
sNI42
stRp1277
(dp1278
g18
I43
sg25
Nsg26
Nsg27
Nsbsg28
I2
sg29
F44
sbs(g9
g409
tp1279
g1
(g14
g3
NtRp1280
(dp1281
g17
F0.5
sg18
I43
sg19
g1
(g20
g21
(dp1282
NI43
stRp1283
(dp1284
g18
I43
sg25
Nsg26
Nsg27
Nsbsg28
I2
sg29
F44
sbs(g8
S'contains(how)'
tp1285
g1
(g14
g3
NtRp1286
(dp1287
g17
F0.5
sg18
I55
sg19
g1
(g20
g21
(dp1288
I01
I34
sNI21
stRp1289
(dp1290
g18
I55
sg25
Nsg26
Nsg27
Nsbsg28
I2
sg29
F56
sbs(g8
g687
tp1291
g1
(g14
g3
NtRp1292
(dp1293
g17
F0.5
sg18
I55
sg19
g1
(g20
g21
(dp1294
NI55
stRp1295
(dp1296
g18
I55
sg25
Nsg26
Nsg27
Nsbsg28
I2
sg29
F56
sbs(g9
g1192
tp1297
g1
(g14
g3
NtRp1298
(dp1299
g17
F0.5
sg18
I43
sg19
g1
(g20
g21
(dp1300
NI43
stRp1301
(dp1302
g18
I43
sg25
Nsg26
Nsg27
Nsbsg28
I2
sg29
F44
sbs(g8
g272
tp1303
g1
(g14
g3
NtRp1304
(dp1305
g17
F0.5
sg18
I55
sg19
g1
(g20
g21
(dp1306
NI55
stRp1307
(dp1308
g18
I55
sg25
Nsg26
Nsg27
Nsbsg28
I2
sg29
F56
sbs(g8
S'contains(trousers)'
p1309
tp1310
g1
(g14
g3
NtRp1311
(dp1312
g17
F0.5
sg18
I55
sg19
g1
(g20
g21
(dp1313
NI55
stRp1314
(dp1315
g18
I55
sg25
Nsg26
Nsg27
Nsbsg28
I2
sg29
F56
sbs(S'LookAndShape'
p1316
S'contains(defines)'
p1317
tp1318
g1
(g14
g3
NtRp1319
(dp1320
g17
F0.5
sg18
I43
sg19
g1
(g20
g21
(dp1321
I01
I1
sNI42
stRp1322
(dp1323
g18
I43
sg25
Nsg26
Nsg27
Nsbsg28
I2
sg29
F44
sbs(g9
g393
tp1324
g1
(g14
g3
NtRp1325
(dp1326
g17
F0.5
sg18
I43
sg19
g1
(g20
g21
(dp1327
NI43
stRp1328
(dp1329
g18
I43
sg25
Nsg26
Nsg27
Nsbsg28
I2
sg29
F44
sbs(g9
g1184
tp1330
g1
(g14
g3
NtRp1331
(dp1332
g17
F0.5
sg18
I43
sg19
g1
(g20
g21
(dp1333
NI43
stRp1334
(dp1335
g18
I43
sg25
Nsg26
Nsg27
Nsbsg28
I2
sg29
F44
sbs(g8
g644
tp1336
g1
(g14
g3
NtRp1337
(dp1338
g17
F0.5
sg18
I55
sg19
g1
(g20
g21
(dp1339
NI55
stRp1340
(dp1341
g18
I55
sg25
Nsg26
Nsg27
Nsbsg28
I2
sg29
F56
sbs(g9
g630
tp1342
g1
(g14
g3
NtRp1343
(dp1344
g17
F0.5
sg18
I43
sg19
g1
(g20
g21
(dp1345
NI43
stRp1346
(dp1347
g18
I43
sg25
Nsg26
Nsg27
Nsbsg28
I2
sg29
F44
sbs(S'LookAndShape'
S'contains(ovnis)'
p1348
tp1349
g1
(g14
g3
NtRp1350
(dp1351
g17
F0.5
sg18
I43
sg19
g1
(g20
g21
(dp1352
I01
I2
sNI41
stRp1353
(dp1354
g18
I43
sg25
Nsg26
Nsg27
Nsbsg28
I2
sg29
F44
sbs(S'LookAndShape'
S'contains(airplane)'
p1355
tp1356
g1
(g14
g3
NtRp1357
(dp1358
g17
F0.5
sg18
I43
sg19
g1
(g20
g21
(dp1359
I01
I1
sNI42
stRp1360
(dp1361
g18
I43
sg25
Nsg26
Nsg27
Nsbsg28
I2
sg29
F44
sbs(g392
S'contains(his)'
p1362
tp1363
g1
(g14
g3
NtRp1364
(dp1365
g17
F0.5
sg18
I55
sg19
g1
(g20
g21
(dp1366
I01
I1
sNI54
stRp1367
(dp1368
g18
I55
sg25
Nsg26
Nsg27
Nsbsg28
I2
sg29
F56
sbs(S'Dimension'
p1369
S'contains(volume)'
p1370
tp1371
g1
(g14
g3
NtRp1372
(dp1373
g17
F0.5
sg18
I55
sg19
g1
(g20
g21
(dp1374
I01
I4
sNI51
stRp1375
(dp1376
g18
I55
sg25
Nsg26
Nsg27
Nsbsg28
I2
sg29
F56
sbs(g9
S'contains(two)'
p1377
tp1378
g1
(g14
g3
NtRp1379
(dp1380
g17
F0.5
sg18
I43
sg19
g1
(g20
g21
(dp1381
NI43
stRp1382
(dp1383
g18
I43
sg25
Nsg26
Nsg27
Nsbsg28
I2
sg29
F44
sbs(g9
g301
tp1384
g1
(g14
g3
NtRp1385
(dp1386
g17
F0.5
sg18
I43
sg19
g1
(g20
g21
(dp1387
NI43
stRp1388
(dp1389
g18
I43
sg25
Nsg26
Nsg27
Nsbsg28
I2
sg29
F44
sbs(g9
g1151
tp1390
g1
(g14
g3
NtRp1391
(dp1392
g17
F0.5
sg18
I43
sg19
g1
(g20
g21
(dp1393
NI43
stRp1394
(dp1395
g18
I43
sg25
Nsg26
Nsg27
Nsbsg28
I2
sg29
F44
sbs(g9
S'contains(small)'
p1396
tp1397
g1
(g14
g3
NtRp1398
(dp1399
g17
F0.5
sg18
I43
sg19
g1
(g20
g21
(dp1400
NI43
stRp1401
(dp1402
g18
I43
sg25
Nsg26
Nsg27
Nsbsg28
I2
sg29
F44
sbs(g376
g186
tp1403
g1
(g14
g3
NtRp1404
(dp1405
g17
F0.5
sg18
I55
sg19
g1
(g20
g21
(dp1406
I01
I1
sNI54
stRp1407
(dp1408
g18
I55
sg25
Nsg26
Nsg27
Nsbsg28
I2
sg29
F56
sbs(g8
S'contains(sun)'
p1409
tp1410
g1
(g14
g3
NtRp1411
(dp1412
g17
F0.5
sg18
I55
sg19
g1
(g20
g21
(dp1413
NI55
stRp1414
(dp1415
g18
I55
sg25
Nsg26
Nsg27
Nsbsg28
I2
sg29
F56
sbs(g9
S'contains(forest)'
p1416
tp1417
g1
(g14
g3
NtRp1418
(dp1419
g17
F0.5
sg18
I43
sg19
g1
(g20
g21
(dp1420
NI43
stRp1421
(dp1422
g18
I43
sg25
Nsg26
Nsg27
Nsbsg28
I2
sg29
F44
sbs(g120
g1125
tp1423
g1
(g14
g3
NtRp1424
(dp1425
g17
F0.5
sg18
I55
sg19
g1
(g20
g21
(dp1426
I01
I1
sNI54
stRp1427
(dp1428
g18
I55
sg25
Nsg26
Nsg27
Nsbsg28
I2
sg29
F56
sbs(g694
g158
tp1429
g1
(g14
g3
NtRp1430
(dp1431
g17
F0.5
sg18
I43
sg19
g1
(g20
g21
(dp1432
I01
I1
sNI42
stRp1433
(dp1434
g18
I43
sg25
Nsg26
Nsg27
Nsbsg28
I2
sg29
F44
sbs(g8
S'contains(like)'
p1435
tp1436
g1
(g14
g3
NtRp1437
(dp1438
g17
F0.5
sg18
I55
sg19
g1
(g20
g21
(dp1439
NI55
stRp1440
(dp1441
g18
I55
sg25
Nsg26
Nsg27
Nsbsg28
I2
sg29
F56
sbs(g1316
S'contains(that)'
tp1442
g1
(g14
g3
NtRp1443
(dp1444
g17
F0.5
sg18
I43
sg19
g1
(g20
g21
(dp1445
I01
I3
sNI40
stRp1446
(dp1447
g18
I43
sg25
Nsg26
Nsg27
Nsbsg28
I2
sg29
F44
sbs(S'LookAndShape'
g537
tp1448
g1
(g14
g3
NtRp1449
(dp1450
g17
F0.5
sg18
I43
sg19
g1
(g20
g21
(dp1451
I01
I1
sNI42
stRp1452
(dp1453
g18
I43
sg25
Nsg26
Nsg27
Nsbsg28
I2
sg29
F44
sbs(S'Dimension'
p1454
g230
tp1455
g1
(g14
g3
NtRp1456
(dp1457
g17
F0.5
sg18
I55
sg19
g1
(g20
g21
(dp1458
I01
I1
sNI54
stRp1459
(dp1460
g18
I55
sg25
Nsg26
Nsg27
Nsbsg28
I2
sg29
F56
sbs(g8
g1105
tp1461
g1
(g14
g3
NtRp1462
(dp1463
g17
F0.5
sg18
I55
sg19
g1
(g20
g21
(dp1464
NI55
stRp1465
(dp1466
g18
I55
sg25
Nsg26
Nsg27
Nsbsg28
I2
sg29
F56
sbs(g9
S'contains(woman)'
p1467
tp1468
g1
(g14
g3
NtRp1469
(dp1470
g17
F0.5
sg18
I43
sg19
g1
(g20
g21
(dp1471
NI43
stRp1472
(dp1473
g18
I43
sg25
Nsg26
Nsg27
Nsbsg28
I2
sg29
F44
sbs(g8
g1092
tp1474
g1
(g14
g3
NtRp1475
(dp1476
g17
F0.5
sg18
I55
sg19
g1
(g20
g21
(dp1477
NI55
stRp1478
(dp1479
g18
I55
sg25
Nsg26
Nsg27
Nsbsg28
I2
sg29
F56
sbs(g9
S'contains(high)'
p1480
tp1481
g1
(g14
g3
NtRp1482
(dp1483
g17
F0.5
sg18
I43
sg19
g1
(g20
g21
(dp1484
NI43
stRp1485
(dp1486
g18
I43
sg25
Nsg26
Nsg27
Nsbsg28
I2
sg29
F44
sbs(g9
g1084
tp1487
g1
(g14
g3
NtRp1488
(dp1489
g17
F0.5
sg18
I43
sg19
g1
(g20
g21
(dp1490
NI43
stRp1491
(dp1492
g18
I43
sg25
Nsg26
Nsg27
Nsbsg28
I2
sg29
F44
sbs(g8
g1317
tp1493
g1
(g14
g3
NtRp1494
(dp1495
g17
F0.5
sg18
I55
sg19
g1
(g20
g21
(dp1496
NI55
stRp1497
(dp1498
g18
I55
sg25
Nsg26
Nsg27
Nsbsg28
I2
sg29
F56
sbs(g9
S'contains(everest)'
p1499
tp1500
g1
(g14
g3
NtRp1501
(dp1502
g17
F0.5
sg18
I43
sg19
g1
(g20
g21
(dp1503
NI43
stRp1504
(dp1505
g18
I43
sg25
Nsg26
Nsg27
Nsbsg28
I2
sg29
F44
sbs(g8
g208
tp1506
g1
(g14
g3
NtRp1507
(dp1508
g17
F0.5
sg18
I55
sg19
g1
(g20
g21
(dp1509
I01
I2
sNI53
stRp1510
(dp1511
g18
I55
sg25
Nsg26
Nsg27
Nsbsg28
I2
sg29
F56
sbs(S'LookAndShape'
p1512
S'contains(how)'
tp1513
g1
(g14
g3
NtRp1514
(dp1515
g17
F0.5
sg18
I43
sg19
g1
(g20
g21
(dp1516
I01
I13
sNI30
stRp1517
(dp1518
g18
I43
sg25
Nsg26
Nsg27
Nsbsg28
I2
sg29
F44
sbs(g135
g1396
tp1519
g1
(g14
g3
NtRp1520
(dp1521
g17
F0.5
sg18
I55
sg19
g1
(g20
g21
(dp1522
I01
I4
sNI51
stRp1523
(dp1524
g18
I55
sg25
Nsg26
Nsg27
Nsbsg28
I2
sg29
F56
sbs(g120
g193
tp1525
g1
(g14
g3
NtRp1526
(dp1527
g17
F0.5
sg18
I55
sg19
g1
(g20
g21
(dp1528
I01
I1
sNI54
stRp1529
(dp1530
g18
I55
sg25
Nsg26
Nsg27
Nsbsg28
I2
sg29
F56
sbs(S'Dimension'
p1531
g1025
tp1532
g1
(g14
g3
NtRp1533
(dp1534
g17
F0.5
sg18
I55
sg19
g1
(g20
g21
(dp1535
I01
I1
sNI54
stRp1536
(dp1537
g18
I55
sg25
Nsg26
Nsg27
Nsbsg28
I2
sg29
F56
sbs(g9
g1266
tp1538
g1
(g14
g3
NtRp1539
(dp1540
g17
F0.5
sg18
I43
sg19
g1
(g20
g21
(dp1541
NI43
stRp1542
(dp1543
g18
I43
sg25
Nsg26
Nsg27
Nsbsg28
I2
sg29
F44
sbs(g9
g1370
tp1544
g1
(g14
g3
NtRp1545
(dp1546
g17
F0.5
sg18
I43
sg19
g1
(g20
g21
(dp1547
NI43
stRp1548
(dp1549
g18
I43
sg25
Nsg26
Nsg27
Nsbsg28
I2
sg29
F44
sbs(g942
S"contains(hitler's)"
p1550
tp1551
g1
(g14
g3
NtRp1552
(dp1553
g17
F0.5
sg18
I55
sg19
g1
(g20
g21
(dp1554
I01
I1
sNI54
stRp1555
(dp1556
g18
I55
sg25
Nsg26
Nsg27
Nsbsg28
I2
sg29
F56
sbs(g8
g144
tp1557
g1
(g14
g3
NtRp1558
(dp1559
g17
F0.5
sg18
I55
sg19
g1
(g20
g21
(dp1560
NI55
stRp1561
(dp1562
g18
I55
sg25
Nsg26
Nsg27
Nsbsg28
I2
sg29
F56
sbs(g9
g986
tp1563
g1
(g14
g3
NtRp1564
(dp1565
g17
F0.5
sg18
I43
sg19
g1
(g20
g21
(dp1566
NI43
stRp1567
(dp1568
g18
I43
sg25
Nsg26
Nsg27
Nsbsg28
I2
sg29
F44
sbs(g8
g1348
tp1569
g1
(g14
g3
NtRp1570
(dp1571
g17
F0.5
sg18
I55
sg19
g1
(g20
g21
(dp1572
NI55
stRp1573
(dp1574
g18
I55
sg25
Nsg26
Nsg27
Nsbsg28
I2
sg29
F56
sbs(g9
g1238
tp1575
g1
(g14
g3
NtRp1576
(dp1577
g17
F0.5
sg18
I43
sg19
g1
(g20
g21
(dp1578
NI43
stRp1579
(dp1580
g18
I43
sg25
Nsg26
Nsg27
Nsbsg28
I2
sg29
F44
sbs(g8
S'contains(?)'
tp1581
g1
(g14
g3
NtRp1582
(dp1583
g17
F0.5
sg18
I55
sg19
g1
(g20
g21
(dp1584
I01
I55
stRp1585
(dp1586
g18
I55
sg25
Nsg26
Nsg27
Nsbsg28
I2
sg29
F56
sbs(g9
S'contains(tree)'
p1587
tp1588
g1
(g14
g3
NtRp1589
(dp1590
g17
F0.5
sg18
I43
sg19
g1
(g20
g21
(dp1591
NI43
stRp1592
(dp1593
g18
I43
sg25
Nsg26
Nsg27
Nsbsg28
I2
sg29
F44
sbs(S'Dimension'
g971
tp1594
g1
(g14
g3
NtRp1595
(dp1596
g17
F0.5
sg18
I55
sg19
g1
(g20
g21
(dp1597
I01
I1
sNI54
stRp1598
(dp1599
g18
I55
sg25
Nsg26
Nsg27
Nsbsg28
I2
sg29
F56
sbs(S'LookAndShape'
g105
tp1600
g1
(g14
g3
NtRp1601
(dp1602
g17
F0.5
sg18
I43
sg19
g1
(g20
g21
(dp1603
I01
I1
sNI42
stRp1604
(dp1605
g18
I43
sg25
Nsg26
Nsg27
Nsbsg28
I2
sg29
F44
sbs(g9
S'contains(in)'
p1606
tp1607
g1
(g14
g3
NtRp1608
(dp1609
g17
F0.5
sg18
I43
sg19
g1
(g20
g21
(dp1610
NI43
stRp1611
(dp1612
g18
I43
sg25
Nsg26
Nsg27
Nsbsg28
I2
sg29
F44
sbs(g66
g1587
tp1613
g1
(g14
g3
NtRp1614
(dp1615
g17
F0.5
sg18
I55
sg19
g1
(g20
g21
(dp1616
I01
I2
sNI53
stRp1617
(dp1618
g18
I55
sg25
Nsg26
Nsg27
Nsbsg28
I2
sg29
F56
sbs(g9
g1258
tp1619
g1
(g14
g3
NtRp1620
(dp1621
g17
F0.5
sg18
I43
sg19
g1
(g20
g21
(dp1622
NI43
stRp1623
(dp1624
g18
I43
sg25
Nsg26
Nsg27
Nsbsg28
I2
sg29
F44
sbs(g9
S'contains(elephant)'
p1625
tp1626
g1
(g14
g3
NtRp1627
(dp1628
g17
F0.5
sg18
I43
sg19
g1
(g20
g21
(dp1629
NI43
stRp1630
(dp1631
g18
I43
sg25
Nsg26
Nsg27
Nsbsg28
I2
sg29
F44
sbs(g8
S'contains(people)'
p1632
tp1633
g1
(g14
g3
NtRp1634
(dp1635
g17
F0.5
sg18
I55
sg19
g1
(g20
g21
(dp1636
NI55
stRp1637
(dp1638
g18
I55
sg25
Nsg26
Nsg27
Nsbsg28
I2
sg29
F56
sbs(g9
g908
tp1639
g1
(g14
g3
NtRp1640
(dp1641
g17
F0.5
sg18
I43
sg19
g1
(g20
g21
(dp1642
NI43
stRp1643
(dp1644
g18
I43
sg25
Nsg26
Nsg27
Nsbsg28
I2
sg29
F44
sbs(S'Dimension'
p1645
S'contains(is)'
tp1646
g1
(g14
g3
NtRp1647
(dp1648
g17
F0.5
sg18
I55
sg19
g1
(g20
g21
(dp1649
I01
I33
sNI22
stRp1650
(dp1651
g18
I55
sg25
Nsg26
Nsg27
Nsbsg28
I2
sg29
F56
sbs(g8
g363
tp1652
g1
(g14
g3
NtRp1653
(dp1654
g17
F0.5
sg18
I55
sg19
g1
(g20
g21
(dp1655
NI55
stRp1656
(dp1657
g18
I55
sg25
Nsg26
Nsg27
Nsbsg28
I2
sg29
F56
sbs(g1011
g343
tp1658
g1
(g14
g3
NtRp1659
(dp1660
g17
F0.5
sg18
I55
sg19
g1
(g20
g21
(dp1661
I01
I2
sNI53
stRp1662
(dp1663
g18
I55
sg25
Nsg26
Nsg27
Nsbsg28
I2
sg29
F56
sbs(g9
g1550
tp1664
g1
(g14
g3
NtRp1665
(dp1666
g17
F0.5
sg18
I43
sg19
g1
(g20
g21
(dp1667
NI43
stRp1668
(dp1669
g18
I43
sg25
Nsg26
Nsg27
Nsbsg28
I2
sg29
F44
sbs(S'Dimension'
p1670
g287
tp1671
g1
(g14
g3
NtRp1672
(dp1673
g17
F0.5
sg18
I55
sg19
g1
(g20
g21
(dp1674
I01
I1
sNI54
stRp1675
(dp1676
g18
I55
sg25
Nsg26
Nsg27
Nsbsg28
I2
sg29
F56
sbs(S'LookAndShape'
g863
tp1677
g1
(g14
g3
NtRp1678
(dp1679
g17
F0.5
sg18
I43
sg19
g1
(g20
g21
(dp1680
I01
I2
sNI41
stRp1681
(dp1682
g18
I43
sg25
Nsg26
Nsg27
Nsbsg28
I2
sg29
F44
sbs(g8
S'contains(pretty)'
p1683
tp1684
g1
(g14
g3
NtRp1685
(dp1686
g17
F0.5
sg18
I55
sg19
g1
(g20
g21
(dp1687
NI55
stRp1688
(dp1689
g18
I55
sg25
Nsg26
Nsg27
Nsbsg28
I2
sg29
F56
sbs(g9
S'contains(korea)'
p1690
tp1691
g1
(g14
g3
NtRp1692
(dp1693
g17
F0.5
sg18
I43
sg19
g1
(g20
g21
(dp1694
NI43
stRp1695
(dp1696
g18
I43
sg25
Nsg26
Nsg27
Nsbsg28
I2
sg29
F44
sbs(g814
g1032
tp1697
g1
(g14
g3
NtRp1698
(dp1699
g17
F0.5
sg18
I43
sg19
g1
(g20
g21
(dp1700
I01
I1
sNI42
stRp1701
(dp1702
g18
I43
sg25
Nsg26
Nsg27
Nsbsg28
I2
sg29
F44
sbs(g907
g836
tp1703
g1
(g14
g3
NtRp1704
(dp1705
g17
F0.5
sg18
I55
sg19
g1
(g20
g21
(dp1706
I01
I3
sNI52
stRp1707
(dp1708
g18
I55
sg25
Nsg26
Nsg27
Nsbsg28
I2
sg29
F56
sbs(S'Dimension'
p1709
g1480
tp1710
g1
(g14
g3
NtRp1711
(dp1712
g17
F0.5
sg18
I55
sg19
g1
(g20
g21
(dp1713
I01
I3
sNI52
stRp1714
(dp1715
g18
I55
sg25
Nsg26
Nsg27
Nsbsg28
I2
sg29
F56
sbs(g9
g1170
tp1716
g1
(g14
g3
NtRp1717
(dp1718
g17
F0.5
sg18
I43
sg19
g1
(g20
g21
(dp1719
NI43
stRp1720
(dp1721
g18
I43
sg25
Nsg26
Nsg27
Nsbsg28
I2
sg29
F44
sbs(S'LookAndShape'
g787
tp1722
g1
(g14
g3
NtRp1723
(dp1724
g17
F0.5
sg18
I43
sg19
g1
(g20
g21
(dp1725
I01
I1
sNI42
stRp1726
(dp1727
g18
I43
sg25
Nsg26
Nsg27
Nsbsg28
I2
sg29
F44
sbs(g1454
S'contains(plane)'
tp1728
g1
(g14
g3
NtRp1729
(dp1730
g17
F0.5
sg18
I55
sg19
g1
(g20
g21
(dp1731
I01
I1
sNI54
stRp1732
(dp1733
g18
I55
sg25
Nsg26
Nsg27
Nsbsg28
I2
sg29
F56
sbs(g8
S'contains(are)'
tp1734
g1
(g14
g3
NtRp1735
(dp1736
g17
F0.5
sg18
I55
sg19
g1
(g20
g21
(dp1737
I01
I6
sNI49
stRp1738
(dp1739
g18
I55
sg25
Nsg26
Nsg27
Nsbsg28
I2
sg29
F56
sbs(g1091
S'contains(an)'
tp1740
g1
(g14
g3
NtRp1741
(dp1742
g17
F0.5
sg18
I43
sg19
g1
(g20
g21
(dp1743
I01
I7
sNI36
stRp1744
(dp1745
g18
I43
sg25
Nsg26
Nsg27
Nsbsg28
I2
sg29
F44
sbs(g9
g1138
tp1746
g1
(g14
g3
NtRp1747
(dp1748
g17
F0.5
sg18
I43
sg19
g1
(g20
g21
(dp1749
NI43
stRp1750
(dp1751
g18
I43
sg25
Nsg26
Nsg27
Nsbsg28
I2
sg29
F44
sbs(g135
S'contains(your)'
p1752
tp1753
g1
(g14
g3
NtRp1754
(dp1755
g17
F0.5
sg18
I55
sg19
g1
(g20
g21
(dp1756
I01
I2
sNI53
stRp1757
(dp1758
g18
I55
sg25
Nsg26
Nsg27
Nsbsg28
I2
sg29
F56
sbs(g9
g1012
tp1759
g1
(g14
g3
NtRp1760
(dp1761
g17
F0.5
sg18
I43
sg19
g1
(g20
g21
(dp1762
NI43
stRp1763
(dp1764
g18
I43
sg25
Nsg26
Nsg27
Nsbsg28
I2
sg29
F44
sbs(g9
g113
tp1765
g1
(g14
g3
NtRp1766
(dp1767
g17
F0.5
sg18
I43
sg19
g1
(g20
g21
(dp1768
NI43
stRp1769
(dp1770
g18
I43
sg25
Nsg26
Nsg27
Nsbsg28
I2
sg29
F44
sbs(g1369
S'contains(bottle)'
p1771
tp1772
g1
(g14
g3
NtRp1773
(dp1774
g17
F0.5
sg18
I55
sg19
g1
(g20
g21
(dp1775
I01
I1
sNI54
stRp1776
(dp1777
g18
I55
sg25
Nsg26
Nsg27
Nsbsg28
I2
sg29
F56
sbs(g9
S'contains(shoe)'
p1778
tp1779
g1
(g14
g3
NtRp1780
(dp1781
g17
F0.5
sg18
I43
sg19
g1
(g20
g21
(dp1782
NI43
stRp1783
(dp1784
g18
I43
sg25
Nsg26
Nsg27
Nsbsg28
I2
sg29
F44
sbs(g30
g957
tp1785
g1
(g14
g3
NtRp1786
(dp1787
g17
F0.5
sg18
I55
sg19
g1
(g20
g21
(dp1788
I01
I10
sNI45
stRp1789
(dp1790
g18
I55
sg25
Nsg26
Nsg27
Nsbsg28
I2
sg29
F56
sbs(g1531
g1059
tp1791
g1
(g14
g3
NtRp1792
(dp1793
g17
F0.5
sg18
I55
sg19
g1
(g20
g21
(dp1794
I01
I1
sNI54
stRp1795
(dp1796
g18
I55
sg25
Nsg26
Nsg27
Nsbsg28
I2
sg29
F56
sbs(S'Dimension'
g680
tp1797
g1
(g14
g3
NtRp1798
(dp1799
g17
F0.5
sg18
I55
sg19
g1
(g20
g21
(dp1800
I01
I4
sNI51
stRp1801
(dp1802
g18
I55
sg25
Nsg26
Nsg27
Nsbsg28
I2
sg29
F56
sbs(g9
g1045
tp1803
g1
(g14
g3
NtRp1804
(dp1805
g17
F0.5
sg18
I43
sg19
g1
(g20
g21
(dp1806
NI43
stRp1807
(dp1808
g18
I43
sg25
Nsg26
Nsg27
Nsbsg28
I2
sg29
F44
sbs(g9
g98
tp1809
g1
(g14
g3
NtRp1810
(dp1811
g17
F0.5
sg18
I43
sg19
g1
(g20
g21
(dp1812
NI43
stRp1813
(dp1814
g18
I43
sg25
Nsg26
Nsg27
Nsbsg28
I2
sg29
F44
sbs(g8
S'contains(sense)'
p1815
tp1816
g1
(g14
g3
NtRp1817
(dp1818
g17
F0.5
sg18
I55
sg19
g1
(g20
g21
(dp1819
NI55
stRp1820
(dp1821
g18
I55
sg25
Nsg26
Nsg27
Nsbsg28
I2
sg29
F56
sbs(g8
g1355
tp1822
g1
(g14
g3
NtRp1823
(dp1824
g17
F0.5
sg18
I55
sg19
g1
(g20
g21
(dp1825
NI55
stRp1826
(dp1827
g18
I55
sg25
Nsg26
Nsg27
Nsbsg28
I2
sg29
F56
sbs(S'Dimension'
g1778
tp1828
g1
(g14
g3
NtRp1829
(dp1830
g17
F0.5
sg18
I55
sg19
g1
(g20
g21
(dp1831
I01
I1
sNI54
stRp1832
(dp1833
g18
I55
sg25
Nsg26
Nsg27
Nsbsg28
I2
sg29
F56
sbs(g1531
g82
tp1834
g1
(g14
g3
NtRp1835
(dp1836
g17
F0.5
sg18
I55
sg19
g1
(g20
g21
(dp1837
I01
I1
sNI54
stRp1838
(dp1839
g18
I55
sg25
Nsg26
Nsg27
Nsbsg28
I2
sg29
F56
sbs(g1670
g1467
tp1840
g1
(g14
g3
NtRp1841
(dp1842
g17
F0.5
sg18
I55
sg19
g1
(g20
g21
(dp1843
I01
I1
sNI54
stRp1844
(dp1845
g18
I55
sg25
Nsg26
Nsg27
Nsbsg28
I2
sg29
F56
sbs(S'LookAndShape'
g978
tp1846
g1
(g14
g3
NtRp1847
(dp1848
g17
F0.5
sg18
I43
sg19
g1
(g20
g21
(dp1849
I01
I1
sNI42
stRp1850
(dp1851
g18
I43
sg25
Nsg26
Nsg27
Nsbsg28
I2
sg29
F44
sbs(S'Dimension'
g1219
tp1852
g1
(g14
g3
NtRp1853
(dp1854
g17
F0.5
sg18
I55
sg19
g1
(g20
g21
(dp1855
I01
I1
sNI54
stRp1856
(dp1857
g18
I55
sg25
Nsg26
Nsg27
Nsbsg28
I2
sg29
F56
sbs(g985
S'contains(earthquake)'
p1858
tp1859
g1
(g14
g3
NtRp1860
(dp1861
g17
F0.5
sg18
I55
sg19
g1
(g20
g21
(dp1862
I01
I1
sNI54
stRp1863
(dp1864
g18
I55
sg25
Nsg26
Nsg27
Nsbsg28
I2
sg29
F56
sbs(g9
g1212
tp1865
g1
(g14
g3
NtRp1866
(dp1867
g17
F0.5
sg18
I43
sg19
g1
(g20
g21
(dp1868
NI43
stRp1869
(dp1870
g18
I43
sg25
Nsg26
Nsg27
Nsbsg28
I2
sg29
F44
sbs(g9
S'contains(denmark)'
p1871
tp1872
g1
(g14
g3
NtRp1873
(dp1874
g17
F0.5
sg18
I43
sg19
g1
(g20
g21
(dp1875
NI43
stRp1876
(dp1877
g18
I43
sg25
Nsg26
Nsg27
Nsbsg28
I2
sg29
F44
sbs(g9
g1205
tp1878
g1
(g14
g3
NtRp1879
(dp1880
g17
F0.5
sg18
I43
sg19
g1
(g20
g21
(dp1881
NI43
stRp1882
(dp1883
g18
I43
sg25
Nsg26
Nsg27
Nsbsg28
I2
sg29
F44
sbs(g9
g950
tp1884
g1
(g14
g3
NtRp1885
(dp1886
g17
F0.5
sg18
I43
sg19
g1
(g20
g21
(dp1887
NI43
stRp1888
(dp1889
g18
I43
sg25
Nsg26
Nsg27
Nsbsg28
I2
sg29
F44
sbs(g9
g1752
tp1890
g1
(g14
g3
NtRp1891
(dp1892
g17
F0.5
sg18
I43
sg19
g1
(g20
g21
(dp1893
NI43
stRp1894
(dp1895
g18
I43
sg25
Nsg26
Nsg27
Nsbsg28
I2
sg29
F44
sbs(g523
g843
tp1896
g1
(g14
g3
NtRp1897
(dp1898
g17
F0.5
sg18
I55
sg19
g1
(g20
g21
(dp1899
I01
I1
sNI54
stRp1900
(dp1901
g18
I55
sg25
Nsg26
Nsg27
Nsbsg28
I2
sg29
F56
sbs(S'LookAndShape'
g829
tp1902
g1
(g14
g3
NtRp1903
(dp1904
g17
F0.5
sg18
I43
sg19
g1
(g20
g21
(dp1905
I01
I1
sNI42
stRp1906
(dp1907
g18
I43
sg25
Nsg26
Nsg27
Nsbsg28
I2
sg29
F44
sbs(S'Dimension'
p1908
S'contains(an)'
tp1909
g1
(g14
g3
NtRp1910
(dp1911
g17
F0.5
sg18
I55
sg19
g1
(g20
g21
(dp1912
I01
I4
sNI51
stRp1913
(dp1914
g18
I55
sg25
Nsg26
Nsg27
Nsbsg28
I2
sg29
F56
sbs(S'LookAndShape'
S'contains(man)'
p1915
tp1916
g1
(g14
g3
NtRp1917
(dp1918
g17
F0.5
sg18
I43
sg19
g1
(g20
g21
(dp1919
I01
I1
sNI42
stRp1920
(dp1921
g18
I43
sg25
Nsg26
Nsg27
Nsbsg28
I2
sg29
F44
sbs(g9
g509
tp1922
g1
(g14
g3
NtRp1923
(dp1924
g17
F0.5
sg18
I43
sg19
g1
(g20
g21
(dp1925
NI43
stRp1926
(dp1927
g18
I43
sg25
Nsg26
Nsg27
Nsbsg28
I2
sg29
F44
sbs(g362
g488
tp1928
g1
(g14
g3
NtRp1929
(dp1930
g17
F0.5
sg18
I43
sg19
g1
(g20
g21
(dp1931
I01
I5
sNI38
stRp1932
(dp1933
g18
I43
sg25
Nsg26
Nsg27
Nsbsg28
I2
sg29
F44
sbs(S'LookAndShape'
S'contains(plane)'
tp1934
g1
(g14
g3
NtRp1935
(dp1936
g17
F0.5
sg18
I43
sg19
g1
(g20
g21
(dp1937
I01
I1
sNI42
stRp1938
(dp1939
g18
I43
sg25
Nsg26
Nsg27
Nsbsg28
I2
sg29
F44
sbs(g89
g544
tp1940
g1
(g14
g3
NtRp1941
(dp1942
g17
F0.5
sg18
I55
sg19
g1
(g20
g21
(dp1943
I01
I1
sNI54
stRp1944
(dp1945
g18
I55
sg25
Nsg26
Nsg27
Nsbsg28
I2
sg29
F56
sbs(g8
g237
tp1946
g1
(g14
g3
NtRp1947
(dp1948
g17
F0.5
sg18
I55
sg19
g1
(g20
g21
(dp1949
NI55
stRp1950
(dp1951
g18
I55
sg25
Nsg26
Nsg27
Nsbsg28
I2
sg29
F56
sbs(g964
g773
tp1952
g1
(g14
g3
NtRp1953
(dp1954
g17
F0.5
sg18
I55
sg19
g1
(g20
g21
(dp1955
I01
I1
sNI54
stRp1956
(dp1957
g18
I55
sg25
Nsg26
Nsg27
Nsbsg28
I2
sg29
F56
sbs(g1454
S'contains(does)'
tp1958
g1
(g14
g3
NtRp1959
(dp1960
g17
F0.5
sg18
I55
sg19
g1
(g20
g21
(dp1961
I01
I1
sNI54
stRp1962
(dp1963
g18
I55
sg25
Nsg26
Nsg27
Nsbsg28
I2
sg29
F56
sbs(g9
g385
tp1964
g1
(g14
g3
NtRp1965
(dp1966
g17
F0.5
sg18
I43
sg19
g1
(g20
g21
(dp1967
NI43
stRp1968
(dp1969
g18
I43
sg25
Nsg26
Nsg27
Nsbsg28
I2
sg29
F44
sbs(g8
g1915
tp1970
g1
(g14
g3
NtRp1971
(dp1972
g17
F0.5
sg18
I55
sg19
g1
(g20
g21
(dp1973
NI55
stRp1974
(dp1975
g18
I55
sg25
Nsg26
Nsg27
Nsbsg28
I2
sg29
F56
sbs(S'LookAndShape'
S'contains(girl)'
p1976
tp1977
g1
(g14
g3
NtRp1978
(dp1979
g17
F0.5
sg18
I43
sg19
g1
(g20
g21
(dp1980
I01
I1
sNI42
stRp1981
(dp1982
g18
I43
sg25
Nsg26
Nsg27
Nsbsg28
I2
sg29
F44
sbs(g9
g516
tp1983
g1
(g14
g3
NtRp1984
(dp1985
g17
F0.5
sg18
I43
sg19
g1
(g20
g21
(dp1986
NI43
stRp1987
(dp1988
g18
I43
sg25
Nsg26
Nsg27
Nsbsg28
I2
sg29
F44
sbs(g44
g728
tp1989
g1
(g14
g3
NtRp1990
(dp1991
g17
F0.5
sg18
I55
sg19
g1
(g20
g21
(dp1992
I01
I1
sNI54
stRp1993
(dp1994
g18
I55
sg25
Nsg26
Nsg27
Nsbsg28
I2
sg29
F56
sbs(S'Dimension'
p1995
g1690
tp1996
g1
(g14
g3
NtRp1997
(dp1998
g17
F0.5
sg18
I55
sg19
g1
(g20
g21
(dp1999
I01
I1
sNI54
stRp2000
(dp2001
g18
I55
sg25
Nsg26
Nsg27
Nsbsg28
I2
sg29
F56
sbs(g9
S'contains(trees)'
p2002
tp2003
g1
(g14
g3
NtRp2004
(dp2005
g17
F0.5
sg18
I43
sg19
g1
(g20
g21
(dp2006
NI43
stRp2007
(dp2008
g18
I43
sg25
Nsg26
Nsg27
Nsbsg28
I2
sg29
F44
sbs(g1995
g1871
tp2009
g1
(g14
g3
NtRp2010
(dp2011
g17
F0.5
sg18
I55
sg19
g1
(g20
g21
(dp2012
I01
I1
sNI54
stRp2013
(dp2014
g18
I55
sg25
Nsg26
Nsg27
Nsbsg28
I2
sg29
F56
sbs(g8
g1976
tp2015
g1
(g14
g3
NtRp2016
(dp2017
g17
F0.5
sg18
I55
sg19
g1
(g20
g21
(dp2018
NI55
stRp2019
(dp2020
g18
I55
sg25
Nsg26
Nsg27
Nsbsg28
I2
sg29
F56
sbs(g9
g1858
tp2021
g1
(g14
g3
NtRp2022
(dp2023
g17
F0.5
sg18
I43
sg19
g1
(g20
g21
(dp2024
NI43
stRp2025
(dp2026
g18
I43
sg25
Nsg26
Nsg27
Nsbsg28
I2
sg29
F44
sbs(g408
g1177
tp2027
g1
(g14
g3
NtRp2028
(dp2029
g17
F0.5
sg18
I55
sg19
g1
(g20
g21
(dp2030
I01
I1
sNI54
stRp2031
(dp2032
g18
I55
sg25
Nsg26
Nsg27
Nsbsg28
I2
sg29
F56
sbs(g1191
g481
tp2033
g1
(g14
g3
NtRp2034
(dp2035
g17
F0.5
sg18
I55
sg19
g1
(g20
g21
(dp2036
I01
I4
sNI51
stRp2037
(dp2038
g18
I55
sg25
Nsg26
Nsg27
Nsbsg28
I2
sg29
F56
sbs(g8
g815
tp2039
g1
(g14
g3
NtRp2040
(dp2041
g17
F0.5
sg18
I55
sg19
g1
(g20
g21
(dp2042
NI55
stRp2043
(dp2044
g18
I55
sg25
Nsg26
Nsg27
Nsbsg28
I2
sg29
F56
sbs(g9
g1112
tp2045
g1
(g14
g3
NtRp2046
(dp2047
g17
F0.5
sg18
I43
sg19
g1
(g20
g21
(dp2048
NI43
stRp2049
(dp2050
g18
I43
sg25
Nsg26
Nsg27
Nsbsg28
I2
sg29
F44
sbs(g279
S'contains(strike)'
p2051
tp2052
g1
(g14
g3
NtRp2053
(dp2054
g17
F0.5
sg18
I55
sg19
g1
(g20
g21
(dp2055
I01
I1
sNI54
stRp2056
(dp2057
g18
I55
sg25
Nsg26
Nsg27
Nsbsg28
I2
sg29
F56
sbs(g9
g780
tp2058
g1
(g14
g3
NtRp2059
(dp2060
g17
F0.5
sg18
I43
sg19
g1
(g20
g21
(dp2061
NI43
stRp2062
(dp2063
g18
I43
sg25
Nsg26
Nsg27
Nsbsg28
I2
sg29
F44
sbs(g9
g701
tp2064
g1
(g14
g3
NtRp2065
(dp2066
g17
F0.5
sg18
I43
sg19
g1
(g20
g21
(dp2067
NI43
stRp2068
(dp2069
g18
I43
sg25
Nsg26
Nsg27
Nsbsg28
I2
sg29
F44
sbs(g1265
g766
tp2070
g1
(g14
g3
NtRp2071
(dp2072
g17
F0.5
sg18
I55
sg19
g1
(g20
g21
(dp2073
I01
I2
sNI53
stRp2074
(dp2075
g18
I55
sg25
Nsg26
Nsg27
Nsbsg28
I2
sg29
F56
sbs(g1908
g1625
tp2076
g1
(g14
g3
NtRp2077
(dp2078
g17
F0.5
sg18
I55
sg19
g1
(g20
g21
(dp2079
I01
I1
sNI54
stRp2080
(dp2081
g18
I55
sg25
Nsg26
Nsg27
Nsbsg28
I2
sg29
F56
sbs(g8
g735
tp2082
g1
(g14
g3
NtRp2083
(dp2084
g17
F0.5
sg18
I55
sg19
g1
(g20
g21
(dp2085
NI55
stRp2086
(dp2087
g18
I55
sg25
Nsg26
Nsg27
Nsbsg28
I2
sg29
F56
sbs(g9
g1052
tp2088
g1
(g14
g3
NtRp2089
(dp2090
g17
F0.5
sg18
I43
sg19
g1
(g20
g21
(dp2091
NI43
stRp2092
(dp2093
g18
I43
sg25
Nsg26
Nsg27
Nsbsg28
I2
sg29
F44
sbs(g128
g1815
tp2094
g1
(g14
g3
NtRp2095
(dp2096
g17
F0.5
sg18
I43
sg19
g1
(g20
g21
(dp2097
I01
I1
sNI42
stRp2098
(dp2099
g18
I43
sg25
Nsg26
Nsg27
Nsbsg28
I2
sg29
F44
sbs(g66
g1606
tp2100
g1
(g14
g3
NtRp2101
(dp2102
g17
F0.5
sg18
I55
sg19
g1
(g20
g21
(dp2103
I01
I5
sNI50
stRp2104
(dp2105
g18
I55
sg25
Nsg26
Nsg27
Nsbsg28
I2
sg29
F56
sbs(g9
S'contains(johanna)'
p2106
tp2107
g1
(g14
g3
NtRp2108
(dp2109
g17
F0.5
sg18
I43
sg19
g1
(g20
g21
(dp2110
NI43
stRp2111
(dp2112
g18
I43
sg25
Nsg26
Nsg27
Nsbsg28
I2
sg29
F44
sbs(g1251
g623
tp2113
g1
(g14
g3
NtRp2114
(dp2115
g17
F0.5
sg18
I43
sg19
g1
(g20
g21
(dp2116
I01
I5
sNI38
stRp2117
(dp2118
g18
I43
sg25
Nsg26
Nsg27
Nsbsg28
I2
sg29
F44
sbs(g1645
g2106
tp2119
g1
(g14
g3
NtRp2120
(dp2121
g17
F0.5
sg18
I55
sg19
g1
(g20
g21
(dp2122
I01
I1
sNI54
stRp2123
(dp2124
g18
I55
sg25
Nsg26
Nsg27
Nsbsg28
I2
sg29
F56
sbs(S'LookAndShape'
p2125
g315
tp2126
g1
(g14
g3
NtRp2127
(dp2128
g17
F0.5
sg18
I43
sg19
g1
(g20
g21
(dp2129
I01
I1
sNI42
stRp2130
(dp2131
g18
I43
sg25
Nsg26
Nsg27
Nsbsg28
I2
sg29
F44
sbs(g9
g935
tp2132
g1
(g14
g3
NtRp2133
(dp2134
g17
F0.5
sg18
I43
sg19
g1
(g20
g21
(dp2135
NI43
stRp2136
(dp2137
g18
I43
sg25
Nsg26
Nsg27
Nsbsg28
I2
sg29
F44
sbs(g9
g587
tp2138
g1
(g14
g3
NtRp2139
(dp2140
g17
F0.5
sg18
I43
sg19
g1
(g20
g21
(dp2141
NI43
stRp2142
(dp2143
g18
I43
sg25
Nsg26
Nsg27
Nsbsg28
I2
sg29
F44
sbs(g572
g673
tp2144
g1
(g14
g3
NtRp2145
(dp2146
g17
F0.5
sg18
I55
sg19
g1
(g20
g21
(dp2147
I01
I1
sNI54
stRp2148
(dp2149
g18
I55
sg25
Nsg26
Nsg27
Nsbsg28
I2
sg29
F56
sbs(g1709
g1499
tp2150
g1
(g14
g3
NtRp2151
(dp2152
g17
F0.5
sg18
I55
sg19
g1
(g20
g21
(dp2153
I01
I1
sNI54
stRp2154
(dp2155
g18
I55
sg25
Nsg26
Nsg27
Nsbsg28
I2
sg29
F56
sbs(g9
g1771
tp2156
g1
(g14
g3
NtRp2157
(dp2158
g17
F0.5
sg18
I43
sg19
g1
(g20
g21
(dp2159
NI43
stRp2160
(dp2161
g18
I43
sg25
Nsg26
Nsg27
Nsbsg28
I2
sg29
F44
sbs(g1191
S'contains(the)'
tp2162
g1
(g14
g3
NtRp2163
(dp2164
g17
F0.5
sg18
I55
sg19
g1
(g20
g21
(dp2165
I01
I28
sNI27
stRp2166
(dp2167
g18
I55
sg25
Nsg26
Nsg27
Nsbsg28
I2
sg29
F56
sbs(g601
g558
tp2168
g1
(g14
g3
NtRp2169
(dp2170
g17
F0.5
sg18
I43
sg19
g1
(g20
g21
(dp2171
I01
I1
sNI42
stRp2172
(dp2173
g18
I43
sg25
Nsg26
Nsg27
Nsbsg28
I2
sg29
F44
sbs(g9
g551
tp2174
g1
(g14
g3
NtRp2175
(dp2176
g17
F0.5
sg18
I43
sg19
g1
(g20
g21
(dp2177
NI43
stRp2178
(dp2179
g18
I43
sg25
Nsg26
Nsg27
Nsbsg28
I2
sg29
F44
sbs(g8
g652
tp2180
g1
(g14
g3
NtRp2181
(dp2182
g17
F0.5
sg18
I55
sg19
g1
(g20
g21
(dp2183
NI55
stRp2184
(dp2185
g18
I55
sg25
Nsg26
Nsg27
Nsbsg28
I2
sg29
F56
sbs(g8
S'contains(scissors)'
p2186
tp2187
g1
(g14
g3
NtRp2188
(dp2189
g17
F0.5
sg18
I55
sg19
g1
(g20
g21
(dp2190
NI55
stRp2191
(dp2192
g18
I55
sg25
Nsg26
Nsg27
Nsbsg28
I2
sg29
F56
sbs(g9
g2051
tp2193
g1
(g14
g3
NtRp2194
(dp2195
g17
F0.5
sg18
I43
sg19
g1
(g20
g21
(dp2196
NI43
stRp2197
(dp2198
g18
I43
sg25
Nsg26
Nsg27
Nsbsg28
I2
sg29
F44
sbs(g9
g251
tp2199
g1
(g14
g3
NtRp2200
(dp2201
g17
F0.5
sg18
I43
sg19
g1
(g20
g21
(dp2202
NI43
stRp2203
(dp2204
g18
I43
sg25
Nsg26
Nsg27
Nsbsg28
I2
sg29
F44
sbs(g128
g495
tp2205
g1
(g14
g3
NtRp2206
(dp2207
g17
F0.5
sg18
I43
sg19
g1
(g20
g21
(dp2208
I01
I1
sNI42
stRp2209
(dp2210
g18
I43
sg25
Nsg26
Nsg27
Nsbsg28
I2
sg29
F44
sbs(g9
g1435
tp2211
g1
(g14
g3
NtRp2212
(dp2213
g17
F0.5
sg18
I43
sg19
g1
(g20
g21
(dp2214
I01
I31
sNI12
stRp2215
(dp2216
g18
I43
sg25
Nsg26
Nsg27
Nsbsg28
I2
sg29
F44
sbs(g8
g608
tp2217
g1
(g14
g3
NtRp2218
(dp2219
g17
F0.5
sg18
I55
sg19
g1
(g20
g21
(dp2220
NI55
stRp2221
(dp2222
g18
I55
sg25
Nsg26
Nsg27
Nsbsg28
I2
sg29
F56
sbs(g222
g1416
tp2223
g1
(g14
g3
NtRp2224
(dp2225
g17
F0.5
sg18
I55
sg19
g1
(g20
g21
(dp2226
I01
I1
sNI54
stRp2227
(dp2228
g18
I55
sg25
Nsg26
Nsg27
Nsbsg28
I2
sg29
F56
sbs(S'Dimension'
g2002
tp2229
g1
(g14
g3
NtRp2230
(dp2231
g17
F0.5
sg18
I55
sg19
g1
(g20
g21
(dp2232
I01
I1
sNI54
stRp2233
(dp2234
g18
I55
sg25
Nsg26
Nsg27
Nsbsg28
I2
sg29
F56
sbs(g2125
g1409
tp2235
g1
(g14
g3
NtRp2236
(dp2237
g17
F0.5
sg18
I43
sg19
g1
(g20
g21
(dp2238
I01
I1
sNI42
stRp2239
(dp2240
g18
I43
sg25
Nsg26
Nsg27
Nsbsg28
I2
sg29
F44
sbs(g9
g401
tp2241
g1
(g14
g3
NtRp2242
(dp2243
g17
F0.5
sg18
I43
sg19
g1
(g20
g21
(dp2244
NI43
stRp2245
(dp2246
g18
I43
sg25
Nsg26
Nsg27
Nsbsg28
I2
sg29
F44
sbs(g9
g637
tp2247
g1
(g14
g3
NtRp2248
(dp2249
g17
F0.5
sg18
I43
sg19
g1
(g20
g21
(dp2250
NI43
stRp2251
(dp2252
g18
I43
sg25
Nsg26
Nsg27
Nsbsg28
I2
sg29
F44
sbs(g279
g1377
tp2253
g1
(g14
g3
NtRp2254
(dp2255
g17
F0.5
sg18
I55
sg19
g1
(g20
g21
(dp2256
I01
I2
sNI53
stRp2257
(dp2258
g18
I55
sg25
Nsg26
Nsg27
Nsbsg28
I2
sg29
F56
sbs(g1316
g165
tp2259
g1
(g14
g3
NtRp2260
(dp2261
g17
F0.5
sg18
I43
sg19
g1
(g20
g21
(dp2262
I01
I1
sNI42
stRp2263
(dp2264
g18
I43
sg25
Nsg26
Nsg27
Nsbsg28
I2
sg29
F44
sbs(g9
g1362
tp2265
g1
(g14
g3
NtRp2266
(dp2267
g17
F0.5
sg18
I43
sg19
g1
(g20
g21
(dp2268
NI43
stRp2269
(dp2270
g18
I43
sg25
Nsg26
Nsg27
Nsbsg28
I2
sg29
F44
sbs(g9
g136
tp2271
g1
(g14
g3
NtRp2272
(dp2273
g17
F0.5
sg18
I43
sg19
g1
(g20
g21
(dp2274
NI43
stRp2275
(dp2276
g18
I43
sg25
Nsg26
Nsg27
Nsbsg28
I2
sg29
F44
sbs(g384
g435
tp2277
g1
(g14
g3
NtRp2278
(dp2279
g17
F0.5
sg18
I55
sg19
g1
(g20
g21
(dp2280
I01
I1
sNI54
stRp2281
(dp2282
g18
I55
sg25
Nsg26
Nsg27
Nsbsg28
I2
sg29
F56
sbs(g1512
g1632
tp2283
g1
(g14
g3
NtRp2284
(dp2285
g17
F0.5
sg18
I43
sg19
g1
(g20
g21
(dp2286
I01
I1
sNI42
stRp2287
(dp2288
g18
I43
sg25
Nsg26
Nsg27
Nsbsg28
I2
sg29
F44
sbs(S'LookAndShape'
g2186
tp2289
g1
(g14
g3
NtRp2290
(dp2291
g17
F0.5
sg18
I43
sg19
g1
(g20
g21
(dp2292
I01
I2
sNI41
stRp2293
(dp2294
g18
I43
sg25
Nsg26
Nsg27
Nsbsg28
I2
sg29
F44
sbs(S'LookAndShape'
g1309
tp2295
g1
(g14
g3
NtRp2296
(dp2297
g17
F0.5
sg18
I43
sg19
g1
(g20
g21
(dp2298
I01
I1
sNI42
stRp2299
(dp2300
g18
I43
sg25
Nsg26
Nsg27
Nsbsg28
I2
sg29
F44
sbs(g601
g1683
tp2301
g1
(g14
g3
NtRp2302
(dp2303
g17
F0.5
sg18
I43
sg19
g1
(g20
g21
(dp2304
I01
I1
sNI42
stRp2305
(dp2306
g18
I43
sg25
Nsg26
Nsg27
Nsbsg28
I2
sg29
F44
sbs(g1709
g721
tp2307
g1
(g14
g3
NtRp2308
(dp2309
g17
F0.5
sg18
I55
sg19
g1
(g20
g21
(dp2310
I01
I1
sNI54
stRp2311
(dp2312
g18
I55
sg25
Nsg26
Nsg27
Nsbsg28
I2
sg29
F56
sbssS'_label_probdist'
p2313
g1
(g14
g3
NtRp2314
(dp2315
g17
F0.5
sg18
I98
sg19
g1
(g20
g21
(dp2316
g8
I55
sg9
I43
stRp2317
(dp2318
g18
I98
sg25
Nsg26
(lp2319
(g8
I55
tp2320
a(g9
I43
tp2321
asg27
Nsbsg28
I2
sg29
F99
sbsb.