ccopy_reg
_reconstructor
p1
(cnltk.classify.naivebayes
NaiveBayesClassifier
p2
c__builtin__
object
p3
NtRp4
(dp5
S'_labels'
p6
(lp7
S'Dimension'
p8
aS'LookAndShape'
p9
asS'_feature_probdist'
p10
(dp11
(S'Dimension'
p12
S'contains(what)'
tp13
g1
(cnltk.probability
ELEProbDist
p14
g3
NtRp15
(dp16
S'_gamma'
p17
F0.5
sS'_N'
p18
I62
sS'_freqdist'
p19
cnltk.probability
FreqDist
p20
((dp21
I01
I25
sNI37
stRp22
sS'_bins'
p23
I2
sS'_divisor'
p24
F63
sbs(S'Dimension'
p25
S'contains(a)'
tp26
g1
(g14
g3
NtRp27
(dp28
g17
F0.5
sg18
I62
sg19
g20
((dp29
I01
I21
sNI41
stRp30
sg23
I2
sg24
F63
sbs(g9
S'contains(india)'
p31
tp32
g1
(g14
g3
NtRp33
(dp34
g17
F0.5
sg18
I53
sg19
g20
((dp35
NI53
stRp36
sg23
I2
sg24
F54
sbs(S'Dimension'
p37
S"contains(what's)"
p38
tp39
g1
(g14
g3
NtRp40
(dp41
g17
F0.5
sg18
I62
sg19
g20
((dp42
I01
I3
sNI59
stRp43
sg23
I2
sg24
F63
sbs(g9
S'contains(chris)'
p44
tp45
g1
(g14
g3
NtRp46
(dp47
g17
F0.5
sg18
I53
sg19
g20
((dp48
NI53
stRp49
sg23
I2
sg24
F54
sbs(g9
S'contains(up)'
p50
tp51
g1
(g14
g3
NtRp52
(dp53
g17
F0.5
sg18
I53
sg19
g20
((dp54
NI53
stRp55
sg23
I2
sg24
F54
sbs(S'Dimension'
p56
S'contains(tallest)'
p57
tp58
g1
(g14
g3
NtRp59
(dp60
g17
F0.5
sg18
I62
sg19
g20
((dp61
I01
I1
sNI61
stRp62
sg23
I2
sg24
F63
sbs(S'Dimension'
p63
S'contains(dog)'
p64
tp65
g1
(g14
g3
NtRp66
(dp67
g17
F0.5
sg18
I62
sg19
g20
((dp68
I01
I1
sNI61
stRp69
sg23
I2
sg24
F63
sbs(g9
S'contains(here)'
p70
tp71
g1
(g14
g3
NtRp72
(dp73
g17
F0.5
sg18
I53
sg19
g20
((dp74
NI53
stRp75
sg23
I2
sg24
F54
sbs(S'Dimension'
p76
S'contains(distance)'
p77
tp78
g1
(g14
g3
NtRp79
(dp80
g17
F0.5
sg18
I62
sg19
g20
((dp81
I01
I1
sNI61
stRp82
sg23
I2
sg24
F63
sbs(S'Dimension'
p83
S'contains(from)'
p84
tp85
g1
(g14
g3
NtRp86
(dp87
g17
F0.5
sg18
I62
sg19
g20
((dp88
I01
I6
sNI56
stRp89
sg23
I2
sg24
F63
sbs(g8
S'contains(dresses)'
p90
tp91
g1
(g14
g3
NtRp92
(dp93
g17
F0.5
sg18
I62
sg19
g20
((dp94
NI62
stRp95
sg23
I2
sg24
F63
sbs(S'Dimension'
p96
S'contains(area)'
p97
tp98
g1
(g14
g3
NtRp99
(dp100
g17
F0.5
sg18
I62
sg19
g20
((dp101
I01
I3
sNI59
stRp102
sg23
I2
sg24
F63
sbs(S'Dimension'
p103
S'contains(mm)'
p104
tp105
g1
(g14
g3
NtRp106
(dp107
g17
F0.5
sg18
I62
sg19
g20
((dp108
I01
I1
sNI61
stRp109
sg23
I2
sg24
F63
sbs(S'Dimension'
p110
S'contains(scale)'
p111
tp112
g1
(g14
g3
NtRp113
(dp114
g17
F0.5
sg18
I62
sg19
g20
((dp115
I01
I1
sNI61
stRp116
sg23
I2
sg24
F63
sbs(S'LookAndShape'
p117
S'contains(to)'
tp118
g1
(g14
g3
NtRp119
(dp120
g17
F0.5
sg18
I53
sg19
g20
((dp121
I01
I1
sNI52
stRp122
sg23
I2
sg24
F54
sbs(S'Dimension'
p123
S'contains(car)'
p124
tp125
g1
(g14
g3
NtRp126
(dp127
g17
F0.5
sg18
I62
sg19
g20
((dp128
I01
I1
sNI61
stRp129
sg23
I2
sg24
F63
sbs(S'LookAndShape'
p130
S'contains(beautiful)'
p131
tp132
g1
(g14
g3
NtRp133
(dp134
g17
F0.5
sg18
I53
sg19
g20
((dp135
I01
I1
sNI52
stRp136
sg23
I2
sg24
F54
sbs(S'LookAndShape'
S'contains(sweatshirt)'
p137
tp138
g1
(g14
g3
NtRp139
(dp140
g17
F0.5
sg18
I53
sg19
g20
((dp141
I01
I1
sNI52
stRp142
sg23
I2
sg24
F54
sbs(g8
S'contains(ball)'
p143
tp144
g1
(g14
g3
NtRp145
(dp146
g17
F0.5
sg18
I62
sg19
g20
((dp147
NI62
stRp148
sg23
I2
sg24
F63
sbs(g8
S'contains(bag)'
p149
tp150
g1
(g14
g3
NtRp151
(dp152
g17
F0.5
sg18
I62
sg19
g20
((dp153
NI62
stRp154
sg23
I2
sg24
F63
sbs(g9
S'contains(become)'
p155
tp156
g1
(g14
g3
NtRp157
(dp158
g17
F0.5
sg18
I53
sg19
g20
((dp159
NI53
stRp160
sg23
I2
sg24
F54
sbs(g8
S'contains(makes)'
p161
tp162
g1
(g14
g3
NtRp163
(dp164
g17
F0.5
sg18
I62
sg19
g20
((dp165
NI62
stRp166
sg23
I2
sg24
F63
sbs(g9
S'contains(lisbon)'
p167
tp168
g1
(g14
g3
NtRp169
(dp170
g17
F0.5
sg18
I53
sg19
g20
((dp171
NI53
stRp172
sg23
I2
sg24
F54
sbs(g9
S"contains(napoleon's)"
p173
tp174
g1
(g14
g3
NtRp175
(dp176
g17
F0.5
sg18
I53
sg19
g20
((dp177
NI53
stRp178
sg23
I2
sg24
F54
sbs(S'LookAndShape'
p179
S'contains(look)'
p180
tp181
g1
(g14
g3
NtRp182
(dp183
g17
F0.5
sg18
I53
sg19
g20
((dp184
I01
I21
sNI32
stRp185
sg23
I2
sg24
F54
sbs(S'Dimension'
p186
S'contains(dinner)'
tp187
g1
(g14
g3
NtRp188
(dp189
g17
F0.5
sg18
I62
sg19
g20
((dp190
I01
I1
sNI61
stRp191
sg23
I2
sg24
F63
sbs(g9
S'contains(you)'
p192
tp193
g1
(g14
g3
NtRp194
(dp195
g17
F0.5
sg18
I53
sg19
g20
((dp196
NI53
stRp197
sg23
I2
sg24
F54
sbs(S'Dimension'
p198
g155
tp199
g1
(g14
g3
NtRp200
(dp201
g17
F0.5
sg18
I62
sg19
g20
((dp202
I01
I2
sNI60
stRp203
sg23
I2
sg24
F63
sbs(S'Dimension'
p204
S'contains(amazon)'
p205
tp206
g1
(g14
g3
NtRp207
(dp208
g17
F0.5
sg18
I62
sg19
g20
((dp209
I01
I1
sNI61
stRp210
sg23
I2
sg24
F63
sbs(g9
S'contains(fly)'
p211
tp212
g1
(g14
g3
NtRp213
(dp214
g17
F0.5
sg18
I53
sg19
g20
((dp215
NI53
stRp216
sg23
I2
sg24
F54
sbs(S'LookAndShape'
S'contains(clocks)'
p217
tp218
g1
(g14
g3
NtRp219
(dp220
g17
F0.5
sg18
I53
sg19
g20
((dp221
I01
I1
sNI52
stRp222
sg23
I2
sg24
F54
sbs(g63
S'contains(to)'
tp223
g1
(g14
g3
NtRp224
(dp225
g17
F0.5
sg18
I62
sg19
g20
((dp226
I01
I5
sNI57
stRp227
sg23
I2
sg24
F63
sbs(S'LookAndShape'
p228
S'contains(food)'
p229
tp230
g1
(g14
g3
NtRp231
(dp232
g17
F0.5
sg18
I53
sg19
g20
((dp233
I01
I2
sNI51
stRp234
sg23
I2
sg24
F54
sbs(g8
g229
tp235
g1
(g14
g3
NtRp236
(dp237
g17
F0.5
sg18
I62
sg19
g20
((dp238
NI62
stRp239
sg23
I2
sg24
F63
sbs(S'Dimension'
p240
S"contains(einstein's)"
p241
tp242
g1
(g14
g3
NtRp243
(dp244
g17
F0.5
sg18
I62
sg19
g20
((dp245
I01
I1
sNI61
stRp246
sg23
I2
sg24
F63
sbs(g179
S'contains(glass)'
p247
tp248
g1
(g14
g3
NtRp249
(dp250
g17
F0.5
sg18
I53
sg19
g20
((dp251
I01
I1
sNI52
stRp252
sg23
I2
sg24
F54
sbs(g9
g205
tp253
g1
(g14
g3
NtRp254
(dp255
g17
F0.5
sg18
I53
sg19
g20
((dp256
NI53
stRp257
sg23
I2
sg24
F54
sbs(S'LookAndShape'
p258
S'contains(scissor)'
p259
tp260
g1
(g14
g3
NtRp261
(dp262
g17
F0.5
sg18
I53
sg19
g20
((dp263
I01
I1
sNI52
stRp264
sg23
I2
sg24
F54
sbs(S'Dimension'
p265
S'contains(near)'
p266
tp267
g1
(g14
g3
NtRp268
(dp269
g17
F0.5
sg18
I62
sg19
g20
((dp270
I01
I3
sNI59
stRp271
sg23
I2
sg24
F63
sbs(g228
S'contains(dinner)'
tp272
g1
(g14
g3
NtRp273
(dp274
g17
F0.5
sg18
I53
sg19
g20
((dp275
I01
I1
sNI52
stRp276
sg23
I2
sg24
F54
sbs(g9
S'contains(old)'
p277
tp278
g1
(g14
g3
NtRp279
(dp280
g17
F0.5
sg18
I53
sg19
g20
((dp281
NI53
stRp282
sg23
I2
sg24
F54
sbs(g9
S'contains(world)'
p283
tp284
g1
(g14
g3
NtRp285
(dp286
g17
F0.5
sg18
I53
sg19
g20
((dp287
NI53
stRp288
sg23
I2
sg24
F54
sbs(g12
S'contains(average)'
p289
tp290
g1
(g14
g3
NtRp291
(dp292
g17
F0.5
sg18
I62
sg19
g20
((dp293
I01
I2
sNI60
stRp294
sg23
I2
sg24
F63
sbs(g8
S'contains(clothes)'
p295
tp296
g1
(g14
g3
NtRp297
(dp298
g17
F0.5
sg18
I62
sg19
g20
((dp299
NI62
stRp300
sg23
I2
sg24
F63
sbs(g8
S'contains(contour)'
p301
tp302
g1
(g14
g3
NtRp303
(dp304
g17
F0.5
sg18
I62
sg19
g20
((dp305
NI62
stRp306
sg23
I2
sg24
F63
sbs(S'LookAndShape'
p307
S'contains(usually)'
p308
tp309
g1
(g14
g3
NtRp310
(dp311
g17
F0.5
sg18
I53
sg19
g20
((dp312
I01
I1
sNI52
stRp313
sg23
I2
sg24
F54
sbs(S'LookAndShape'
p314
S'contains(atom)'
p315
tp316
g1
(g14
g3
NtRp317
(dp318
g17
F0.5
sg18
I53
sg19
g20
((dp319
I01
I1
sNI52
stRp320
sg23
I2
sg24
F54
sbs(g9
S'contains(what)'
tp321
g1
(g14
g3
NtRp322
(dp323
g17
F0.5
sg18
I53
sg19
g20
((dp324
I01
I30
sNI23
stRp325
sg23
I2
sg24
F54
sbs(g9
S'contains(benches)'
p326
tp327
g1
(g14
g3
NtRp328
(dp329
g17
F0.5
sg18
I53
sg19
g20
((dp330
I01
I1
sNI52
stRp331
sg23
I2
sg24
F54
sbs(g9
S'contains(tiny)'
p332
tp333
g1
(g14
g3
NtRp334
(dp335
g17
F0.5
sg18
I53
sg19
g20
((dp336
NI53
stRp337
sg23
I2
sg24
F54
sbs(g63
g50
tp338
g1
(g14
g3
NtRp339
(dp340
g17
F0.5
sg18
I62
sg19
g20
((dp341
I01
I1
sNI61
stRp342
sg23
I2
sg24
F63
sbs(g8
g137
tp343
g1
(g14
g3
NtRp344
(dp345
g17
F0.5
sg18
I62
sg19
g20
((dp346
NI62
stRp347
sg23
I2
sg24
F63
sbs(S'LookAndShape'
p348
S'contains(bicycle)'
p349
tp350
g1
(g14
g3
NtRp351
(dp352
g17
F0.5
sg18
I53
sg19
g20
((dp353
I01
I1
sNI52
stRp354
sg23
I2
sg24
F54
sbs(g258
S'contains(is)'
tp355
g1
(g14
g3
NtRp356
(dp357
g17
F0.5
sg18
I53
sg19
g20
((dp358
I01
I20
sNI33
stRp359
sg23
I2
sg24
F54
sbs(S'Dimension'
p360
S'contains(madrid)'
p361
tp362
g1
(g14
g3
NtRp363
(dp364
g17
F0.5
sg18
I62
sg19
g20
((dp365
I01
I1
sNI61
stRp366
sg23
I2
sg24
F63
sbs(S'Dimension'
p367
S'contains(london)'
p368
tp369
g1
(g14
g3
NtRp370
(dp371
g17
F0.5
sg18
I62
sg19
g20
((dp372
I01
I1
sNI61
stRp373
sg23
I2
sg24
F63
sbs(g9
S'contains(mattress)'
p374
tp375
g1
(g14
g3
NtRp376
(dp377
g17
F0.5
sg18
I53
sg19
g20
((dp378
NI53
stRp379
sg23
I2
sg24
F54
sbs(S'LookAndShape'
p380
S'contains(agathe)'
p381
tp382
g1
(g14
g3
NtRp383
(dp384
g17
F0.5
sg18
I53
sg19
g20
((dp385
I01
I1
sNI52
stRp386
sg23
I2
sg24
F54
sbs(g380
S'contains(morning)'
p387
tp388
g1
(g14
g3
NtRp389
(dp390
g17
F0.5
sg18
I53
sg19
g20
((dp391
I01
I1
sNI52
stRp392
sg23
I2
sg24
F54
sbs(g307
S'contains(tattoos)'
p393
tp394
g1
(g14
g3
NtRp395
(dp396
g17
F0.5
sg18
I53
sg19
g20
((dp397
I01
I1
sNI52
stRp398
sg23
I2
sg24
F54
sbs(S'Dimension'
p399
S'contains(squirrel)'
p400
tp401
g1
(g14
g3
NtRp402
(dp403
g17
F0.5
sg18
I62
sg19
g20
((dp404
I01
I1
sNI61
stRp405
sg23
I2
sg24
F63
sbs(g367
S'contains(california)'
p406
tp407
g1
(g14
g3
NtRp408
(dp409
g17
F0.5
sg18
I62
sg19
g20
((dp410
I01
I1
sNI61
stRp411
sg23
I2
sg24
F63
sbs(g8
S'contains(jeans)'
p412
tp413
g1
(g14
g3
NtRp414
(dp415
g17
F0.5
sg18
I62
sg19
g20
((dp416
NI62
stRp417
sg23
I2
sg24
F63
sbs(g12
S'contains(person)'
tp418
g1
(g14
g3
NtRp419
(dp420
g17
F0.5
sg18
I62
sg19
g20
((dp421
I01
I1
sNI61
stRp422
sg23
I2
sg24
F63
sbs(g8
S'contains(night)'
p423
tp424
g1
(g14
g3
NtRp425
(dp426
g17
F0.5
sg18
I62
sg19
g20
((dp427
NI62
stRp428
sg23
I2
sg24
F63
sbs(g9
g57
tp429
g1
(g14
g3
NtRp430
(dp431
g17
F0.5
sg18
I53
sg19
g20
((dp432
NI53
stRp433
sg23
I2
sg24
F54
sbs(g9
S'contains(earth)'
p434
tp435
g1
(g14
g3
NtRp436
(dp437
g17
F0.5
sg18
I53
sg19
g20
((dp438
NI53
stRp439
sg23
I2
sg24
F54
sbs(S'Dimension'
g44
tp440
g1
(g14
g3
NtRp441
(dp442
g17
F0.5
sg18
I62
sg19
g20
((dp443
I01
I1
sNI61
stRp444
sg23
I2
sg24
F63
sbs(S'LookAndShape'
S'contains(bikes)'
p445
tp446
g1
(g14
g3
NtRp447
(dp448
g17
F0.5
sg18
I53
sg19
g20
((dp449
I01
I1
sNI52
stRp450
sg23
I2
sg24
F54
sbs(S'Dimension'
p451
S'contains(japan)'
p452
tp453
g1
(g14
g3
NtRp454
(dp455
g17
F0.5
sg18
I62
sg19
g20
((dp456
I01
I1
sNI61
stRp457
sg23
I2
sg24
F63
sbs(g8
S'contains(jenn)'
p458
tp459
g1
(g14
g3
NtRp460
(dp461
g17
F0.5
sg18
I62
sg19
g20
((dp462
NI62
stRp463
sg23
I2
sg24
F63
sbs(g83
g31
tp464
g1
(g14
g3
NtRp465
(dp466
g17
F0.5
sg18
I62
sg19
g20
((dp467
I01
I2
sNI60
stRp468
sg23
I2
sg24
F63
sbs(g130
S'contains(person)'
tp469
g1
(g14
g3
NtRp470
(dp471
g17
F0.5
sg18
I53
sg19
g20
((dp472
I01
I2
sNI51
stRp473
sg23
I2
sg24
F54
sbs(g258
S'contains(a)'
tp474
g1
(g14
g3
NtRp475
(dp476
g17
F0.5
sg18
I53
sg19
g20
((dp477
I01
I17
sNI36
stRp478
sg23
I2
sg24
F54
sbs(g9
S'contains(big)'
p479
tp480
g1
(g14
g3
NtRp481
(dp482
g17
F0.5
sg18
I53
sg19
g20
((dp483
NI53
stRp484
sg23
I2
sg24
F54
sbs(g8
g308
tp485
g1
(g14
g3
NtRp486
(dp487
g17
F0.5
sg18
I62
sg19
g20
((dp488
NI62
stRp489
sg23
I2
sg24
F63
sbs(g8
S'contains(form)'
p490
tp491
g1
(g14
g3
NtRp492
(dp493
g17
F0.5
sg18
I62
sg19
g20
((dp494
NI62
stRp495
sg23
I2
sg24
F63
sbs(g8
S'contains(draw)'
p496
tp497
g1
(g14
g3
NtRp498
(dp499
g17
F0.5
sg18
I62
sg19
g20
((dp500
NI62
stRp501
sg23
I2
sg24
F63
sbs(g9
g266
tp502
g1
(g14
g3
NtRp503
(dp504
g17
F0.5
sg18
I53
sg19
g20
((dp505
NI53
stRp506
sg23
I2
sg24
F54
sbs(S'Dimension'
p507
S'contains(without)'
p508
tp509
g1
(g14
g3
NtRp510
(dp511
g17
F0.5
sg18
I62
sg19
g20
((dp512
I01
I1
sNI61
stRp513
sg23
I2
sg24
F63
sbs(g507
S'contains(touching)'
p514
tp515
g1
(g14
g3
NtRp516
(dp517
g17
F0.5
sg18
I62
sg19
g20
((dp518
I01
I1
sNI61
stRp519
sg23
I2
sg24
F63
sbs(g9
S'contains(go)'
p520
tp521
g1
(g14
g3
NtRp522
(dp523
g17
F0.5
sg18
I53
sg19
g20
((dp524
NI53
stRp525
sg23
I2
sg24
F54
sbs(g8
S'contains(stairs)'
p526
tp527
g1
(g14
g3
NtRp528
(dp529
g17
F0.5
sg18
I62
sg19
g20
((dp530
NI62
stRp531
sg23
I2
sg24
F63
sbs(g9
S'contains(pakistan)'
p532
tp533
g1
(g14
g3
NtRp534
(dp535
g17
F0.5
sg18
I53
sg19
g20
((dp536
NI53
stRp537
sg23
I2
sg24
F54
sbs(S'LookAndShape'
p538
S'contains(bob)'
p539
tp540
g1
(g14
g3
NtRp541
(dp542
g17
F0.5
sg18
I53
sg19
g20
((dp543
I01
I1
sNI52
stRp544
sg23
I2
sg24
F54
sbs(g8
S'contains(tall)'
p545
tp546
g1
(g14
g3
NtRp547
(dp548
g17
F0.5
sg18
I62
sg19
g20
((dp549
I01
I8
sNI54
stRp550
sg23
I2
sg24
F63
sbs(g8
S'contains(doll)'
p551
tp552
g1
(g14
g3
NtRp553
(dp554
g17
F0.5
sg18
I62
sg19
g20
((dp555
NI62
stRp556
sg23
I2
sg24
F63
sbs(S'LookAndShape'
S'contains(stripper)'
p557
tp558
g1
(g14
g3
NtRp559
(dp560
g17
F0.5
sg18
I53
sg19
g20
((dp561
I01
I1
sNI52
stRp562
sg23
I2
sg24
F54
sbs(g8
S'contains(georgina)'
p563
tp564
g1
(g14
g3
NtRp565
(dp566
g17
F0.5
sg18
I62
sg19
g20
((dp567
NI62
stRp568
sg23
I2
sg24
F63
sbs(S'Dimension'
p569
S'contains(mountain)'
p570
tp571
g1
(g14
g3
NtRp572
(dp573
g17
F0.5
sg18
I62
sg19
g20
((dp574
I01
I1
sNI61
stRp575
sg23
I2
sg24
F63
sbs(g9
S'contains(bird)'
p576
tp577
g1
(g14
g3
NtRp578
(dp579
g17
F0.5
sg18
I53
sg19
g20
((dp580
NI53
stRp581
sg23
I2
sg24
F54
sbs(g198
S'contains(shirt)'
p582
tp583
g1
(g14
g3
NtRp584
(dp585
g17
F0.5
sg18
I62
sg19
g20
((dp586
I01
I2
sNI60
stRp587
sg23
I2
sg24
F63
sbs(g9
S'contains(fiji)'
p588
tp589
g1
(g14
g3
NtRp590
(dp591
g17
F0.5
sg18
I53
sg19
g20
((dp592
NI53
stRp593
sg23
I2
sg24
F54
sbs(S'LookAndShape'
p594
S'contains(sun)'
p595
tp596
g1
(g14
g3
NtRp597
(dp598
g17
F0.5
sg18
I53
sg19
g20
((dp599
I01
I1
sNI52
stRp600
sg23
I2
sg24
F54
sbs(S'LookAndShape'
p601
g161
tp602
g1
(g14
g3
NtRp603
(dp604
g17
F0.5
sg18
I53
sg19
g20
((dp605
I01
I2
sNI51
stRp606
sg23
I2
sg24
F54
sbs(S'LookAndShape'
S'contains(model)'
p607
tp608
g1
(g14
g3
NtRp609
(dp610
g17
F0.5
sg18
I53
sg19
g20
((dp611
I01
I1
sNI52
stRp612
sg23
I2
sg24
F54
sbs(S'Dimension'
p613
S"contains(person's)"
p614
tp615
g1
(g14
g3
NtRp616
(dp617
g17
F0.5
sg18
I62
sg19
g20
((dp618
I01
I1
sNI61
stRp619
sg23
I2
sg24
F63
sbs(g8
S'contains(do)'
p620
tp621
g1
(g14
g3
NtRp622
(dp623
g17
F0.5
sg18
I62
sg19
g20
((dp624
NI62
stRp625
sg23
I2
sg24
F63
sbs(S'Dimension'
S'contains(they)'
p626
tp627
g1
(g14
g3
NtRp628
(dp629
g17
F0.5
sg18
I62
sg19
g20
((dp630
I01
I2
sNI60
stRp631
sg23
I2
sg24
F63
sbs(g63
S'contains(grow)'
p632
tp633
g1
(g14
g3
NtRp634
(dp635
g17
F0.5
sg18
I62
sg19
g20
((dp636
I01
I1
sNI61
stRp637
sg23
I2
sg24
F63
sbs(g314
S'contains(structure)'
p638
tp639
g1
(g14
g3
NtRp640
(dp641
g17
F0.5
sg18
I53
sg19
g20
((dp642
I01
I2
sNI51
stRp643
sg23
I2
sg24
F54
sbs(S'LookAndShape'
p644
S'contains(silhouette)'
p645
tp646
g1
(g14
g3
NtRp647
(dp648
g17
F0.5
sg18
I53
sg19
g20
((dp649
I01
I1
sNI52
stRp650
sg23
I2
sg24
F54
sbs(g9
S'contains(soccer)'
p651
tp652
g1
(g14
g3
NtRp653
(dp654
g17
F0.5
sg18
I53
sg19
g20
((dp655
NI53
stRp656
sg23
I2
sg24
F54
sbs(S'LookAndShape'
S'contains(bottles)'
p657
tp658
g1
(g14
g3
NtRp659
(dp660
g17
F0.5
sg18
I53
sg19
g20
((dp661
I01
I1
sNI52
stRp662
sg23
I2
sg24
F54
sbs(g9
S'contains(biggest)'
p663
tp664
g1
(g14
g3
NtRp665
(dp666
g17
F0.5
sg18
I53
sg19
g20
((dp667
NI53
stRp668
sg23
I2
sg24
F54
sbs(S'Dimension'
p669
S'contains(king)'
p670
tp671
g1
(g14
g3
NtRp672
(dp673
g17
F0.5
sg18
I62
sg19
g20
((dp674
I01
I1
sNI61
stRp675
sg23
I2
sg24
F63
sbs(g9
S'contains(her)'
p676
tp677
g1
(g14
g3
NtRp678
(dp679
g17
F0.5
sg18
I53
sg19
g20
((dp680
NI53
stRp681
sg23
I2
sg24
F54
sbs(g9
S'contains(short)'
p682
tp683
g1
(g14
g3
NtRp684
(dp685
g17
F0.5
sg18
I53
sg19
g20
((dp686
NI53
stRp687
sg23
I2
sg24
F54
sbs(S'LookAndShape'
S'contains(pen)'
p688
tp689
g1
(g14
g3
NtRp690
(dp691
g17
F0.5
sg18
I53
sg19
g20
((dp692
I01
I1
sNI52
stRp693
sg23
I2
sg24
F54
sbs(S'LookAndShape'
p694
S'contains(of)'
tp695
g1
(g14
g3
NtRp696
(dp697
g17
F0.5
sg18
I53
sg19
g20
((dp698
I01
I10
sNI43
stRp699
sg23
I2
sg24
F54
sbs(g451
S'contains(it)'
p700
tp701
g1
(g14
g3
NtRp702
(dp703
g17
F0.5
sg18
I62
sg19
g20
((dp704
I01
I1
sNI61
stRp705
sg23
I2
sg24
F63
sbs(g9
g38
tp706
g1
(g14
g3
NtRp707
(dp708
g17
F0.5
sg18
I53
sg19
g20
((dp709
NI53
stRp710
sg23
I2
sg24
F54
sbs(g265
S'contains(lightnings)'
p711
tp712
g1
(g14
g3
NtRp713
(dp714
g17
F0.5
sg18
I62
sg19
g20
((dp715
I01
I1
sNI61
stRp716
sg23
I2
sg24
F63
sbs(g8
g217
tp717
g1
(g14
g3
NtRp718
(dp719
g17
F0.5
sg18
I62
sg19
g20
((dp720
NI62
stRp721
sg23
I2
sg24
F63
sbs(g9
S'contains(bath)'
p722
tp723
g1
(g14
g3
NtRp724
(dp725
g17
F0.5
sg18
I53
sg19
g20
((dp726
NI53
stRp727
sg23
I2
sg24
F54
sbs(S'LookAndShape'
p728
S'contains(at)'
p729
tp730
g1
(g14
g3
NtRp731
(dp732
g17
F0.5
sg18
I53
sg19
g20
((dp733
I01
I1
sNI52
stRp734
sg23
I2
sg24
F54
sbs(g9
S'contains(mount)'
p735
tp736
g1
(g14
g3
NtRp737
(dp738
g17
F0.5
sg18
I53
sg19
g20
((dp739
NI53
stRp740
sg23
I2
sg24
F54
sbs(g9
S'contains(arc)'
p741
tp742
g1
(g14
g3
NtRp743
(dp744
g17
F0.5
sg18
I53
sg19
g20
((dp745
NI53
stRp746
sg23
I2
sg24
F54
sbs(S'LookAndShape'
S'contains(i)'
p747
tp748
g1
(g14
g3
NtRp749
(dp750
g17
F0.5
sg18
I53
sg19
g20
((dp751
I01
I1
sNI52
stRp752
sg23
I2
sg24
F54
sbs(S'LookAndShape'
S'contains(buildings)'
p753
tp754
g1
(g14
g3
NtRp755
(dp756
g17
F0.5
sg18
I53
sg19
g20
((dp757
I01
I1
sNI52
stRp758
sg23
I2
sg24
F54
sbs(S'Dimension'
p759
g576
tp760
g1
(g14
g3
NtRp761
(dp762
g17
F0.5
sg18
I62
sg19
g20
((dp763
I01
I1
sNI61
stRp764
sg23
I2
sg24
F63
sbs(g9
g570
tp765
g1
(g14
g3
NtRp766
(dp767
g17
F0.5
sg18
I53
sg19
g20
((dp768
NI53
stRp769
sg23
I2
sg24
F54
sbs(g9
S'contains(are)'
tp770
g1
(g14
g3
NtRp771
(dp772
g17
F0.5
sg18
I53
sg19
g20
((dp773
I01
I12
sNI41
stRp774
sg23
I2
sg24
F54
sbs(g179
S'contains(does)'
tp775
g1
(g14
g3
NtRp776
(dp777
g17
F0.5
sg18
I53
sg19
g20
((dp778
I01
I10
sNI43
stRp779
sg23
I2
sg24
F54
sbs(g9
S'contains(capacity)'
p780
tp781
g1
(g14
g3
NtRp782
(dp783
g17
F0.5
sg18
I53
sg19
g20
((dp784
NI53
stRp785
sg23
I2
sg24
F54
sbs(g9
S'contains(field)'
p786
tp787
g1
(g14
g3
NtRp788
(dp789
g17
F0.5
sg18
I53
sg19
g20
((dp790
NI53
stRp791
sg23
I2
sg24
F54
sbs(g83
S'contains(far)'
p792
tp793
g1
(g14
g3
NtRp794
(dp795
g17
F0.5
sg18
I62
sg19
g20
((dp796
I01
I6
sNI56
stRp797
sg23
I2
sg24
F63
sbs(g8
S'contains(men)'
p798
tp799
g1
(g14
g3
NtRp800
(dp801
g17
F0.5
sg18
I62
sg19
g20
((dp802
NI62
stRp803
sg23
I2
sg24
F63
sbs(g103
S'contains(order)'
p804
tp805
g1
(g14
g3
NtRp806
(dp807
g17
F0.5
sg18
I62
sg19
g20
((dp808
I01
I3
sNI59
stRp809
sg23
I2
sg24
F63
sbs(g9
S'contains(stomach)'
p810
tp811
g1
(g14
g3
NtRp812
(dp813
g17
F0.5
sg18
I53
sg19
g20
((dp814
NI53
stRp815
sg23
I2
sg24
F54
sbs(g9
g804
tp816
g1
(g14
g3
NtRp817
(dp818
g17
F0.5
sg18
I53
sg19
g20
((dp819
NI53
stRp820
sg23
I2
sg24
F54
sbs(g8
S'contains(ben)'
p821
tp822
g1
(g14
g3
NtRp823
(dp824
g17
F0.5
sg18
I62
sg19
g20
((dp825
NI62
stRp826
sg23
I2
sg24
F63
sbs(S'LookAndShape'
p827
S'contains(building)'
p828
tp829
g1
(g14
g3
NtRp830
(dp831
g17
F0.5
sg18
I53
sg19
g20
((dp832
I01
I1
sNI52
stRp833
sg23
I2
sg24
F54
sbs(g9
S'contains(water)'
p834
tp835
g1
(g14
g3
NtRp836
(dp837
g17
F0.5
sg18
I53
sg19
g20
((dp838
NI53
stRp839
sg23
I2
sg24
F54
sbs(g8
S'contains(shirts)'
p840
tp841
g1
(g14
g3
NtRp842
(dp843
g17
F0.5
sg18
I62
sg19
g20
((dp844
NI62
stRp845
sg23
I2
sg24
F63
sbs(g9
S'contains(hand)'
p846
tp847
g1
(g14
g3
NtRp848
(dp849
g17
F0.5
sg18
I53
sg19
g20
((dp850
NI53
stRp851
sg23
I2
sg24
F54
sbs(g9
S'contains(air)'
p852
tp853
g1
(g14
g3
NtRp854
(dp855
g17
F0.5
sg18
I53
sg19
g20
((dp856
NI53
stRp857
sg23
I2
sg24
F54
sbs(S'LookAndShape'
S'contains(hair)'
p858
tp859
g1
(g14
g3
NtRp860
(dp861
g17
F0.5
sg18
I53
sg19
g20
((dp862
I01
I1
sNI52
stRp863
sg23
I2
sg24
F54
sbs(g8
g858
tp864
g1
(g14
g3
NtRp865
(dp866
g17
F0.5
sg18
I62
sg19
g20
((dp867
NI62
stRp868
sg23
I2
sg24
F63
sbs(g8
S'contains(apple)'
p869
tp870
g1
(g14
g3
NtRp871
(dp872
g17
F0.5
sg18
I62
sg19
g20
((dp873
NI62
stRp874
sg23
I2
sg24
F63
sbs(g9
S'contains(tub)'
p875
tp876
g1
(g14
g3
NtRp877
(dp878
g17
F0.5
sg18
I53
sg19
g20
((dp879
NI53
stRp880
sg23
I2
sg24
F54
sbs(g8
S'contains(did)'
p881
tp882
g1
(g14
g3
NtRp883
(dp884
g17
F0.5
sg18
I62
sg19
g20
((dp885
NI62
stRp886
sg23
I2
sg24
F63
sbs(S'Dimension'
g834
tp887
g1
(g14
g3
NtRp888
(dp889
g17
F0.5
sg18
I62
sg19
g20
((dp890
I01
I1
sNI61
stRp891
sg23
I2
sg24
F63
sbs(g9
g711
tp892
g1
(g14
g3
NtRp893
(dp894
g17
F0.5
sg18
I53
sg19
g20
((dp895
NI53
stRp896
sg23
I2
sg24
F54
sbs(g9
g111
tp897
g1
(g14
g3
NtRp898
(dp899
g17
F0.5
sg18
I53
sg19
g20
((dp900
NI53
stRp901
sg23
I2
sg24
F54
sbs(g613
g810
tp902
g1
(g14
g3
NtRp903
(dp904
g17
F0.5
sg18
I62
sg19
g20
((dp905
I01
I1
sNI61
stRp906
sg23
I2
sg24
F63
sbs(g644
S'contains(lady)'
p907
tp908
g1
(g14
g3
NtRp909
(dp910
g17
F0.5
sg18
I53
sg19
g20
((dp911
I01
I1
sNI52
stRp912
sg23
I2
sg24
F54
sbs(g538
g423
tp913
g1
(g14
g3
NtRp914
(dp915
g17
F0.5
sg18
I53
sg19
g20
((dp916
I01
I1
sNI52
stRp917
sg23
I2
sg24
F54
sbs(S'Dimension'
p918
S'contains(regular)'
p919
tp920
g1
(g14
g3
NtRp921
(dp922
g17
F0.5
sg18
I62
sg19
g20
((dp923
I01
I4
sNI58
stRp924
sg23
I2
sg24
F63
sbs(g694
S'contains(the)'
tp925
g1
(g14
g3
NtRp926
(dp927
g17
F0.5
sg18
I53
sg19
g20
((dp928
I01
I15
sNI38
stRp929
sg23
I2
sg24
F54
sbs(S'Dimension'
p930
S'contains(of)'
tp931
g1
(g14
g3
NtRp932
(dp933
g17
F0.5
sg18
I62
sg19
g20
((dp934
I01
I28
sNI34
stRp935
sg23
I2
sg24
F63
sbs(g694
S'contains(shape)'
p936
tp937
g1
(g14
g3
NtRp938
(dp939
g17
F0.5
sg18
I53
sg19
g20
((dp940
I01
I3
sNI50
stRp941
sg23
I2
sg24
F54
sbs(g8
g747
tp942
g1
(g14
g3
NtRp943
(dp944
g17
F0.5
sg18
I62
sg19
g20
((dp945
NI62
stRp946
sg23
I2
sg24
F63
sbs(g240
S'contains(feet)'
p947
tp948
g1
(g14
g3
NtRp949
(dp950
g17
F0.5
sg18
I62
sg19
g20
((dp951
I01
I3
sNI59
stRp952
sg23
I2
sg24
F63
sbs(S'Dimension'
p953
S'contains(inches)'
p954
tp955
g1
(g14
g3
NtRp956
(dp957
g17
F0.5
sg18
I62
sg19
g20
((dp958
I01
I1
sNI61
stRp959
sg23
I2
sg24
F63
sbs(g204
S'contains(extension)'
p960
tp961
g1
(g14
g3
NtRp962
(dp963
g17
F0.5
sg18
I62
sg19
g20
((dp964
I01
I4
sNI58
stRp965
sg23
I2
sg24
F63
sbs(g9
S'contains(can)'
p966
tp967
g1
(g14
g3
NtRp968
(dp969
g17
F0.5
sg18
I53
sg19
g20
((dp970
NI53
stRp971
sg23
I2
sg24
F54
sbs(g8
g387
tp972
g1
(g14
g3
NtRp973
(dp974
g17
F0.5
sg18
I62
sg19
g20
((dp975
NI62
stRp976
sg23
I2
sg24
F63
sbs(S'Dimension'
p977
g651
tp978
g1
(g14
g3
NtRp979
(dp980
g17
F0.5
sg18
I62
sg19
g20
((dp981
I01
I2
sNI60
stRp982
sg23
I2
sg24
F63
sbs(g9
S'contains(kilowatt)'
p983
tp984
g1
(g14
g3
NtRp985
(dp986
g17
F0.5
sg18
I53
sg19
g20
((dp987
NI53
stRp988
sg23
I2
sg24
F54
sbs(g8
S'contains(folder)'
p989
tp990
g1
(g14
g3
NtRp991
(dp992
g17
F0.5
sg18
I62
sg19
g20
((dp993
NI62
stRp994
sg23
I2
sg24
F63
sbs(S'Dimension'
p995
S'contains(magnitude)'
p996
tp997
g1
(g14
g3
NtRp998
(dp999
g17
F0.5
sg18
I62
sg19
g20
((dp1000
I01
I4
sNI58
stRp1001
sg23
I2
sg24
F63
sbs(g8
g326
tp1002
g1
(g14
g3
NtRp1003
(dp1004
g17
F0.5
sg18
I62
sg19
g20
((dp1005
NI62
stRp1006
sg23
I2
sg24
F63
sbs(g9
g614
tp1007
g1
(g14
g3
NtRp1008
(dp1009
g17
F0.5
sg18
I53
sg19
g20
((dp1010
NI53
stRp1011
sg23
I2
sg24
F54
sbs(g8
g315
tp1012
g1
(g14
g3
NtRp1013
(dp1014
g17
F0.5
sg18
I62
sg19
g20
((dp1015
NI62
stRp1016
sg23
I2
sg24
F63
sbs(S'Dimension'
p1017
S'contains(bug)'
p1018
tp1019
g1
(g14
g3
NtRp1020
(dp1021
g17
F0.5
sg18
I62
sg19
g20
((dp1022
I01
I1
sNI61
stRp1023
sg23
I2
sg24
F63
sbs(g9
S'contains(on)'
p1024
tp1025
g1
(g14
g3
NtRp1026
(dp1027
g17
F0.5
sg18
I53
sg19
g20
((dp1028
NI53
stRp1029
sg23
I2
sg24
F54
sbs(S'LookAndShape'
S'contains(airplane)'
p1030
tp1031
g1
(g14
g3
NtRp1032
(dp1033
g17
F0.5
sg18
I53
sg19
g20
((dp1034
I01
I1
sNI52
stRp1035
sg23
I2
sg24
F54
sbs(g9
S'contains(boston)'
p1036
tp1037
g1
(g14
g3
NtRp1038
(dp1039
g17
F0.5
sg18
I53
sg19
g20
((dp1040
NI53
stRp1041
sg23
I2
sg24
F54
sbs(g8
S'contains(outline)'
p1042
tp1043
g1
(g14
g3
NtRp1044
(dp1045
g17
F0.5
sg18
I62
sg19
g20
((dp1046
NI62
stRp1047
sg23
I2
sg24
F63
sbs(g9
g954
tp1048
g1
(g14
g3
NtRp1049
(dp1050
g17
F0.5
sg18
I53
sg19
g20
((dp1051
NI53
stRp1052
sg23
I2
sg24
F54
sbs(S'Dimension'
S'contains(lamp)'
p1053
tp1054
g1
(g14
g3
NtRp1055
(dp1056
g17
F0.5
sg18
I62
sg19
g20
((dp1057
I01
I1
sNI61
stRp1058
sg23
I2
sg24
F63
sbs(g399
S'contains(jump)'
p1059
tp1060
g1
(g14
g3
NtRp1061
(dp1062
g17
F0.5
sg18
I62
sg19
g20
((dp1063
I01
I1
sNI61
stRp1064
sg23
I2
sg24
F63
sbs(g9
S'contains(highway)'
p1065
tp1066
g1
(g14
g3
NtRp1067
(dp1068
g17
F0.5
sg18
I53
sg19
g20
((dp1069
NI53
stRp1070
sg23
I2
sg24
F54
sbs(g8
g936
tp1071
g1
(g14
g3
NtRp1072
(dp1073
g17
F0.5
sg18
I62
sg19
g20
((dp1074
NI62
stRp1075
sg23
I2
sg24
F63
sbs(g8
g557
tp1076
g1
(g14
g3
NtRp1077
(dp1078
g17
F0.5
sg18
I62
sg19
g20
((dp1079
NI62
stRp1080
sg23
I2
sg24
F63
sbs(g8
g657
tp1081
g1
(g14
g3
NtRp1082
(dp1083
g17
F0.5
sg18
I62
sg19
g20
((dp1084
NI62
stRp1085
sg23
I2
sg24
F63
sbs(g25
S'contains(be)'
p1086
tp1087
g1
(g14
g3
NtRp1088
(dp1089
g17
F0.5
sg18
I62
sg19
g20
((dp1090
I01
I5
sNI57
stRp1091
sg23
I2
sg24
F63
sbs(S'LookAndShape'
p1092
S'contains(ugly)'
p1093
tp1094
g1
(g14
g3
NtRp1095
(dp1096
g17
F0.5
sg18
I53
sg19
g20
((dp1097
I01
I2
sNI51
stRp1098
sg23
I2
sg24
F54
sbs(g8
g247
tp1099
g1
(g14
g3
NtRp1100
(dp1101
g17
F0.5
sg18
I62
sg19
g20
((dp1102
NI62
stRp1103
sg23
I2
sg24
F63
sbs(S'LookAndShape'
S'contains(snow)'
p1104
tp1105
g1
(g14
g3
NtRp1106
(dp1107
g17
F0.5
sg18
I53
sg19
g20
((dp1108
I01
I1
sNI52
stRp1109
sg23
I2
sg24
F54
sbs(g198
S'contains(laundry)'
p1110
tp1111
g1
(g14
g3
NtRp1112
(dp1113
g17
F0.5
sg18
I62
sg19
g20
((dp1114
I01
I2
sNI60
stRp1115
sg23
I2
sg24
F63
sbs(g930
S'contains(that)'
tp1116
g1
(g14
g3
NtRp1117
(dp1118
g17
F0.5
sg18
I62
sg19
g20
((dp1119
I01
I3
sNI59
stRp1120
sg23
I2
sg24
F63
sbs(g8
S'contains(this)'
p1121
tp1122
g1
(g14
g3
NtRp1123
(dp1124
g17
F0.5
sg18
I62
sg19
g20
((dp1125
NI62
stRp1126
sg23
I2
sg24
F63
sbs(g9
S'contains(european)'
p1127
tp1128
g1
(g14
g3
NtRp1129
(dp1130
g17
F0.5
sg18
I53
sg19
g20
((dp1131
NI53
stRp1132
sg23
I2
sg24
F54
sbs(g8
g445
tp1133
g1
(g14
g3
NtRp1134
(dp1135
g17
F0.5
sg18
I62
sg19
g20
((dp1136
NI62
stRp1137
sg23
I2
sg24
F63
sbs(S'Dimension'
p1138
g875
tp1139
g1
(g14
g3
NtRp1140
(dp1141
g17
F0.5
sg18
I62
sg19
g20
((dp1142
I01
I1
sNI61
stRp1143
sg23
I2
sg24
F63
sbs(g451
S'contains(spain)'
p1144
tp1145
g1
(g14
g3
NtRp1146
(dp1147
g17
F0.5
sg18
I62
sg19
g20
((dp1148
I01
I1
sNI61
stRp1149
sg23
I2
sg24
F63
sbs(g8
g180
tp1150
g1
(g14
g3
NtRp1151
(dp1152
g17
F0.5
sg18
I62
sg19
g20
((dp1153
NI62
stRp1154
sg23
I2
sg24
F63
sbs(g198
S'contains(after)'
p1155
tp1156
g1
(g14
g3
NtRp1157
(dp1158
g17
F0.5
sg18
I62
sg19
g20
((dp1159
I01
I2
sNI60
stRp1160
sg23
I2
sg24
F63
sbs(g83
g588
tp1161
g1
(g14
g3
NtRp1162
(dp1163
g17
F0.5
sg18
I62
sg19
g20
((dp1164
I01
I1
sNI61
stRp1165
sg23
I2
sg24
F63
sbs(S'LookAndShape'
p1166
g821
tp1167
g1
(g14
g3
NtRp1168
(dp1169
g17
F0.5
sg18
I53
sg19
g20
((dp1170
I01
I1
sNI52
stRp1171
sg23
I2
sg24
F54
sbs(g728
g458
tp1172
g1
(g14
g3
NtRp1173
(dp1174
g17
F0.5
sg18
I53
sg19
g20
((dp1175
I01
I1
sNI52
stRp1176
sg23
I2
sg24
F54
sbs(g8
g539
tp1177
g1
(g14
g3
NtRp1178
(dp1179
g17
F0.5
sg18
I62
sg19
g20
((dp1180
NI62
stRp1181
sg23
I2
sg24
F63
sbs(g9
g452
tp1182
g1
(g14
g3
NtRp1183
(dp1184
g17
F0.5
sg18
I53
sg19
g20
((dp1185
NI53
stRp1186
sg23
I2
sg24
F54
sbs(g9
S'contains(?)'
tp1187
g1
(g14
g3
NtRp1188
(dp1189
g17
F0.5
sg18
I53
sg19
g20
((dp1190
I01
I53
stRp1191
sg23
I1
sg24
F53.5
sbs(S'Dimension'
p1192
S'contains(train)'
p1193
tp1194
g1
(g14
g3
NtRp1195
(dp1196
g17
F0.5
sg18
I62
sg19
g20
((dp1197
I01
I1
sNI61
stRp1198
sg23
I2
sg24
F63
sbs(g9
g77
tp1199
g1
(g14
g3
NtRp1200
(dp1201
g17
F0.5
sg18
I53
sg19
g20
((dp1202
NI53
stRp1203
sg23
I2
sg24
F54
sbs(g240
S'contains(was)'
p1204
tp1205
g1
(g14
g3
NtRp1206
(dp1207
g17
F0.5
sg18
I62
sg19
g20
((dp1208
I01
I1
sNI61
stRp1209
sg23
I2
sg24
F63
sbs(g669
g374
tp1210
g1
(g14
g3
NtRp1211
(dp1212
g17
F0.5
sg18
I62
sg19
g20
((dp1213
I01
I1
sNI61
stRp1214
sg23
I2
sg24
F63
sbs(g507
S'contains(magnets)'
p1215
tp1216
g1
(g14
g3
NtRp1217
(dp1218
g17
F0.5
sg18
I62
sg19
g20
((dp1219
I01
I1
sNI61
stRp1220
sg23
I2
sg24
F63
sbs(g9
S'contains(ants)'
p1221
tp1222
g1
(g14
g3
NtRp1223
(dp1224
g17
F0.5
sg18
I53
sg19
g20
((dp1225
NI53
stRp1226
sg23
I2
sg24
F54
sbs(g9
g361
tp1227
g1
(g14
g3
NtRp1228
(dp1229
g17
F0.5
sg18
I53
sg19
g20
((dp1230
NI53
stRp1231
sg23
I2
sg24
F54
sbs(g9
g64
tp1232
g1
(g14
g3
NtRp1233
(dp1234
g17
F0.5
sg18
I53
sg19
g20
((dp1235
NI53
stRp1236
sg23
I2
sg24
F54
sbs(S'Dimension'
S'contains(nm)'
p1237
tp1238
g1
(g14
g3
NtRp1239
(dp1240
g17
F0.5
sg18
I62
sg19
g20
((dp1241
I01
I1
sNI61
stRp1242
sg23
I2
sg24
F63
sbs(g56
g283
tp1243
g1
(g14
g3
NtRp1244
(dp1245
g17
F0.5
sg18
I62
sg19
g20
((dp1246
I01
I1
sNI61
stRp1247
sg23
I2
sg24
F63
sbs(S'LookAndShape'
p1248
g412
tp1249
g1
(g14
g3
NtRp1250
(dp1251
g17
F0.5
sg18
I53
sg19
g20
((dp1252
I01
I1
sNI52
stRp1253
sg23
I2
sg24
F54
sbs(S'LookAndShape'
S'contains(scissors)'
p1254
tp1255
g1
(g14
g3
NtRp1256
(dp1257
g17
F0.5
sg18
I53
sg19
g20
((dp1258
I01
I2
sNI51
stRp1259
sg23
I2
sg24
F54
sbs(g25
S'contains(human)'
p1260
tp1261
g1
(g14
g3
NtRp1262
(dp1263
g17
F0.5
sg18
I62
sg19
g20
((dp1264
I01
I2
sNI60
stRp1265
sg23
I2
sg24
F63
sbs(S'Dimension'
p1266
S'contains(package)'
p1267
tp1268
g1
(g14
g3
NtRp1269
(dp1270
g17
F0.5
sg18
I62
sg19
g20
((dp1271
I01
I1
sNI61
stRp1272
sg23
I2
sg24
F63
sbs(S'LookAndShape'
g295
tp1273
g1
(g14
g3
NtRp1274
(dp1275
g17
F0.5
sg18
I53
sg19
g20
((dp1276
I01
I1
sNI52
stRp1277
sg23
I2
sg24
F54
sbs(g9
g406
tp1278
g1
(g14
g3
NtRp1279
(dp1280
g17
F0.5
sg18
I53
sg19
g20
((dp1281
NI53
stRp1282
sg23
I2
sg24
F54
sbs(g8
S'contains(how)'
tp1283
g1
(g14
g3
NtRp1284
(dp1285
g17
F0.5
sg18
I62
sg19
g20
((dp1286
I01
I34
sNI28
stRp1287
sg23
I2
sg24
F63
sbs(g9
g104
tp1288
g1
(g14
g3
NtRp1289
(dp1290
g17
F0.5
sg18
I53
sg19
g20
((dp1291
NI53
stRp1292
sg23
I2
sg24
F54
sbs(g9
g1193
tp1293
g1
(g14
g3
NtRp1294
(dp1295
g17
F0.5
sg18
I53
sg19
g20
((dp1296
NI53
stRp1297
sg23
I2
sg24
F54
sbs(g8
g259
tp1298
g1
(g14
g3
NtRp1299
(dp1300
g17
F0.5
sg18
I62
sg19
g20
((dp1301
NI62
stRp1302
sg23
I2
sg24
F63
sbs(g8
S'contains(trousers)'
p1303
tp1304
g1
(g14
g3
NtRp1305
(dp1306
g17
F0.5
sg18
I62
sg19
g20
((dp1307
NI62
stRp1308
sg23
I2
sg24
F63
sbs(S'LookAndShape'
p1309
S'contains(defines)'
p1310
tp1311
g1
(g14
g3
NtRp1312
(dp1313
g17
F0.5
sg18
I53
sg19
g20
((dp1314
I01
I1
sNI52
stRp1315
sg23
I2
sg24
F54
sbs(g8
g381
tp1316
g1
(g14
g3
NtRp1317
(dp1318
g17
F0.5
sg18
I62
sg19
g20
((dp1319
NI62
stRp1320
sg23
I2
sg24
F63
sbs(g9
S'contains(normal)'
p1321
tp1322
g1
(g14
g3
NtRp1323
(dp1324
g17
F0.5
sg18
I53
sg19
g20
((dp1325
NI53
stRp1326
sg23
I2
sg24
F54
sbs(g9
S'contains(pad)'
p1327
tp1328
g1
(g14
g3
NtRp1329
(dp1330
g17
F0.5
sg18
I53
sg19
g20
((dp1331
NI53
stRp1332
sg23
I2
sg24
F54
sbs(g8
g638
tp1333
g1
(g14
g3
NtRp1334
(dp1335
g17
F0.5
sg18
I62
sg19
g20
((dp1336
NI62
stRp1337
sg23
I2
sg24
F63
sbs(g9
g626
tp1338
g1
(g14
g3
NtRp1339
(dp1340
g17
F0.5
sg18
I53
sg19
g20
((dp1341
NI53
stRp1342
sg23
I2
sg24
F54
sbs(S'LookAndShape'
S'contains(ovnis)'
p1343
tp1344
g1
(g14
g3
NtRp1345
(dp1346
g17
F0.5
sg18
I53
sg19
g20
((dp1347
I01
I2
sNI51
stRp1348
sg23
I2
sg24
F54
sbs(S'Dimension'
p1349
S'contains(his)'
p1350
tp1351
g1
(g14
g3
NtRp1352
(dp1353
g17
F0.5
sg18
I62
sg19
g20
((dp1354
I01
I1
sNI61
stRp1355
sg23
I2
sg24
F63
sbs(S'Dimension'
p1356
S'contains(volume)'
p1357
tp1358
g1
(g14
g3
NtRp1359
(dp1360
g17
F0.5
sg18
I62
sg19
g20
((dp1361
I01
I6
sNI56
stRp1362
sg23
I2
sg24
F63
sbs(g9
S'contains(two)'
p1363
tp1364
g1
(g14
g3
NtRp1365
(dp1366
g17
F0.5
sg18
I53
sg19
g20
((dp1367
NI53
stRp1368
sg23
I2
sg24
F54
sbs(S'Dimension'
p1369
S'contains(everest)'
p1370
tp1371
g1
(g14
g3
NtRp1372
(dp1373
g17
F0.5
sg18
I62
sg19
g20
((dp1374
I01
I1
sNI61
stRp1375
sg23
I2
sg24
F63
sbs(g9
g289
tp1376
g1
(g14
g3
NtRp1377
(dp1378
g17
F0.5
sg18
I53
sg19
g20
((dp1379
NI53
stRp1380
sg23
I2
sg24
F54
sbs(g9
g1155
tp1381
g1
(g14
g3
NtRp1382
(dp1383
g17
F0.5
sg18
I53
sg19
g20
((dp1384
NI53
stRp1385
sg23
I2
sg24
F54
sbs(g9
S'contains(small)'
p1386
tp1387
g1
(g14
g3
NtRp1388
(dp1389
g17
F0.5
sg18
I53
sg19
g20
((dp1390
NI53
stRp1391
sg23
I2
sg24
F54
sbs(g360
g167
tp1392
g1
(g14
g3
NtRp1393
(dp1394
g17
F0.5
sg18
I62
sg19
g20
((dp1395
I01
I1
sNI61
stRp1396
sg23
I2
sg24
F63
sbs(g8
g595
tp1397
g1
(g14
g3
NtRp1398
(dp1399
g17
F0.5
sg18
I62
sg19
g20
((dp1400
NI62
stRp1401
sg23
I2
sg24
F63
sbs(g9
S'contains(forest)'
p1402
tp1403
g1
(g14
g3
NtRp1404
(dp1405
g17
F0.5
sg18
I53
sg19
g20
((dp1406
NI53
stRp1407
sg23
I2
sg24
F54
sbs(g110
g1127
tp1408
g1
(g14
g3
NtRp1409
(dp1410
g17
F0.5
sg18
I62
sg19
g20
((dp1411
I01
I1
sNI61
stRp1412
sg23
I2
sg24
F63
sbs(g694
g143
tp1413
g1
(g14
g3
NtRp1414
(dp1415
g17
F0.5
sg18
I53
sg19
g20
((dp1416
I01
I1
sNI52
stRp1417
sg23
I2
sg24
F54
sbs(g8
S'contains(like)'
p1418
tp1419
g1
(g14
g3
NtRp1420
(dp1421
g17
F0.5
sg18
I62
sg19
g20
((dp1422
NI62
stRp1423
sg23
I2
sg24
F63
sbs(g1309
S'contains(that)'
tp1424
g1
(g14
g3
NtRp1425
(dp1426
g17
F0.5
sg18
I53
sg19
g20
((dp1427
I01
I3
sNI50
stRp1428
sg23
I2
sg24
F54
sbs(S'LookAndShape'
g526
tp1429
g1
(g14
g3
NtRp1430
(dp1431
g17
F0.5
sg18
I53
sg19
g20
((dp1432
I01
I1
sNI52
stRp1433
sg23
I2
sg24
F54
sbs(S'Dimension'
p1434
g211
tp1435
g1
(g14
g3
NtRp1436
(dp1437
g17
F0.5
sg18
I62
sg19
g20
((dp1438
I01
I1
sNI61
stRp1439
sg23
I2
sg24
F63
sbs(g8
g1104
tp1440
g1
(g14
g3
NtRp1441
(dp1442
g17
F0.5
sg18
I62
sg19
g20
((dp1443
NI62
stRp1444
sg23
I2
sg24
F63
sbs(g9
S'contains(woman)'
p1445
tp1446
g1
(g14
g3
NtRp1447
(dp1448
g17
F0.5
sg18
I53
sg19
g20
((dp1449
NI53
stRp1450
sg23
I2
sg24
F54
sbs(g8
g1093
tp1451
g1
(g14
g3
NtRp1452
(dp1453
g17
F0.5
sg18
I62
sg19
g20
((dp1454
NI62
stRp1455
sg23
I2
sg24
F63
sbs(g9
S'contains(high)'
p1456
tp1457
g1
(g14
g3
NtRp1458
(dp1459
g17
F0.5
sg18
I53
sg19
g20
((dp1460
NI53
stRp1461
sg23
I2
sg24
F54
sbs(g9
g670
tp1462
g1
(g14
g3
NtRp1463
(dp1464
g17
F0.5
sg18
I53
sg19
g20
((dp1465
NI53
stRp1466
sg23
I2
sg24
F54
sbs(g9
g97
tp1467
g1
(g14
g3
NtRp1468
(dp1469
g17
F0.5
sg18
I53
sg19
g20
((dp1470
NI53
stRp1471
sg23
I2
sg24
F54
sbs(g8
g1310
tp1472
g1
(g14
g3
NtRp1473
(dp1474
g17
F0.5
sg18
I62
sg19
g20
((dp1475
NI62
stRp1476
sg23
I2
sg24
F63
sbs(g9
g1370
tp1477
g1
(g14
g3
NtRp1478
(dp1479
g17
F0.5
sg18
I53
sg19
g20
((dp1480
NI53
stRp1481
sg23
I2
sg24
F54
sbs(g8
g192
tp1482
g1
(g14
g3
NtRp1483
(dp1484
g17
F0.5
sg18
I62
sg19
g20
((dp1485
I01
I2
sNI60
stRp1486
sg23
I2
sg24
F63
sbs(S'LookAndShape'
p1487
S'contains(how)'
tp1488
g1
(g14
g3
NtRp1489
(dp1490
g17
F0.5
sg18
I53
sg19
g20
((dp1491
I01
I23
sNI30
stRp1492
sg23
I2
sg24
F54
sbs(g123
g1386
tp1493
g1
(g14
g3
NtRp1494
(dp1495
g17
F0.5
sg18
I62
sg19
g20
((dp1496
I01
I4
sNI58
stRp1497
sg23
I2
sg24
F63
sbs(g110
g173
tp1498
g1
(g14
g3
NtRp1499
(dp1500
g17
F0.5
sg18
I62
sg19
g20
((dp1501
I01
I1
sNI61
stRp1502
sg23
I2
sg24
F63
sbs(S'Dimension'
p1503
g1036
tp1504
g1
(g14
g3
NtRp1505
(dp1506
g17
F0.5
sg18
I62
sg19
g20
((dp1507
I01
I1
sNI61
stRp1508
sg23
I2
sg24
F63
sbs(g9
g1267
tp1509
g1
(g14
g3
NtRp1510
(dp1511
g17
F0.5
sg18
I53
sg19
g20
((dp1512
NI53
stRp1513
sg23
I2
sg24
F54
sbs(g9
g1357
tp1514
g1
(g14
g3
NtRp1515
(dp1516
g17
F0.5
sg18
I53
sg19
g20
((dp1517
NI53
stRp1518
sg23
I2
sg24
F54
sbs(g953
S"contains(hitler's)"
p1519
tp1520
g1
(g14
g3
NtRp1521
(dp1522
g17
F0.5
sg18
I62
sg19
g20
((dp1523
I01
I1
sNI61
stRp1524
sg23
I2
sg24
F63
sbs(g9
g1086
tp1525
g1
(g14
g3
NtRp1526
(dp1527
g17
F0.5
sg18
I53
sg19
g20
((dp1528
NI53
stRp1529
sg23
I2
sg24
F54
sbs(g8
g131
tp1530
g1
(g14
g3
NtRp1531
(dp1532
g17
F0.5
sg18
I62
sg19
g20
((dp1533
NI62
stRp1534
sg23
I2
sg24
F63
sbs(g9
g996
tp1535
g1
(g14
g3
NtRp1536
(dp1537
g17
F0.5
sg18
I53
sg19
g20
((dp1538
NI53
stRp1539
sg23
I2
sg24
F54
sbs(g8
g1343
tp1540
g1
(g14
g3
NtRp1541
(dp1542
g17
F0.5
sg18
I62
sg19
g20
((dp1543
NI62
stRp1544
sg23
I2
sg24
F63
sbs(g9
g1237
tp1545
g1
(g14
g3
NtRp1546
(dp1547
g17
F0.5
sg18
I53
sg19
g20
((dp1548
NI53
stRp1549
sg23
I2
sg24
F54
sbs(g8
S'contains(?)'
tp1550
g1
(g14
g3
NtRp1551
(dp1552
g17
F0.5
sg18
I62
sg19
g20
((dp1553
I01
I62
stRp1554
sg23
I1
sg24
F62.5
sbs(g8
S'contains(prom)'
p1555
tp1556
g1
(g14
g3
NtRp1557
(dp1558
g17
F0.5
sg18
I62
sg19
g20
((dp1559
NI62
stRp1560
sg23
I2
sg24
F63
sbs(S'Dimension'
g983
tp1561
g1
(g14
g3
NtRp1562
(dp1563
g17
F0.5
sg18
I62
sg19
g20
((dp1564
I01
I1
sNI61
stRp1565
sg23
I2
sg24
F63
sbs(S'LookAndShape'
g90
tp1566
g1
(g14
g3
NtRp1567
(dp1568
g17
F0.5
sg18
I53
sg19
g20
((dp1569
I01
I1
sNI52
stRp1570
sg23
I2
sg24
F54
sbs(g9
S'contains(in)'
p1571
tp1572
g1
(g14
g3
NtRp1573
(dp1574
g17
F0.5
sg18
I53
sg19
g20
((dp1575
NI53
stRp1576
sg23
I2
sg24
F54
sbs(g1349
g676
tp1577
g1
(g14
g3
NtRp1578
(dp1579
g17
F0.5
sg18
I62
sg19
g20
((dp1580
I01
I1
sNI61
stRp1581
sg23
I2
sg24
F63
sbs(g56
S'contains(tree)'
p1582
tp1583
g1
(g14
g3
NtRp1584
(dp1585
g17
F0.5
sg18
I62
sg19
g20
((dp1586
I01
I2
sNI60
stRp1587
sg23
I2
sg24
F63
sbs(g9
g1260
tp1588
g1
(g14
g3
NtRp1589
(dp1590
g17
F0.5
sg18
I53
sg19
g20
((dp1591
NI53
stRp1592
sg23
I2
sg24
F54
sbs(g9
S'contains(elephant)'
p1593
tp1594
g1
(g14
g3
NtRp1595
(dp1596
g17
F0.5
sg18
I53
sg19
g20
((dp1597
NI53
stRp1598
sg23
I2
sg24
F54
sbs(g8
S'contains(people)'
p1599
tp1600
g1
(g14
g3
NtRp1601
(dp1602
g17
F0.5
sg18
I62
sg19
g20
((dp1603
NI62
stRp1604
sg23
I2
sg24
F63
sbs(g9
g919
tp1605
g1
(g14
g3
NtRp1606
(dp1607
g17
F0.5
sg18
I53
sg19
g20
((dp1608
NI53
stRp1609
sg23
I2
sg24
F54
sbs(S'Dimension'
p1610
S'contains(is)'
tp1611
g1
(g14
g3
NtRp1612
(dp1613
g17
F0.5
sg18
I62
sg19
g20
((dp1614
I01
I40
sNI22
stRp1615
sg23
I2
sg24
F63
sbs(g8
g349
tp1616
g1
(g14
g3
NtRp1617
(dp1618
g17
F0.5
sg18
I62
sg19
g20
((dp1619
NI62
stRp1620
sg23
I2
sg24
F63
sbs(g9
S'contains(ocean)'
p1621
tp1622
g1
(g14
g3
NtRp1623
(dp1624
g17
F0.5
sg18
I53
sg19
g20
((dp1625
NI53
stRp1626
sg23
I2
sg24
F54
sbs(g1017
g332
tp1627
g1
(g14
g3
NtRp1628
(dp1629
g17
F0.5
sg18
I62
sg19
g20
((dp1630
I01
I2
sNI60
stRp1631
sg23
I2
sg24
F63
sbs(g9
g1519
tp1632
g1
(g14
g3
NtRp1633
(dp1634
g17
F0.5
sg18
I53
sg19
g20
((dp1635
NI53
stRp1636
sg23
I2
sg24
F54
sbs(S'Dimension'
p1637
g277
tp1638
g1
(g14
g3
NtRp1639
(dp1640
g17
F0.5
sg18
I62
sg19
g20
((dp1641
I01
I1
sNI61
stRp1642
sg23
I2
sg24
F63
sbs(S'LookAndShape'
g869
tp1643
g1
(g14
g3
NtRp1644
(dp1645
g17
F0.5
sg18
I53
sg19
g20
((dp1646
I01
I2
sNI51
stRp1647
sg23
I2
sg24
F54
sbs(g8
S'contains(pretty)'
p1648
tp1649
g1
(g14
g3
NtRp1650
(dp1651
g17
F0.5
sg18
I62
sg19
g20
((dp1652
NI62
stRp1653
sg23
I2
sg24
F63
sbs(g9
S'contains(korea)'
p1654
tp1655
g1
(g14
g3
NtRp1656
(dp1657
g17
F0.5
sg18
I53
sg19
g20
((dp1658
NI53
stRp1659
sg23
I2
sg24
F54
sbs(g827
g1042
tp1660
g1
(g14
g3
NtRp1661
(dp1662
g17
F0.5
sg18
I53
sg19
g20
((dp1663
I01
I1
sNI52
stRp1664
sg23
I2
sg24
F54
sbs(g918
g846
tp1665
g1
(g14
g3
NtRp1666
(dp1667
g17
F0.5
sg18
I62
sg19
g20
((dp1668
I01
I3
sNI59
stRp1669
sg23
I2
sg24
F63
sbs(g1369
g1456
tp1670
g1
(g14
g3
NtRp1671
(dp1672
g17
F0.5
sg18
I62
sg19
g20
((dp1673
I01
I3
sNI59
stRp1674
sg23
I2
sg24
F63
sbs(g96
g1621
tp1675
g1
(g14
g3
NtRp1676
(dp1677
g17
F0.5
sg18
I62
sg19
g20
((dp1678
I01
I1
sNI61
stRp1679
sg23
I2
sg24
F63
sbs(g9
S'contains(size)'
p1680
tp1681
g1
(g14
g3
NtRp1682
(dp1683
g17
F0.5
sg18
I53
sg19
g20
((dp1684
NI53
stRp1685
sg23
I2
sg24
F54
sbs(S'LookAndShape'
g798
tp1686
g1
(g14
g3
NtRp1687
(dp1688
g17
F0.5
sg18
I53
sg19
g20
((dp1689
I01
I1
sNI52
stRp1690
sg23
I2
sg24
F54
sbs(g1434
S'contains(plane)'
tp1691
g1
(g14
g3
NtRp1692
(dp1693
g17
F0.5
sg18
I62
sg19
g20
((dp1694
I01
I1
sNI61
stRp1695
sg23
I2
sg24
F63
sbs(g8
S'contains(are)'
tp1696
g1
(g14
g3
NtRp1697
(dp1698
g17
F0.5
sg18
I62
sg19
g20
((dp1699
I01
I6
sNI56
stRp1700
sg23
I2
sg24
F63
sbs(g1092
S'contains(an)'
tp1701
g1
(g14
g3
NtRp1702
(dp1703
g17
F0.5
sg18
I53
sg19
g20
((dp1704
I01
I7
sNI46
stRp1705
sg23
I2
sg24
F54
sbs(g9
g1144
tp1706
g1
(g14
g3
NtRp1707
(dp1708
g17
F0.5
sg18
I53
sg19
g20
((dp1709
NI53
stRp1710
sg23
I2
sg24
F54
sbs(g123
S'contains(your)'
p1711
tp1712
g1
(g14
g3
NtRp1713
(dp1714
g17
F0.5
sg18
I62
sg19
g20
((dp1715
I01
I2
sNI60
stRp1716
sg23
I2
sg24
F63
sbs(g538
S'contains(last)'
p1717
tp1718
g1
(g14
g3
NtRp1719
(dp1720
g17
F0.5
sg18
I53
sg19
g20
((dp1721
I01
I1
sNI52
stRp1722
sg23
I2
sg24
F54
sbs(S'LookAndShape'
S'contains(table)'
tp1723
g1
(g14
g3
NtRp1724
(dp1725
g17
F0.5
sg18
I53
sg19
g20
((dp1726
I01
I1
sNI52
stRp1727
sg23
I2
sg24
F54
sbs(g96
g1024
tp1728
g1
(g14
g3
NtRp1729
(dp1730
g17
F0.5
sg18
I62
sg19
g20
((dp1731
I01
I1
sNI61
stRp1732
sg23
I2
sg24
F63
sbs(g9
g1018
tp1733
g1
(g14
g3
NtRp1734
(dp1735
g17
F0.5
sg18
I53
sg19
g20
((dp1736
NI53
stRp1737
sg23
I2
sg24
F54
sbs(g1138
g722
tp1738
g1
(g14
g3
NtRp1739
(dp1740
g17
F0.5
sg18
I62
sg19
g20
((dp1741
I01
I1
sNI61
stRp1742
sg23
I2
sg24
F63
sbs(g1166
g1121
tp1743
g1
(g14
g3
NtRp1744
(dp1745
g17
F0.5
sg18
I53
sg19
g20
((dp1746
I01
I2
sNI51
stRp1747
sg23
I2
sg24
F54
sbs(g8
g688
tp1748
g1
(g14
g3
NtRp1749
(dp1750
g17
F0.5
sg18
I62
sg19
g20
((dp1751
NI62
stRp1752
sg23
I2
sg24
F63
sbs(S'Dimension'
g1327
tp1753
g1
(g14
g3
NtRp1754
(dp1755
g17
F0.5
sg18
I62
sg19
g20
((dp1756
I01
I1
sNI61
stRp1757
sg23
I2
sg24
F63
sbs(g1356
S'contains(bottle)'
p1758
tp1759
g1
(g14
g3
NtRp1760
(dp1761
g17
F0.5
sg18
I62
sg19
g20
((dp1762
I01
I1
sNI61
stRp1763
sg23
I2
sg24
F63
sbs(g9
S'contains(shoe)'
p1764
tp1765
g1
(g14
g3
NtRp1766
(dp1767
g17
F0.5
sg18
I53
sg19
g20
((dp1768
NI53
stRp1769
sg23
I2
sg24
F54
sbs(g25
g966
tp1770
g1
(g14
g3
NtRp1771
(dp1772
g17
F0.5
sg18
I62
sg19
g20
((dp1773
I01
I10
sNI52
stRp1774
sg23
I2
sg24
F63
sbs(g1503
g1065
tp1775
g1
(g14
g3
NtRp1776
(dp1777
g17
F0.5
sg18
I62
sg19
g20
((dp1778
I01
I1
sNI61
stRp1779
sg23
I2
sg24
F63
sbs(S'Dimension'
g682
tp1780
g1
(g14
g3
NtRp1781
(dp1782
g17
F0.5
sg18
I62
sg19
g20
((dp1783
I01
I4
sNI58
stRp1784
sg23
I2
sg24
F63
sbs(g9
g1053
tp1785
g1
(g14
g3
NtRp1786
(dp1787
g17
F0.5
sg18
I53
sg19
g20
((dp1788
NI53
stRp1789
sg23
I2
sg24
F54
sbs(g9
g84
tp1790
g1
(g14
g3
NtRp1791
(dp1792
g17
F0.5
sg18
I53
sg19
g20
((dp1793
NI53
stRp1794
sg23
I2
sg24
F54
sbs(g8
S'contains(sense)'
p1795
tp1796
g1
(g14
g3
NtRp1797
(dp1798
g17
F0.5
sg18
I62
sg19
g20
((dp1799
NI62
stRp1800
sg23
I2
sg24
F63
sbs(g8
g1030
tp1801
g1
(g14
g3
NtRp1802
(dp1803
g17
F0.5
sg18
I62
sg19
g20
((dp1804
NI62
stRp1805
sg23
I2
sg24
F63
sbs(S'Dimension'
g1764
tp1806
g1
(g14
g3
NtRp1807
(dp1808
g17
F0.5
sg18
I62
sg19
g20
((dp1809
I01
I1
sNI61
stRp1810
sg23
I2
sg24
F63
sbs(g1503
g70
tp1811
g1
(g14
g3
NtRp1812
(dp1813
g17
F0.5
sg18
I62
sg19
g20
((dp1814
I01
I1
sNI61
stRp1815
sg23
I2
sg24
F63
sbs(g1637
g1445
tp1816
g1
(g14
g3
NtRp1817
(dp1818
g17
F0.5
sg18
I62
sg19
g20
((dp1819
I01
I1
sNI61
stRp1820
sg23
I2
sg24
F63
sbs(S'LookAndShape'
g989
tp1821
g1
(g14
g3
NtRp1822
(dp1823
g17
F0.5
sg18
I53
sg19
g20
((dp1824
I01
I1
sNI52
stRp1825
sg23
I2
sg24
F54
sbs(S'Dimension'
g1221
tp1826
g1
(g14
g3
NtRp1827
(dp1828
g17
F0.5
sg18
I62
sg19
g20
((dp1829
I01
I1
sNI61
stRp1830
sg23
I2
sg24
F63
sbs(g995
S'contains(earthquake)'
p1831
tp1832
g1
(g14
g3
NtRp1833
(dp1834
g17
F0.5
sg18
I62
sg19
g20
((dp1835
I01
I1
sNI61
stRp1836
sg23
I2
sg24
F63
sbs(g9
g1215
tp1837
g1
(g14
g3
NtRp1838
(dp1839
g17
F0.5
sg18
I53
sg19
g20
((dp1840
NI53
stRp1841
sg23
I2
sg24
F54
sbs(g9
S'contains(denmark)'
p1842
tp1843
g1
(g14
g3
NtRp1844
(dp1845
g17
F0.5
sg18
I53
sg19
g20
((dp1846
NI53
stRp1847
sg23
I2
sg24
F54
sbs(g9
g1204
tp1848
g1
(g14
g3
NtRp1849
(dp1850
g17
F0.5
sg18
I53
sg19
g20
((dp1851
NI53
stRp1852
sg23
I2
sg24
F54
sbs(g9
g960
tp1853
g1
(g14
g3
NtRp1854
(dp1855
g17
F0.5
sg18
I53
sg19
g20
((dp1856
NI53
stRp1857
sg23
I2
sg24
F54
sbs(g9
g1711
tp1858
g1
(g14
g3
NtRp1859
(dp1860
g17
F0.5
sg18
I53
sg19
g20
((dp1861
NI53
stRp1862
sg23
I2
sg24
F54
sbs(S'Dimension'
S'contains(bowl)'
p1863
tp1864
g1
(g14
g3
NtRp1865
(dp1866
g17
F0.5
sg18
I62
sg19
g20
((dp1867
I01
I1
sNI61
stRp1868
sg23
I2
sg24
F63
sbs(g759
g852
tp1869
g1
(g14
g3
NtRp1870
(dp1871
g17
F0.5
sg18
I62
sg19
g20
((dp1872
I01
I1
sNI61
stRp1873
sg23
I2
sg24
F63
sbs(S'LookAndShape'
g840
tp1874
g1
(g14
g3
NtRp1875
(dp1876
g17
F0.5
sg18
I53
sg19
g20
((dp1877
I01
I1
sNI52
stRp1878
sg23
I2
sg24
F54
sbs(S'Dimension'
p1879
S'contains(an)'
tp1880
g1
(g14
g3
NtRp1881
(dp1882
g17
F0.5
sg18
I62
sg19
g20
((dp1883
I01
I4
sNI58
stRp1884
sg23
I2
sg24
F63
sbs(S'LookAndShape'
S'contains(man)'
p1885
tp1886
g1
(g14
g3
NtRp1887
(dp1888
g17
F0.5
sg18
I53
sg19
g20
((dp1889
I01
I1
sNI52
stRp1890
sg23
I2
sg24
F54
sbs(g9
g508
tp1891
g1
(g14
g3
NtRp1892
(dp1893
g17
F0.5
sg18
I53
sg19
g20
((dp1894
NI53
stRp1895
sg23
I2
sg24
F54
sbs(g8
g907
tp1896
g1
(g14
g3
NtRp1897
(dp1898
g17
F0.5
sg18
I62
sg19
g20
((dp1899
NI62
stRp1900
sg23
I2
sg24
F63
sbs(S'LookAndShape'
S'contains(plane)'
tp1901
g1
(g14
g3
NtRp1902
(dp1903
g17
F0.5
sg18
I53
sg19
g20
((dp1904
I01
I1
sNI52
stRp1905
sg23
I2
sg24
F54
sbs(g76
g532
tp1906
g1
(g14
g3
NtRp1907
(dp1908
g17
F0.5
sg18
I62
sg19
g20
((dp1909
I01
I1
sNI61
stRp1910
sg23
I2
sg24
F63
sbs(g9
g632
tp1911
g1
(g14
g3
NtRp1912
(dp1913
g17
F0.5
sg18
I53
sg19
g20
((dp1914
NI53
stRp1915
sg23
I2
sg24
F54
sbs(g977
g786
tp1916
g1
(g14
g3
NtRp1917
(dp1918
g17
F0.5
sg18
I62
sg19
g20
((dp1919
I01
I2
sNI60
stRp1920
sg23
I2
sg24
F63
sbs(g1434
S'contains(does)'
tp1921
g1
(g14
g3
NtRp1922
(dp1923
g17
F0.5
sg18
I62
sg19
g20
((dp1924
I01
I1
sNI61
stRp1925
sg23
I2
sg24
F63
sbs(g9
S'contains(planet)'
p1926
tp1927
g1
(g14
g3
NtRp1928
(dp1929
g17
F0.5
sg18
I53
sg19
g20
((dp1930
NI53
stRp1931
sg23
I2
sg24
F54
sbs(g8
g1885
tp1932
g1
(g14
g3
NtRp1933
(dp1934
g17
F0.5
sg18
I62
sg19
g20
((dp1935
NI62
stRp1936
sg23
I2
sg24
F63
sbs(S'LookAndShape'
S'contains(girl)'
p1937
tp1938
g1
(g14
g3
NtRp1939
(dp1940
g17
F0.5
sg18
I53
sg19
g20
((dp1941
I01
I1
sNI52
stRp1942
sg23
I2
sg24
F54
sbs(g9
g514
tp1943
g1
(g14
g3
NtRp1944
(dp1945
g17
F0.5
sg18
I53
sg19
g20
((dp1946
NI53
stRp1947
sg23
I2
sg24
F54
sbs(g538
g881
tp1948
g1
(g14
g3
NtRp1949
(dp1950
g17
F0.5
sg18
I53
sg19
g20
((dp1951
I01
I4
sNI49
stRp1952
sg23
I2
sg24
F54
sbs(g37
g741
tp1953
g1
(g14
g3
NtRp1954
(dp1955
g17
F0.5
sg18
I62
sg19
g20
((dp1956
I01
I1
sNI61
stRp1957
sg23
I2
sg24
F63
sbs(S'Dimension'
p1958
g1654
tp1959
g1
(g14
g3
NtRp1960
(dp1961
g17
F0.5
sg18
I62
sg19
g20
((dp1962
I01
I1
sNI61
stRp1963
sg23
I2
sg24
F63
sbs(g9
S'contains(trees)'
p1964
tp1965
g1
(g14
g3
NtRp1966
(dp1967
g17
F0.5
sg18
I53
sg19
g20
((dp1968
NI53
stRp1969
sg23
I2
sg24
F54
sbs(g8
g729
tp1970
g1
(g14
g3
NtRp1971
(dp1972
g17
F0.5
sg18
I62
sg19
g20
((dp1973
NI62
stRp1974
sg23
I2
sg24
F63
sbs(g1958
g1842
tp1975
g1
(g14
g3
NtRp1976
(dp1977
g17
F0.5
sg18
I62
sg19
g20
((dp1978
I01
I1
sNI61
stRp1979
sg23
I2
sg24
F63
sbs(g8
g1937
tp1980
g1
(g14
g3
NtRp1981
(dp1982
g17
F0.5
sg18
I62
sg19
g20
((dp1983
NI62
stRp1984
sg23
I2
sg24
F63
sbs(g9
g1831
tp1985
g1
(g14
g3
NtRp1986
(dp1987
g17
F0.5
sg18
I53
sg19
g20
((dp1988
NI53
stRp1989
sg23
I2
sg24
F54
sbs(g96
g1926
tp1990
g1
(g14
g3
NtRp1991
(dp1992
g17
F0.5
sg18
I62
sg19
g20
((dp1993
I01
I2
sNI60
stRp1994
sg23
I2
sg24
F63
sbs(g1192
g479
tp1995
g1
(g14
g3
NtRp1996
(dp1997
g17
F0.5
sg18
I62
sg19
g20
((dp1998
I01
I4
sNI58
stRp1999
sg23
I2
sg24
F63
sbs(g8
g828
tp2000
g1
(g14
g3
NtRp2001
(dp2002
g17
F0.5
sg18
I62
sg19
g20
((dp2003
NI62
stRp2004
sg23
I2
sg24
F63
sbs(g9
g1582
tp2005
g1
(g14
g3
NtRp2006
(dp2007
g17
F0.5
sg18
I53
sg19
g20
((dp2008
NI53
stRp2009
sg23
I2
sg24
F54
sbs(g9
g1110
tp2010
g1
(g14
g3
NtRp2011
(dp2012
g17
F0.5
sg18
I53
sg19
g20
((dp2013
NI53
stRp2014
sg23
I2
sg24
F54
sbs(g265
S'contains(strike)'
p2015
tp2016
g1
(g14
g3
NtRp2017
(dp2018
g17
F0.5
sg18
I62
sg19
g20
((dp2019
I01
I1
sNI61
stRp2020
sg23
I2
sg24
F63
sbs(g9
g792
tp2021
g1
(g14
g3
NtRp2022
(dp2023
g17
F0.5
sg18
I53
sg19
g20
((dp2024
NI53
stRp2025
sg23
I2
sg24
F54
sbs(g9
g700
tp2026
g1
(g14
g3
NtRp2027
(dp2028
g17
F0.5
sg18
I53
sg19
g20
((dp2029
NI53
stRp2030
sg23
I2
sg24
F54
sbs(g1266
g780
tp2031
g1
(g14
g3
NtRp2032
(dp2033
g17
F0.5
sg18
I62
sg19
g20
((dp2034
I01
I3
sNI59
stRp2035
sg23
I2
sg24
F63
sbs(g1879
g1593
tp2036
g1
(g14
g3
NtRp2037
(dp2038
g17
F0.5
sg18
I62
sg19
g20
((dp2039
I01
I1
sNI61
stRp2040
sg23
I2
sg24
F63
sbs(g8
g753
tp2041
g1
(g14
g3
NtRp2042
(dp2043
g17
F0.5
sg18
I62
sg19
g20
((dp2044
NI62
stRp2045
sg23
I2
sg24
F63
sbs(g9
g1059
tp2046
g1
(g14
g3
NtRp2047
(dp2048
g17
F0.5
sg18
I53
sg19
g20
((dp2049
NI53
stRp2050
sg23
I2
sg24
F54
sbs(g8
S'contains(afternoon)'
p2051
tp2052
g1
(g14
g3
NtRp2053
(dp2054
g17
F0.5
sg18
I62
sg19
g20
((dp2055
NI62
stRp2056
sg23
I2
sg24
F63
sbs(g56
g1571
tp2057
g1
(g14
g3
NtRp2058
(dp2059
g17
F0.5
sg18
I62
sg19
g20
((dp2060
I01
I5
sNI57
stRp2061
sg23
I2
sg24
F63
sbs(g9
S'contains(johanna)'
p2062
tp2063
g1
(g14
g3
NtRp2064
(dp2065
g17
F0.5
sg18
I53
sg19
g20
((dp2066
NI53
stRp2067
sg23
I2
sg24
F54
sbs(g1248
g620
tp2068
g1
(g14
g3
NtRp2069
(dp2070
g17
F0.5
sg18
I53
sg19
g20
((dp2071
I01
I7
sNI46
stRp2072
sg23
I2
sg24
F54
sbs(g1610
g2062
tp2073
g1
(g14
g3
NtRp2074
(dp2075
g17
F0.5
sg18
I62
sg19
g20
((dp2076
I01
I1
sNI61
stRp2077
sg23
I2
sg24
F63
sbs(g594
g301
tp2078
g1
(g14
g3
NtRp2079
(dp2080
g17
F0.5
sg18
I53
sg19
g20
((dp2081
I01
I1
sNI52
stRp2082
sg23
I2
sg24
F54
sbs(g348
g490
tp2083
g1
(g14
g3
NtRp2084
(dp2085
g17
F0.5
sg18
I53
sg19
g20
((dp2086
I01
I5
sNI48
stRp2087
sg23
I2
sg24
F54
sbs(g186
S'contains(table)'
tp2088
g1
(g14
g3
NtRp2089
(dp2090
g17
F0.5
sg18
I62
sg19
g20
((dp2091
I01
I1
sNI61
stRp2092
sg23
I2
sg24
F63
sbs(g9
g947
tp2093
g1
(g14
g3
NtRp2094
(dp2095
g17
F0.5
sg18
I53
sg19
g20
((dp2096
NI53
stRp2097
sg23
I2
sg24
F54
sbs(g9
g582
tp2098
g1
(g14
g3
NtRp2099
(dp2100
g17
F0.5
sg18
I53
sg19
g20
((dp2101
NI53
stRp2102
sg23
I2
sg24
F54
sbs(g569
g663
tp2103
g1
(g14
g3
NtRp2104
(dp2105
g17
F0.5
sg18
I62
sg19
g20
((dp2106
I01
I1
sNI61
stRp2107
sg23
I2
sg24
F63
sbs(g759
g520
tp2108
g1
(g14
g3
NtRp2109
(dp2110
g17
F0.5
sg18
I62
sg19
g20
((dp2111
I01
I1
sNI61
stRp2112
sg23
I2
sg24
F63
sbs(g9
g1758
tp2113
g1
(g14
g3
NtRp2114
(dp2115
g17
F0.5
sg18
I53
sg19
g20
((dp2116
NI53
stRp2117
sg23
I2
sg24
F54
sbs(g1192
S'contains(the)'
tp2118
g1
(g14
g3
NtRp2119
(dp2120
g17
F0.5
sg18
I62
sg19
g20
((dp2121
I01
I35
sNI27
stRp2122
sg23
I2
sg24
F63
sbs(g601
g551
tp2123
g1
(g14
g3
NtRp2124
(dp2125
g17
F0.5
sg18
I53
sg19
g20
((dp2126
I01
I1
sNI52
stRp2127
sg23
I2
sg24
F54
sbs(g9
g545
tp2128
g1
(g14
g3
NtRp2129
(dp2130
g17
F0.5
sg18
I53
sg19
g20
((dp2131
NI53
stRp2132
sg23
I2
sg24
F54
sbs(g8
g645
tp2133
g1
(g14
g3
NtRp2134
(dp2135
g17
F0.5
sg18
I62
sg19
g20
((dp2136
NI62
stRp2137
sg23
I2
sg24
F63
sbs(g8
g1254
tp2138
g1
(g14
g3
NtRp2139
(dp2140
g17
F0.5
sg18
I62
sg19
g20
((dp2141
NI62
stRp2142
sg23
I2
sg24
F63
sbs(g9
g2015
tp2143
g1
(g14
g3
NtRp2144
(dp2145
g17
F0.5
sg18
I53
sg19
g20
((dp2146
NI53
stRp2147
sg23
I2
sg24
F54
sbs(g9
g241
tp2148
g1
(g14
g3
NtRp2149
(dp2150
g17
F0.5
sg18
I53
sg19
g20
((dp2151
NI53
stRp2152
sg23
I2
sg24
F54
sbs(g117
g496
tp2153
g1
(g14
g3
NtRp2154
(dp2155
g17
F0.5
sg18
I53
sg19
g20
((dp2156
I01
I1
sNI52
stRp2157
sg23
I2
sg24
F54
sbs(g995
g1321
tp2158
g1
(g14
g3
NtRp2159
(dp2160
g17
F0.5
sg18
I62
sg19
g20
((dp2161
I01
I2
sNI60
stRp2162
sg23
I2
sg24
F63
sbs(g9
g1418
tp2163
g1
(g14
g3
NtRp2164
(dp2165
g17
F0.5
sg18
I53
sg19
g20
((dp2166
I01
I33
sNI20
stRp2167
sg23
I2
sg24
F54
sbs(g8
g607
tp2168
g1
(g14
g3
NtRp2169
(dp2170
g17
F0.5
sg18
I62
sg19
g20
((dp2171
NI62
stRp2172
sg23
I2
sg24
F63
sbs(g204
g1402
tp2173
g1
(g14
g3
NtRp2174
(dp2175
g17
F0.5
sg18
I62
sg19
g20
((dp2176
I01
I1
sNI61
stRp2177
sg23
I2
sg24
F63
sbs(S'Dimension'
g1964
tp2178
g1
(g14
g3
NtRp2179
(dp2180
g17
F0.5
sg18
I62
sg19
g20
((dp2181
I01
I1
sNI61
stRp2182
sg23
I2
sg24
F63
sbs(g728
g1555
tp2183
g1
(g14
g3
NtRp2184
(dp2185
g17
F0.5
sg18
I53
sg19
g20
((dp2186
I01
I1
sNI52
stRp2187
sg23
I2
sg24
F54
sbs(g9
g400
tp2188
g1
(g14
g3
NtRp2189
(dp2190
g17
F0.5
sg18
I53
sg19
g20
((dp2191
NI53
stRp2192
sg23
I2
sg24
F54
sbs(g8
g1717
tp2193
g1
(g14
g3
NtRp2194
(dp2195
g17
F0.5
sg18
I62
sg19
g20
((dp2196
NI62
stRp2197
sg23
I2
sg24
F63
sbs(g930
g1680
tp2198
g1
(g14
g3
NtRp2199
(dp2200
g17
F0.5
sg18
I62
sg19
g20
((dp2201
I01
I11
sNI51
stRp2202
sg23
I2
sg24
F63
sbs(g265
g1363
tp2203
g1
(g14
g3
NtRp2204
(dp2205
g17
F0.5
sg18
I62
sg19
g20
((dp2206
I01
I2
sNI60
stRp2207
sg23
I2
sg24
F63
sbs(S'LookAndShape'
g563
tp2208
g1
(g14
g3
NtRp2209
(dp2210
g17
F0.5
sg18
I53
sg19
g20
((dp2211
I01
I1
sNI52
stRp2212
sg23
I2
sg24
F54
sbs(g1309
g149
tp2213
g1
(g14
g3
NtRp2214
(dp2215
g17
F0.5
sg18
I53
sg19
g20
((dp2216
I01
I1
sNI52
stRp2217
sg23
I2
sg24
F54
sbs(g9
g1350
tp2218
g1
(g14
g3
NtRp2219
(dp2220
g17
F0.5
sg18
I53
sg19
g20
((dp2221
NI53
stRp2222
sg23
I2
sg24
F54
sbs(g117
g1795
tp2223
g1
(g14
g3
NtRp2224
(dp2225
g17
F0.5
sg18
I53
sg19
g20
((dp2226
I01
I1
sNI52
stRp2227
sg23
I2
sg24
F54
sbs(g9
g124
tp2228
g1
(g14
g3
NtRp2229
(dp2230
g17
F0.5
sg18
I53
sg19
g20
((dp2231
NI53
stRp2232
sg23
I2
sg24
F54
sbs(S'Dimension'
g434
tp2233
g1
(g14
g3
NtRp2234
(dp2235
g17
F0.5
sg18
I62
sg19
g20
((dp2236
I01
I1
sNI61
stRp2237
sg23
I2
sg24
F63
sbs(g1166
g2051
tp2238
g1
(g14
g3
NtRp2239
(dp2240
g17
F0.5
sg18
I53
sg19
g20
((dp2241
I01
I1
sNI52
stRp2242
sg23
I2
sg24
F54
sbs(g1487
g1599
tp2243
g1
(g14
g3
NtRp2244
(dp2245
g17
F0.5
sg18
I53
sg19
g20
((dp2246
I01
I1
sNI52
stRp2247
sg23
I2
sg24
F54
sbs(g9
g368
tp2248
g1
(g14
g3
NtRp2249
(dp2250
g17
F0.5
sg18
I53
sg19
g20
((dp2251
NI53
stRp2252
sg23
I2
sg24
F54
sbs(S'LookAndShape'
g1303
tp2253
g1
(g14
g3
NtRp2254
(dp2255
g17
F0.5
sg18
I53
sg19
g20
((dp2256
I01
I1
sNI52
stRp2257
sg23
I2
sg24
F54
sbs(g9
g1863
tp2258
g1
(g14
g3
NtRp2259
(dp2260
g17
F0.5
sg18
I53
sg19
g20
((dp2261
NI53
stRp2262
sg23
I2
sg24
F54
sbs(g8
g393
tp2263
g1
(g14
g3
NtRp2264
(dp2265
g17
F0.5
sg18
I62
sg19
g20
((dp2266
NI62
stRp2267
sg23
I2
sg24
F63
sbs(g601
g1648
tp2268
g1
(g14
g3
NtRp2269
(dp2270
g17
F0.5
sg18
I53
sg19
g20
((dp2271
I01
I1
sNI52
stRp2272
sg23
I2
sg24
F54
sbs(g1369
g735
tp2273
g1
(g14
g3
NtRp2274
(dp2275
g17
F0.5
sg18
I62
sg19
g20
((dp2276
I01
I1
sNI61
stRp2277
sg23
I2
sg24
F63
sbssS'_label_probdist'
p2278
g1
(g14
g3
NtRp2279
(dp2280
g17
F0.5
sg18
I115
sg19
g20
((dp2281
g8
I62
sg9
I53
stRp2282
sg23
I2
sg24
F116
sbsb.